
FractalMaster.elf:     file format elf32-avr

Sections:
Idx Name          Size      VMA       LMA       File off  Algn
  0 .data         00000b66  00800100  000082c8  0000835c  2**0
                  CONTENTS, ALLOC, LOAD, DATA
  1 .text         000082c8  00000000  00000000  00000094  2**1
                  CONTENTS, ALLOC, LOAD, READONLY, CODE
  2 .bss          000000c6  00800c66  00800c66  00008ec2  2**0
                  ALLOC
  3 .stab         00012348  00000000  00000000  00008ec4  2**2
                  CONTENTS, READONLY, DEBUGGING
  4 .stabstr      0000b4ab  00000000  00000000  0001b20c  2**0
                  CONTENTS, READONLY, DEBUGGING

Disassembly of section .text:

00000000 <__vectors>:
       0:	0c 94 46 00 	jmp	0x8c	; 0x8c <__ctors_end>
       4:	0c 94 83 1d 	jmp	0x3b06	; 0x3b06 <__vector_1>
       8:	0c 94 65 00 	jmp	0xca	; 0xca <__bad_interrupt>
       c:	0c 94 65 00 	jmp	0xca	; 0xca <__bad_interrupt>
      10:	0c 94 65 00 	jmp	0xca	; 0xca <__bad_interrupt>
      14:	0c 94 65 00 	jmp	0xca	; 0xca <__bad_interrupt>
      18:	0c 94 65 00 	jmp	0xca	; 0xca <__bad_interrupt>
      1c:	0c 94 65 00 	jmp	0xca	; 0xca <__bad_interrupt>
      20:	0c 94 65 00 	jmp	0xca	; 0xca <__bad_interrupt>
      24:	0c 94 65 00 	jmp	0xca	; 0xca <__bad_interrupt>
      28:	0c 94 65 00 	jmp	0xca	; 0xca <__bad_interrupt>
      2c:	0c 94 65 00 	jmp	0xca	; 0xca <__bad_interrupt>
      30:	0c 94 65 00 	jmp	0xca	; 0xca <__bad_interrupt>
      34:	0c 94 65 00 	jmp	0xca	; 0xca <__bad_interrupt>
      38:	0c 94 65 00 	jmp	0xca	; 0xca <__bad_interrupt>
      3c:	0c 94 65 00 	jmp	0xca	; 0xca <__bad_interrupt>
      40:	0c 94 39 1d 	jmp	0x3a72	; 0x3a72 <__vector_16>
      44:	0c 94 b7 24 	jmp	0x496e	; 0x496e <__vector_17>
      48:	0c 94 8f 29 	jmp	0x531e	; 0x531e <__vector_18>
      4c:	0c 94 ec 29 	jmp	0x53d8	; 0x53d8 <__vector_19>
      50:	0c 94 5e 29 	jmp	0x52bc	; 0x52bc <__vector_20>
      54:	0c 94 65 00 	jmp	0xca	; 0xca <__bad_interrupt>
      58:	0c 94 65 00 	jmp	0xca	; 0xca <__bad_interrupt>
      5c:	0c 94 65 00 	jmp	0xca	; 0xca <__bad_interrupt>
      60:	0c 94 65 00 	jmp	0xca	; 0xca <__bad_interrupt>
      64:	0c 94 65 00 	jmp	0xca	; 0xca <__bad_interrupt>
      68:	0c 94 4b 22 	jmp	0x4496	; 0x4496 <__vector_26>
      6c:	0c 94 65 00 	jmp	0xca	; 0xca <__bad_interrupt>
      70:	0c 94 65 00 	jmp	0xca	; 0xca <__bad_interrupt>
      74:	0c 94 b1 1d 	jmp	0x3b62	; 0x3b62 <__vector_29>
      78:	0c 94 bd 29 	jmp	0x537a	; 0x537a <__vector_30>
      7c:	0c 94 2b 2a 	jmp	0x5456	; 0x5456 <__vector_31>
      80:	0c 94 65 00 	jmp	0xca	; 0xca <__bad_interrupt>
      84:	0c 94 65 00 	jmp	0xca	; 0xca <__bad_interrupt>
      88:	0c 94 65 00 	jmp	0xca	; 0xca <__bad_interrupt>

0000008c <__ctors_end>:
      8c:	11 24       	eor	r1, r1
      8e:	1f be       	out	0x3f, r1	; 63
      90:	cf ef       	ldi	r28, 0xFF	; 255
      92:	d0 e1       	ldi	r29, 0x10	; 16
      94:	de bf       	out	0x3e, r29	; 62
      96:	cd bf       	out	0x3d, r28	; 61

00000098 <__do_copy_data>:
      98:	1c e0       	ldi	r17, 0x0C	; 12
      9a:	a0 e0       	ldi	r26, 0x00	; 0
      9c:	b1 e0       	ldi	r27, 0x01	; 1
      9e:	e8 ec       	ldi	r30, 0xC8	; 200
      a0:	f2 e8       	ldi	r31, 0x82	; 130
      a2:	00 e0       	ldi	r16, 0x00	; 0
      a4:	0b bf       	out	0x3b, r16	; 59
      a6:	02 c0       	rjmp	.+4      	; 0xac <__do_copy_data+0x14>
      a8:	07 90       	elpm	r0, Z+
      aa:	0d 92       	st	X+, r0
      ac:	a6 36       	cpi	r26, 0x66	; 102
      ae:	b1 07       	cpc	r27, r17
      b0:	d9 f7       	brne	.-10     	; 0xa8 <__do_copy_data+0x10>

000000b2 <__do_clear_bss>:
      b2:	1d e0       	ldi	r17, 0x0D	; 13
      b4:	a6 e6       	ldi	r26, 0x66	; 102
      b6:	bc e0       	ldi	r27, 0x0C	; 12
      b8:	01 c0       	rjmp	.+2      	; 0xbc <.do_clear_bss_start>

000000ba <.do_clear_bss_loop>:
      ba:	1d 92       	st	X+, r1

000000bc <.do_clear_bss_start>:
      bc:	ac 32       	cpi	r26, 0x2C	; 44
      be:	b1 07       	cpc	r27, r17
      c0:	e1 f7       	brne	.-8      	; 0xba <.do_clear_bss_loop>
      c2:	0e 94 37 2f 	call	0x5e6e	; 0x5e6e <main>
      c6:	0c 94 62 41 	jmp	0x82c4	; 0x82c4 <_exit>

000000ca <__bad_interrupt>:
      ca:	0c 94 00 00 	jmp	0	; 0x0 <__vectors>

000000ce <DelayMS>:
      ce:	dc 01       	movw	r26, r24
      d0:	cb 01       	movw	r24, r22
      d2:	e0 91 10 01 	lds	r30, 0x0110
      d6:	f0 91 11 01 	lds	r31, 0x0111
      da:	09 95       	icall
      dc:	08 95       	ret

000000de <MFSetPortDirect>:
** 修订人:
** 修订日期:
**------------------------------------------------------------------------------------------------------------------------
*************************************************************************************************************************/
void MFSetPortDirect(uint32 inData)
{
      de:	dc 01       	movw	r26, r24
      e0:	cb 01       	movw	r24, r22
	gpio_control.pSetGpioDdr((uint16)inData);
      e2:	e0 91 3c 07 	lds	r30, 0x073C
      e6:	f0 91 3d 07 	lds	r31, 0x073D
      ea:	09 95       	icall
}
      ec:	08 95       	ret

000000ee <MFGetDigiInput>:
** 修订人:
** 修订日期:
**------------------------------------------------------------------------------------------------------------------------
*************************************************************************************************************************/
int32 MFGetDigiInput(int32 inID)
{
      ee:	df 93       	push	r29
      f0:	cf 93       	push	r28
      f2:	0f 92       	push	r0
      f4:	cd b7       	in	r28, 0x3d	; 61
      f6:	de b7       	in	r29, 0x3e	; 62
      f8:	86 2f       	mov	r24, r22
	uint8 temp_value = 0;
      fa:	19 82       	std	Y+1, r1	; 0x01
	gpio_control.pGetInputFilteBit((uint8)inID, &temp_value);
      fc:	e0 91 4a 07 	lds	r30, 0x074A
     100:	f0 91 4b 07 	lds	r31, 0x074B
     104:	be 01       	movw	r22, r28
     106:	6f 5f       	subi	r22, 0xFF	; 255
     108:	7f 4f       	sbci	r23, 0xFF	; 255
     10a:	09 95       	icall
     10c:	69 81       	ldd	r22, Y+1	; 0x01
	return (int32)temp_value;
}
     10e:	70 e0       	ldi	r23, 0x00	; 0
     110:	80 e0       	ldi	r24, 0x00	; 0
     112:	90 e0       	ldi	r25, 0x00	; 0
     114:	0f 90       	pop	r0
     116:	cf 91       	pop	r28
     118:	df 91       	pop	r29
     11a:	08 95       	ret

0000011c <MFDigiOutput>:
** 修订人:
** 修订日期:
**------------------------------------------------------------------------------------------------------------------------
*************************************************************************************************************************/
void MFDigiOutput(int32 inID,int32 inVal)
{
     11c:	86 2f       	mov	r24, r22
	gpio_control.pSetOutputBit((uint8)inID, (uint8)inVal);
     11e:	e0 91 42 07 	lds	r30, 0x0742
     122:	f0 91 43 07 	lds	r31, 0x0743
     126:	62 2f       	mov	r22, r18
     128:	09 95       	icall
}
     12a:	08 95       	ret

0000012c <MFGetAD>:
** 修订人:
** 修订日期:
**------------------------------------------------------------------------------------------------------------------------
*************************************************************************************************************************/
int32 MFGetAD(int32 inID)
{
     12c:	df 93       	push	r29
     12e:	cf 93       	push	r28
     130:	00 d0       	rcall	.+0      	; 0x132 <MFGetAD+0x6>
     132:	cd b7       	in	r28, 0x3d	; 61
     134:	de b7       	in	r29, 0x3e	; 62
     136:	86 2f       	mov	r24, r22
	uint16 temp_value = 0;
     138:	1a 82       	std	Y+2, r1	; 0x02
     13a:	19 82       	std	Y+1, r1	; 0x01
	adc_control.pGetValue((uint8)inID, &temp_value);
     13c:	e0 91 a9 06 	lds	r30, 0x06A9
     140:	f0 91 aa 06 	lds	r31, 0x06AA
     144:	be 01       	movw	r22, r28
     146:	6f 5f       	subi	r22, 0xFF	; 255
     148:	7f 4f       	sbci	r23, 0xFF	; 255
     14a:	09 95       	icall
     14c:	89 81       	ldd	r24, Y+1	; 0x01
     14e:	9a 81       	ldd	r25, Y+2	; 0x02
	return (int32)temp_value;
}
     150:	bc 01       	movw	r22, r24
     152:	80 e0       	ldi	r24, 0x00	; 0
     154:	90 e0       	ldi	r25, 0x00	; 0
     156:	0f 90       	pop	r0
     158:	0f 90       	pop	r0
     15a:	cf 91       	pop	r28
     15c:	df 91       	pop	r29
     15e:	08 95       	ret

00000160 <MFSetServoMode>:
** 修订人:
** 修订日期:
**------------------------------------------------------------------------------------------------------------------------
*************************************************************************************************************************/
void MFSetServoMode(int32 inID,int32 inMode)
{
     160:	86 2f       	mov	r24, r22
	servo_control.pSetMode((uint8)inID, (uint8)inMode);
     162:	e0 91 c4 03 	lds	r30, 0x03C4
     166:	f0 91 c5 03 	lds	r31, 0x03C5
     16a:	62 2f       	mov	r22, r18
     16c:	09 95       	icall
}
     16e:	08 95       	ret

00000170 <MFGetServoPos>:
** 修订人:
** 修订日期:
**------------------------------------------------------------------------------------------------------------------------
*************************************************************************************************************************/
int32 MFGetServoPos(int32 inID)
{
     170:	df 93       	push	r29
     172:	cf 93       	push	r28
     174:	00 d0       	rcall	.+0      	; 0x176 <MFGetServoPos+0x6>
     176:	cd b7       	in	r28, 0x3d	; 61
     178:	de b7       	in	r29, 0x3e	; 62
     17a:	86 2f       	mov	r24, r22
	uint16 temp_value = 0;
     17c:	1a 82       	std	Y+2, r1	; 0x02
     17e:	19 82       	std	Y+1, r1	; 0x01

	servo_control.pGetPosition((uint8)inID, &temp_value);
     180:	e0 91 d8 03 	lds	r30, 0x03D8
     184:	f0 91 d9 03 	lds	r31, 0x03D9
     188:	be 01       	movw	r22, r28
     18a:	6f 5f       	subi	r22, 0xFF	; 255
     18c:	7f 4f       	sbci	r23, 0xFF	; 255
     18e:	09 95       	icall
     190:	89 81       	ldd	r24, Y+1	; 0x01
     192:	9a 81       	ldd	r25, Y+2	; 0x02
	return (int32)temp_value;
}
     194:	bc 01       	movw	r22, r24
     196:	80 e0       	ldi	r24, 0x00	; 0
     198:	90 e0       	ldi	r25, 0x00	; 0
     19a:	0f 90       	pop	r0
     19c:	0f 90       	pop	r0
     19e:	cf 91       	pop	r28
     1a0:	df 91       	pop	r29
     1a2:	08 95       	ret

000001a4 <MFServoAction>:
**------------------------------------------------------------------------------------------------------------------------
*************************************************************************************************************************/
void MFServoAction()
{
	// servo_control.pAction();
	servo_control.pActionSync();
     1a4:	e0 91 e0 03 	lds	r30, 0x03E0
     1a8:	f0 91 e1 03 	lds	r31, 0x03E1
     1ac:	09 95       	icall
	servo_update_count = 0;
     1ae:	10 92 66 0c 	sts	0x0C66, r1
}
     1b2:	08 95       	ret

000001b4 <MFSetServoRotaSpd>:
** 修订人:
** 修订日期:
**------------------------------------------------------------------------------------------------------------------------
*************************************************************************************************************************/
void MFSetServoRotaSpd(int32 inID,int32 inSpeed)
{
     1b4:	0f 93       	push	r16
     1b6:	1f 93       	push	r17
     1b8:	89 01       	movw	r16, r18
     1ba:	9a 01       	movw	r18, r20
	if(inSpeed >= 0)
     1bc:	37 fd       	sbrc	r19, 7
     1be:	08 c0       	rjmp	.+16     	; 0x1d0 <MFSetServoRotaSpd+0x1c>
	{
		// servo_control.pSetSyncVelocity((uint8)inID, 0x00, (uint16)inSpeed);
		// servo_control.pSetRegVelocity((uint8)inID, 0x00, (uint16)inSpeed);
		servo_control.pSetVelocity((uint8)inID, 0x00, (uint16)inSpeed);
     1c0:	e0 91 ce 03 	lds	r30, 0x03CE
     1c4:	f0 91 cf 03 	lds	r31, 0x03CF
     1c8:	86 2f       	mov	r24, r22
     1ca:	60 e0       	ldi	r22, 0x00	; 0
     1cc:	a8 01       	movw	r20, r16
     1ce:	0a c0       	rjmp	.+20     	; 0x1e4 <MFSetServoRotaSpd+0x30>
	}
	else
	{
		// servo_control.pSetSyncVelocity((uint8)inID, 0x01, (uint16)(-inSpeed));
		// servo_control.pSetRegVelocity((uint8)inID, 0x01, (uint16)(-inSpeed));
		servo_control.pSetVelocity((uint8)inID, 0x01, (uint16)(-inSpeed));
     1d0:	44 27       	eor	r20, r20
     1d2:	55 27       	eor	r21, r21
     1d4:	40 1b       	sub	r20, r16
     1d6:	51 0b       	sbc	r21, r17
     1d8:	e0 91 ce 03 	lds	r30, 0x03CE
     1dc:	f0 91 cf 03 	lds	r31, 0x03CF
     1e0:	86 2f       	mov	r24, r22
     1e2:	61 e0       	ldi	r22, 0x01	; 1
     1e4:	09 95       	icall
	}
	
	servo_update_count++;
     1e6:	80 91 66 0c 	lds	r24, 0x0C66
     1ea:	8f 5f       	subi	r24, 0xFF	; 255
     1ec:	80 93 66 0c 	sts	0x0C66, r24
	if (servo_update_count > 16)
     1f0:	81 31       	cpi	r24, 0x11	; 17
     1f2:	40 f0       	brcs	.+16     	; 0x204 <MFSetServoRotaSpd+0x50>
	{
		MFServoAction();
     1f4:	0e 94 d2 00 	call	0x1a4	; 0x1a4 <MFServoAction>
		servo_update_count = 0;
     1f8:	10 92 66 0c 	sts	0x0C66, r1
    milliseconds can be achieved.
 */
void
_delay_loop_2(uint16_t __count)
{
	__asm__ volatile (
     1fc:	80 e9       	ldi	r24, 0x90	; 144
     1fe:	91 e0       	ldi	r25, 0x01	; 1
     200:	01 97       	sbiw	r24, 0x01	; 1
     202:	f1 f7       	brne	.-4      	; 0x200 <MFSetServoRotaSpd+0x4c>
		_delay_us(100);
	}

}
     204:	1f 91       	pop	r17
     206:	0f 91       	pop	r16
     208:	08 95       	ret

0000020a <MFSetServoPos>:
** 修订人:
** 修订日期:
**------------------------------------------------------------------------------------------------------------------------
*************************************************************************************************************************/
void MFSetServoPos(int32 inID,int32 inPos,int32 inSpeed)
{
     20a:	ef 92       	push	r14
     20c:	ff 92       	push	r15
     20e:	0f 93       	push	r16
     210:	1f 93       	push	r17
     212:	86 2f       	mov	r24, r22
	//servo_control.pSetSyncPosition((uint8)inID, (uint16)inPos, (uint16)inSpeed);
	servo_control.pSetPosition((uint8)inID, (uint16)inPos, (uint16)inSpeed);
     214:	e0 91 c8 03 	lds	r30, 0x03C8
     218:	f0 91 c9 03 	lds	r31, 0x03C9
     21c:	b9 01       	movw	r22, r18
     21e:	a7 01       	movw	r20, r14
     220:	09 95       	icall
	servo_update_count++;
     222:	80 91 66 0c 	lds	r24, 0x0C66
     226:	8f 5f       	subi	r24, 0xFF	; 255
     228:	80 93 66 0c 	sts	0x0C66, r24
	if (servo_update_count > 16)
     22c:	81 31       	cpi	r24, 0x11	; 17
     22e:	40 f0       	brcs	.+16     	; 0x240 <MFSetServoPos+0x36>
	{
		MFServoAction();
     230:	0e 94 d2 00 	call	0x1a4	; 0x1a4 <MFServoAction>
		servo_update_count = 0;
     234:	10 92 66 0c 	sts	0x0C66, r1
     238:	80 ed       	ldi	r24, 0xD0	; 208
     23a:	97 e0       	ldi	r25, 0x07	; 7
     23c:	01 97       	sbiw	r24, 0x01	; 1
     23e:	f1 f7       	brne	.-4      	; 0x23c <MFSetServoPos+0x32>
		_delay_us(500);
	}
}
     240:	1f 91       	pop	r17
     242:	0f 91       	pop	r16
     244:	ff 90       	pop	r15
     246:	ef 90       	pop	r14
     248:	08 95       	ret

0000024a <MFInitServoMapping>:
** 修订日期:
**------------------------------------------------------------------------------------------------------------------------
*************************************************************************************************************************/
void MFInitServoMapping(uint8* p_mapping, uint8 amount)
{
	servo_control.pInitNodeBuffer(p_mapping, amount);
     24a:	e0 91 e2 03 	lds	r30, 0x03E2
     24e:	f0 91 e3 03 	lds	r31, 0x03E3
     252:	09 95       	icall
}
     254:	08 95       	ret

00000256 <Uart0SetDCB>:
//以下是小螃蟹个人写的函数
void Uart0SetDCB(uint8 mode, uint32 baud){
	uart0_test.pSetBaudRate(mode,baud);
     256:	e0 91 46 08 	lds	r30, 0x0846
     25a:	f0 91 47 08 	lds	r31, 0x0847
     25e:	09 95       	icall
}
     260:	08 95       	ret

00000262 <Uart0Send>:
void Uart0Send(uint8 val){
	uart0_test.pWriteTxBuffer(val);
     262:	e0 91 4c 08 	lds	r30, 0x084C
     266:	f0 91 4d 08 	lds	r31, 0x084D
     26a:	09 95       	icall
	uart0_test.pSendTxBuffer();
     26c:	e0 91 4e 08 	lds	r30, 0x084E
     270:	f0 91 4f 08 	lds	r31, 0x084F
     274:	09 95       	icall
}
     276:	08 95       	ret

00000278 <Uart1SetDCB>:
void Uart1SetDCB(uint8 mode, uint32 baud){
	uart1_test.pSetBaudRate(mode,baud);
     278:	e0 91 67 08 	lds	r30, 0x0867
     27c:	f0 91 68 08 	lds	r31, 0x0868
     280:	09 95       	icall
}
     282:	08 95       	ret

00000284 <Uart1Send>:
void Uart1Send(uint8 val){
	uart1_test.pWriteTxBuffer(val);
     284:	e0 91 6d 08 	lds	r30, 0x086D
     288:	f0 91 6e 08 	lds	r31, 0x086E
     28c:	09 95       	icall
	uart1_test.pSendTxBuffer();
     28e:	e0 91 6f 08 	lds	r30, 0x086F
     292:	f0 91 70 08 	lds	r31, 0x0870
     296:	09 95       	icall
}
     298:	08 95       	ret

0000029a <MFInit>:
** 修订日期:
**------------------------------------------------------------------------------------------------------------------------
*************************************************************************************************************************/
void MFInit(void)
{
	InitDevices();
     29a:	0e 94 fd 3e 	call	0x7dfa	; 0x7dfa <InitDevices>
}
     29e:	08 95       	ret

000002a0 <ClearSystemClock>:
** 修订日期:
**------------------------------------------------------------------------------------------------------------------------
*************************************************************************************************************************/
static void ClearSystemClock(void)
{
	clock_control.counter = 0;
     2a0:	10 92 06 01 	sts	0x0106, r1
     2a4:	10 92 07 01 	sts	0x0107, r1
     2a8:	10 92 08 01 	sts	0x0108, r1
     2ac:	10 92 09 01 	sts	0x0109, r1
}
     2b0:	08 95       	ret

000002b2 <GetSystemClock>:
** 修订人:
** 修订日期:
**------------------------------------------------------------------------------------------------------------------------
*************************************************************************************************************************/
static void GetSystemClock(uint32* p_val)
{
     2b2:	fc 01       	movw	r30, r24
	*p_val = clock_control.counter;
     2b4:	80 91 06 01 	lds	r24, 0x0106
     2b8:	90 91 07 01 	lds	r25, 0x0107
     2bc:	a0 91 08 01 	lds	r26, 0x0108
     2c0:	b0 91 09 01 	lds	r27, 0x0109
     2c4:	80 83       	st	Z, r24
     2c6:	91 83       	std	Z+1, r25	; 0x01
     2c8:	a2 83       	std	Z+2, r26	; 0x02
     2ca:	b3 83       	std	Z+3, r27	; 0x03
}
     2cc:	08 95       	ret

000002ce <DelaySystemMs>:
** 修订日期:
**------------------------------------------------------------------------------------------------------------------------
*************************************************************************************************************************/
static void DelaySystemMs(uint16 val)
{
	clock_control.delay_counter = 0;
     2ce:	10 92 0b 01 	sts	0x010B, r1
     2d2:	10 92 0a 01 	sts	0x010A, r1

	while (clock_control.delay_counter <= (val >> 1))
     2d6:	9c 01       	movw	r18, r24
     2d8:	36 95       	lsr	r19
     2da:	27 95       	ror	r18
    can be achieved.
*/
void
_delay_loop_1(uint8_t __count)
{
	__asm__ volatile (
     2dc:	45 e3       	ldi	r20, 0x35	; 53
     2de:	03 c0       	rjmp	.+6      	; 0x2e6 <DelaySystemMs+0x18>
     2e0:	84 2f       	mov	r24, r20
     2e2:	8a 95       	dec	r24
     2e4:	f1 f7       	brne	.-4      	; 0x2e2 <DelaySystemMs+0x14>
     2e6:	80 91 0a 01 	lds	r24, 0x010A
     2ea:	90 91 0b 01 	lds	r25, 0x010B
     2ee:	28 17       	cp	r18, r24
     2f0:	39 07       	cpc	r19, r25
     2f2:	b0 f7       	brcc	.-20     	; 0x2e0 <DelaySystemMs+0x12>
	{
		_delay_us(10);
	}
}
     2f4:	08 95       	ret

000002f6 <DelaySystemS>:
** 修订人:
** 修订日期:
**------------------------------------------------------------------------------------------------------------------------
*************************************************************************************************************************/
static void DelaySystemS(uint8 val)
{
     2f6:	0f 93       	push	r16
     2f8:	1f 93       	push	r17
	uint32 temp_value = 0;

	temp_value = clock_control.counter;				// 记录当前系统时间
     2fa:	40 91 06 01 	lds	r20, 0x0106
     2fe:	50 91 07 01 	lds	r21, 0x0107
     302:	60 91 08 01 	lds	r22, 0x0108
     306:	70 91 09 01 	lds	r23, 0x0109
	temp_value += (val * 500);								// 计算延时后的系统时间
     30a:	90 e0       	ldi	r25, 0x00	; 0
     30c:	24 ef       	ldi	r18, 0xF4	; 244
     30e:	31 e0       	ldi	r19, 0x01	; 1
     310:	fc 01       	movw	r30, r24
     312:	e2 9f       	mul	r30, r18
     314:	c0 01       	movw	r24, r0
     316:	e3 9f       	mul	r30, r19
     318:	90 0d       	add	r25, r0
     31a:	f2 9f       	mul	r31, r18
     31c:	90 0d       	add	r25, r0
     31e:	11 24       	eor	r1, r1
     320:	8c 01       	movw	r16, r24
     322:	22 27       	eor	r18, r18
     324:	17 fd       	sbrc	r17, 7
     326:	20 95       	com	r18
     328:	32 2f       	mov	r19, r18
     32a:	04 0f       	add	r16, r20
     32c:	15 1f       	adc	r17, r21
     32e:	26 1f       	adc	r18, r22
     330:	37 1f       	adc	r19, r23

	while (clock_control.counter < temp_value);		// 时间没有到则等待;
     332:	80 91 06 01 	lds	r24, 0x0106
     336:	90 91 07 01 	lds	r25, 0x0107
     33a:	a0 91 08 01 	lds	r26, 0x0108
     33e:	b0 91 09 01 	lds	r27, 0x0109
     342:	80 17       	cp	r24, r16
     344:	91 07       	cpc	r25, r17
     346:	a2 07       	cpc	r26, r18
     348:	b3 07       	cpc	r27, r19
     34a:	98 f3       	brcs	.-26     	; 0x332 <DelaySystemS+0x3c>
}
     34c:	1f 91       	pop	r17
     34e:	0f 91       	pop	r16
     350:	08 95       	ret

00000352 <ServeSystemClock>:
** 修订日期:
**------------------------------------------------------------------------------------------------------------------------
*************************************************************************************************************************/
void ServeSystemClock(void)
{
	clock_control.counter++;
     352:	80 91 06 01 	lds	r24, 0x0106
     356:	90 91 07 01 	lds	r25, 0x0107
     35a:	a0 91 08 01 	lds	r26, 0x0108
     35e:	b0 91 09 01 	lds	r27, 0x0109
     362:	01 96       	adiw	r24, 0x01	; 1
     364:	a1 1d       	adc	r26, r1
     366:	b1 1d       	adc	r27, r1
     368:	80 93 06 01 	sts	0x0106, r24
     36c:	90 93 07 01 	sts	0x0107, r25
     370:	a0 93 08 01 	sts	0x0108, r26
     374:	b0 93 09 01 	sts	0x0109, r27
	clock_control.delay_counter++;
     378:	80 91 0a 01 	lds	r24, 0x010A
     37c:	90 91 0b 01 	lds	r25, 0x010B
     380:	01 96       	adiw	r24, 0x01	; 1
     382:	90 93 0b 01 	sts	0x010B, r25
     386:	80 93 0a 01 	sts	0x010A, r24
}
     38a:	08 95       	ret

0000038c <FillSlaveSendStructByArray>:
** 修订日期:			2010-03-09
**------------------------------------------------------------------------------------------------------------------------
*************************************************************************************************************************/

static void FillSlaveSendStructByArray(COMMUNICATION_PORT_STRUCT* p_communication_str,uint8 * p_functional,uint8 * p_parameter )
{
     38c:	cf 93       	push	r28
     38e:	df 93       	push	r29
     390:	ec 01       	movw	r28, r24
     392:	9b 01       	movw	r18, r22
	uint8 count = 0;

	p_communication_str->str_stack.str_slave_send.device_id = p_communication_str->local_id;
     394:	fc 01       	movw	r30, r24
     396:	e4 56       	subi	r30, 0x64	; 100
     398:	ff 4f       	sbci	r31, 0xFF	; 255
     39a:	c1 5b       	subi	r28, 0xB1	; 177
     39c:	de 4f       	sbci	r29, 0xFE	; 254
     39e:	88 81       	ld	r24, Y
     3a0:	80 83       	st	Z, r24
	p_communication_str->str_stack.str_slave_send.parameter_length = p_functional[0];
     3a2:	cf 5a       	subi	r28, 0xAF	; 175
     3a4:	d0 40       	sbci	r29, 0x00	; 0
     3a6:	fb 01       	movw	r30, r22
     3a8:	80 81       	ld	r24, Z
     3aa:	88 83       	st	Y, r24
	p_communication_str->str_stack.str_slave_send.functional_unit = p_functional[1];
     3ac:	23 97       	sbiw	r28, 0x03	; 3
     3ae:	81 81       	ldd	r24, Z+1	; 0x01
     3b0:	89 93       	st	Y+, r24
	p_communication_str->str_stack.str_slave_send.method_code = p_functional[2];
     3b2:	82 81       	ldd	r24, Z+2	; 0x02
     3b4:	88 83       	st	Y, r24
     3b6:	ce 59       	subi	r28, 0x9E	; 158
     3b8:	d0 40       	sbci	r29, 0x00	; 0
     3ba:	90 e0       	ldi	r25, 0x00	; 0
     3bc:	0c c0       	rjmp	.+24     	; 0x3d6 <FillSlaveSendStructByArray+0x4a>

	for(count = 0; count < p_functional[0]; count++)
	{
		p_communication_str->str_stack.str_slave_send.parameter[count] = p_parameter[count];
     3be:	e9 2f       	mov	r30, r25
     3c0:	f0 e0       	ldi	r31, 0x00	; 0
     3c2:	de 01       	movw	r26, r28
     3c4:	ae 0f       	add	r26, r30
     3c6:	bf 1f       	adc	r27, r31
     3c8:	af 55       	subi	r26, 0x5F	; 95
     3ca:	bf 4f       	sbci	r27, 0xFF	; 255
     3cc:	e4 0f       	add	r30, r20
     3ce:	f5 1f       	adc	r31, r21
     3d0:	80 81       	ld	r24, Z
     3d2:	8c 93       	st	X, r24
	p_communication_str->str_stack.str_slave_send.device_id = p_communication_str->local_id;
	p_communication_str->str_stack.str_slave_send.parameter_length = p_functional[0];
	p_communication_str->str_stack.str_slave_send.functional_unit = p_functional[1];
	p_communication_str->str_stack.str_slave_send.method_code = p_functional[2];

	for(count = 0; count < p_functional[0]; count++)
     3d4:	9f 5f       	subi	r25, 0xFF	; 255
     3d6:	f9 01       	movw	r30, r18
     3d8:	80 81       	ld	r24, Z
     3da:	98 17       	cp	r25, r24
     3dc:	80 f3       	brcs	.-32     	; 0x3be <FillSlaveSendStructByArray+0x32>
	{
		p_communication_str->str_stack.str_slave_send.parameter[count] = p_parameter[count];
	}

	p_communication_str->str_stack.str_slave_send.state_byte = SetRegMask(p_communication_str->state, ERR_MASK, ERR_OK);	// 返回状态标志
     3de:	fe 01       	movw	r30, r28
     3e0:	ec 5a       	subi	r30, 0xAC	; 172
     3e2:	fe 4f       	sbci	r31, 0xFE	; 254
     3e4:	80 81       	ld	r24, Z
     3e6:	80 7c       	andi	r24, 0xC0	; 192
     3e8:	80 83       	st	Z, r24
     3ea:	c1 56       	subi	r28, 0x61	; 97
     3ec:	df 4f       	sbci	r29, 0xFF	; 255
     3ee:	88 83       	st	Y, r24
}
     3f0:	df 91       	pop	r29
     3f2:	cf 91       	pop	r28
     3f4:	08 95       	ret

000003f6 <GetAdcSamplingAtTimes>:
** 修订人:
** 修订日期:
**------------------------------------------------------------------------------------------------------------------------
*************************************************************************************************************************/
uint8 GetAdcSamplingAtTimes(COMMUNICATION_PORT_STRUCT* p_communication_str,uint8 adc_id)
{
     3f6:	0f 93       	push	r16
     3f8:	1f 93       	push	r17
     3fa:	df 93       	push	r29
     3fc:	cf 93       	push	r28
     3fe:	cd b7       	in	r28, 0x3d	; 61
     400:	de b7       	in	r29, 0x3e	; 62
     402:	63 97       	sbiw	r28, 0x13	; 19
     404:	0f b6       	in	r0, 0x3f	; 63
     406:	f8 94       	cli
     408:	de bf       	out	0x3e, r29	; 62
     40a:	0f be       	out	0x3f, r0	; 63
     40c:	cd bf       	out	0x3d, r28	; 61
     40e:	8c 01       	movw	r16, r24
	uint8 temp_8bit_parameter[8];						// 参数缓冲区
	uint16 temp_16bit_parameter[4];						// 参数缓冲区
	uint8 functional[3];
	uint8 temp_parameter_length = 3;

	functional[0]= temp_parameter_length; 								//数据位长度
     410:	83 e0       	ldi	r24, 0x03	; 3
     412:	89 83       	std	Y+1, r24	; 0x01
	functional[1] = sayn_communications_control.adc_single_sayn_functional;
     414:	80 91 18 01 	lds	r24, 0x0118
     418:	8a 83       	std	Y+2, r24	; 0x02
	functional[2] = sayn_communications_control.adc_single_sayn_method;
     41a:	80 91 19 01 	lds	r24, 0x0119
     41e:	8b 83       	std	Y+3, r24	; 0x03
	temp_8bit_parameter[0] = (sayn_communications_control.adc_single_sayn_parameter[0]);
     420:	80 91 1b 01 	lds	r24, 0x011B
     424:	8c 83       	std	Y+4, r24	; 0x04
	temp_8bit_parameter[7] = adc_control.pGetValue(temp_8bit_parameter[0], &temp_16bit_parameter[0]);
     426:	e0 91 a9 06 	lds	r30, 0x06A9
     42a:	f0 91 aa 06 	lds	r31, 0x06AA
     42e:	be 01       	movw	r22, r28
     430:	64 5f       	subi	r22, 0xF4	; 244
     432:	7f 4f       	sbci	r23, 0xFF	; 255
     434:	09 95       	icall
     436:	28 2f       	mov	r18, r24

	if(TRUE == temp_8bit_parameter[7])											// 读取成功
     438:	81 30       	cpi	r24, 0x01	; 1
     43a:	11 f0       	breq	.+4      	; 0x440 <GetAdcSamplingAtTimes+0x4a>
     43c:	89 e0       	ldi	r24, 0x09	; 9
     43e:	1a c0       	rjmp	.+52     	; 0x474 <GetAdcSamplingAtTimes+0x7e>
	{
		Out16(temp_8bit_parameter[2], temp_8bit_parameter[1], temp_16bit_parameter[0]);
     440:	9c 85       	ldd	r25, Y+12	; 0x0c
     442:	8d 85       	ldd	r24, Y+13	; 0x0d

	functional[0]= temp_parameter_length; 								//数据位长度
	functional[1] = sayn_communications_control.adc_single_sayn_functional;
	functional[2] = sayn_communications_control.adc_single_sayn_method;
	temp_8bit_parameter[0] = (sayn_communications_control.adc_single_sayn_parameter[0]);
	temp_8bit_parameter[7] = adc_control.pGetValue(temp_8bit_parameter[0], &temp_16bit_parameter[0]);
     444:	2b 87       	std	Y+11, r18	; 0x0b

	if(TRUE == temp_8bit_parameter[7])											// 读取成功
	{
		Out16(temp_8bit_parameter[2], temp_8bit_parameter[1], temp_16bit_parameter[0]);
     446:	8d 83       	std	Y+5, r24	; 0x05
     448:	9e 83       	std	Y+6, r25	; 0x06
		FillSlaveSendStructByArray(p_communication_str,&functional[0],&temp_8bit_parameter[0]);
     44a:	c8 01       	movw	r24, r16
     44c:	be 01       	movw	r22, r28
     44e:	6f 5f       	subi	r22, 0xFF	; 255
     450:	7f 4f       	sbci	r23, 0xFF	; 255
     452:	ae 01       	movw	r20, r28
     454:	4c 5f       	subi	r20, 0xFC	; 252
     456:	5f 4f       	sbci	r21, 0xFF	; 255
     458:	0e 94 c6 01 	call	0x38c	; 0x38c <FillSlaveSendStructByArray>
		uprobot_control.pUpRobotSlaveTxPacket(&p_communication_str->str_stack.str_slave_send, p_communication_str->p_uart_control);					return ERR_OK;
     45c:	f8 01       	movw	r30, r16
     45e:	60 81       	ld	r22, Z
     460:	71 81       	ldd	r23, Z+1	; 0x01
     462:	e0 91 87 06 	lds	r30, 0x0687
     466:	f0 91 88 06 	lds	r31, 0x0688
     46a:	c8 01       	movw	r24, r16
     46c:	84 56       	subi	r24, 0x64	; 100
     46e:	9f 4f       	sbci	r25, 0xFF	; 255
     470:	09 95       	icall
     472:	80 e0       	ldi	r24, 0x00	; 0
	}
	else
	{
		return ERR_NOTAVAIL;				// 请求的值无法使用
	}
}
     474:	63 96       	adiw	r28, 0x13	; 19
     476:	0f b6       	in	r0, 0x3f	; 63
     478:	f8 94       	cli
     47a:	de bf       	out	0x3e, r29	; 62
     47c:	0f be       	out	0x3f, r0	; 63
     47e:	cd bf       	out	0x3d, r28	; 61
     480:	cf 91       	pop	r28
     482:	df 91       	pop	r29
     484:	1f 91       	pop	r17
     486:	0f 91       	pop	r16
     488:	08 95       	ret

0000048a <GetAdcMultiAtTimes>:
** 修订人:
** 修订日期:
**------------------------------------------------------------------------------------------------------------------------
*************************************************************************************************************************/
uint8 GetAdcMultiAtTimes(COMMUNICATION_PORT_STRUCT* p_communication_str,uint8 adc_id)
{
     48a:	6f 92       	push	r6
     48c:	7f 92       	push	r7
     48e:	9f 92       	push	r9
     490:	af 92       	push	r10
     492:	bf 92       	push	r11
     494:	cf 92       	push	r12
     496:	df 92       	push	r13
     498:	ef 92       	push	r14
     49a:	ff 92       	push	r15
     49c:	0f 93       	push	r16
     49e:	1f 93       	push	r17
     4a0:	df 93       	push	r29
     4a2:	cf 93       	push	r28
     4a4:	cd b7       	in	r28, 0x3d	; 61
     4a6:	de b7       	in	r29, 0x3e	; 62
     4a8:	a7 97       	sbiw	r28, 0x27	; 39
     4aa:	0f b6       	in	r0, 0x3f	; 63
     4ac:	f8 94       	cli
     4ae:	de bf       	out	0x3e, r29	; 62
     4b0:	0f be       	out	0x3f, r0	; 63
     4b2:	cd bf       	out	0x3d, r28	; 61
     4b4:	6c 01       	movw	r12, r24
     4b6:	e6 2e       	mov	r14, r22
	temp_8bit_parameter[0] = adc_id;
//	uint8 test[3];



	if(adc_id != 0 )
     4b8:	66 23       	and	r22, r22
     4ba:	11 f4       	brne	.+4      	; 0x4c0 <GetAdcMultiAtTimes+0x36>
     4bc:	89 e0       	ldi	r24, 0x09	; 9
     4be:	5d c0       	rjmp	.+186    	; 0x57a <GetAdcMultiAtTimes+0xf0>
	uint16 temp_16bit_parameter[9];						// 参数缓冲区
	uint8 functional[3];
	uint8 i = 0, temp_parameter_length=1, adc_no=0;
	uint8 temp = 0;

	temp_8bit_parameter[0] = adc_id;
     4c0:	6c 83       	std	Y+4, r22	; 0x04
     4c2:	99 24       	eor	r9, r9
     4c4:	93 94       	inc	r9
     4c6:	ff 24       	eor	r15, r15
     4c8:	00 e0       	ldi	r16, 0x00	; 0
     4ca:	10 e0       	ldi	r17, 0x00	; 0

	if(adc_id != 0 )
	{
		for(i=0; i<8; i++)
		{
			if(GetRegBit(adc_id, i))
     4cc:	a6 2e       	mov	r10, r22
     4ce:	bb 24       	eor	r11, r11
			{

				temp &= adc_control.pGetValue(i, &temp_16bit_parameter[adc_no]);
     4d0:	26 e1       	ldi	r18, 0x16	; 22
     4d2:	62 2e       	mov	r6, r18
     4d4:	71 2c       	mov	r7, r1
     4d6:	6c 0e       	add	r6, r28
     4d8:	7d 1e       	adc	r7, r29

	if(adc_id != 0 )
	{
		for(i=0; i<8; i++)
		{
			if(GetRegBit(adc_id, i))
     4da:	c5 01       	movw	r24, r10
     4dc:	00 2e       	mov	r0, r16
     4de:	02 c0       	rjmp	.+4      	; 0x4e4 <GetAdcMultiAtTimes+0x5a>
     4e0:	95 95       	asr	r25
     4e2:	87 95       	ror	r24
     4e4:	0a 94       	dec	r0
     4e6:	e2 f7       	brpl	.-8      	; 0x4e0 <GetAdcMultiAtTimes+0x56>
     4e8:	80 ff       	sbrs	r24, 0
     4ea:	0f c0       	rjmp	.+30     	; 0x50a <GetAdcMultiAtTimes+0x80>
			{

				temp &= adc_control.pGetValue(i, &temp_16bit_parameter[adc_no]);
     4ec:	6f 2d       	mov	r22, r15
     4ee:	70 e0       	ldi	r23, 0x00	; 0
     4f0:	66 0f       	add	r22, r22
     4f2:	77 1f       	adc	r23, r23
     4f4:	66 0d       	add	r22, r6
     4f6:	77 1d       	adc	r23, r7
     4f8:	e0 91 a9 06 	lds	r30, 0x06A9
     4fc:	f0 91 aa 06 	lds	r31, 0x06AA
     500:	80 2f       	mov	r24, r16
     502:	09 95       	icall
				adc_no++;
     504:	f3 94       	inc	r15
				temp_parameter_length +=2 ;
     506:	82 e0       	ldi	r24, 0x02	; 2
     508:	98 0e       	add	r9, r24
     50a:	0f 5f       	subi	r16, 0xFF	; 255
     50c:	1f 4f       	sbci	r17, 0xFF	; 255



	if(adc_id != 0 )
	{
		for(i=0; i<8; i++)
     50e:	08 30       	cpi	r16, 0x08	; 8
     510:	11 05       	cpc	r17, r1
     512:	19 f7       	brne	.-58     	; 0x4da <GetAdcMultiAtTimes+0x50>
     514:	fe 01       	movw	r30, r28
     516:	76 96       	adiw	r30, 0x16	; 22
     518:	de 01       	movw	r26, r28
     51a:	15 96       	adiw	r26, 0x05	; 5
				uprobot_control.pUpRobotSlaveTxPacket(&p_communication_str->str_stack.str_slave_send, p_communication_str->p_uart_control);
*/
			}
		}
		functional[0]= temp_parameter_length;
		for(i=0; i<adc_no; i++)
     51c:	6f 2d       	mov	r22, r15
     51e:	70 e0       	ldi	r23, 0x00	; 0
     520:	66 0f       	add	r22, r22
     522:	77 1f       	adc	r23, r23
     524:	6e 0f       	add	r22, r30
     526:	7f 1f       	adc	r23, r31
     528:	08 c0       	rjmp	.+16     	; 0x53a <GetAdcMultiAtTimes+0xb0>
		{
			Out16(temp_8bit_parameter[i*2+2], temp_8bit_parameter[i*2+1], temp_16bit_parameter[i])
     52a:	90 81       	ld	r25, Z
     52c:	81 81       	ldd	r24, Z+1	; 0x01
     52e:	8c 93       	st	X, r24
     530:	11 96       	adiw	r26, 0x01	; 1
     532:	9c 93       	st	X, r25
     534:	11 97       	sbiw	r26, 0x01	; 1
     536:	32 96       	adiw	r30, 0x02	; 2
     538:	12 96       	adiw	r26, 0x02	; 2
				uprobot_control.pUpRobotSlaveTxPacket(&p_communication_str->str_stack.str_slave_send, p_communication_str->p_uart_control);
*/
			}
		}
		functional[0]= temp_parameter_length;
		for(i=0; i<adc_no; i++)
     53a:	e6 17       	cp	r30, r22
     53c:	f7 07       	cpc	r31, r23
     53e:	a9 f7       	brne	.-22     	; 0x52a <GetAdcMultiAtTimes+0xa0>
		{
			Out16(temp_8bit_parameter[i*2+2], temp_8bit_parameter[i*2+1], temp_16bit_parameter[i])
		}
		temp_8bit_parameter[0] = adc_id;
     540:	ec 82       	std	Y+4, r14	; 0x04
		functional[1] = sayn_communications_control.adc_multi_sayn_functional;
     542:	80 91 1f 01 	lds	r24, 0x011F
     546:	8a 83       	std	Y+2, r24	; 0x02
		functional[2] = sayn_communications_control.adc_multi_sayn_method;
     548:	80 91 20 01 	lds	r24, 0x0120
     54c:	8b 83       	std	Y+3, r24	; 0x03
				FillSlaveSendStructByArray(p_communication_str,&functional[0],&test[0]);
				uprobot_control.pUpRobotSlaveTxPacket(&p_communication_str->str_stack.str_slave_send, p_communication_str->p_uart_control);
*/
			}
		}
		functional[0]= temp_parameter_length;
     54e:	99 82       	std	Y+1, r9	; 0x01
		functional[2] = sayn_communications_control.adc_multi_sayn_method;

		if(ERR_OK == temp)											// 读取成功
		{

			FillSlaveSendStructByArray(p_communication_str,&functional[0],&temp_8bit_parameter[0]);
     550:	c6 01       	movw	r24, r12
     552:	be 01       	movw	r22, r28
     554:	6f 5f       	subi	r22, 0xFF	; 255
     556:	7f 4f       	sbci	r23, 0xFF	; 255
     558:	ae 01       	movw	r20, r28
     55a:	4c 5f       	subi	r20, 0xFC	; 252
     55c:	5f 4f       	sbci	r21, 0xFF	; 255
     55e:	0e 94 c6 01 	call	0x38c	; 0x38c <FillSlaveSendStructByArray>
			uprobot_control.pUpRobotSlaveTxPacket(&p_communication_str->str_stack.str_slave_send, p_communication_str->p_uart_control);
     562:	f6 01       	movw	r30, r12
     564:	60 81       	ld	r22, Z
     566:	71 81       	ldd	r23, Z+1	; 0x01
     568:	e0 91 87 06 	lds	r30, 0x0687
     56c:	f0 91 88 06 	lds	r31, 0x0688
     570:	c6 01       	movw	r24, r12
     572:	84 56       	subi	r24, 0x64	; 100
     574:	9f 4f       	sbci	r25, 0xFF	; 255
     576:	09 95       	icall
     578:	80 e0       	ldi	r24, 0x00	; 0
	}
	else
	{
		return ERR_NOTAVAIL;				// 请求的值无法使用
	}
}
     57a:	a7 96       	adiw	r28, 0x27	; 39
     57c:	0f b6       	in	r0, 0x3f	; 63
     57e:	f8 94       	cli
     580:	de bf       	out	0x3e, r29	; 62
     582:	0f be       	out	0x3f, r0	; 63
     584:	cd bf       	out	0x3d, r28	; 61
     586:	cf 91       	pop	r28
     588:	df 91       	pop	r29
     58a:	1f 91       	pop	r17
     58c:	0f 91       	pop	r16
     58e:	ff 90       	pop	r15
     590:	ef 90       	pop	r14
     592:	df 90       	pop	r13
     594:	cf 90       	pop	r12
     596:	bf 90       	pop	r11
     598:	af 90       	pop	r10
     59a:	9f 90       	pop	r9
     59c:	7f 90       	pop	r7
     59e:	6f 90       	pop	r6
     5a0:	08 95       	ret

000005a2 <GetAdcAllAtTimes>:
** 修订人:
** 修订日期:
**------------------------------------------------------------------------------------------------------------------------
*************************************************************************************************************************/
uint8 GetAdcAllAtTimes(COMMUNICATION_PORT_STRUCT* p_communication_str)
{
     5a2:	ef 92       	push	r14
     5a4:	ff 92       	push	r15
     5a6:	0f 93       	push	r16
     5a8:	1f 93       	push	r17
     5aa:	df 93       	push	r29
     5ac:	cf 93       	push	r28
     5ae:	cd b7       	in	r28, 0x3d	; 61
     5b0:	de b7       	in	r29, 0x3e	; 62
     5b2:	6e 97       	sbiw	r28, 0x1e	; 30
     5b4:	0f b6       	in	r0, 0x3f	; 63
     5b6:	f8 94       	cli
     5b8:	de bf       	out	0x3e, r29	; 62
     5ba:	0f be       	out	0x3f, r0	; 63
     5bc:	cd bf       	out	0x3d, r28	; 61
     5be:	7c 01       	movw	r14, r24
     5c0:	8e 01       	movw	r16, r28
     5c2:	02 5f       	subi	r16, 0xF2	; 242
     5c4:	1f 4f       	sbci	r17, 0xFF	; 255
     5c6:	90 e0       	ldi	r25, 0x00	; 0
	uint8 temp_parameter_length=8 ;
	uint8 temp = 0;

	for(adc_id=0; adc_id<temp_parameter_length; adc_id++)
	{
		temp &= adc_control.pGetValue(adc_id, &temp_16bit_parameter[adc_id]);
     5c8:	e0 91 a9 06 	lds	r30, 0x06A9
     5cc:	f0 91 aa 06 	lds	r31, 0x06AA
     5d0:	89 2f       	mov	r24, r25
     5d2:	b8 01       	movw	r22, r16
     5d4:	9e 8f       	std	Y+30, r25	; 0x1e
     5d6:	09 95       	icall
	uint8 functional[3];
	uint8 adc_id = 0;
	uint8 temp_parameter_length=8 ;
	uint8 temp = 0;

	for(adc_id=0; adc_id<temp_parameter_length; adc_id++)
     5d8:	9e 8d       	ldd	r25, Y+30	; 0x1e
     5da:	9f 5f       	subi	r25, 0xFF	; 255
     5dc:	0e 5f       	subi	r16, 0xFE	; 254
     5de:	1f 4f       	sbci	r17, 0xFF	; 255
     5e0:	98 30       	cpi	r25, 0x08	; 8
     5e2:	91 f7       	brne	.-28     	; 0x5c8 <GetAdcAllAtTimes+0x26>
	{
		temp &= adc_control.pGetValue(adc_id, &temp_16bit_parameter[adc_id]);
	}
	functional[0]= temp_parameter_length*2;
	functional[1] = sayn_communications_control.adc_all_sayn_functional;
     5e4:	50 91 26 01 	lds	r21, 0x0126
	functional[2] = sayn_communications_control.adc_all_sayn_method;
     5e8:	40 91 27 01 	lds	r20, 0x0127
     5ec:	fe 01       	movw	r30, r28
     5ee:	3e 96       	adiw	r30, 0x0e	; 14
     5f0:	de 01       	movw	r26, r28
     5f2:	14 96       	adiw	r26, 0x04	; 4


	for(adc_id=0; adc_id<temp_parameter_length; adc_id++)
     5f4:	9e 01       	movw	r18, r28
     5f6:	22 5e       	subi	r18, 0xE2	; 226
     5f8:	3f 4f       	sbci	r19, 0xFF	; 255
	{
		Out16(temp_8bit_parameter[adc_id*2+1], temp_8bit_parameter[adc_id*2], temp_16bit_parameter[adc_id]);
     5fa:	90 81       	ld	r25, Z
     5fc:	81 81       	ldd	r24, Z+1	; 0x01
     5fe:	8c 93       	st	X, r24
     600:	11 96       	adiw	r26, 0x01	; 1
     602:	9c 93       	st	X, r25
     604:	11 97       	sbiw	r26, 0x01	; 1
     606:	32 96       	adiw	r30, 0x02	; 2
     608:	12 96       	adiw	r26, 0x02	; 2
	functional[0]= temp_parameter_length*2;
	functional[1] = sayn_communications_control.adc_all_sayn_functional;
	functional[2] = sayn_communications_control.adc_all_sayn_method;


	for(adc_id=0; adc_id<temp_parameter_length; adc_id++)
     60a:	e2 17       	cp	r30, r18
     60c:	f3 07       	cpc	r31, r19
     60e:	a9 f7       	brne	.-22     	; 0x5fa <GetAdcAllAtTimes+0x58>
	{
		temp &= adc_control.pGetValue(adc_id, &temp_16bit_parameter[adc_id]);
	}
	functional[0]= temp_parameter_length*2;
	functional[1] = sayn_communications_control.adc_all_sayn_functional;
	functional[2] = sayn_communications_control.adc_all_sayn_method;
     610:	4b 83       	std	Y+3, r20	; 0x03
	for(adc_id=0; adc_id<temp_parameter_length; adc_id++)
	{
		temp &= adc_control.pGetValue(adc_id, &temp_16bit_parameter[adc_id]);
	}
	functional[0]= temp_parameter_length*2;
	functional[1] = sayn_communications_control.adc_all_sayn_functional;
     612:	5a 83       	std	Y+2, r21	; 0x02

	for(adc_id=0; adc_id<temp_parameter_length; adc_id++)
	{
		temp &= adc_control.pGetValue(adc_id, &temp_16bit_parameter[adc_id]);
	}
	functional[0]= temp_parameter_length*2;
     614:	80 e1       	ldi	r24, 0x10	; 16
     616:	89 83       	std	Y+1, r24	; 0x01


	if(ERR_OK == temp)											// 读取成功
	{

		FillSlaveSendStructByArray(p_communication_str,&functional[0],&temp_8bit_parameter[0]);
     618:	c7 01       	movw	r24, r14
     61a:	be 01       	movw	r22, r28
     61c:	6f 5f       	subi	r22, 0xFF	; 255
     61e:	7f 4f       	sbci	r23, 0xFF	; 255
     620:	ae 01       	movw	r20, r28
     622:	4c 5f       	subi	r20, 0xFC	; 252
     624:	5f 4f       	sbci	r21, 0xFF	; 255
     626:	0e 94 c6 01 	call	0x38c	; 0x38c <FillSlaveSendStructByArray>
		uprobot_control.pUpRobotSlaveTxPacket(&p_communication_str->str_stack.str_slave_send, p_communication_str->p_uart_control);					return ERR_OK;
     62a:	f7 01       	movw	r30, r14
     62c:	60 81       	ld	r22, Z
     62e:	71 81       	ldd	r23, Z+1	; 0x01
     630:	e0 91 87 06 	lds	r30, 0x0687
     634:	f0 91 88 06 	lds	r31, 0x0688
     638:	c7 01       	movw	r24, r14
     63a:	84 56       	subi	r24, 0x64	; 100
     63c:	9f 4f       	sbci	r25, 0xFF	; 255
     63e:	09 95       	icall
	}
	else
	{
		return ERR_NOTAVAIL;
	}
}
     640:	80 e0       	ldi	r24, 0x00	; 0
     642:	6e 96       	adiw	r28, 0x1e	; 30
     644:	0f b6       	in	r0, 0x3f	; 63
     646:	f8 94       	cli
     648:	de bf       	out	0x3e, r29	; 62
     64a:	0f be       	out	0x3f, r0	; 63
     64c:	cd bf       	out	0x3d, r28	; 61
     64e:	cf 91       	pop	r28
     650:	df 91       	pop	r29
     652:	1f 91       	pop	r17
     654:	0f 91       	pop	r16
     656:	ff 90       	pop	r15
     658:	ef 90       	pop	r14
     65a:	08 95       	ret

0000065c <GetIoInputAtTimes>:
** 修订人:
** 修订日期:
**------------------------------------------------------------------------------------------------------------------------
*************************************************************************************************************************/
uint8 GetIoInputAtTimes(COMMUNICATION_PORT_STRUCT* p_communication_str)
{
     65c:	0f 93       	push	r16
     65e:	1f 93       	push	r17
     660:	df 93       	push	r29
     662:	cf 93       	push	r28
     664:	cd b7       	in	r28, 0x3d	; 61
     666:	de b7       	in	r29, 0x3e	; 62
     668:	29 97       	sbiw	r28, 0x09	; 9
     66a:	0f b6       	in	r0, 0x3f	; 63
     66c:	f8 94       	cli
     66e:	de bf       	out	0x3e, r29	; 62
     670:	0f be       	out	0x3f, r0	; 63
     672:	cd bf       	out	0x3d, r28	; 61
     674:	8c 01       	movw	r16, r24
	uint16 temp_16bit_parameter[2];						// 参数缓冲区
	uint8 * p_parameter;									//用于函数传递的一个临时指针变量
	uint8 p_functional[3];
	uint8 parameter_length = 2;

	(gpio_control.pGetInputFilte)(&temp_16bit_parameter[0]);
     676:	e0 91 4c 07 	lds	r30, 0x074C
     67a:	f0 91 4d 07 	lds	r31, 0x074D
     67e:	ce 01       	movw	r24, r28
     680:	06 96       	adiw	r24, 0x06	; 6
     682:	09 95       	icall

	p_functional[0] = parameter_length;
     684:	82 e0       	ldi	r24, 0x02	; 2
     686:	8b 83       	std	Y+3, r24	; 0x03
	p_functional[1] = sayn_communications_control.io_sayn_functional;
     688:	80 91 2d 01 	lds	r24, 0x012D
     68c:	8c 83       	std	Y+4, r24	; 0x04
	p_functional[2] = sayn_communications_control.io_sayn_method;
     68e:	80 91 2e 01 	lds	r24, 0x012E
     692:	8d 83       	std	Y+5, r24	; 0x05

	Out16(temp_8bit_parameter[1], temp_8bit_parameter[0], temp_16bit_parameter[0])
     694:	9e 81       	ldd	r25, Y+6	; 0x06
     696:	8f 81       	ldd	r24, Y+7	; 0x07
     698:	89 83       	std	Y+1, r24	; 0x01
     69a:	9a 83       	std	Y+2, r25	; 0x02
	p_parameter = &temp_8bit_parameter[0];
	FillSlaveSendStructByArray(p_communication_str,p_functional,p_parameter);
     69c:	c8 01       	movw	r24, r16
     69e:	be 01       	movw	r22, r28
     6a0:	6d 5f       	subi	r22, 0xFD	; 253
     6a2:	7f 4f       	sbci	r23, 0xFF	; 255
     6a4:	ae 01       	movw	r20, r28
     6a6:	4f 5f       	subi	r20, 0xFF	; 255
     6a8:	5f 4f       	sbci	r21, 0xFF	; 255
     6aa:	0e 94 c6 01 	call	0x38c	; 0x38c <FillSlaveSendStructByArray>
	uprobot_control.pUpRobotSlaveTxPacket(&p_communication_str->str_stack.str_slave_send, p_communication_str->p_uart_control);
     6ae:	f8 01       	movw	r30, r16
     6b0:	60 81       	ld	r22, Z
     6b2:	71 81       	ldd	r23, Z+1	; 0x01
     6b4:	e0 91 87 06 	lds	r30, 0x0687
     6b8:	f0 91 88 06 	lds	r31, 0x0688
     6bc:	c8 01       	movw	r24, r16
     6be:	84 56       	subi	r24, 0x64	; 100
     6c0:	9f 4f       	sbci	r25, 0xFF	; 255
     6c2:	09 95       	icall

	return ERR_OK;


}
     6c4:	80 e0       	ldi	r24, 0x00	; 0
     6c6:	29 96       	adiw	r28, 0x09	; 9
     6c8:	0f b6       	in	r0, 0x3f	; 63
     6ca:	f8 94       	cli
     6cc:	de bf       	out	0x3e, r29	; 62
     6ce:	0f be       	out	0x3f, r0	; 63
     6d0:	cd bf       	out	0x3d, r28	; 61
     6d2:	cf 91       	pop	r28
     6d4:	df 91       	pop	r29
     6d6:	1f 91       	pop	r17
     6d8:	0f 91       	pop	r16
     6da:	08 95       	ret

000006dc <GetServoPositionMultiAtTimes>:
		}	
	}
}

uint8 GetServoPositionMultiAtTimes(COMMUNICATION_PORT_STRUCT* p_communication_str,uint8 * p_parameter)
{
     6dc:	af 92       	push	r10
     6de:	bf 92       	push	r11
     6e0:	cf 92       	push	r12
     6e2:	df 92       	push	r13
     6e4:	ef 92       	push	r14
     6e6:	ff 92       	push	r15
     6e8:	0f 93       	push	r16
     6ea:	1f 93       	push	r17
     6ec:	df 93       	push	r29
     6ee:	cf 93       	push	r28
     6f0:	cd b7       	in	r28, 0x3d	; 61
     6f2:	de b7       	in	r29, 0x3e	; 62
     6f4:	cc 57       	subi	r28, 0x7C	; 124
     6f6:	d0 40       	sbci	r29, 0x00	; 0
     6f8:	0f b6       	in	r0, 0x3f	; 63
     6fa:	f8 94       	cli
     6fc:	de bf       	out	0x3e, r29	; 62
     6fe:	0f be       	out	0x3f, r0	; 63
     700:	cd bf       	out	0x3d, r28	; 61
     702:	6c 01       	movw	r12, r24
	uint8 temp_8bit_parameter[61];		//存储位置
	uint16 temp_16bit_parameter[30];  //存储位置
	uint8 functional[3];
	uint8 count = 0;

	functional[0] = sayn_communications_control.servo_get_position_num *3;
     704:	80 91 34 01 	lds	r24, 0x0134
     708:	23 e0       	ldi	r18, 0x03	; 3
     70a:	82 9f       	mul	r24, r18
     70c:	c0 01       	movw	r24, r0
     70e:	11 24       	eor	r1, r1
     710:	89 83       	std	Y+1, r24	; 0x01
	functional[1] = sayn_communications_control.servo_get_position_functional;
     712:	80 91 35 01 	lds	r24, 0x0135
     716:	8a 83       	std	Y+2, r24	; 0x02
	functional[2] = sayn_communications_control.servo_get_position_method;
     718:	80 91 36 01 	lds	r24, 0x0136
     71c:	8b 83       	std	Y+3, r24	; 0x03
     71e:	00 e0       	ldi	r16, 0x00	; 0
     720:	5c e7       	ldi	r21, 0x7C	; 124
     722:	e5 2e       	mov	r14, r21
     724:	f1 2c       	mov	r15, r1
     726:	ec 0e       	add	r14, r28
     728:	fd 1e       	adc	r15, r29

	for(count=0; count<sayn_communications_control.servo_get_position_num; count++)
	{
		temp_8bit_parameter[60] &= (servo_control.pGetPosition)(sayn_communications_control.servo_get_position_parameter[count],&temp_16bit_parameter[count] );
     72a:	44 e0       	ldi	r20, 0x04	; 4
     72c:	a4 2e       	mov	r10, r20
     72e:	b1 2c       	mov	r11, r1
     730:	ac 0e       	add	r10, r28
     732:	bd 1e       	adc	r11, r29
     734:	16 c0       	rjmp	.+44     	; 0x762 <GetServoPositionMultiAtTimes+0x86>
     736:	f7 01       	movw	r30, r14
     738:	10 81       	ld	r17, Z
     73a:	e0 2f       	mov	r30, r16
     73c:	f0 e0       	ldi	r31, 0x00	; 0
     73e:	bf 01       	movw	r22, r30
     740:	66 0f       	add	r22, r22
     742:	77 1f       	adc	r23, r23
     744:	6a 0d       	add	r22, r10
     746:	7b 1d       	adc	r23, r11
     748:	20 91 d8 03 	lds	r18, 0x03D8
     74c:	30 91 d9 03 	lds	r19, 0x03D9
     750:	ea 5e       	subi	r30, 0xEA	; 234
     752:	fe 4f       	sbci	r31, 0xFE	; 254
     754:	82 a1       	ldd	r24, Z+34	; 0x22
     756:	f9 01       	movw	r30, r18
     758:	09 95       	icall
     75a:	18 23       	and	r17, r24
     75c:	f7 01       	movw	r30, r14
     75e:	10 83       	st	Z, r17

	functional[0] = sayn_communications_control.servo_get_position_num *3;
	functional[1] = sayn_communications_control.servo_get_position_functional;
	functional[2] = sayn_communications_control.servo_get_position_method;

	for(count=0; count<sayn_communications_control.servo_get_position_num; count++)
     760:	0f 5f       	subi	r16, 0xFF	; 255
     762:	10 91 34 01 	lds	r17, 0x0134
     766:	01 17       	cp	r16, r17
     768:	30 f3       	brcs	.-52     	; 0x736 <GetServoPositionMultiAtTimes+0x5a>
	{
		temp_8bit_parameter[60] &= (servo_control.pGetPosition)(sayn_communications_control.servo_get_position_parameter[count],&temp_16bit_parameter[count] );
	}
	if(TRUE == temp_8bit_parameter[60])																		// 读取成功
     76a:	f7 01       	movw	r30, r14
     76c:	80 81       	ld	r24, Z
     76e:	81 30       	cpi	r24, 0x01	; 1
     770:	11 f0       	breq	.+4      	; 0x776 <GetServoPositionMultiAtTimes+0x9a>
     772:	89 e0       	ldi	r24, 0x09	; 9
     774:	30 c0       	rjmp	.+96     	; 0x7d6 <GetServoPositionMultiAtTimes+0xfa>
	{
		for(count=0 ; count<(sayn_communications_control.servo_get_position_num); count++)
		{
			temp_8bit_parameter[count] = sayn_communications_control.servo_get_position_parameter[count];
			Out16(temp_8bit_parameter[count*3+2], temp_8bit_parameter[count*3+1], temp_16bit_parameter[0]);
     776:	fc 80       	ldd	r15, Y+4	; 0x04
     778:	0d 81       	ldd	r16, Y+5	; 0x05
     77a:	ce 01       	movw	r24, r28
     77c:	80 5c       	subi	r24, 0xC0	; 192
     77e:	9f 4f       	sbci	r25, 0xFF	; 255
     780:	bc 01       	movw	r22, r24
     782:	6f 5f       	subi	r22, 0xFF	; 255
     784:	7f 4f       	sbci	r23, 0xFF	; 255
     786:	20 e0       	ldi	r18, 0x00	; 0
     788:	30 e0       	ldi	r19, 0x00	; 0
     78a:	ac 01       	movw	r20, r24
     78c:	10 c0       	rjmp	.+32     	; 0x7ae <GetServoPositionMultiAtTimes+0xd2>
	}
	if(TRUE == temp_8bit_parameter[60])																		// 读取成功
	{
		for(count=0 ; count<(sayn_communications_control.servo_get_position_num); count++)
		{
			temp_8bit_parameter[count] = sayn_communications_control.servo_get_position_parameter[count];
     78e:	fa 01       	movw	r30, r20
     790:	e2 0f       	add	r30, r18
     792:	f3 1f       	adc	r31, r19
     794:	d9 01       	movw	r26, r18
     796:	aa 5e       	subi	r26, 0xEA	; 234
     798:	be 4f       	sbci	r27, 0xFE	; 254
     79a:	92 96       	adiw	r26, 0x22	; 34
     79c:	8c 91       	ld	r24, X
     79e:	80 83       	st	Z, r24
			Out16(temp_8bit_parameter[count*3+2], temp_8bit_parameter[count*3+1], temp_16bit_parameter[0]);
     7a0:	fb 01       	movw	r30, r22
     7a2:	00 83       	st	Z, r16
     7a4:	f1 82       	std	Z+1, r15	; 0x01
     7a6:	2f 5f       	subi	r18, 0xFF	; 255
     7a8:	3f 4f       	sbci	r19, 0xFF	; 255
     7aa:	6d 5f       	subi	r22, 0xFD	; 253
     7ac:	7f 4f       	sbci	r23, 0xFF	; 255
	{
		temp_8bit_parameter[60] &= (servo_control.pGetPosition)(sayn_communications_control.servo_get_position_parameter[count],&temp_16bit_parameter[count] );
	}
	if(TRUE == temp_8bit_parameter[60])																		// 读取成功
	{
		for(count=0 ; count<(sayn_communications_control.servo_get_position_num); count++)
     7ae:	21 17       	cp	r18, r17
     7b0:	70 f3       	brcs	.-36     	; 0x78e <GetServoPositionMultiAtTimes+0xb2>
		{
			temp_8bit_parameter[count] = sayn_communications_control.servo_get_position_parameter[count];
			Out16(temp_8bit_parameter[count*3+2], temp_8bit_parameter[count*3+1], temp_16bit_parameter[0]);
		}
		FillSlaveSendStructByArray(p_communication_str,&functional[0],&temp_8bit_parameter[0]);
     7b2:	c6 01       	movw	r24, r12
     7b4:	be 01       	movw	r22, r28
     7b6:	6f 5f       	subi	r22, 0xFF	; 255
     7b8:	7f 4f       	sbci	r23, 0xFF	; 255
     7ba:	0e 94 c6 01 	call	0x38c	; 0x38c <FillSlaveSendStructByArray>
		uprobot_control.pUpRobotSlaveTxPacket(&p_communication_str->str_stack.str_slave_send, p_communication_str->p_uart_control);
     7be:	f6 01       	movw	r30, r12
     7c0:	60 81       	ld	r22, Z
     7c2:	71 81       	ldd	r23, Z+1	; 0x01
     7c4:	e0 91 87 06 	lds	r30, 0x0687
     7c8:	f0 91 88 06 	lds	r31, 0x0688
     7cc:	c6 01       	movw	r24, r12
     7ce:	84 56       	subi	r24, 0x64	; 100
     7d0:	9f 4f       	sbci	r25, 0xFF	; 255
     7d2:	09 95       	icall
     7d4:	80 e0       	ldi	r24, 0x00	; 0
		}
	else
	{
		return ERR_NOTAVAIL;				// 请求的值无法使用
	}
}
     7d6:	c4 58       	subi	r28, 0x84	; 132
     7d8:	df 4f       	sbci	r29, 0xFF	; 255
     7da:	0f b6       	in	r0, 0x3f	; 63
     7dc:	f8 94       	cli
     7de:	de bf       	out	0x3e, r29	; 62
     7e0:	0f be       	out	0x3f, r0	; 63
     7e2:	cd bf       	out	0x3d, r28	; 61
     7e4:	cf 91       	pop	r28
     7e6:	df 91       	pop	r29
     7e8:	1f 91       	pop	r17
     7ea:	0f 91       	pop	r16
     7ec:	ff 90       	pop	r15
     7ee:	ef 90       	pop	r14
     7f0:	df 90       	pop	r13
     7f2:	cf 90       	pop	r12
     7f4:	bf 90       	pop	r11
     7f6:	af 90       	pop	r10
     7f8:	08 95       	ret

000007fa <SetServoPositionMultiAtTimes>:
uint8 SetServoPositionMultiAtTimes(COMMUNICATION_PORT_STRUCT* p_communication_str,uint8 * p_parameter)
{
     7fa:	6f 92       	push	r6
     7fc:	7f 92       	push	r7
     7fe:	8f 92       	push	r8
     800:	9f 92       	push	r9
     802:	af 92       	push	r10
     804:	bf 92       	push	r11
     806:	df 92       	push	r13
     808:	ef 92       	push	r14
     80a:	ff 92       	push	r15
     80c:	0f 93       	push	r16
     80e:	1f 93       	push	r17
     810:	df 93       	push	r29
     812:	cf 93       	push	r28
     814:	cd b7       	in	r28, 0x3d	; 61
     816:	de b7       	in	r29, 0x3e	; 62
     818:	c8 57       	subi	r28, 0x78	; 120
     81a:	d0 40       	sbci	r29, 0x00	; 0
     81c:	0f b6       	in	r0, 0x3f	; 63
     81e:	f8 94       	cli
     820:	de bf       	out	0x3e, r29	; 62
     822:	0f be       	out	0x3f, r0	; 63
     824:	cd bf       	out	0x3d, r28	; 61
     826:	5b 01       	movw	r10, r22
	FillSlaveSendStructByArray(p_communication_str,&test[0],&p_parameter[0]);
	uprobot_control.pUpRobotSlaveTxPacket(&p_communication_str->str_stack.str_slave_send, p_communication_str->p_uart_control);
*/


	if(sayn_communications_control.servo_set_position_num > 0)
     828:	80 91 6a 01 	lds	r24, 0x016A
     82c:	88 23       	and	r24, r24
     82e:	11 f4       	brne	.+4      	; 0x834 <SetServoPositionMultiAtTimes+0x3a>
     830:	83 e0       	ldi	r24, 0x03	; 3
     832:	4b c0       	rjmp	.+150    	; 0x8ca <SetServoPositionMultiAtTimes+0xd0>
     834:	dd 24       	eor	r13, r13
	{
		for(count = 0; count < (sayn_communications_control.servo_set_position_num/5); count++)
		{
			In16(temp_16bit_parameter[count*2], p_parameter[count*5+2], p_parameter[count*5+1]);
     836:	3e 01       	movw	r6, r28
     838:	08 94       	sec
     83a:	61 1c       	adc	r6, r1
     83c:	71 1c       	adc	r7, r1
			In16(temp_16bit_parameter[count*2+1], p_parameter[count*5+4], p_parameter[count*5+3]);
			p_parameter[151] = (servo_control.pSetPosition)(p_parameter[count*5], temp_16bit_parameter[count*2], temp_16bit_parameter[count*2+1]);
     83e:	87 e9       	ldi	r24, 0x97	; 151
     840:	88 2e       	mov	r8, r24
     842:	91 2c       	mov	r9, r1
     844:	86 0e       	add	r8, r22
     846:	97 1e       	adc	r9, r23
     848:	38 c0       	rjmp	.+112    	; 0x8ba <SetServoPositionMultiAtTimes+0xc0>

	if(sayn_communications_control.servo_set_position_num > 0)
	{
		for(count = 0; count < (sayn_communications_control.servo_set_position_num/5); count++)
		{
			In16(temp_16bit_parameter[count*2], p_parameter[count*5+2], p_parameter[count*5+1]);
     84a:	8d 2d       	mov	r24, r13
     84c:	90 e0       	ldi	r25, 0x00	; 0
     84e:	bc 01       	movw	r22, r24
     850:	66 0f       	add	r22, r22
     852:	77 1f       	adc	r23, r23
     854:	fc 01       	movw	r30, r24
     856:	ee 0f       	add	r30, r30
     858:	ff 1f       	adc	r31, r31
     85a:	ee 0f       	add	r30, r30
     85c:	ff 1f       	adc	r31, r31
     85e:	e8 0f       	add	r30, r24
     860:	f9 1f       	adc	r31, r25
     862:	9b 01       	movw	r18, r22
     864:	22 0f       	add	r18, r18
     866:	33 1f       	adc	r19, r19
     868:	26 0d       	add	r18, r6
     86a:	37 1d       	adc	r19, r7
     86c:	ea 0d       	add	r30, r10
     86e:	fb 1d       	adc	r31, r11
     870:	f1 80       	ldd	r15, Z+1	; 0x01
     872:	ee 24       	eor	r14, r14
     874:	82 81       	ldd	r24, Z+2	; 0x02
     876:	90 e0       	ldi	r25, 0x00	; 0
     878:	8e 29       	or	r24, r14
     87a:	9f 29       	or	r25, r15
     87c:	d9 01       	movw	r26, r18
     87e:	8d 93       	st	X+, r24
     880:	9c 93       	st	X, r25
			In16(temp_16bit_parameter[count*2+1], p_parameter[count*5+4], p_parameter[count*5+3]);
     882:	13 81       	ldd	r17, Z+3	; 0x03
     884:	00 e0       	ldi	r16, 0x00	; 0
     886:	44 81       	ldd	r20, Z+4	; 0x04
     888:	50 e0       	ldi	r21, 0x00	; 0
     88a:	40 2b       	or	r20, r16
     88c:	51 2b       	or	r21, r17
     88e:	6f 5f       	subi	r22, 0xFF	; 255
     890:	7f 4f       	sbci	r23, 0xFF	; 255
     892:	66 0f       	add	r22, r22
     894:	77 1f       	adc	r23, r23
     896:	66 0d       	add	r22, r6
     898:	77 1d       	adc	r23, r7
     89a:	db 01       	movw	r26, r22
     89c:	4d 93       	st	X+, r20
     89e:	5c 93       	st	X, r21
			p_parameter[151] = (servo_control.pSetPosition)(p_parameter[count*5], temp_16bit_parameter[count*2], temp_16bit_parameter[count*2+1]);
     8a0:	d9 01       	movw	r26, r18
     8a2:	6d 91       	ld	r22, X+
     8a4:	7c 91       	ld	r23, X
     8a6:	20 91 c8 03 	lds	r18, 0x03C8
     8aa:	30 91 c9 03 	lds	r19, 0x03C9
     8ae:	80 81       	ld	r24, Z
     8b0:	f9 01       	movw	r30, r18
     8b2:	09 95       	icall
     8b4:	f4 01       	movw	r30, r8
     8b6:	80 83       	st	Z, r24
*/


	if(sayn_communications_control.servo_set_position_num > 0)
	{
		for(count = 0; count < (sayn_communications_control.servo_set_position_num/5); count++)
     8b8:	d3 94       	inc	r13
     8ba:	80 91 6a 01 	lds	r24, 0x016A
     8be:	65 e0       	ldi	r22, 0x05	; 5
     8c0:	0e 94 08 40 	call	0x8010	; 0x8010 <__udivmodqi4>
     8c4:	d8 16       	cp	r13, r24
     8c6:	08 f2       	brcs	.-126    	; 0x84a <SetServoPositionMultiAtTimes+0x50>
     8c8:	80 e0       	ldi	r24, 0x00	; 0
	}
	else
	{
		return ERR_VALUE;						// 参数长度不正确
	}
}
     8ca:	c8 58       	subi	r28, 0x88	; 136
     8cc:	df 4f       	sbci	r29, 0xFF	; 255
     8ce:	0f b6       	in	r0, 0x3f	; 63
     8d0:	f8 94       	cli
     8d2:	de bf       	out	0x3e, r29	; 62
     8d4:	0f be       	out	0x3f, r0	; 63
     8d6:	cd bf       	out	0x3d, r28	; 61
     8d8:	cf 91       	pop	r28
     8da:	df 91       	pop	r29
     8dc:	1f 91       	pop	r17
     8de:	0f 91       	pop	r16
     8e0:	ff 90       	pop	r15
     8e2:	ef 90       	pop	r14
     8e4:	df 90       	pop	r13
     8e6:	bf 90       	pop	r11
     8e8:	af 90       	pop	r10
     8ea:	9f 90       	pop	r9
     8ec:	8f 90       	pop	r8
     8ee:	7f 90       	pop	r7
     8f0:	6f 90       	pop	r6
     8f2:	08 95       	ret

000008f4 <SetServoVelocityMultiAtTimes>:
uint8 SetServoVelocityMultiAtTimes(COMMUNICATION_PORT_STRUCT* p_communication_str,uint8 * p_parameter)
{
     8f4:	cf 92       	push	r12
     8f6:	df 92       	push	r13
     8f8:	ef 92       	push	r14
     8fa:	ff 92       	push	r15
     8fc:	0f 93       	push	r16
     8fe:	1f 93       	push	r17
     900:	df 93       	push	r29
     902:	cf 93       	push	r28
     904:	0f 92       	push	r0
     906:	cd b7       	in	r28, 0x3d	; 61
     908:	de b7       	in	r29, 0x3e	; 62
     90a:	8b 01       	movw	r16, r22

	functional[0] = 0;
	functional[1] = sayn_communications_control.servo_set_velocity_functional;
	functional[2] = sayn_communications_control.servo_set_velocity_method;

	if(sayn_communications_control.servo_set_velocity_num > 0)
     90c:	80 91 05 02 	lds	r24, 0x0205
     910:	88 23       	and	r24, r24
     912:	11 f4       	brne	.+4      	; 0x918 <SetServoVelocityMultiAtTimes+0x24>
     914:	83 e0       	ldi	r24, 0x03	; 3
     916:	2e c0       	rjmp	.+92     	; 0x974 <SetServoVelocityMultiAtTimes+0x80>
     918:	90 e0       	ldi	r25, 0x00	; 0
	{
		for(count = 0; count < (sayn_communications_control.servo_set_velocity_num/4); count++)
		{
			In16(temp_16bit_parameter[count], p_parameter[count*4+3], p_parameter[count*4+2]);
			p_parameter[151] = (servo_control.pSetVelocity)(p_parameter[count*4], p_parameter[count*4+1], temp_16bit_parameter[count]);
     91a:	47 e9       	ldi	r20, 0x97	; 151
     91c:	e4 2e       	mov	r14, r20
     91e:	f1 2c       	mov	r15, r1
     920:	e6 0e       	add	r14, r22
     922:	f7 1e       	adc	r15, r23
     924:	20 c0       	rjmp	.+64     	; 0x966 <SetServoVelocityMultiAtTimes+0x72>

	if(sayn_communications_control.servo_set_velocity_num > 0)
	{
		for(count = 0; count < (sayn_communications_control.servo_set_velocity_num/4); count++)
		{
			In16(temp_16bit_parameter[count], p_parameter[count*4+3], p_parameter[count*4+2]);
     926:	e9 2f       	mov	r30, r25
     928:	f0 e0       	ldi	r31, 0x00	; 0
     92a:	ee 0f       	add	r30, r30
     92c:	ff 1f       	adc	r31, r31
     92e:	ee 0f       	add	r30, r30
     930:	ff 1f       	adc	r31, r31
			p_parameter[151] = (servo_control.pSetVelocity)(p_parameter[count*4], p_parameter[count*4+1], temp_16bit_parameter[count]);
     932:	d8 01       	movw	r26, r16
     934:	ae 0f       	add	r26, r30
     936:	bf 1f       	adc	r27, r31
     938:	e0 0f       	add	r30, r16
     93a:	f1 1f       	adc	r31, r17
     93c:	d2 80       	ldd	r13, Z+2	; 0x02
     93e:	cc 24       	eor	r12, r12
     940:	13 96       	adiw	r26, 0x03	; 3
     942:	4c 91       	ld	r20, X
     944:	13 97       	sbiw	r26, 0x03	; 3
     946:	50 e0       	ldi	r21, 0x00	; 0
     948:	4c 29       	or	r20, r12
     94a:	5d 29       	or	r21, r13
     94c:	e0 91 ce 03 	lds	r30, 0x03CE
     950:	f0 91 cf 03 	lds	r31, 0x03CF
     954:	8c 91       	ld	r24, X
     956:	11 96       	adiw	r26, 0x01	; 1
     958:	6c 91       	ld	r22, X
     95a:	99 83       	std	Y+1, r25	; 0x01
     95c:	09 95       	icall
     95e:	d7 01       	movw	r26, r14
     960:	8c 93       	st	X, r24
	functional[1] = sayn_communications_control.servo_set_velocity_functional;
	functional[2] = sayn_communications_control.servo_set_velocity_method;

	if(sayn_communications_control.servo_set_velocity_num > 0)
	{
		for(count = 0; count < (sayn_communications_control.servo_set_velocity_num/4); count++)
     962:	99 81       	ldd	r25, Y+1	; 0x01
     964:	9f 5f       	subi	r25, 0xFF	; 255
     966:	80 91 05 02 	lds	r24, 0x0205
     96a:	86 95       	lsr	r24
     96c:	86 95       	lsr	r24
     96e:	98 17       	cp	r25, r24
     970:	d0 f2       	brcs	.-76     	; 0x926 <SetServoVelocityMultiAtTimes+0x32>
     972:	80 e0       	ldi	r24, 0x00	; 0
	}
	else
	{
		return ERR_VALUE;						// 参数长度不正确
	}
}
     974:	0f 90       	pop	r0
     976:	cf 91       	pop	r28
     978:	df 91       	pop	r29
     97a:	1f 91       	pop	r17
     97c:	0f 91       	pop	r16
     97e:	ff 90       	pop	r15
     980:	ef 90       	pop	r14
     982:	df 90       	pop	r13
     984:	cf 90       	pop	r12
     986:	08 95       	ret

00000988 <SetServoModeMultiAtTimes>:

uint8 SetServoModeMultiAtTimes(COMMUNICATION_PORT_STRUCT* p_communication_str,uint8 * p_parameter)
{
     988:	ef 92       	push	r14
     98a:	ff 92       	push	r15
     98c:	1f 93       	push	r17
     98e:	df 93       	push	r29
     990:	cf 93       	push	r28
     992:	00 d0       	rcall	.+0      	; 0x994 <SetServoModeMultiAtTimes+0xc>
     994:	0f 92       	push	r0
     996:	cd b7       	in	r28, 0x3d	; 61
     998:	de b7       	in	r29, 0x3e	; 62
     99a:	7c 01       	movw	r14, r24
	uint8 temp = 0;
	uint8 functional[3];
	uint8 count = 0;

	functional[0] = 0x00;  //返回数据长度
	functional[1] = sayn_communications_control.servo_set_mode_functional;
     99c:	20 91 a1 02 	lds	r18, 0x02A1
	functional[2] = sayn_communications_control.servo_set_mode_method;
     9a0:	90 91 a2 02 	lds	r25, 0x02A2

	if(sayn_communications_control.servo_set_mode_num > 0)
     9a4:	80 91 a0 02 	lds	r24, 0x02A0
     9a8:	88 23       	and	r24, r24
     9aa:	11 f4       	brne	.+4      	; 0x9b0 <SetServoModeMultiAtTimes+0x28>
     9ac:	83 e0       	ldi	r24, 0x03	; 3
     9ae:	38 c0       	rjmp	.+112    	; 0xa20 <SetServoModeMultiAtTimes+0x98>

	uint8 temp = 0;
	uint8 functional[3];
	uint8 count = 0;

	functional[0] = 0x00;  //返回数据长度
     9b0:	19 82       	std	Y+1, r1	; 0x01
	functional[1] = sayn_communications_control.servo_set_mode_functional;
     9b2:	2a 83       	std	Y+2, r18	; 0x02
	functional[2] = sayn_communications_control.servo_set_mode_method;
     9b4:	9b 83       	std	Y+3, r25	; 0x03
     9b6:	90 e0       	ldi	r25, 0x00	; 0
     9b8:	10 e0       	ldi	r17, 0x00	; 0
     9ba:	15 c0       	rjmp	.+42     	; 0x9e6 <SetServoModeMultiAtTimes+0x5e>

	if(sayn_communications_control.servo_set_mode_num > 0)
	{
		for(count = 0; count < (sayn_communications_control.servo_set_mode_num/2); count++)
		{
			temp = (servo_control.pSetMode)(sayn_communications_control.servo_set_mode_parameter[count*2], sayn_communications_control.servo_set_mode_parameter[count*2+1]);
     9bc:	e1 2f       	mov	r30, r17
     9be:	f0 e0       	ldi	r31, 0x00	; 0
     9c0:	ee 0f       	add	r30, r30
     9c2:	ff 1f       	adc	r31, r31
     9c4:	ea 5e       	subi	r30, 0xEA	; 234
     9c6:	fe 4f       	sbci	r31, 0xFE	; 254
     9c8:	df 01       	movw	r26, r30
     9ca:	a1 57       	subi	r26, 0x71	; 113
     9cc:	be 4f       	sbci	r27, 0xFE	; 254
     9ce:	20 91 c4 03 	lds	r18, 0x03C4
     9d2:	30 91 c5 03 	lds	r19, 0x03C5
     9d6:	e2 57       	subi	r30, 0x72	; 114
     9d8:	fe 4f       	sbci	r31, 0xFE	; 254
     9da:	80 81       	ld	r24, Z
     9dc:	6c 91       	ld	r22, X
     9de:	f9 01       	movw	r30, r18
     9e0:	09 95       	icall
     9e2:	98 2f       	mov	r25, r24
	functional[1] = sayn_communications_control.servo_set_mode_functional;
	functional[2] = sayn_communications_control.servo_set_mode_method;

	if(sayn_communications_control.servo_set_mode_num > 0)
	{
		for(count = 0; count < (sayn_communications_control.servo_set_mode_num/2); count++)
     9e4:	1f 5f       	subi	r17, 0xFF	; 255
     9e6:	80 91 a0 02 	lds	r24, 0x02A0
     9ea:	86 95       	lsr	r24
     9ec:	18 17       	cp	r17, r24
     9ee:	30 f3       	brcs	.-52     	; 0x9bc <SetServoModeMultiAtTimes+0x34>
		{
			temp = (servo_control.pSetMode)(sayn_communications_control.servo_set_mode_parameter[count*2], sayn_communications_control.servo_set_mode_parameter[count*2+1]);
		}

		if(TRUE == temp)											// 读取成功
     9f0:	91 30       	cpi	r25, 0x01	; 1
     9f2:	11 f0       	breq	.+4      	; 0x9f8 <SetServoModeMultiAtTimes+0x70>
     9f4:	89 e0       	ldi	r24, 0x09	; 9
     9f6:	14 c0       	rjmp	.+40     	; 0xa20 <SetServoModeMultiAtTimes+0x98>
		{
			FillSlaveSendStructByArray(p_communication_str,&functional[0],&sayn_communications_control.servo_set_mode_parameter[0]);
     9f8:	c7 01       	movw	r24, r14
     9fa:	be 01       	movw	r22, r28
     9fc:	6f 5f       	subi	r22, 0xFF	; 255
     9fe:	7f 4f       	sbci	r23, 0xFF	; 255
     a00:	44 ea       	ldi	r20, 0xA4	; 164
     a02:	52 e0       	ldi	r21, 0x02	; 2
     a04:	0e 94 c6 01 	call	0x38c	; 0x38c <FillSlaveSendStructByArray>
			uprobot_control.pUpRobotSlaveTxPacket(&p_communication_str->str_stack.str_slave_send, p_communication_str->p_uart_control);
     a08:	f7 01       	movw	r30, r14
     a0a:	60 81       	ld	r22, Z
     a0c:	71 81       	ldd	r23, Z+1	; 0x01
     a0e:	e0 91 87 06 	lds	r30, 0x0687
     a12:	f0 91 88 06 	lds	r31, 0x0688
     a16:	c7 01       	movw	r24, r14
     a18:	84 56       	subi	r24, 0x64	; 100
     a1a:	9f 4f       	sbci	r25, 0xFF	; 255
     a1c:	09 95       	icall
     a1e:	80 e0       	ldi	r24, 0x00	; 0
	else
	{
		return ERR_VALUE;						// 参数长度不正确
	}

}
     a20:	0f 90       	pop	r0
     a22:	0f 90       	pop	r0
     a24:	0f 90       	pop	r0
     a26:	cf 91       	pop	r28
     a28:	df 91       	pop	r29
     a2a:	1f 91       	pop	r17
     a2c:	ff 90       	pop	r15
     a2e:	ef 90       	pop	r14
     a30:	08 95       	ret

00000a32 <SetServoTorqueMultiAtTimes>:
uint8 SetServoTorqueMultiAtTimes(COMMUNICATION_PORT_STRUCT* p_communication_str,uint8 * p_parameter)
{
     a32:	ef 92       	push	r14
     a34:	ff 92       	push	r15
     a36:	1f 93       	push	r17
     a38:	df 93       	push	r29
     a3a:	cf 93       	push	r28
     a3c:	00 d0       	rcall	.+0      	; 0xa3e <SetServoTorqueMultiAtTimes+0xc>
     a3e:	0f 92       	push	r0
     a40:	cd b7       	in	r28, 0x3d	; 61
     a42:	de b7       	in	r29, 0x3e	; 62
     a44:	7c 01       	movw	r14, r24
	uint8 temp = 0;
	uint8 functional[3];
	uint8 count = 0;

	functional[0] = 0x00;  //返回数据长度
	functional[1] = sayn_communications_control.servo_set_torque_functional;
     a46:	20 91 e1 02 	lds	r18, 0x02E1
	functional[2] = sayn_communications_control.servo_set_torque_method;
     a4a:	90 91 e2 02 	lds	r25, 0x02E2

	if(sayn_communications_control.servo_set_torque_num > 0)
     a4e:	80 91 e0 02 	lds	r24, 0x02E0
     a52:	88 23       	and	r24, r24
     a54:	11 f4       	brne	.+4      	; 0xa5a <SetServoTorqueMultiAtTimes+0x28>
     a56:	83 e0       	ldi	r24, 0x03	; 3
     a58:	38 c0       	rjmp	.+112    	; 0xaca <SetServoTorqueMultiAtTimes+0x98>
{
	uint8 temp = 0;
	uint8 functional[3];
	uint8 count = 0;

	functional[0] = 0x00;  //返回数据长度
     a5a:	19 82       	std	Y+1, r1	; 0x01
	functional[1] = sayn_communications_control.servo_set_torque_functional;
     a5c:	2a 83       	std	Y+2, r18	; 0x02
	functional[2] = sayn_communications_control.servo_set_torque_method;
     a5e:	9b 83       	std	Y+3, r25	; 0x03
     a60:	90 e0       	ldi	r25, 0x00	; 0
     a62:	10 e0       	ldi	r17, 0x00	; 0
     a64:	15 c0       	rjmp	.+42     	; 0xa90 <SetServoTorqueMultiAtTimes+0x5e>

	if(sayn_communications_control.servo_set_torque_num > 0)
	{
		for(count = 0; count < (sayn_communications_control.servo_set_torque_num/2); count++)
		{
			temp = (servo_control.pSetTorqueEnable)(sayn_communications_control.servo_set_torque_parameter[count*2], sayn_communications_control.servo_set_torque_parameter[count*2+1]);
     a66:	e1 2f       	mov	r30, r17
     a68:	f0 e0       	ldi	r31, 0x00	; 0
     a6a:	ee 0f       	add	r30, r30
     a6c:	ff 1f       	adc	r31, r31
     a6e:	ea 5e       	subi	r30, 0xEA	; 234
     a70:	fe 4f       	sbci	r31, 0xFE	; 254
     a72:	df 01       	movw	r26, r30
     a74:	a1 53       	subi	r26, 0x31	; 49
     a76:	be 4f       	sbci	r27, 0xFE	; 254
     a78:	20 91 c6 03 	lds	r18, 0x03C6
     a7c:	30 91 c7 03 	lds	r19, 0x03C7
     a80:	e2 53       	subi	r30, 0x32	; 50
     a82:	fe 4f       	sbci	r31, 0xFE	; 254
     a84:	80 81       	ld	r24, Z
     a86:	6c 91       	ld	r22, X
     a88:	f9 01       	movw	r30, r18
     a8a:	09 95       	icall
     a8c:	98 2f       	mov	r25, r24
	functional[1] = sayn_communications_control.servo_set_torque_functional;
	functional[2] = sayn_communications_control.servo_set_torque_method;

	if(sayn_communications_control.servo_set_torque_num > 0)
	{
		for(count = 0; count < (sayn_communications_control.servo_set_torque_num/2); count++)
     a8e:	1f 5f       	subi	r17, 0xFF	; 255
     a90:	80 91 e0 02 	lds	r24, 0x02E0
     a94:	86 95       	lsr	r24
     a96:	18 17       	cp	r17, r24
     a98:	30 f3       	brcs	.-52     	; 0xa66 <SetServoTorqueMultiAtTimes+0x34>
		{
			temp = (servo_control.pSetTorqueEnable)(sayn_communications_control.servo_set_torque_parameter[count*2], sayn_communications_control.servo_set_torque_parameter[count*2+1]);
		}

		if(TRUE == temp)											// 读取成功
     a9a:	91 30       	cpi	r25, 0x01	; 1
     a9c:	11 f0       	breq	.+4      	; 0xaa2 <SetServoTorqueMultiAtTimes+0x70>
     a9e:	89 e0       	ldi	r24, 0x09	; 9
     aa0:	14 c0       	rjmp	.+40     	; 0xaca <SetServoTorqueMultiAtTimes+0x98>
		{
			FillSlaveSendStructByArray(p_communication_str,&functional[0],&sayn_communications_control.servo_set_torque_parameter[0]);
     aa2:	c7 01       	movw	r24, r14
     aa4:	be 01       	movw	r22, r28
     aa6:	6f 5f       	subi	r22, 0xFF	; 255
     aa8:	7f 4f       	sbci	r23, 0xFF	; 255
     aaa:	44 ee       	ldi	r20, 0xE4	; 228
     aac:	52 e0       	ldi	r21, 0x02	; 2
     aae:	0e 94 c6 01 	call	0x38c	; 0x38c <FillSlaveSendStructByArray>
			uprobot_control.pUpRobotSlaveTxPacket(&p_communication_str->str_stack.str_slave_send, p_communication_str->p_uart_control);
     ab2:	f7 01       	movw	r30, r14
     ab4:	60 81       	ld	r22, Z
     ab6:	71 81       	ldd	r23, Z+1	; 0x01
     ab8:	e0 91 87 06 	lds	r30, 0x0687
     abc:	f0 91 88 06 	lds	r31, 0x0688
     ac0:	c7 01       	movw	r24, r14
     ac2:	84 56       	subi	r24, 0x64	; 100
     ac4:	9f 4f       	sbci	r25, 0xFF	; 255
     ac6:	09 95       	icall
     ac8:	80 e0       	ldi	r24, 0x00	; 0
	}
	else
	{
		return ERR_VALUE;						// 参数长度不正确
	}
}
     aca:	0f 90       	pop	r0
     acc:	0f 90       	pop	r0
     ace:	0f 90       	pop	r0
     ad0:	cf 91       	pop	r28
     ad2:	df 91       	pop	r29
     ad4:	1f 91       	pop	r17
     ad6:	ff 90       	pop	r15
     ad8:	ef 90       	pop	r14
     ada:	08 95       	ret

00000adc <CommandParse>:
** 修订人:
** 修订日期:
**------------------------------------------------------------------------------------------------------------------------
*************************************************************************************************************************/
static uint8 CommandParse(COMMUNICATION_PORT_STRUCT* p_communication_str)
{
     adc:	cf 92       	push	r12
     ade:	df 92       	push	r13
     ae0:	ef 92       	push	r14
     ae2:	ff 92       	push	r15
     ae4:	0f 93       	push	r16
     ae6:	1f 93       	push	r17
     ae8:	df 93       	push	r29
     aea:	cf 93       	push	r28
     aec:	cd b7       	in	r28, 0x3d	; 61
     aee:	de b7       	in	r29, 0x3e	; 62
     af0:	60 97       	sbiw	r28, 0x10	; 16
     af2:	0f b6       	in	r0, 0x3f	; 63
     af4:	f8 94       	cli
     af6:	de bf       	out	0x3e, r29	; 62
     af8:	0f be       	out	0x3f, r0	; 63
     afa:	cd bf       	out	0x3d, r28	; 61
     afc:	8c 01       	movw	r16, r24
	uint8 temp_state = FALSE;
	
	if(ERR_CRC == (p_communication_str->state & ERR_MASK))							// 校验码错误返回
     afe:	e4 e5       	ldi	r30, 0x54	; 84
     b00:	ce 2e       	mov	r12, r30
     b02:	e1 e0       	ldi	r30, 0x01	; 1
     b04:	de 2e       	mov	r13, r30
     b06:	c8 0e       	add	r12, r24
     b08:	d9 1e       	adc	r13, r25
     b0a:	d6 01       	movw	r26, r12
     b0c:	2c 91       	ld	r18, X
     b0e:	82 2f       	mov	r24, r18
     b10:	8f 73       	andi	r24, 0x3F	; 63
     b12:	7f e4       	ldi	r23, 0x4F	; 79
     b14:	e7 2e       	mov	r14, r23
     b16:	71 e0       	ldi	r23, 0x01	; 1
     b18:	f7 2e       	mov	r15, r23
     b1a:	e0 0e       	add	r14, r16
     b1c:	f1 1e       	adc	r15, r17
     b1e:	84 31       	cpi	r24, 0x14	; 20
     b20:	09 f5       	brne	.+66     	; 0xb64 <CommandParse+0x88>
** 修订日期:
**------------------------------------------------------------------------------------------------------------------------
*************************************************************************************************************************/
static void StateResponse(COMMUNICATION_PORT_STRUCT* p_communication_str)
{
	p_communication_str->str_stack.str_slave_send.device_id = p_communication_str->local_id;
     b22:	04 56       	subi	r16, 0x64	; 100
     b24:	1f 4f       	sbci	r17, 0xFF	; 255
     b26:	f7 01       	movw	r30, r14
     b28:	80 81       	ld	r24, Z
     b2a:	d8 01       	movw	r26, r16
     b2c:	8c 93       	st	X, r24
	p_communication_str->str_stack.str_slave_send.parameter_length = 0;							// 返回参数长度为0
     b2e:	0c 5f       	subi	r16, 0xFC	; 252
     b30:	1f 4f       	sbci	r17, 0xFF	; 255
     b32:	f8 01       	movw	r30, r16
     b34:	10 82       	st	Z, r1
     b36:	00 5a       	subi	r16, 0xA0	; 160
     b38:	10 40       	sbci	r17, 0x00	; 0
	
	p_communication_str->str_stack.str_slave_send.functional_unit = p_communication_str->str_stack.str_slave_receive.functional_unit;
     b3a:	d8 01       	movw	r26, r16
     b3c:	13 96       	adiw	r26, 0x03	; 3
     b3e:	8c 91       	ld	r24, X
     b40:	03 56       	subi	r16, 0x63	; 99
     b42:	1f 4f       	sbci	r17, 0xFF	; 255
     b44:	f8 01       	movw	r30, r16
     b46:	80 83       	st	Z, r24
     b48:	0d 59       	subi	r16, 0x9D	; 157
     b4a:	10 40       	sbci	r17, 0x00	; 0
	p_communication_str->str_stack.str_slave_send.method_code = p_communication_str->str_stack.str_slave_receive.method_code;
     b4c:	d8 01       	movw	r26, r16
     b4e:	14 96       	adiw	r26, 0x04	; 4
     b50:	8c 91       	ld	r24, X
     b52:	02 56       	subi	r16, 0x62	; 98
     b54:	1f 4f       	sbci	r17, 0xFF	; 255
     b56:	f8 01       	movw	r30, r16
     b58:	80 83       	st	Z, r24
	
	p_communication_str->str_stack.str_slave_send.state_byte = p_communication_str->state;		// 返回状态标志
     b5a:	0f 5f       	subi	r16, 0xFF	; 255
     b5c:	1f 4f       	sbci	r17, 0xFF	; 255
     b5e:	d8 01       	movw	r26, r16
     b60:	2c 93       	st	X, r18
     b62:	1d c4       	rjmp	.+2106   	; 0x139e <__stack+0x29f>
	{
		StateResponse(p_communication_str);
		return TRUE;
	}
	
	if(p_communication_str->local_id == p_communication_str->str_stack.str_slave_receive.device_id)
     b64:	f7 01       	movw	r30, r14
     b66:	90 81       	ld	r25, Z
     b68:	d8 01       	movw	r26, r16
     b6a:	12 96       	adiw	r26, 0x02	; 2
     b6c:	8c 91       	ld	r24, X
     b6e:	12 97       	sbiw	r26, 0x02	; 2
     b70:	98 17       	cp	r25, r24
     b72:	09 f0       	breq	.+2      	; 0xb76 <CommandParse+0x9a>
     b74:	85 c4       	rjmp	.+2314   	; 0x1480 <__stack+0x381>
	{
		switch(p_communication_str->str_stack.str_slave_receive.functional_unit)
     b76:	13 96       	adiw	r26, 0x03	; 3
     b78:	8c 91       	ld	r24, X
     b7a:	86 30       	cpi	r24, 0x06	; 6
     b7c:	38 f4       	brcc	.+14     	; 0xb8c <CommandParse+0xb0>
     b7e:	84 30       	cpi	r24, 0x04	; 4
     b80:	08 f0       	brcs	.+2      	; 0xb84 <CommandParse+0xa8>
     b82:	7e c4       	rjmp	.+2300   	; 0x1480 <__stack+0x381>
     b84:	82 30       	cpi	r24, 0x02	; 2
     b86:	08 f0       	brcs	.+2      	; 0xb8a <CommandParse+0xae>
     b88:	4f c4       	rjmp	.+2206   	; 0x1428 <__stack+0x329>
     b8a:	7a c4       	rjmp	.+2292   	; 0x1480 <__stack+0x381>
     b8c:	87 30       	cpi	r24, 0x07	; 7
     b8e:	09 f4       	brne	.+2      	; 0xb92 <CommandParse+0xb6>
     b90:	9a c0       	rjmp	.+308    	; 0xcc6 <CommandParse+0x1ea>
     b92:	87 30       	cpi	r24, 0x07	; 7
     b94:	38 f0       	brcs	.+14     	; 0xba4 <CommandParse+0xc8>
     b96:	88 30       	cpi	r24, 0x08	; 8
     b98:	09 f4       	brne	.+2      	; 0xb9c <CommandParse+0xc0>
     b9a:	3d c1       	rjmp	.+634    	; 0xe16 <CommandParse+0x33a>
     b9c:	80 3a       	cpi	r24, 0xA0	; 160
     b9e:	09 f0       	breq	.+2      	; 0xba2 <CommandParse+0xc6>
     ba0:	43 c4       	rjmp	.+2182   	; 0x1428 <__stack+0x329>
     ba2:	b3 c3       	rjmp	.+1894   	; 0x130a <__stack+0x20b>
	uint8 count = 0;
	
	uint8 temp_8bit_parameter[8];						// 参数缓冲区
	uint16 temp_16bit_parameter[4];						// 参数缓冲区
	 
	switch(p_communication_str->str_stack.str_slave_receive.method_code)
     ba4:	f8 01       	movw	r30, r16
     ba6:	84 81       	ldd	r24, Z+4	; 0x04
     ba8:	81 32       	cpi	r24, 0x21	; 33
     baa:	09 f4       	brne	.+2      	; 0xbae <CommandParse+0xd2>
     bac:	5c c0       	rjmp	.+184    	; 0xc66 <CommandParse+0x18a>
     bae:	82 32       	cpi	r24, 0x22	; 34
     bb0:	30 f4       	brcc	.+12     	; 0xbbe <CommandParse+0xe2>
     bb2:	88 23       	and	r24, r24
     bb4:	41 f0       	breq	.+16     	; 0xbc6 <CommandParse+0xea>
     bb6:	80 32       	cpi	r24, 0x20	; 32
     bb8:	09 f0       	breq	.+2      	; 0xbbc <CommandParse+0xe0>
     bba:	2d c4       	rjmp	.+2138   	; 0x1416 <__stack+0x317>
     bbc:	39 c0       	rjmp	.+114    	; 0xc30 <CommandParse+0x154>
     bbe:	80 36       	cpi	r24, 0x60	; 96
     bc0:	09 f0       	breq	.+2      	; 0xbc4 <CommandParse+0xe8>
     bc2:	29 c4       	rjmp	.+2130   	; 0x1416 <__stack+0x317>
     bc4:	6b c0       	rjmp	.+214    	; 0xc9c <CommandParse+0x1c0>
		/*****************************************************************************************************************
															GET段
		*****************************************************************************************************************/
		case GET_INPUT_VAL:
		{
			if(GET_INPUT_VAL_LEN == p_communication_str->str_stack.str_slave_receive.parameter_length)
     bc6:	d8 01       	movw	r26, r16
     bc8:	15 96       	adiw	r26, 0x05	; 5
     bca:	8c 91       	ld	r24, X
     bcc:	88 23       	and	r24, r24
     bce:	09 f0       	breq	.+2      	; 0xbd2 <CommandParse+0xf6>
     bd0:	22 c4       	rjmp	.+2116   	; 0x1416 <__stack+0x317>
			{
				(gpio_control.pGetInputFilte)(&temp_16bit_parameter[0]);
     bd2:	e0 91 4c 07 	lds	r30, 0x074C
     bd6:	f0 91 4d 07 	lds	r31, 0x074D
     bda:	ce 01       	movw	r24, r28
     bdc:	09 96       	adiw	r24, 0x09	; 9
     bde:	09 95       	icall
				
				p_communication_str->str_stack.str_slave_send.device_id = p_communication_str->local_id;
     be0:	d8 01       	movw	r26, r16
     be2:	a4 56       	subi	r26, 0x64	; 100
     be4:	bf 4f       	sbci	r27, 0xFF	; 255
     be6:	f7 01       	movw	r30, r14
     be8:	80 81       	ld	r24, Z
     bea:	8c 93       	st	X, r24
				p_communication_str->str_stack.str_slave_send.functional_unit = p_communication_str->str_stack.str_slave_receive.functional_unit;
     bec:	f8 01       	movw	r30, r16
     bee:	83 81       	ldd	r24, Z+3	; 0x03
     bf0:	03 56       	subi	r16, 0x63	; 99
     bf2:	1f 4f       	sbci	r17, 0xFF	; 255
     bf4:	f8 01       	movw	r30, r16
     bf6:	80 83       	st	Z, r24
     bf8:	0d 59       	subi	r16, 0x9D	; 157
     bfa:	10 40       	sbci	r17, 0x00	; 0
				p_communication_str->str_stack.str_slave_send.method_code = p_communication_str->str_stack.str_slave_receive.method_code;
     bfc:	f8 01       	movw	r30, r16
     bfe:	84 81       	ldd	r24, Z+4	; 0x04
     c00:	02 56       	subi	r16, 0x62	; 98
     c02:	1f 4f       	sbci	r17, 0xFF	; 255
     c04:	f8 01       	movw	r30, r16
     c06:	80 83       	st	Z, r24
				
				p_communication_str->str_stack.str_slave_send.parameter_length = GET_INPUT_VAL_BACK_LEN;
     c08:	0e 5f       	subi	r16, 0xFE	; 254
     c0a:	1f 4f       	sbci	r17, 0xFF	; 255
     c0c:	82 e0       	ldi	r24, 0x02	; 2
     c0e:	f8 01       	movw	r30, r16
     c10:	81 93       	st	Z+, r24
				
				Out16(temp_8bit_parameter[1], temp_8bit_parameter[0], temp_16bit_parameter[0])
     c12:	99 85       	ldd	r25, Y+9	; 0x09
     c14:	8a 85       	ldd	r24, Y+10	; 0x0a
     c16:	89 83       	std	Y+1, r24	; 0x01
     c18:	9a 83       	std	Y+2, r25	; 0x02
				
				for(count = 0; count < GET_INPUT_VAL_BACK_LEN; count++)
				{
					p_communication_str->str_stack.str_slave_send.parameter[count] = temp_8bit_parameter[count];
     c1a:	81 93       	st	Z+, r24
     c1c:	8f 01       	movw	r16, r30
     c1e:	90 83       	st	Z, r25
				}
				
				p_communication_str->str_stack.str_slave_send.state_byte = SetRegMask(main_communication.state, ERR_MASK, ERR_OK);	// 返回状态标志
     c20:	80 91 80 05 	lds	r24, 0x0580
     c24:	80 7c       	andi	r24, 0xC0	; 192
     c26:	80 93 80 05 	sts	0x0580, r24
     c2a:	03 50       	subi	r16, 0x03	; 3
     c2c:	10 40       	sbci	r17, 0x00	; 0
     c2e:	c1 c2       	rjmp	.+1410   	; 0x11b2 <__stack+0xb3>
		/*****************************************************************************************************************
															SET段
		*****************************************************************************************************************/
		case SET_DIRECTION_VAL:
		{
			if(SET_DIRECTION_VAL_LEN == p_communication_str->str_stack.str_slave_receive.parameter_length)
     c30:	d8 01       	movw	r26, r16
     c32:	15 96       	adiw	r26, 0x05	; 5
     c34:	8c 91       	ld	r24, X
     c36:	15 97       	sbiw	r26, 0x05	; 5
     c38:	82 30       	cpi	r24, 0x02	; 2
     c3a:	09 f0       	breq	.+2      	; 0xc3e <CommandParse+0x162>
     c3c:	ec c3       	rjmp	.+2008   	; 0x1416 <__stack+0x317>
			{
				for(count = 0; count < SET_DIRECTION_VAL_LEN; count++)
				{
					temp_8bit_parameter[count] = (p_communication_str->str_stack.str_slave_receive.parameter[count]);
     c3e:	16 96       	adiw	r26, 0x06	; 6
     c40:	4c 91       	ld	r20, X
     c42:	16 97       	sbiw	r26, 0x06	; 6
     c44:	49 83       	std	Y+1, r20	; 0x01
     c46:	17 96       	adiw	r26, 0x07	; 7
     c48:	8c 91       	ld	r24, X
     c4a:	8a 83       	std	Y+2, r24	; 0x02
				}
				
				In16(temp_16bit_parameter[0], temp_8bit_parameter[1], temp_8bit_parameter[0]);
     c4c:	34 2f       	mov	r19, r20
     c4e:	20 e0       	ldi	r18, 0x00	; 0
     c50:	90 e0       	ldi	r25, 0x00	; 0
     c52:	82 2b       	or	r24, r18
     c54:	93 2b       	or	r25, r19
     c56:	9a 87       	std	Y+10, r25	; 0x0a
     c58:	89 87       	std	Y+9, r24	; 0x09
				
				(gpio_control.pSetGpioDdr)(temp_16bit_parameter[0]);
     c5a:	e0 91 3c 07 	lds	r30, 0x073C
     c5e:	f0 91 3d 07 	lds	r31, 0x073D
     c62:	09 95       	icall
     c64:	5a c2       	rjmp	.+1204   	; 0x111a <__stack+0x1b>
		}
		
		
		case SET_OUTPUT_VAL:
		{
			if(SET_OUTPUT_VAL_LEN == p_communication_str->str_stack.str_slave_receive.parameter_length)
     c66:	d8 01       	movw	r26, r16
     c68:	15 96       	adiw	r26, 0x05	; 5
     c6a:	8c 91       	ld	r24, X
     c6c:	15 97       	sbiw	r26, 0x05	; 5
     c6e:	82 30       	cpi	r24, 0x02	; 2
     c70:	09 f0       	breq	.+2      	; 0xc74 <CommandParse+0x198>
     c72:	d1 c3       	rjmp	.+1954   	; 0x1416 <__stack+0x317>
			{
				for(count = 0; count < SET_OUTPUT_VAL_LEN; count++)
				{
					temp_8bit_parameter[count] = (p_communication_str->str_stack.str_slave_receive.parameter[count]);
     c74:	16 96       	adiw	r26, 0x06	; 6
     c76:	4c 91       	ld	r20, X
     c78:	16 97       	sbiw	r26, 0x06	; 6
     c7a:	49 83       	std	Y+1, r20	; 0x01
     c7c:	17 96       	adiw	r26, 0x07	; 7
     c7e:	8c 91       	ld	r24, X
     c80:	8a 83       	std	Y+2, r24	; 0x02
				}
				
				In16(temp_16bit_parameter[0], temp_8bit_parameter[1], temp_8bit_parameter[0]);
     c82:	34 2f       	mov	r19, r20
     c84:	20 e0       	ldi	r18, 0x00	; 0
     c86:	90 e0       	ldi	r25, 0x00	; 0
     c88:	82 2b       	or	r24, r18
     c8a:	93 2b       	or	r25, r19
     c8c:	9a 87       	std	Y+10, r25	; 0x0a
     c8e:	89 87       	std	Y+9, r24	; 0x09
				
				(gpio_control.pSetOutputPort)(temp_16bit_parameter[0]);
     c90:	e0 91 40 07 	lds	r30, 0x0740
     c94:	f0 91 41 07 	lds	r31, 0x0741
     c98:	09 95       	icall
     c9a:	0f c2       	rjmp	.+1054   	; 0x10ba <CommandParse+0x5de>
			break;
		}
		
		case GET_INPUT_VAL_AT_TIMES:
		{
			if(GET_INPUT_VAL_AT_TIMES_LEN == p_communication_str->str_stack.str_slave_receive.parameter_length)
     c9c:	d8 01       	movw	r26, r16
     c9e:	15 96       	adiw	r26, 0x05	; 5
     ca0:	8c 91       	ld	r24, X
     ca2:	15 97       	sbiw	r26, 0x05	; 5
     ca4:	81 30       	cpi	r24, 0x01	; 1
     ca6:	09 f0       	breq	.+2      	; 0xcaa <CommandParse+0x1ce>
     ca8:	b6 c3       	rjmp	.+1900   	; 0x1416 <__stack+0x317>
			{
				sayn_communications_control.io_sayn_time = p_communication_str->str_stack.str_slave_receive.parameter[0];
     caa:	16 96       	adiw	r26, 0x06	; 6
     cac:	8c 91       	ld	r24, X
     cae:	80 93 2b 01 	sts	0x012B, r24
				if((sayn_communications_control.io_sayn_time<5) && (sayn_communications_control.io_sayn_time>0))
     cb2:	81 50       	subi	r24, 0x01	; 1
     cb4:	84 30       	cpi	r24, 0x04	; 4
     cb6:	18 f4       	brcc	.+6      	; 0xcbe <CommandParse+0x1e2>
				{
					sayn_communications_control.io_sayn_time = 5;
     cb8:	85 e0       	ldi	r24, 0x05	; 5
     cba:	80 93 2b 01 	sts	0x012B, r24
				}
				if (GetIoInputAtTimes(p_communication_str) == ERR_OK)
     cbe:	c8 01       	movw	r24, r16
     cc0:	0e 94 2e 03 	call	0x65c	; 0x65c <GetIoInputAtTimes>
     cc4:	a4 c0       	rjmp	.+328    	; 0xe0e <CommandParse+0x332>
	uint8 temp_8bit_parameter[8];						// 参数缓冲区
	uint16 temp_16bit_parameter[4];						// 参数缓冲区
	uint8 *p_parameter;
//	uint8 temp;
	 
	switch(p_communication_str->str_stack.str_slave_receive.method_code)
     cc6:	f8 01       	movw	r30, r16
     cc8:	84 81       	ldd	r24, Z+4	; 0x04
     cca:	81 36       	cpi	r24, 0x61	; 97
     ccc:	09 f4       	brne	.+2      	; 0xcd0 <CommandParse+0x1f4>
     cce:	6c c0       	rjmp	.+216    	; 0xda8 <CommandParse+0x2cc>
     cd0:	82 36       	cpi	r24, 0x62	; 98
     cd2:	30 f4       	brcc	.+12     	; 0xce0 <CommandParse+0x204>
     cd4:	88 23       	and	r24, r24
     cd6:	41 f0       	breq	.+16     	; 0xce8 <CommandParse+0x20c>
     cd8:	80 36       	cpi	r24, 0x60	; 96
     cda:	09 f0       	breq	.+2      	; 0xcde <CommandParse+0x202>
     cdc:	9c c3       	rjmp	.+1848   	; 0x1416 <__stack+0x317>
     cde:	42 c0       	rjmp	.+132    	; 0xd64 <CommandParse+0x288>
     ce0:	82 36       	cpi	r24, 0x62	; 98
     ce2:	09 f0       	breq	.+2      	; 0xce6 <CommandParse+0x20a>
     ce4:	98 c3       	rjmp	.+1840   	; 0x1416 <__stack+0x317>
     ce6:	7f c0       	rjmp	.+254    	; 0xde6 <CommandParse+0x30a>
		/*****************************************************************************************************************
															GET段
		*****************************************************************************************************************/
		case GET_ADC_VAL:
		{
			if(GET_ADC_VAL_LEN == p_communication_str->str_stack.str_slave_receive.parameter_length)
     ce8:	d8 01       	movw	r26, r16
     cea:	15 96       	adiw	r26, 0x05	; 5
     cec:	8c 91       	ld	r24, X
     cee:	81 30       	cpi	r24, 0x01	; 1
     cf0:	09 f0       	breq	.+2      	; 0xcf4 <CommandParse+0x218>
     cf2:	91 c3       	rjmp	.+1826   	; 0x1416 <__stack+0x317>
			{
				temp_8bit_parameter[0] = (p_communication_str->str_stack.str_slave_receive.parameter[0]);
     cf4:	f8 01       	movw	r30, r16
     cf6:	86 81       	ldd	r24, Z+6	; 0x06
     cf8:	89 83       	std	Y+1, r24	; 0x01
				temp_8bit_parameter[7] = adc_control.pGetValue(temp_8bit_parameter[0], &temp_16bit_parameter[0]);
     cfa:	e0 91 a9 06 	lds	r30, 0x06A9
     cfe:	f0 91 aa 06 	lds	r31, 0x06AA
     d02:	be 01       	movw	r22, r28
     d04:	67 5f       	subi	r22, 0xF7	; 247
     d06:	7f 4f       	sbci	r23, 0xFF	; 255
     d08:	09 95       	icall
     d0a:	88 87       	std	Y+8, r24	; 0x08
				if(TRUE == temp_8bit_parameter[7])											// 读取成功
     d0c:	81 30       	cpi	r24, 0x01	; 1
     d0e:	09 f0       	breq	.+2      	; 0xd12 <CommandParse+0x236>
     d10:	c7 c3       	rjmp	.+1934   	; 0x14a0 <__stack+0x3a1>
				{
					Out16(temp_8bit_parameter[2], temp_8bit_parameter[1], temp_16bit_parameter[0])
     d12:	2a 85       	ldd	r18, Y+10	; 0x0a
     d14:	2a 83       	std	Y+2, r18	; 0x02
     d16:	99 85       	ldd	r25, Y+9	; 0x09
     d18:	9b 83       	std	Y+3, r25	; 0x03
*************************************************************************************************************************/

static void FillSlaveSendStruct(COMMUNICATION_PORT_STRUCT* p_communication_str,uint8 parameter_length,uint8 * parameter )
{
	uint8 count = 0;
	p_communication_str->str_stack.str_slave_send.device_id = p_communication_str->local_id;
     d1a:	d8 01       	movw	r26, r16
     d1c:	a4 56       	subi	r26, 0x64	; 100
     d1e:	bf 4f       	sbci	r27, 0xFF	; 255
     d20:	f7 01       	movw	r30, r14
     d22:	80 81       	ld	r24, Z
     d24:	8c 93       	st	X, r24
	p_communication_str->str_stack.str_slave_send.functional_unit = p_communication_str->str_stack.str_slave_receive.functional_unit;
     d26:	f8 01       	movw	r30, r16
     d28:	83 81       	ldd	r24, Z+3	; 0x03
     d2a:	03 56       	subi	r16, 0x63	; 99
     d2c:	1f 4f       	sbci	r17, 0xFF	; 255
     d2e:	f8 01       	movw	r30, r16
     d30:	80 83       	st	Z, r24
     d32:	0d 59       	subi	r16, 0x9D	; 157
     d34:	10 40       	sbci	r17, 0x00	; 0
	p_communication_str->str_stack.str_slave_send.method_code = p_communication_str->str_stack.str_slave_receive.method_code;
     d36:	f8 01       	movw	r30, r16
     d38:	84 81       	ldd	r24, Z+4	; 0x04
     d3a:	02 56       	subi	r16, 0x62	; 98
     d3c:	1f 4f       	sbci	r17, 0xFF	; 255
     d3e:	f8 01       	movw	r30, r16
     d40:	80 83       	st	Z, r24

	p_communication_str->str_stack.str_slave_send.parameter_length = parameter_length;
     d42:	0e 5f       	subi	r16, 0xFE	; 254
     d44:	1f 4f       	sbci	r17, 0xFF	; 255
     d46:	83 e0       	ldi	r24, 0x03	; 3
     d48:	f8 01       	movw	r30, r16
     d4a:	81 93       	st	Z+, r24



	for(count = 0; count < parameter_length; count++)
	{
		p_communication_str->str_stack.str_slave_send.parameter[count] = parameter[count];
     d4c:	89 81       	ldd	r24, Y+1	; 0x01
     d4e:	81 93       	st	Z+, r24
     d50:	21 93       	st	Z+, r18
     d52:	8f 01       	movw	r16, r30
     d54:	90 83       	st	Z, r25
	}

	p_communication_str->str_stack.str_slave_send.state_byte = SetRegMask(p_communication_str->state, ERR_MASK, ERR_OK);	// 返回状态标志
     d56:	f6 01       	movw	r30, r12
     d58:	80 81       	ld	r24, Z
     d5a:	80 7c       	andi	r24, 0xC0	; 192
     d5c:	80 83       	st	Z, r24
     d5e:	04 50       	subi	r16, 0x04	; 4
     d60:	10 40       	sbci	r17, 0x00	; 0
     d62:	27 c2       	rjmp	.+1102   	; 0x11b2 <__stack+0xb3>
			}

		}
		case GET_ADC_VAL_SINGLE_AT_TIMES:
		{
			sayn_communications_control.adc_single_sayn_parameter[0] = p_communication_str->str_stack.str_slave_receive.parameter[0];
     d64:	d8 01       	movw	r26, r16
     d66:	16 96       	adiw	r26, 0x06	; 6
     d68:	9c 91       	ld	r25, X
     d6a:	16 97       	sbiw	r26, 0x06	; 6
     d6c:	90 93 1b 01 	sts	0x011B, r25
			sayn_communications_control.adc_single_sayn_parameter[1] = p_communication_str->str_stack.str_slave_receive.parameter[1];
     d70:	17 96       	adiw	r26, 0x07	; 7
     d72:	8c 91       	ld	r24, X
     d74:	80 93 1c 01 	sts	0x011C, r24
			if (sayn_communications_control.adc_single_sayn_parameter[0]<8)
     d78:	98 30       	cpi	r25, 0x08	; 8
     d7a:	10 f0       	brcs	.+4      	; 0xd80 <CommandParse+0x2a4>
     d7c:	82 e0       	ldi	r24, 0x02	; 2
     d7e:	4c c3       	rjmp	.+1688   	; 0x1418 <__stack+0x319>
			{
				sayn_communications_control.adc_single_sayn_time = p_communication_str->str_stack.str_slave_receive.parameter[1]*5;
     d80:	f8 01       	movw	r30, r16
     d82:	87 81       	ldd	r24, Z+7	; 0x07
     d84:	25 e0       	ldi	r18, 0x05	; 5
     d86:	82 9f       	mul	r24, r18
     d88:	c0 01       	movw	r24, r0
     d8a:	11 24       	eor	r1, r1
     d8c:	80 93 16 01 	sts	0x0116, r24
				if((sayn_communications_control.adc_single_sayn_time<10) && (sayn_communications_control.adc_single_sayn_time>0))
     d90:	81 50       	subi	r24, 0x01	; 1
     d92:	89 30       	cpi	r24, 0x09	; 9
     d94:	18 f4       	brcc	.+6      	; 0xd9c <CommandParse+0x2c0>
				{
					sayn_communications_control.adc_single_sayn_time = 10;
     d96:	8a e0       	ldi	r24, 0x0A	; 10
     d98:	80 93 16 01 	sts	0x0116, r24
				}
				if(GetAdcSamplingAtTimes(p_communication_str,sayn_communications_control.adc_single_sayn_parameter[0]) == ERR_OK)
     d9c:	c8 01       	movw	r24, r16
     d9e:	60 91 1b 01 	lds	r22, 0x011B
     da2:	0e 94 fb 01 	call	0x3f6	; 0x3f6 <GetAdcSamplingAtTimes>
     da6:	33 c0       	rjmp	.+102    	; 0xe0e <CommandParse+0x332>

		}
		case GET_ADC_VAL_MULTI_AT_TIMES:
		{

			sayn_communications_control.adc_multi_sayn_parameter[0] = p_communication_str->str_stack.str_slave_receive.parameter[0];
     da8:	d8 01       	movw	r26, r16
     daa:	16 96       	adiw	r26, 0x06	; 6
     dac:	8c 91       	ld	r24, X
     dae:	16 97       	sbiw	r26, 0x06	; 6
     db0:	80 93 22 01 	sts	0x0122, r24
			sayn_communications_control.adc_multi_sayn_parameter[1] = p_communication_str->str_stack.str_slave_receive.parameter[1];
     db4:	17 96       	adiw	r26, 0x07	; 7
     db6:	8c 91       	ld	r24, X
     db8:	17 97       	sbiw	r26, 0x07	; 7
     dba:	80 93 23 01 	sts	0x0123, r24
			sayn_communications_control.adc_multi_sayn_time = p_communication_str->str_stack.str_slave_receive.parameter[1]*5;
     dbe:	17 96       	adiw	r26, 0x07	; 7
     dc0:	8c 91       	ld	r24, X
     dc2:	25 e0       	ldi	r18, 0x05	; 5
     dc4:	82 9f       	mul	r24, r18
     dc6:	c0 01       	movw	r24, r0
     dc8:	11 24       	eor	r1, r1
     dca:	80 93 1d 01 	sts	0x011D, r24
			if((sayn_communications_control.adc_multi_sayn_time<10) && (sayn_communications_control.adc_multi_sayn_time>0))
     dce:	81 50       	subi	r24, 0x01	; 1
     dd0:	89 30       	cpi	r24, 0x09	; 9
     dd2:	18 f4       	brcc	.+6      	; 0xdda <CommandParse+0x2fe>
			{
				sayn_communications_control.adc_multi_sayn_time = 10;
     dd4:	8a e0       	ldi	r24, 0x0A	; 10
     dd6:	80 93 1d 01 	sts	0x011D, r24
			}
			if(GetAdcMultiAtTimes(p_communication_str,sayn_communications_control.adc_multi_sayn_parameter[0]) == ERR_OK)
     dda:	c8 01       	movw	r24, r16
     ddc:	60 91 22 01 	lds	r22, 0x0122
     de0:	0e 94 45 02 	call	0x48a	; 0x48a <GetAdcMultiAtTimes>
     de4:	14 c0       	rjmp	.+40     	; 0xe0e <CommandParse+0x332>

		}
		case GET_ADC_VAL_ALL_AT_TIMES:
		{

			sayn_communications_control.adc_all_sayn_parameter[0] = p_communication_str->str_stack.str_slave_receive.parameter[0];
     de6:	f8 01       	movw	r30, r16
     de8:	86 81       	ldd	r24, Z+6	; 0x06
     dea:	80 93 29 01 	sts	0x0129, r24
			sayn_communications_control.adc_all_sayn_time = p_communication_str->str_stack.str_slave_receive.parameter[0]*5;
     dee:	86 81       	ldd	r24, Z+6	; 0x06
     df0:	25 e0       	ldi	r18, 0x05	; 5
     df2:	82 9f       	mul	r24, r18
     df4:	c0 01       	movw	r24, r0
     df6:	11 24       	eor	r1, r1
     df8:	80 93 24 01 	sts	0x0124, r24
			if((sayn_communications_control.adc_all_sayn_time<10) && (sayn_communications_control.adc_all_sayn_time>0))
     dfc:	81 50       	subi	r24, 0x01	; 1
     dfe:	89 30       	cpi	r24, 0x09	; 9
     e00:	18 f4       	brcc	.+6      	; 0xe08 <CommandParse+0x32c>
			{
				sayn_communications_control.adc_all_sayn_time = 10;
     e02:	8a e0       	ldi	r24, 0x0A	; 10
     e04:	80 93 24 01 	sts	0x0124, r24
			}
			if(GetAdcAllAtTimes(p_communication_str) == ERR_OK)
     e08:	c8 01       	movw	r24, r16
     e0a:	0e 94 d1 02 	call	0x5a2	; 0x5a2 <GetAdcAllAtTimes>
     e0e:	88 23       	and	r24, r24
     e10:	09 f0       	breq	.+2      	; 0xe14 <CommandParse+0x338>
     e12:	46 c3       	rjmp	.+1676   	; 0x14a0 <__stack+0x3a1>
     e14:	35 c3       	rjmp	.+1642   	; 0x1480 <__stack+0x381>
	uint8 count = 0;
	uint8 temp_8bit_parameter[8];								// 参数缓冲区
	uint16 temp_16bit_parameter[4];								// 参数缓冲区
//	uint8 test[3];
	 
	switch(p_communication_str->str_stack.str_slave_receive.method_code)
     e16:	f8 01       	movw	r30, r16
     e18:	84 81       	ldd	r24, Z+4	; 0x04
     e1a:	84 32       	cpi	r24, 0x24	; 36
     e1c:	09 f4       	brne	.+2      	; 0xe20 <CommandParse+0x344>
     e1e:	36 c1       	rjmp	.+620    	; 0x108c <CommandParse+0x5b0>
     e20:	85 32       	cpi	r24, 0x25	; 37
     e22:	b8 f4       	brcc	.+46     	; 0xe52 <CommandParse+0x376>
     e24:	80 32       	cpi	r24, 0x20	; 32
     e26:	09 f4       	brne	.+2      	; 0xe2a <CommandParse+0x34e>
     e28:	a6 c0       	rjmp	.+332    	; 0xf76 <CommandParse+0x49a>
     e2a:	81 32       	cpi	r24, 0x21	; 33
     e2c:	40 f4       	brcc	.+16     	; 0xe3e <CommandParse+0x362>
     e2e:	81 30       	cpi	r24, 0x01	; 1
     e30:	d9 f1       	breq	.+118    	; 0xea8 <CommandParse+0x3cc>
     e32:	81 30       	cpi	r24, 0x01	; 1
     e34:	68 f1       	brcs	.+90     	; 0xe90 <CommandParse+0x3b4>
     e36:	82 30       	cpi	r24, 0x02	; 2
     e38:	09 f0       	breq	.+2      	; 0xe3c <CommandParse+0x360>
     e3a:	ed c2       	rjmp	.+1498   	; 0x1416 <__stack+0x317>
     e3c:	6d c0       	rjmp	.+218    	; 0xf18 <CommandParse+0x43c>
     e3e:	82 32       	cpi	r24, 0x22	; 34
     e40:	09 f4       	brne	.+2      	; 0xe44 <CommandParse+0x368>
     e42:	d6 c0       	rjmp	.+428    	; 0xff0 <CommandParse+0x514>
     e44:	d8 01       	movw	r26, r16
     e46:	15 96       	adiw	r26, 0x05	; 5
     e48:	9c 91       	ld	r25, X
     e4a:	83 32       	cpi	r24, 0x23	; 35
     e4c:	08 f0       	brcs	.+2      	; 0xe50 <CommandParse+0x374>
     e4e:	f3 c0       	rjmp	.+486    	; 0x1036 <CommandParse+0x55a>
     e50:	a5 c0       	rjmp	.+330    	; 0xf9c <CommandParse+0x4c0>
     e52:	80 36       	cpi	r24, 0x60	; 96
     e54:	09 f4       	brne	.+2      	; 0xe58 <CommandParse+0x37c>
     e56:	bb c1       	rjmp	.+886    	; 0x11ce <__stack+0xcf>
     e58:	81 36       	cpi	r24, 0x61	; 97
     e5a:	50 f4       	brcc	.+20     	; 0xe70 <CommandParse+0x394>
     e5c:	80 34       	cpi	r24, 0x40	; 64
     e5e:	09 f4       	brne	.+2      	; 0xe62 <CommandParse+0x386>
     e60:	49 c1       	rjmp	.+658    	; 0x10f4 <CommandParse+0x618>
     e62:	81 34       	cpi	r24, 0x41	; 65
     e64:	09 f4       	brne	.+2      	; 0xe68 <CommandParse+0x38c>
     e66:	68 c1       	rjmp	.+720    	; 0x1138 <__stack+0x39>
     e68:	85 32       	cpi	r24, 0x25	; 37
     e6a:	09 f0       	breq	.+2      	; 0xe6e <CommandParse+0x392>
     e6c:	d4 c2       	rjmp	.+1448   	; 0x1416 <__stack+0x317>
     e6e:	2e c1       	rjmp	.+604    	; 0x10cc <CommandParse+0x5f0>
     e70:	81 37       	cpi	r24, 0x71	; 113
     e72:	09 f4       	brne	.+2      	; 0xe76 <CommandParse+0x39a>
     e74:	d4 c1       	rjmp	.+936    	; 0x121e <__stack+0x11f>
     e76:	82 37       	cpi	r24, 0x72	; 114
     e78:	20 f4       	brcc	.+8      	; 0xe82 <CommandParse+0x3a6>
     e7a:	80 37       	cpi	r24, 0x70	; 112
     e7c:	09 f0       	breq	.+2      	; 0xe80 <CommandParse+0x3a4>
     e7e:	cb c2       	rjmp	.+1430   	; 0x1416 <__stack+0x317>
     e80:	eb c1       	rjmp	.+982    	; 0x1258 <__stack+0x159>
     e82:	82 37       	cpi	r24, 0x72	; 114
     e84:	09 f4       	brne	.+2      	; 0xe88 <CommandParse+0x3ac>
     e86:	23 c2       	rjmp	.+1094   	; 0x12ce <__stack+0x1cf>
     e88:	83 37       	cpi	r24, 0x73	; 115
     e8a:	09 f0       	breq	.+2      	; 0xe8e <CommandParse+0x3b2>
     e8c:	c4 c2       	rjmp	.+1416   	; 0x1416 <__stack+0x317>
     e8e:	00 c2       	rjmp	.+1024   	; 0x1290 <__stack+0x191>
		/*****************************************************************************************************************
															GET段
		*****************************************************************************************************************/
		case GET_SERVO_POSITION:
		{
			if(GET_SERVO_POSITION_LEN == p_communication_str->str_stack.str_slave_receive.parameter_length)
     e90:	f8 01       	movw	r30, r16
     e92:	85 81       	ldd	r24, Z+5	; 0x05
     e94:	81 30       	cpi	r24, 0x01	; 1
     e96:	09 f0       	breq	.+2      	; 0xe9a <CommandParse+0x3be>
     e98:	be c2       	rjmp	.+1404   	; 0x1416 <__stack+0x317>
			{
				temp_8bit_parameter[0] = (p_communication_str->str_stack.str_slave_receive.parameter[0]);
     e9a:	86 81       	ldd	r24, Z+6	; 0x06
     e9c:	89 83       	std	Y+1, r24	; 0x01


				temp_8bit_parameter[7] = (servo_control.pGetPosition)(temp_8bit_parameter[0], &temp_16bit_parameter[0]);
     e9e:	e0 91 d8 03 	lds	r30, 0x03D8
     ea2:	f0 91 d9 03 	lds	r31, 0x03D9
     ea6:	46 c0       	rjmp	.+140    	; 0xf34 <CommandParse+0x458>
			break;
		}
		
		case GET_SERVO_LIMIT:
		{
			if(GET_SERVO_LIMIT_LEN == p_communication_str->str_stack.str_slave_receive.parameter_length)
     ea8:	d8 01       	movw	r26, r16
     eaa:	15 96       	adiw	r26, 0x05	; 5
     eac:	8c 91       	ld	r24, X
     eae:	15 97       	sbiw	r26, 0x05	; 5
     eb0:	81 30       	cpi	r24, 0x01	; 1
     eb2:	09 f0       	breq	.+2      	; 0xeb6 <CommandParse+0x3da>
     eb4:	b0 c2       	rjmp	.+1376   	; 0x1416 <__stack+0x317>
			{
				temp_8bit_parameter[0] = (p_communication_str->str_stack.str_slave_receive.parameter[0]);
     eb6:	16 96       	adiw	r26, 0x06	; 6
     eb8:	8c 91       	ld	r24, X
     eba:	89 83       	std	Y+1, r24	; 0x01

				temp_8bit_parameter[7] = (servo_control.pGetAngleLimit)(temp_8bit_parameter[0], &temp_16bit_parameter[0], &temp_16bit_parameter[1]);
     ebc:	e0 91 dc 03 	lds	r30, 0x03DC
     ec0:	f0 91 dd 03 	lds	r31, 0x03DD
     ec4:	be 01       	movw	r22, r28
     ec6:	67 5f       	subi	r22, 0xF7	; 247
     ec8:	7f 4f       	sbci	r23, 0xFF	; 255
     eca:	ae 01       	movw	r20, r28
     ecc:	45 5f       	subi	r20, 0xF5	; 245
     ece:	5f 4f       	sbci	r21, 0xFF	; 255
     ed0:	09 95       	icall
     ed2:	88 87       	std	Y+8, r24	; 0x08

				if(TRUE == temp_8bit_parameter[7])											// 读取成功
     ed4:	81 30       	cpi	r24, 0x01	; 1
     ed6:	09 f0       	breq	.+2      	; 0xeda <CommandParse+0x3fe>
     ed8:	e3 c2       	rjmp	.+1478   	; 0x14a0 <__stack+0x3a1>
				{
					p_communication_str->str_stack.str_slave_send.device_id = p_communication_str->local_id;
     eda:	d8 01       	movw	r26, r16
     edc:	a4 56       	subi	r26, 0x64	; 100
     ede:	bf 4f       	sbci	r27, 0xFF	; 255
     ee0:	01 5b       	subi	r16, 0xB1	; 177
     ee2:	1e 4f       	sbci	r17, 0xFE	; 254
     ee4:	f8 01       	movw	r30, r16
     ee6:	80 81       	ld	r24, Z
     ee8:	8c 93       	st	X, r24
					p_communication_str->str_stack.str_slave_send.parameter_length = GET_SERVO_LIMIT_BACK_LEN;		// 返回参数长度为5
     eea:	0f 5a       	subi	r16, 0xAF	; 175
     eec:	10 40       	sbci	r17, 0x00	; 0
     eee:	85 e0       	ldi	r24, 0x05	; 5
     ef0:	f8 01       	movw	r30, r16
     ef2:	81 93       	st	Z+, r24
					
					p_communication_str->str_stack.str_slave_send.parameter[0] = temp_8bit_parameter[0];
     ef4:	89 81       	ldd	r24, Y+1	; 0x01
     ef6:	81 93       	st	Z+, r24
					
					Out16(temp_8bit_parameter[2], temp_8bit_parameter[3], temp_16bit_parameter[0]);
     ef8:	3a 85       	ldd	r19, Y+10	; 0x0a
     efa:	3c 83       	std	Y+4, r19	; 0x04
     efc:	99 85       	ldd	r25, Y+9	; 0x09
     efe:	9b 83       	std	Y+3, r25	; 0x03
					Out16(temp_8bit_parameter[4], temp_8bit_parameter[5], temp_16bit_parameter[1]);
     f00:	2c 85       	ldd	r18, Y+12	; 0x0c
     f02:	2e 83       	std	Y+6, r18	; 0x06
     f04:	8b 85       	ldd	r24, Y+11	; 0x0b
     f06:	8d 83       	std	Y+5, r24	; 0x05
					
					for(count = 0; count < GET_SERVO_LIMIT_BACK_LEN - 1; count++)
					{
						p_communication_str->str_stack.str_slave_send.parameter[count + 1] = temp_8bit_parameter[count + 2];
     f08:	91 93       	st	Z+, r25
     f0a:	31 93       	st	Z+, r19
     f0c:	81 93       	st	Z+, r24
     f0e:	8f 01       	movw	r16, r30
     f10:	20 83       	st	Z, r18
     f12:	05 5a       	subi	r16, 0xA5	; 165
     f14:	10 40       	sbci	r17, 0x00	; 0
     f16:	38 c1       	rjmp	.+624    	; 0x1188 <__stack+0x89>
		}
		

		case GET_SERVO_LOAD:
				{
					if(GET_SERVO_LOAD_LEN == p_communication_str->str_stack.str_slave_receive.parameter_length)
     f18:	d8 01       	movw	r26, r16
     f1a:	15 96       	adiw	r26, 0x05	; 5
     f1c:	8c 91       	ld	r24, X
     f1e:	15 97       	sbiw	r26, 0x05	; 5
     f20:	81 30       	cpi	r24, 0x01	; 1
     f22:	09 f0       	breq	.+2      	; 0xf26 <CommandParse+0x44a>
     f24:	78 c2       	rjmp	.+1264   	; 0x1416 <__stack+0x317>
					{
						temp_8bit_parameter[0] = (p_communication_str->str_stack.str_slave_receive.parameter[0]);
     f26:	16 96       	adiw	r26, 0x06	; 6
     f28:	8c 91       	ld	r24, X
     f2a:	89 83       	std	Y+1, r24	; 0x01


						temp_8bit_parameter[7] = (servo_control.pGetLoad)(temp_8bit_parameter[0], &temp_16bit_parameter[0]);
     f2c:	e0 91 da 03 	lds	r30, 0x03DA
     f30:	f0 91 db 03 	lds	r31, 0x03DB
     f34:	be 01       	movw	r22, r28
     f36:	67 5f       	subi	r22, 0xF7	; 247
     f38:	7f 4f       	sbci	r23, 0xFF	; 255
     f3a:	09 95       	icall
     f3c:	88 87       	std	Y+8, r24	; 0x08

						if(TRUE == temp_8bit_parameter[7])																		// 读取成功
     f3e:	81 30       	cpi	r24, 0x01	; 1
     f40:	09 f0       	breq	.+2      	; 0xf44 <CommandParse+0x468>
     f42:	ae c2       	rjmp	.+1372   	; 0x14a0 <__stack+0x3a1>
						{
							p_communication_str->str_stack.str_slave_send.device_id = p_communication_str->local_id;
     f44:	d8 01       	movw	r26, r16
     f46:	a4 56       	subi	r26, 0x64	; 100
     f48:	bf 4f       	sbci	r27, 0xFF	; 255
     f4a:	01 5b       	subi	r16, 0xB1	; 177
     f4c:	1e 4f       	sbci	r17, 0xFE	; 254
     f4e:	f8 01       	movw	r30, r16
     f50:	80 81       	ld	r24, Z
     f52:	8c 93       	st	X, r24
							p_communication_str->str_stack.str_slave_send.parameter_length = GET_SERVO_LOAD_BACK_LEN;		// 返回参数长度为3
     f54:	0f 5a       	subi	r16, 0xAF	; 175
     f56:	10 40       	sbci	r17, 0x00	; 0
     f58:	83 e0       	ldi	r24, 0x03	; 3
     f5a:	f8 01       	movw	r30, r16
     f5c:	81 93       	st	Z+, r24

							p_communication_str->str_stack.str_slave_send.parameter[0] = temp_8bit_parameter[0];
     f5e:	89 81       	ldd	r24, Y+1	; 0x01
     f60:	81 93       	st	Z+, r24

							Out16(temp_8bit_parameter[3], temp_8bit_parameter[2], temp_16bit_parameter[0])
     f62:	9a 85       	ldd	r25, Y+10	; 0x0a
     f64:	9b 83       	std	Y+3, r25	; 0x03
     f66:	89 85       	ldd	r24, Y+9	; 0x09
     f68:	8c 83       	std	Y+4, r24	; 0x04

							for(count = 0; count < GET_SERVO_LOAD_BACK_LEN - 1; count++)
							{
								p_communication_str->str_stack.str_slave_send.parameter[count + 1] = temp_8bit_parameter[count + 2];
     f6a:	91 93       	st	Z+, r25
     f6c:	8f 01       	movw	r16, r30
     f6e:	80 83       	st	Z, r24
     f70:	03 5a       	subi	r16, 0xA3	; 163
     f72:	10 40       	sbci	r17, 0x00	; 0
     f74:	09 c1       	rjmp	.+530    	; 0x1188 <__stack+0x89>
		/*****************************************************************************************************************
															SET段
		*****************************************************************************************************************/
		case SET_SERVO_MODE:
		{
			if(SET_SERVO_MODE_LEN == p_communication_str->str_stack.str_slave_receive.parameter_length)
     f76:	d8 01       	movw	r26, r16
     f78:	15 96       	adiw	r26, 0x05	; 5
     f7a:	8c 91       	ld	r24, X
     f7c:	15 97       	sbiw	r26, 0x05	; 5
     f7e:	82 30       	cpi	r24, 0x02	; 2
     f80:	09 f0       	breq	.+2      	; 0xf84 <CommandParse+0x4a8>
     f82:	49 c2       	rjmp	.+1170   	; 0x1416 <__stack+0x317>
			{
				for(count = 0; count < SET_SERVO_MODE_LEN; count++)
				{
					temp_8bit_parameter[count] = (p_communication_str->str_stack.str_slave_receive.parameter[count]);
     f84:	16 96       	adiw	r26, 0x06	; 6
     f86:	8c 91       	ld	r24, X
     f88:	16 97       	sbiw	r26, 0x06	; 6
     f8a:	89 83       	std	Y+1, r24	; 0x01
     f8c:	17 96       	adiw	r26, 0x07	; 7
     f8e:	6c 91       	ld	r22, X
     f90:	6a 83       	std	Y+2, r22	; 0x02
				}
				
				temp_8bit_parameter[7] = (servo_control.pSetMode)(temp_8bit_parameter[0], temp_8bit_parameter[1]);
     f92:	e0 91 c4 03 	lds	r30, 0x03C4
     f96:	f0 91 c5 03 	lds	r31, 0x03C5
     f9a:	aa c0       	rjmp	.+340    	; 0x10f0 <CommandParse+0x614>
			break;
		}
		
		case SET_SERVO_POSITION:
		{
			if(SET_SERVO_POSITION_LEN == p_communication_str->str_stack.str_slave_receive.parameter_length)
     f9c:	95 30       	cpi	r25, 0x05	; 5
     f9e:	09 f0       	breq	.+2      	; 0xfa2 <CommandParse+0x4c6>
     fa0:	3a c2       	rjmp	.+1140   	; 0x1416 <__stack+0x317>
			{
				for(count = 0; count < SET_SERVO_POSITION_LEN; count++)
				{
					temp_8bit_parameter[count] = (p_communication_str->str_stack.str_slave_receive.parameter[count]);
     fa2:	d8 01       	movw	r26, r16
     fa4:	16 96       	adiw	r26, 0x06	; 6
     fa6:	8c 91       	ld	r24, X
     fa8:	16 97       	sbiw	r26, 0x06	; 6
     faa:	89 83       	std	Y+1, r24	; 0x01
     fac:	17 96       	adiw	r26, 0x07	; 7
     fae:	9c 91       	ld	r25, X
     fb0:	17 97       	sbiw	r26, 0x07	; 7
     fb2:	9a 83       	std	Y+2, r25	; 0x02
     fb4:	18 96       	adiw	r26, 0x08	; 8
     fb6:	6c 91       	ld	r22, X
     fb8:	18 97       	sbiw	r26, 0x08	; 8
     fba:	6b 83       	std	Y+3, r22	; 0x03
     fbc:	19 96       	adiw	r26, 0x09	; 9
     fbe:	ec 91       	ld	r30, X
     fc0:	19 97       	sbiw	r26, 0x09	; 9
     fc2:	ec 83       	std	Y+4, r30	; 0x04
     fc4:	1a 96       	adiw	r26, 0x0a	; 10
     fc6:	4c 91       	ld	r20, X
     fc8:	4d 83       	std	Y+5, r20	; 0x05
				}
				
				In16(temp_16bit_parameter[0], temp_8bit_parameter[2], temp_8bit_parameter[1]);
     fca:	39 2f       	mov	r19, r25
     fcc:	20 e0       	ldi	r18, 0x00	; 0
     fce:	70 e0       	ldi	r23, 0x00	; 0
     fd0:	62 2b       	or	r22, r18
     fd2:	73 2b       	or	r23, r19
     fd4:	7a 87       	std	Y+10, r23	; 0x0a
     fd6:	69 87       	std	Y+9, r22	; 0x09
				In16(temp_16bit_parameter[1], temp_8bit_parameter[4], temp_8bit_parameter[3]);
     fd8:	3e 2f       	mov	r19, r30
     fda:	20 e0       	ldi	r18, 0x00	; 0
     fdc:	50 e0       	ldi	r21, 0x00	; 0
     fde:	42 2b       	or	r20, r18
     fe0:	53 2b       	or	r21, r19
     fe2:	5c 87       	std	Y+12, r21	; 0x0c
     fe4:	4b 87       	std	Y+11, r20	; 0x0b
				
				temp_8bit_parameter[7] = (servo_control.pSetPosition)(temp_8bit_parameter[0], temp_16bit_parameter[0], temp_16bit_parameter[1]);
     fe6:	e0 91 c8 03 	lds	r30, 0x03C8
     fea:	f0 91 c9 03 	lds	r31, 0x03C9
     fee:	4c c0       	rjmp	.+152    	; 0x1088 <CommandParse+0x5ac>
			break;
		}
		
		case SET_SERVO_VELOCITY:
		{
			if(SET_SERVO_VELOCITY_LEN == p_communication_str->str_stack.str_slave_receive.parameter_length)
     ff0:	d8 01       	movw	r26, r16
     ff2:	15 96       	adiw	r26, 0x05	; 5
     ff4:	8c 91       	ld	r24, X
     ff6:	15 97       	sbiw	r26, 0x05	; 5
     ff8:	84 30       	cpi	r24, 0x04	; 4
     ffa:	09 f0       	breq	.+2      	; 0xffe <CommandParse+0x522>
     ffc:	0c c2       	rjmp	.+1048   	; 0x1416 <__stack+0x317>
			{
				for(count = 0; count < SET_SERVO_VELOCITY_LEN; count++)
				{
					temp_8bit_parameter[count] = (p_communication_str->str_stack.str_slave_receive.parameter[count]);
     ffe:	16 96       	adiw	r26, 0x06	; 6
    1000:	8c 91       	ld	r24, X
    1002:	16 97       	sbiw	r26, 0x06	; 6
    1004:	89 83       	std	Y+1, r24	; 0x01
    1006:	17 96       	adiw	r26, 0x07	; 7
    1008:	6c 91       	ld	r22, X
    100a:	17 97       	sbiw	r26, 0x07	; 7
    100c:	6a 83       	std	Y+2, r22	; 0x02
    100e:	18 96       	adiw	r26, 0x08	; 8
    1010:	9c 91       	ld	r25, X
    1012:	18 97       	sbiw	r26, 0x08	; 8
    1014:	9b 83       	std	Y+3, r25	; 0x03
    1016:	19 96       	adiw	r26, 0x09	; 9
    1018:	4c 91       	ld	r20, X
    101a:	4c 83       	std	Y+4, r20	; 0x04
				}
				
				In16(temp_16bit_parameter[0], temp_8bit_parameter[3], temp_8bit_parameter[2]);
    101c:	39 2f       	mov	r19, r25
    101e:	20 e0       	ldi	r18, 0x00	; 0
    1020:	50 e0       	ldi	r21, 0x00	; 0
    1022:	42 2b       	or	r20, r18
    1024:	53 2b       	or	r21, r19
    1026:	5a 87       	std	Y+10, r21	; 0x0a
    1028:	49 87       	std	Y+9, r20	; 0x09
				
				temp_8bit_parameter[7] = (servo_control.pSetVelocity)(temp_8bit_parameter[0], temp_8bit_parameter[1], temp_16bit_parameter[0]);
    102a:	e0 91 ce 03 	lds	r30, 0x03CE
    102e:	f0 91 cf 03 	lds	r31, 0x03CF
    1032:	09 95       	icall
    1034:	6e c0       	rjmp	.+220    	; 0x1112 <__stack+0x13>
			break;
		}
		
		case SET_SERVO_LIMIT:
		{
			if(SET_SERVO_LIMIT_LEN == p_communication_str->str_stack.str_slave_receive.parameter_length)
    1036:	95 30       	cpi	r25, 0x05	; 5
    1038:	09 f0       	breq	.+2      	; 0x103c <CommandParse+0x560>
    103a:	ed c1       	rjmp	.+986    	; 0x1416 <__stack+0x317>
			{
				for(count = 0; count < SET_SERVO_LIMIT_LEN; count++)
				{
					temp_8bit_parameter[count] = (p_communication_str->str_stack.str_slave_receive.parameter[count]);
    103c:	d8 01       	movw	r26, r16
    103e:	16 96       	adiw	r26, 0x06	; 6
    1040:	8c 91       	ld	r24, X
    1042:	16 97       	sbiw	r26, 0x06	; 6
    1044:	89 83       	std	Y+1, r24	; 0x01
    1046:	17 96       	adiw	r26, 0x07	; 7
    1048:	9c 91       	ld	r25, X
    104a:	17 97       	sbiw	r26, 0x07	; 7
    104c:	9a 83       	std	Y+2, r25	; 0x02
    104e:	18 96       	adiw	r26, 0x08	; 8
    1050:	6c 91       	ld	r22, X
    1052:	18 97       	sbiw	r26, 0x08	; 8
    1054:	6b 83       	std	Y+3, r22	; 0x03
    1056:	19 96       	adiw	r26, 0x09	; 9
    1058:	ec 91       	ld	r30, X
    105a:	19 97       	sbiw	r26, 0x09	; 9
    105c:	ec 83       	std	Y+4, r30	; 0x04
    105e:	1a 96       	adiw	r26, 0x0a	; 10
    1060:	4c 91       	ld	r20, X
    1062:	4d 83       	std	Y+5, r20	; 0x05
				}
				
				In16(temp_16bit_parameter[0], temp_8bit_parameter[2], temp_8bit_parameter[1]);
    1064:	39 2f       	mov	r19, r25
    1066:	20 e0       	ldi	r18, 0x00	; 0
    1068:	70 e0       	ldi	r23, 0x00	; 0
    106a:	62 2b       	or	r22, r18
    106c:	73 2b       	or	r23, r19
    106e:	7a 87       	std	Y+10, r23	; 0x0a
    1070:	69 87       	std	Y+9, r22	; 0x09
				In16(temp_16bit_parameter[1], temp_8bit_parameter[4], temp_8bit_parameter[3]);
    1072:	3e 2f       	mov	r19, r30
    1074:	20 e0       	ldi	r18, 0x00	; 0
    1076:	50 e0       	ldi	r21, 0x00	; 0
    1078:	42 2b       	or	r20, r18
    107a:	53 2b       	or	r21, r19
    107c:	5c 87       	std	Y+12, r21	; 0x0c
    107e:	4b 87       	std	Y+11, r20	; 0x0b
				
				temp_8bit_parameter[7] = (servo_control.pSetAngleLimit)(temp_8bit_parameter[0], temp_16bit_parameter[0], temp_16bit_parameter[1]);
    1080:	e0 91 d4 03 	lds	r30, 0x03D4
    1084:	f0 91 d5 03 	lds	r31, 0x03D5
    1088:	09 95       	icall
    108a:	43 c0       	rjmp	.+134    	; 0x1112 <__stack+0x13>
			break;
		}
		
		case SET_SERVO_ID:
		{
			if(SET_SERVO_ID_LEN == p_communication_str->str_stack.str_slave_receive.parameter_length)
    108c:	d8 01       	movw	r26, r16
    108e:	15 96       	adiw	r26, 0x05	; 5
    1090:	8c 91       	ld	r24, X
    1092:	15 97       	sbiw	r26, 0x05	; 5
    1094:	82 30       	cpi	r24, 0x02	; 2
    1096:	09 f0       	breq	.+2      	; 0x109a <CommandParse+0x5be>
    1098:	be c1       	rjmp	.+892    	; 0x1416 <__stack+0x317>
			{
				for(count = 0; count < SET_SERVO_ID_LEN; count++)
				{
					temp_8bit_parameter[count] = (p_communication_str->str_stack.str_slave_receive.parameter[count]);
    109a:	16 96       	adiw	r26, 0x06	; 6
    109c:	8c 91       	ld	r24, X
    109e:	16 97       	sbiw	r26, 0x06	; 6
    10a0:	89 83       	std	Y+1, r24	; 0x01
    10a2:	17 96       	adiw	r26, 0x07	; 7
    10a4:	6c 91       	ld	r22, X
    10a6:	6a 83       	std	Y+2, r22	; 0x02
				}
				
				temp_8bit_parameter[7] = (servo_control.pSetId)(temp_8bit_parameter[0], temp_8bit_parameter[1]);
    10a8:	e0 91 d6 03 	lds	r30, 0x03D6
    10ac:	f0 91 d7 03 	lds	r31, 0x03D7
    10b0:	09 95       	icall
    10b2:	88 87       	std	Y+8, r24	; 0x08
				if(TRUE == temp_8bit_parameter[7])											// 读取成功
    10b4:	81 30       	cpi	r24, 0x01	; 1
    10b6:	09 f0       	breq	.+2      	; 0x10ba <CommandParse+0x5de>
    10b8:	f3 c1       	rjmp	.+998    	; 0x14a0 <__stack+0x3a1>
				{
					p_communication_str->str_stack.str_slave_send.device_id = p_communication_str->local_id;
    10ba:	d8 01       	movw	r26, r16
    10bc:	a4 56       	subi	r26, 0x64	; 100
    10be:	bf 4f       	sbci	r27, 0xFF	; 255
    10c0:	f7 01       	movw	r30, r14
    10c2:	80 81       	ld	r24, Z
    10c4:	8c 93       	st	X, r24
					p_communication_str->str_stack.str_slave_send.parameter_length = 0;		// 返回参数长度为0
    10c6:	00 56       	subi	r16, 0x60	; 96
    10c8:	1f 4f       	sbci	r17, 0xFF	; 255
    10ca:	31 c0       	rjmp	.+98     	; 0x112e <__stack+0x2f>
			break;
		}

		case SET_SERVO_TORQUE:
			{
				if(SET_SERVO_TORQUE_LEN == p_communication_str->str_stack.str_slave_receive.parameter_length)
    10cc:	d8 01       	movw	r26, r16
    10ce:	15 96       	adiw	r26, 0x05	; 5
    10d0:	8c 91       	ld	r24, X
    10d2:	15 97       	sbiw	r26, 0x05	; 5
    10d4:	82 30       	cpi	r24, 0x02	; 2
    10d6:	09 f0       	breq	.+2      	; 0x10da <CommandParse+0x5fe>
    10d8:	9e c1       	rjmp	.+828    	; 0x1416 <__stack+0x317>
				{
					for(count = 0; count < SET_SERVO_TORQUE_LEN; count++)
					{
						temp_8bit_parameter[count] = (p_communication_str->str_stack.str_slave_receive.parameter[count]);
    10da:	16 96       	adiw	r26, 0x06	; 6
    10dc:	8c 91       	ld	r24, X
    10de:	16 97       	sbiw	r26, 0x06	; 6
    10e0:	89 83       	std	Y+1, r24	; 0x01
    10e2:	17 96       	adiw	r26, 0x07	; 7
    10e4:	6c 91       	ld	r22, X
    10e6:	6a 83       	std	Y+2, r22	; 0x02
					}

					temp_8bit_parameter[7] = (servo_control.pSetTorqueEnable)(temp_8bit_parameter[0], temp_8bit_parameter[1]);
    10e8:	e0 91 c6 03 	lds	r30, 0x03C6
    10ec:	f0 91 c7 03 	lds	r31, 0x03C7
    10f0:	09 95       	icall
    10f2:	0f c0       	rjmp	.+30     	; 0x1112 <__stack+0x13>
		/*****************************************************************************************************************
															FUNCTION段
		*****************************************************************************************************************/
		case ACTION_SERVO:
		{
			if(ACTION_SERVO_LEN == p_communication_str->str_stack.str_slave_receive.parameter_length)
    10f4:	d8 01       	movw	r26, r16
    10f6:	15 96       	adiw	r26, 0x05	; 5
    10f8:	8c 91       	ld	r24, X
    10fa:	15 97       	sbiw	r26, 0x05	; 5
    10fc:	81 30       	cpi	r24, 0x01	; 1
    10fe:	09 f0       	breq	.+2      	; 0x1102 <__stack+0x3>
    1100:	8a c1       	rjmp	.+788    	; 0x1416 <__stack+0x317>
			{
				for(count = 0; count < ACTION_SERVO_LEN; count++)
				{
					temp_8bit_parameter[count] = (p_communication_str->str_stack.str_slave_receive.parameter[count]);
    1102:	16 96       	adiw	r26, 0x06	; 6
    1104:	8c 91       	ld	r24, X
    1106:	89 83       	std	Y+1, r24	; 0x01
				}
				
				temp_8bit_parameter[7] = (servo_control.pActionSync)();
    1108:	e0 91 e0 03 	lds	r30, 0x03E0
    110c:	f0 91 e1 03 	lds	r31, 0x03E1
    1110:	09 95       	icall
    1112:	88 87       	std	Y+8, r24	; 0x08
				
				if(TRUE == temp_8bit_parameter[7])											// 读取成功
    1114:	81 30       	cpi	r24, 0x01	; 1
    1116:	09 f0       	breq	.+2      	; 0x111a <__stack+0x1b>
    1118:	c3 c1       	rjmp	.+902    	; 0x14a0 <__stack+0x3a1>
				{
					p_communication_str->str_stack.str_slave_send.device_id = p_communication_str->local_id;
    111a:	d8 01       	movw	r26, r16
    111c:	a4 56       	subi	r26, 0x64	; 100
    111e:	bf 4f       	sbci	r27, 0xFF	; 255
    1120:	01 5b       	subi	r16, 0xB1	; 177
    1122:	1e 4f       	sbci	r17, 0xFE	; 254
    1124:	f8 01       	movw	r30, r16
    1126:	80 81       	ld	r24, Z
    1128:	8c 93       	st	X, r24
					p_communication_str->str_stack.str_slave_send.parameter_length = 0;		// 返回参数长度为2
    112a:	0f 5a       	subi	r16, 0xAF	; 175
    112c:	10 40       	sbci	r17, 0x00	; 0
    112e:	f8 01       	movw	r30, r16
    1130:	10 82       	st	Z, r1
    1132:	00 5a       	subi	r16, 0xA0	; 160
    1134:	10 40       	sbci	r17, 0x00	; 0
    1136:	28 c0       	rjmp	.+80     	; 0x1188 <__stack+0x89>
			break;
		}
		
		case TEST_SERVO:
		{
			if(TEST_SERVO_LEN == p_communication_str->str_stack.str_slave_receive.parameter_length)
    1138:	d8 01       	movw	r26, r16
    113a:	15 96       	adiw	r26, 0x05	; 5
    113c:	8c 91       	ld	r24, X
    113e:	15 97       	sbiw	r26, 0x05	; 5
    1140:	81 30       	cpi	r24, 0x01	; 1
    1142:	09 f0       	breq	.+2      	; 0x1146 <__stack+0x47>
    1144:	68 c1       	rjmp	.+720    	; 0x1416 <__stack+0x317>
			{
				for(count = 0; count < TEST_SERVO_LEN; count++)
				{
					temp_8bit_parameter[count] = (p_communication_str->str_stack.str_slave_receive.parameter[count]);
    1146:	16 96       	adiw	r26, 0x06	; 6
    1148:	8c 91       	ld	r24, X
    114a:	89 83       	std	Y+1, r24	; 0x01
				}
				
				temp_8bit_parameter[7] = (servo_control.pTest)(temp_8bit_parameter[0], &temp_8bit_parameter[6]);
    114c:	e0 91 c2 03 	lds	r30, 0x03C2
    1150:	f0 91 c3 03 	lds	r31, 0x03C3
    1154:	be 01       	movw	r22, r28
    1156:	69 5f       	subi	r22, 0xF9	; 249
    1158:	7f 4f       	sbci	r23, 0xFF	; 255
    115a:	09 95       	icall
    115c:	98 2f       	mov	r25, r24
    115e:	88 87       	std	Y+8, r24	; 0x08
				
				if(TRUE == temp_8bit_parameter[7])											// 读取成功
    1160:	81 30       	cpi	r24, 0x01	; 1
    1162:	09 f0       	breq	.+2      	; 0x1166 <__stack+0x67>
    1164:	9d c1       	rjmp	.+826    	; 0x14a0 <__stack+0x3a1>
				{
					p_communication_str->str_stack.str_slave_send.device_id = p_communication_str->local_id;
    1166:	d8 01       	movw	r26, r16
    1168:	a4 56       	subi	r26, 0x64	; 100
    116a:	bf 4f       	sbci	r27, 0xFF	; 255
    116c:	01 5b       	subi	r16, 0xB1	; 177
    116e:	1e 4f       	sbci	r17, 0xFE	; 254
    1170:	f8 01       	movw	r30, r16
    1172:	80 81       	ld	r24, Z
    1174:	8c 93       	st	X, r24
					p_communication_str->str_stack.str_slave_send.parameter_length = TEST_SERVO_BACK_LEN;		// 返回参数长度为1
    1176:	0f 5a       	subi	r16, 0xAF	; 175
    1178:	10 40       	sbci	r17, 0x00	; 0
    117a:	f8 01       	movw	r30, r16
    117c:	91 93       	st	Z+, r25
    117e:	8f 01       	movw	r16, r30
					p_communication_str->str_stack.str_slave_send.parameter[0] = temp_8bit_parameter[6];
    1180:	8f 81       	ldd	r24, Y+7	; 0x07
    1182:	80 83       	st	Z, r24
    1184:	01 5a       	subi	r16, 0xA1	; 161
    1186:	10 40       	sbci	r17, 0x00	; 0
					
					p_communication_str->str_stack.str_slave_send.functional_unit = p_communication_str->str_stack.str_slave_receive.functional_unit;
    1188:	f8 01       	movw	r30, r16
    118a:	83 81       	ldd	r24, Z+3	; 0x03
    118c:	03 56       	subi	r16, 0x63	; 99
    118e:	1f 4f       	sbci	r17, 0xFF	; 255
    1190:	f8 01       	movw	r30, r16
    1192:	80 83       	st	Z, r24
    1194:	0d 59       	subi	r16, 0x9D	; 157
    1196:	10 40       	sbci	r17, 0x00	; 0
					p_communication_str->str_stack.str_slave_send.method_code = p_communication_str->str_stack.str_slave_receive.method_code;
    1198:	f8 01       	movw	r30, r16
    119a:	84 81       	ldd	r24, Z+4	; 0x04
    119c:	02 56       	subi	r16, 0x62	; 98
    119e:	1f 4f       	sbci	r17, 0xFF	; 255
    11a0:	f8 01       	movw	r30, r16
    11a2:	80 83       	st	Z, r24
					
					p_communication_str->str_stack.str_slave_send.state_byte = SetRegMask(main_communication.state, ERR_MASK, ERR_OK);	// 返回状态标志
    11a4:	80 91 80 05 	lds	r24, 0x0580
    11a8:	80 7c       	andi	r24, 0xC0	; 192
    11aa:	80 93 80 05 	sts	0x0580, r24
    11ae:	0f 5f       	subi	r16, 0xFF	; 255
    11b0:	1f 4f       	sbci	r17, 0xFF	; 255
    11b2:	f8 01       	movw	r30, r16
    11b4:	80 83       	st	Z, r24
    11b6:	0f 59       	subi	r16, 0x9F	; 159
    11b8:	10 40       	sbci	r17, 0x00	; 0
					uprobot_control.pUpRobotSlaveTxPacket(&p_communication_str->str_stack.str_slave_send, p_communication_str->p_uart_control);
    11ba:	f8 01       	movw	r30, r16
    11bc:	60 81       	ld	r22, Z
    11be:	71 81       	ldd	r23, Z+1	; 0x01
    11c0:	e0 91 87 06 	lds	r30, 0x0687
    11c4:	f0 91 88 06 	lds	r31, 0x0688
    11c8:	cd 01       	movw	r24, r26
    11ca:	09 95       	icall
    11cc:	59 c1       	rjmp	.+690    	; 0x1480 <__stack+0x381>
		}
		
		case GET_SERVO_POSITION_MULTI_AT_TIMES:
		{

			if(p_communication_str->str_stack.str_slave_receive.parameter_length >0)  //有要查询的舵机号
    11ce:	d8 01       	movw	r26, r16
    11d0:	15 96       	adiw	r26, 0x05	; 5
    11d2:	8c 91       	ld	r24, X
    11d4:	88 23       	and	r24, r24
    11d6:	09 f4       	brne	.+2      	; 0x11da <__stack+0xdb>
    11d8:	1e c1       	rjmp	.+572    	; 0x1416 <__stack+0x317>
			{
				sayn_communications_control.servo_get_position_time = p_communication_str->str_stack.str_slave_receive.parameter[p_communication_str->str_stack.str_slave_receive.parameter_length-1];
    11da:	f8 01       	movw	r30, r16
    11dc:	e8 0f       	add	r30, r24
    11de:	f1 1d       	adc	r31, r1
    11e0:	85 81       	ldd	r24, Z+5	; 0x05
    11e2:	80 93 32 01 	sts	0x0132, r24
				sayn_communications_control.servo_get_position_num = p_communication_str->str_stack.str_slave_receive.parameter_length-1;
    11e6:	f8 01       	movw	r30, r16
    11e8:	85 81       	ldd	r24, Z+5	; 0x05
    11ea:	81 50       	subi	r24, 0x01	; 1
    11ec:	80 93 34 01 	sts	0x0134, r24
    11f0:	90 e0       	ldi	r25, 0x00	; 0
    11f2:	0b c0       	rjmp	.+22     	; 0x120a <__stack+0x10b>


				for(count=0; count<sayn_communications_control.servo_get_position_num; count++)
				{
					sayn_communications_control.servo_get_position_parameter[count] = p_communication_str->str_stack.str_slave_receive.parameter[count];
    11f4:	e9 2f       	mov	r30, r25
    11f6:	f0 e0       	ldi	r31, 0x00	; 0
    11f8:	d8 01       	movw	r26, r16
    11fa:	ae 0f       	add	r26, r30
    11fc:	bf 1f       	adc	r27, r31
    11fe:	16 96       	adiw	r26, 0x06	; 6
    1200:	8c 91       	ld	r24, X
    1202:	ea 5e       	subi	r30, 0xEA	; 234
    1204:	fe 4f       	sbci	r31, 0xFE	; 254
    1206:	82 a3       	std	Z+34, r24	; 0x22
			{
				sayn_communications_control.servo_get_position_time = p_communication_str->str_stack.str_slave_receive.parameter[p_communication_str->str_stack.str_slave_receive.parameter_length-1];
				sayn_communications_control.servo_get_position_num = p_communication_str->str_stack.str_slave_receive.parameter_length-1;


				for(count=0; count<sayn_communications_control.servo_get_position_num; count++)
    1208:	9f 5f       	subi	r25, 0xFF	; 255
    120a:	80 91 34 01 	lds	r24, 0x0134
    120e:	98 17       	cp	r25, r24
    1210:	88 f3       	brcs	.-30     	; 0x11f4 <__stack+0xf5>
				{
					sayn_communications_control.servo_get_position_parameter[count] = p_communication_str->str_stack.str_slave_receive.parameter[count];
				}
				GetServoPositionMultiAtTimes(p_communication_str,&sayn_communications_control.servo_get_position_parameter[0]);
    1212:	c8 01       	movw	r24, r16
    1214:	68 e3       	ldi	r22, 0x38	; 56
    1216:	71 e0       	ldi	r23, 0x01	; 1
    1218:	0e 94 6e 03 	call	0x6dc	; 0x6dc <GetServoPositionMultiAtTimes>
    121c:	31 c1       	rjmp	.+610    	; 0x1480 <__stack+0x381>
		
		case SET_SERVO_POSITION_MULTI_AT_TIMES:
		{


			if(p_communication_str->str_stack.str_slave_receive.parameter_length >0)  //有要查询的舵机号
    121e:	d8 01       	movw	r26, r16
    1220:	15 96       	adiw	r26, 0x05	; 5
    1222:	8c 91       	ld	r24, X
    1224:	88 23       	and	r24, r24
    1226:	09 f4       	brne	.+2      	; 0x122a <__stack+0x12b>
    1228:	f6 c0       	rjmp	.+492    	; 0x1416 <__stack+0x317>
			{
				sayn_communications_control.servo_set_position_num = p_communication_str->str_stack.str_slave_receive.parameter_length;//数据长度
    122a:	80 93 6a 01 	sts	0x016A, r24
    122e:	90 e0       	ldi	r25, 0x00	; 0
    1230:	0b c0       	rjmp	.+22     	; 0x1248 <__stack+0x149>

				for(count=0; count<sayn_communications_control.servo_set_position_num; count++)//将数据域存储下来
				{
					sayn_communications_control.servo_set_position_parameter[count] = p_communication_str->str_stack.str_slave_receive.parameter[count];
    1232:	e9 2f       	mov	r30, r25
    1234:	f0 e0       	ldi	r31, 0x00	; 0
    1236:	d8 01       	movw	r26, r16
    1238:	ae 0f       	add	r26, r30
    123a:	bf 1f       	adc	r27, r31
    123c:	16 96       	adiw	r26, 0x06	; 6
    123e:	8c 91       	ld	r24, X
    1240:	e2 59       	subi	r30, 0x92	; 146
    1242:	fe 4f       	sbci	r31, 0xFE	; 254
    1244:	80 83       	st	Z, r24

			if(p_communication_str->str_stack.str_slave_receive.parameter_length >0)  //有要查询的舵机号
			{
				sayn_communications_control.servo_set_position_num = p_communication_str->str_stack.str_slave_receive.parameter_length;//数据长度

				for(count=0; count<sayn_communications_control.servo_set_position_num; count++)//将数据域存储下来
    1246:	9f 5f       	subi	r25, 0xFF	; 255
    1248:	80 91 6a 01 	lds	r24, 0x016A
    124c:	98 17       	cp	r25, r24
    124e:	88 f3       	brcs	.-30     	; 0x1232 <__stack+0x133>
				{
					sayn_communications_control.servo_set_position_parameter[count] = p_communication_str->str_stack.str_slave_receive.parameter[count];
				}
				SetServoPositionMultiAtTimes(p_communication_str,&sayn_communications_control.servo_set_position_parameter[0]);
    1250:	c8 01       	movw	r24, r16
    1252:	6e e6       	ldi	r22, 0x6E	; 110
    1254:	71 e0       	ldi	r23, 0x01	; 1
    1256:	38 c0       	rjmp	.+112    	; 0x12c8 <__stack+0x1c9>
			}
			break;
		}
		case SET_SERVO_MODE_MULTI_AT_TIMES:
		{
			if(p_communication_str->str_stack.str_slave_receive.parameter_length >0)  //有要查询的舵机号
    1258:	f8 01       	movw	r30, r16
    125a:	85 81       	ldd	r24, Z+5	; 0x05
    125c:	88 23       	and	r24, r24
    125e:	09 f4       	brne	.+2      	; 0x1262 <__stack+0x163>
    1260:	da c0       	rjmp	.+436    	; 0x1416 <__stack+0x317>
			{
				sayn_communications_control.servo_set_mode_num = p_communication_str->str_stack.str_slave_receive.parameter_length;//数据长度
    1262:	80 93 a0 02 	sts	0x02A0, r24
    1266:	90 e0       	ldi	r25, 0x00	; 0
    1268:	0b c0       	rjmp	.+22     	; 0x1280 <__stack+0x181>

				for(count=0; count<sayn_communications_control.servo_set_mode_num; count++)//将数据域存储下来
				{
					sayn_communications_control.servo_set_mode_parameter[count] = p_communication_str->str_stack.str_slave_receive.parameter[count];
    126a:	e9 2f       	mov	r30, r25
    126c:	f0 e0       	ldi	r31, 0x00	; 0
    126e:	d8 01       	movw	r26, r16
    1270:	ae 0f       	add	r26, r30
    1272:	bf 1f       	adc	r27, r31
    1274:	16 96       	adiw	r26, 0x06	; 6
    1276:	8c 91       	ld	r24, X
    1278:	ec 55       	subi	r30, 0x5C	; 92
    127a:	fd 4f       	sbci	r31, 0xFD	; 253
    127c:	80 83       	st	Z, r24
		{
			if(p_communication_str->str_stack.str_slave_receive.parameter_length >0)  //有要查询的舵机号
			{
				sayn_communications_control.servo_set_mode_num = p_communication_str->str_stack.str_slave_receive.parameter_length;//数据长度

				for(count=0; count<sayn_communications_control.servo_set_mode_num; count++)//将数据域存储下来
    127e:	9f 5f       	subi	r25, 0xFF	; 255
    1280:	80 91 a0 02 	lds	r24, 0x02A0
    1284:	98 17       	cp	r25, r24
    1286:	88 f3       	brcs	.-30     	; 0x126a <__stack+0x16b>
				{
					sayn_communications_control.servo_set_mode_parameter[count] = p_communication_str->str_stack.str_slave_receive.parameter[count];
				}
				SetServoPositionMultiAtTimes(p_communication_str,&sayn_communications_control.servo_set_mode_parameter[0]);
    1288:	c8 01       	movw	r24, r16
    128a:	64 ea       	ldi	r22, 0xA4	; 164
    128c:	72 e0       	ldi	r23, 0x02	; 2
    128e:	1c c0       	rjmp	.+56     	; 0x12c8 <__stack+0x1c9>

			break;
		}
		case SET_SERVO_TORQUE_MULTI_AT_TIMES:
		{
			if(p_communication_str->str_stack.str_slave_receive.parameter_length >0)  //有要设置的舵机号
    1290:	d8 01       	movw	r26, r16
    1292:	15 96       	adiw	r26, 0x05	; 5
    1294:	8c 91       	ld	r24, X
    1296:	88 23       	and	r24, r24
    1298:	09 f4       	brne	.+2      	; 0x129c <__stack+0x19d>
    129a:	bd c0       	rjmp	.+378    	; 0x1416 <__stack+0x317>
			{
				sayn_communications_control.servo_set_torque_num = p_communication_str->str_stack.str_slave_receive.parameter_length;//数据长度
    129c:	80 93 e0 02 	sts	0x02E0, r24
    12a0:	90 e0       	ldi	r25, 0x00	; 0
    12a2:	0b c0       	rjmp	.+22     	; 0x12ba <__stack+0x1bb>

				for(count=0; count<sayn_communications_control.servo_set_torque_num; count++)//将数据域存储下来
				{
					sayn_communications_control.servo_set_torque_parameter[count] = p_communication_str->str_stack.str_slave_receive.parameter[count];
    12a4:	e9 2f       	mov	r30, r25
    12a6:	f0 e0       	ldi	r31, 0x00	; 0
    12a8:	d8 01       	movw	r26, r16
    12aa:	ae 0f       	add	r26, r30
    12ac:	bf 1f       	adc	r27, r31
    12ae:	16 96       	adiw	r26, 0x06	; 6
    12b0:	8c 91       	ld	r24, X
    12b2:	ec 51       	subi	r30, 0x1C	; 28
    12b4:	fd 4f       	sbci	r31, 0xFD	; 253
    12b6:	80 83       	st	Z, r24
		{
			if(p_communication_str->str_stack.str_slave_receive.parameter_length >0)  //有要设置的舵机号
			{
				sayn_communications_control.servo_set_torque_num = p_communication_str->str_stack.str_slave_receive.parameter_length;//数据长度

				for(count=0; count<sayn_communications_control.servo_set_torque_num; count++)//将数据域存储下来
    12b8:	9f 5f       	subi	r25, 0xFF	; 255
    12ba:	80 91 e0 02 	lds	r24, 0x02E0
    12be:	98 17       	cp	r25, r24
    12c0:	88 f3       	brcs	.-30     	; 0x12a4 <__stack+0x1a5>
				{
					sayn_communications_control.servo_set_torque_parameter[count] = p_communication_str->str_stack.str_slave_receive.parameter[count];
				}
				SetServoPositionMultiAtTimes(p_communication_str,&sayn_communications_control.servo_set_torque_parameter[0]);
    12c2:	c8 01       	movw	r24, r16
    12c4:	64 ee       	ldi	r22, 0xE4	; 228
    12c6:	72 e0       	ldi	r23, 0x02	; 2
    12c8:	0e 94 fd 03 	call	0x7fa	; 0x7fa <SetServoPositionMultiAtTimes>
    12cc:	d9 c0       	rjmp	.+434    	; 0x1480 <__stack+0x381>
			break;
		}
		/*****************************************************************************************************************/
		case SET_SERVO_VELOCITY_MULTI_AT_TIMES:
		{
			if(p_communication_str->str_stack.str_slave_receive.parameter_length > 0)
    12ce:	f8 01       	movw	r30, r16
    12d0:	85 81       	ldd	r24, Z+5	; 0x05
    12d2:	88 23       	and	r24, r24
    12d4:	09 f4       	brne	.+2      	; 0x12d8 <__stack+0x1d9>
    12d6:	9f c0       	rjmp	.+318    	; 0x1416 <__stack+0x317>
			{
				sayn_communications_control.servo_set_velocity_num = p_communication_str->str_stack.str_slave_receive.parameter_length;
    12d8:	80 93 05 02 	sts	0x0205, r24
    12dc:	90 e0       	ldi	r25, 0x00	; 0
    12de:	0b c0       	rjmp	.+22     	; 0x12f6 <__stack+0x1f7>
				for(count=0; count<sayn_communications_control.servo_set_velocity_num; count++)//将数据域存储下来
				{
					sayn_communications_control.servo_set_velocity_parameter[count] = p_communication_str->str_stack.str_slave_receive.parameter[count];
    12e0:	e9 2f       	mov	r30, r25
    12e2:	f0 e0       	ldi	r31, 0x00	; 0
    12e4:	d8 01       	movw	r26, r16
    12e6:	ae 0f       	add	r26, r30
    12e8:	bf 1f       	adc	r27, r31
    12ea:	16 96       	adiw	r26, 0x06	; 6
    12ec:	8c 91       	ld	r24, X
    12ee:	e7 5f       	subi	r30, 0xF7	; 247
    12f0:	fd 4f       	sbci	r31, 0xFD	; 253
    12f2:	80 83       	st	Z, r24
		case SET_SERVO_VELOCITY_MULTI_AT_TIMES:
		{
			if(p_communication_str->str_stack.str_slave_receive.parameter_length > 0)
			{
				sayn_communications_control.servo_set_velocity_num = p_communication_str->str_stack.str_slave_receive.parameter_length;
				for(count=0; count<sayn_communications_control.servo_set_velocity_num; count++)//将数据域存储下来
    12f4:	9f 5f       	subi	r25, 0xFF	; 255
    12f6:	80 91 05 02 	lds	r24, 0x0205
    12fa:	98 17       	cp	r25, r24
    12fc:	88 f3       	brcs	.-30     	; 0x12e0 <__stack+0x1e1>
				{
					sayn_communications_control.servo_set_velocity_parameter[count] = p_communication_str->str_stack.str_slave_receive.parameter[count];
				}
				SetServoVelocityMultiAtTimes(p_communication_str,&sayn_communications_control.servo_set_velocity_parameter[0]);
    12fe:	c8 01       	movw	r24, r16
    1300:	69 e0       	ldi	r22, 0x09	; 9
    1302:	72 e0       	ldi	r23, 0x02	; 2
    1304:	0e 94 7a 04 	call	0x8f4	; 0x8f4 <SetServoVelocityMultiAtTimes>
    1308:	bb c0       	rjmp	.+374    	; 0x1480 <__stack+0x381>
	uint8 count = 0;

	uint8 temp_8bit_parameter[8];						// 参数缓冲区
//	uint16 temp_16bit_parameter[4];						// 参数缓冲区

	switch(p_communication_str->str_stack.str_slave_receive.method_code)
    130a:	f8 01       	movw	r30, r16
    130c:	84 81       	ldd	r24, Z+4	; 0x04
    130e:	88 23       	and	r24, r24
    1310:	21 f0       	breq	.+8      	; 0x131a <__stack+0x21b>
    1312:	80 32       	cpi	r24, 0x20	; 32
    1314:	09 f0       	breq	.+2      	; 0x1318 <__stack+0x219>
    1316:	7f c0       	rjmp	.+254    	; 0x1416 <__stack+0x317>
    1318:	44 c0       	rjmp	.+136    	; 0x13a2 <__stack+0x2a3>
		/*****************************************************************************************************************
														GET段
		*****************************************************************************************************************/
		case GET_SIGNAL_BYTE:
		{
			if(GET_SIGNAL_BYTE_LEN == p_communication_str->str_stack.str_slave_receive.parameter_length)
    131a:	d8 01       	movw	r26, r16
    131c:	15 96       	adiw	r26, 0x05	; 5
    131e:	8c 91       	ld	r24, X
    1320:	15 97       	sbiw	r26, 0x05	; 5
    1322:	81 30       	cpi	r24, 0x01	; 1
    1324:	09 f0       	breq	.+2      	; 0x1328 <__stack+0x229>
    1326:	77 c0       	rjmp	.+238    	; 0x1416 <__stack+0x317>
			{
				temp_8bit_parameter[0] = (p_communication_str->str_stack.str_slave_receive.parameter[0]);
    1328:	16 96       	adiw	r26, 0x06	; 6
    132a:	8c 91       	ld	r24, X
    132c:	89 83       	std	Y+1, r24	; 0x01

				temp_8bit_parameter[7] = (signal_control.pGetByte)(temp_8bit_parameter[0], &temp_8bit_parameter[1]);
    132e:	e0 91 2a 04 	lds	r30, 0x042A
    1332:	f0 91 2b 04 	lds	r31, 0x042B
    1336:	be 01       	movw	r22, r28
    1338:	6e 5f       	subi	r22, 0xFE	; 254
    133a:	7f 4f       	sbci	r23, 0xFF	; 255
    133c:	09 95       	icall
    133e:	88 87       	std	Y+8, r24	; 0x08

				if(TRUE == temp_8bit_parameter[7])											// 读取成功
    1340:	81 30       	cpi	r24, 0x01	; 1
    1342:	09 f0       	breq	.+2      	; 0x1346 <__stack+0x247>
    1344:	ad c0       	rjmp	.+346    	; 0x14a0 <__stack+0x3a1>
				{
					p_communication_str->str_stack.str_slave_send.device_id = p_communication_str->local_id;
    1346:	f8 01       	movw	r30, r16
    1348:	e4 56       	subi	r30, 0x64	; 100
    134a:	ff 4f       	sbci	r31, 0xFF	; 255
    134c:	01 5b       	subi	r16, 0xB1	; 177
    134e:	1e 4f       	sbci	r17, 0xFE	; 254
    1350:	d8 01       	movw	r26, r16
    1352:	8c 91       	ld	r24, X
    1354:	0f 54       	subi	r16, 0x4F	; 79
    1356:	11 40       	sbci	r17, 0x01	; 1
    1358:	80 83       	st	Z, r24
					p_communication_str->str_stack.str_slave_send.functional_unit = p_communication_str->str_stack.str_slave_receive.functional_unit;
    135a:	f8 01       	movw	r30, r16
    135c:	83 81       	ldd	r24, Z+3	; 0x03
    135e:	03 56       	subi	r16, 0x63	; 99
    1360:	1f 4f       	sbci	r17, 0xFF	; 255
    1362:	d8 01       	movw	r26, r16
    1364:	8c 93       	st	X, r24
    1366:	0d 59       	subi	r16, 0x9D	; 157
    1368:	10 40       	sbci	r17, 0x00	; 0
					p_communication_str->str_stack.str_slave_send.method_code = p_communication_str->str_stack.str_slave_receive.method_code;
    136a:	f8 01       	movw	r30, r16
    136c:	84 81       	ldd	r24, Z+4	; 0x04
    136e:	02 56       	subi	r16, 0x62	; 98
    1370:	1f 4f       	sbci	r17, 0xFF	; 255
    1372:	d8 01       	movw	r26, r16
    1374:	8c 93       	st	X, r24

					p_communication_str->str_stack.str_slave_send.parameter_length = GET_SIGNAL_BYTE_BACK_LEN;
    1376:	0e 5f       	subi	r16, 0xFE	; 254
    1378:	1f 4f       	sbci	r17, 0xFF	; 255
    137a:	82 e0       	ldi	r24, 0x02	; 2
    137c:	f8 01       	movw	r30, r16
    137e:	81 93       	st	Z+, r24


					p_communication_str->str_stack.str_slave_send.parameter[0] = temp_8bit_parameter[0];
    1380:	89 81       	ldd	r24, Y+1	; 0x01
    1382:	df 01       	movw	r26, r30
    1384:	8d 93       	st	X+, r24
    1386:	8d 01       	movw	r16, r26
					p_communication_str->str_stack.str_slave_send.parameter[1] = temp_8bit_parameter[1];
    1388:	8a 81       	ldd	r24, Y+2	; 0x02
    138a:	8c 93       	st	X, r24


					p_communication_str->str_stack.str_slave_send.state_byte = SetRegMask(main_communication.state, ERR_MASK, ERR_OK);	// 返回状态标志
    138c:	80 91 80 05 	lds	r24, 0x0580
    1390:	80 7c       	andi	r24, 0xC0	; 192
    1392:	80 93 80 05 	sts	0x0580, r24
    1396:	03 50       	subi	r16, 0x03	; 3
    1398:	10 40       	sbci	r17, 0x00	; 0
    139a:	f8 01       	movw	r30, r16
    139c:	80 83       	st	Z, r24
    139e:	81 e0       	ldi	r24, 0x01	; 1
    13a0:	70 c0       	rjmp	.+224    	; 0x1482 <__stack+0x383>
		/*****************************************************************************************************************
															SET段
		*****************************************************************************************************************/
		case SET_SIGNAL_BYTE:
		{
			if(SET_SIGNAL_BYTE_LEN == p_communication_str->str_stack.str_slave_receive.parameter_length)
    13a2:	d8 01       	movw	r26, r16
    13a4:	15 96       	adiw	r26, 0x05	; 5
    13a6:	8c 91       	ld	r24, X
    13a8:	15 97       	sbiw	r26, 0x05	; 5
    13aa:	82 30       	cpi	r24, 0x02	; 2
    13ac:	a1 f5       	brne	.+104    	; 0x1416 <__stack+0x317>
			{
				for(count = 0; count < SET_SIGNAL_BYTE_LEN; count++)
				{
					temp_8bit_parameter[count] = (p_communication_str->str_stack.str_slave_receive.parameter[count]);
    13ae:	16 96       	adiw	r26, 0x06	; 6
    13b0:	8c 91       	ld	r24, X
    13b2:	16 97       	sbiw	r26, 0x06	; 6
    13b4:	89 83       	std	Y+1, r24	; 0x01
    13b6:	17 96       	adiw	r26, 0x07	; 7
    13b8:	6c 91       	ld	r22, X
    13ba:	6a 83       	std	Y+2, r22	; 0x02
				}

				(signal_control.pSetByte)(temp_8bit_parameter[0], temp_8bit_parameter[1]);
    13bc:	e0 91 28 04 	lds	r30, 0x0428
    13c0:	f0 91 29 04 	lds	r31, 0x0429
    13c4:	09 95       	icall

				p_communication_str->str_stack.str_slave_send.device_id = p_communication_str->local_id;
    13c6:	f8 01       	movw	r30, r16
    13c8:	e4 56       	subi	r30, 0x64	; 100
    13ca:	ff 4f       	sbci	r31, 0xFF	; 255
    13cc:	01 5b       	subi	r16, 0xB1	; 177
    13ce:	1e 4f       	sbci	r17, 0xFE	; 254
    13d0:	d8 01       	movw	r26, r16
    13d2:	8c 91       	ld	r24, X
    13d4:	80 83       	st	Z, r24
				p_communication_str->str_stack.str_slave_send.parameter_length = 0;		// 返回参数长度为0
    13d6:	0f 5a       	subi	r16, 0xAF	; 175
    13d8:	10 40       	sbci	r17, 0x00	; 0
    13da:	f8 01       	movw	r30, r16
    13dc:	10 82       	st	Z, r1
    13de:	00 5a       	subi	r16, 0xA0	; 160
    13e0:	10 40       	sbci	r17, 0x00	; 0

				p_communication_str->str_stack.str_slave_send.functional_unit = p_communication_str->str_stack.str_slave_receive.functional_unit;
    13e2:	d8 01       	movw	r26, r16
    13e4:	13 96       	adiw	r26, 0x03	; 3
    13e6:	8c 91       	ld	r24, X
    13e8:	03 56       	subi	r16, 0x63	; 99
    13ea:	1f 4f       	sbci	r17, 0xFF	; 255
    13ec:	f8 01       	movw	r30, r16
    13ee:	80 83       	st	Z, r24
    13f0:	0d 59       	subi	r16, 0x9D	; 157
    13f2:	10 40       	sbci	r17, 0x00	; 0
				p_communication_str->str_stack.str_slave_send.method_code = p_communication_str->str_stack.str_slave_receive.method_code;
    13f4:	d8 01       	movw	r26, r16
    13f6:	14 96       	adiw	r26, 0x04	; 4
    13f8:	8c 91       	ld	r24, X
    13fa:	02 56       	subi	r16, 0x62	; 98
    13fc:	1f 4f       	sbci	r17, 0xFF	; 255
    13fe:	f8 01       	movw	r30, r16
    1400:	80 83       	st	Z, r24

				p_communication_str->str_stack.str_slave_send.state_byte = SetRegMask(main_communication.state, ERR_MASK, ERR_OK);	// 返回状态标志
    1402:	80 91 80 05 	lds	r24, 0x0580
    1406:	80 7c       	andi	r24, 0xC0	; 192
    1408:	80 93 80 05 	sts	0x0580, r24
    140c:	0f 5f       	subi	r16, 0xFF	; 255
    140e:	1f 4f       	sbci	r17, 0xFF	; 255
    1410:	d8 01       	movw	r26, r16
    1412:	8c 93       	st	X, r24
    1414:	c4 cf       	rjmp	.-120    	; 0x139e <__stack+0x29f>
    1416:	83 e0       	ldi	r24, 0x03	; 3
				{
					return TRUE;														// 调用UpRobot从栈发送函数
				}
				else
				{
					SetRegMask(p_communication_str->state, ERR_MASK, temp_state);		// 写状态寄存器调用错误状态返回函数
    1418:	f8 01       	movw	r30, r16
    141a:	ec 5a       	subi	r30, 0xAC	; 172
    141c:	fe 4f       	sbci	r31, 0xFE	; 254
    141e:	90 81       	ld	r25, Z
    1420:	90 7c       	andi	r25, 0xC0	; 192
    1422:	98 2b       	or	r25, r24
    1424:	90 83       	st	Z, r25
    1426:	09 c0       	rjmp	.+18     	; 0x143a <__stack+0x33b>
				}
				break;
			}
			default:
			{
				SetRegMask(p_communication_str->state, ERR_MASK, ERR_VALUE);			// 功能模块编号错误
    1428:	0c 5a       	subi	r16, 0xAC	; 172
    142a:	1e 4f       	sbci	r17, 0xFE	; 254
    142c:	92 2f       	mov	r25, r18
    142e:	90 7c       	andi	r25, 0xC0	; 192
    1430:	93 60       	ori	r25, 0x03	; 3
    1432:	f8 01       	movw	r30, r16
    1434:	90 83       	st	Z, r25
    1436:	04 55       	subi	r16, 0x54	; 84
    1438:	11 40       	sbci	r17, 0x01	; 1
** 修订日期:
**------------------------------------------------------------------------------------------------------------------------
*************************************************************************************************************************/
static void StateResponse(COMMUNICATION_PORT_STRUCT* p_communication_str)
{
	p_communication_str->str_stack.str_slave_send.device_id = p_communication_str->local_id;
    143a:	f8 01       	movw	r30, r16
    143c:	e4 56       	subi	r30, 0x64	; 100
    143e:	ff 4f       	sbci	r31, 0xFF	; 255
    1440:	01 5b       	subi	r16, 0xB1	; 177
    1442:	1e 4f       	sbci	r17, 0xFE	; 254
    1444:	d8 01       	movw	r26, r16
    1446:	8c 91       	ld	r24, X
    1448:	80 83       	st	Z, r24
	p_communication_str->str_stack.str_slave_send.parameter_length = 0;							// 返回参数长度为0
    144a:	0f 5a       	subi	r16, 0xAF	; 175
    144c:	10 40       	sbci	r17, 0x00	; 0
    144e:	f8 01       	movw	r30, r16
    1450:	10 82       	st	Z, r1
    1452:	00 5a       	subi	r16, 0xA0	; 160
    1454:	10 40       	sbci	r17, 0x00	; 0
	
	p_communication_str->str_stack.str_slave_send.functional_unit = p_communication_str->str_stack.str_slave_receive.functional_unit;
    1456:	d8 01       	movw	r26, r16
    1458:	13 96       	adiw	r26, 0x03	; 3
    145a:	8c 91       	ld	r24, X
    145c:	03 56       	subi	r16, 0x63	; 99
    145e:	1f 4f       	sbci	r17, 0xFF	; 255
    1460:	f8 01       	movw	r30, r16
    1462:	80 83       	st	Z, r24
    1464:	0d 59       	subi	r16, 0x9D	; 157
    1466:	10 40       	sbci	r17, 0x00	; 0
	p_communication_str->str_stack.str_slave_send.method_code = p_communication_str->str_stack.str_slave_receive.method_code;
    1468:	d8 01       	movw	r26, r16
    146a:	14 96       	adiw	r26, 0x04	; 4
    146c:	8c 91       	ld	r24, X
    146e:	02 56       	subi	r16, 0x62	; 98
    1470:	1f 4f       	sbci	r17, 0xFF	; 255
    1472:	f8 01       	movw	r30, r16
    1474:	80 83       	st	Z, r24
	
	p_communication_str->str_stack.str_slave_send.state_byte = p_communication_str->state;		// 返回状态标志
    1476:	0f 5f       	subi	r16, 0xFF	; 255
    1478:	1f 4f       	sbci	r17, 0xFF	; 255
    147a:	d8 01       	movw	r26, r16
    147c:	9c 93       	st	X, r25
    147e:	8f cf       	rjmp	.-226    	; 0x139e <__stack+0x29f>
			}
			default:
			{
				SetRegMask(p_communication_str->state, ERR_MASK, ERR_VALUE);			// 功能模块编号错误
				StateResponse(p_communication_str);
				return TRUE;															// 调用UpRobot从栈发送函数
    1480:	80 e0       	ldi	r24, 0x00	; 0
		;// 调用MINOR_COMMUNICATION主机模式进行透明传输，并透明传输MINOR_COMMUNICATION返回的数据包，如果数据包返回失败，
		// 则由本机向上位机返回错误信息。
	}
	
	return FALSE;
}
    1482:	60 96       	adiw	r28, 0x10	; 16
    1484:	0f b6       	in	r0, 0x3f	; 63
    1486:	f8 94       	cli
    1488:	de bf       	out	0x3e, r29	; 62
    148a:	0f be       	out	0x3f, r0	; 63
    148c:	cd bf       	out	0x3d, r28	; 61
    148e:	cf 91       	pop	r28
    1490:	df 91       	pop	r29
    1492:	1f 91       	pop	r17
    1494:	0f 91       	pop	r16
    1496:	ff 90       	pop	r15
    1498:	ef 90       	pop	r14
    149a:	df 90       	pop	r13
    149c:	cf 90       	pop	r12
    149e:	08 95       	ret
			}
			default:
			{
				SetRegMask(p_communication_str->state, ERR_MASK, ERR_VALUE);			// 功能模块编号错误
				StateResponse(p_communication_str);
				return TRUE;															// 调用UpRobot从栈发送函数
    14a0:	89 e0       	ldi	r24, 0x09	; 9
    14a2:	ba cf       	rjmp	.-140    	; 0x1418 <__stack+0x319>

000014a4 <TestServo>:
** 修订人:
** 修订日期:
**------------------------------------------------------------------------------------------------------------------------
*************************************************************************************************************************/
static uint8 TestServo(uint8 id, uint8* state)
{
    14a4:	ef 92       	push	r14
    14a6:	ff 92       	push	r15
    14a8:	1f 93       	push	r17
    14aa:	df 93       	push	r29
    14ac:	cf 93       	push	r28
    14ae:	0f 92       	push	r0
    14b0:	cd b7       	in	r28, 0x3d	; 61
    14b2:	de b7       	in	r29, 0x3e	; 62
    14b4:	18 2f       	mov	r17, r24
    14b6:	7b 01       	movw	r14, r22
	uint8 temp_value = 0;
	uint8 back_id = 0;
    14b8:	19 82       	std	Y+1, r1	; 0x01
	if((SERVO_PPM_ID == temp_value) || (BSU_BROADCASTING_ID == id))						// PPMID段，调用PPM方法
	{
		temp_state = FALSE;
	}
	
	if((SERVO_PPM_ID != temp_value) || (BSU_BROADCASTING_ID == id))						// BSU的ID段，调用BSU总线方法
    14ba:	82 95       	swap	r24
    14bc:	8f 70       	andi	r24, 0x0F	; 15
    14be:	8e 30       	cpi	r24, 0x0E	; 14
    14c0:	11 f4       	brne	.+4      	; 0x14c6 <TestServo+0x22>
    14c2:	1e 3f       	cpi	r17, 0xFE	; 254
    14c4:	81 f4       	brne	.+32     	; 0x14e6 <TestServo+0x42>
	{
		temp_value = ttlbus_control.pPing(id, &back_id);
    14c6:	e0 91 68 06 	lds	r30, 0x0668
    14ca:	f0 91 69 06 	lds	r31, 0x0669
    14ce:	81 2f       	mov	r24, r17
    14d0:	be 01       	movw	r22, r28
    14d2:	6f 5f       	subi	r22, 0xFF	; 255
    14d4:	7f 4f       	sbci	r23, 0xFF	; 255
    14d6:	09 95       	icall
		
		if(ERR_OK == temp_value)
    14d8:	88 23       	and	r24, r24
    14da:	29 f4       	brne	.+10     	; 0x14e6 <TestServo+0x42>
		{
			if((back_id == id) || (BSU_BROADCASTING_ID == id))
    14dc:	89 81       	ldd	r24, Y+1	; 0x01
    14de:	81 17       	cp	r24, r17
    14e0:	21 f0       	breq	.+8      	; 0x14ea <TestServo+0x46>
    14e2:	1e 3f       	cpi	r17, 0xFE	; 254
    14e4:	11 f0       	breq	.+4      	; 0x14ea <TestServo+0x46>
    14e6:	90 e0       	ldi	r25, 0x00	; 0
    14e8:	01 c0       	rjmp	.+2      	; 0x14ec <TestServo+0x48>
    14ea:	91 e0       	ldi	r25, 0x01	; 1
		{
			temp_state = FALSE;
		}
	}
	
	*state = ttlbus_control.state;
    14ec:	80 91 6a 06 	lds	r24, 0x066A
    14f0:	f7 01       	movw	r30, r14
    14f2:	80 83       	st	Z, r24
	
	return temp_state;
}
    14f4:	89 2f       	mov	r24, r25
    14f6:	0f 90       	pop	r0
    14f8:	cf 91       	pop	r28
    14fa:	df 91       	pop	r29
    14fc:	1f 91       	pop	r17
    14fe:	ff 90       	pop	r15
    1500:	ef 90       	pop	r14
    1502:	08 95       	ret

00001504 <SetServoTorqueEnable>:
** 修订人:
** 修订日期:
**------------------------------------------------------------------------------------------------------------------------
*************************************************************************************************************************/
static uint8 SetServoTorqueEnable(uint8 id, uint8 enable)
{
    1504:	ff 92       	push	r15
    1506:	0f 93       	push	r16
    1508:	1f 93       	push	r17
    150a:	18 2f       	mov	r17, r24
    150c:	f6 2e       	mov	r15, r22
	uint8 temp_value = 0;
	uint8 temp_state = 0;

	temp_value = (id >> 4);
    150e:	08 2f       	mov	r16, r24
    1510:	02 95       	swap	r16
    1512:	0f 70       	andi	r16, 0x0F	; 15

	if((SERVO_PPM_ID == temp_value) || (BSU_BROADCASTING_ID == id))					// PPMID段，调用PPM方法
    1514:	0e 30       	cpi	r16, 0x0E	; 14
    1516:	11 f0       	breq	.+4      	; 0x151c <SetServoTorqueEnable+0x18>
    1518:	8e 3f       	cpi	r24, 0xFE	; 254
    151a:	a1 f4       	brne	.+40     	; 0x1544 <SetServoTorqueEnable+0x40>
    151c:	81 2f       	mov	r24, r17
    151e:	80 5e       	subi	r24, 0xE0	; 224
	{
		if (SERVO_DIS == enable)
    1520:	ff 20       	and	r15, r15
    1522:	29 f4       	brne	.+10     	; 0x152e <SetServoTorqueEnable+0x2a>
		{
			(ppm_control.pStopPpm)(id - 0xE0);
    1524:	e0 91 6b 07 	lds	r30, 0x076B
    1528:	f0 91 6c 07 	lds	r31, 0x076C
    152c:	04 c0       	rjmp	.+8      	; 0x1536 <SetServoTorqueEnable+0x32>
		}
		else
		{
			(ppm_control.pRunPpm)(id - 0xE0);
    152e:	e0 91 73 07 	lds	r30, 0x0773
    1532:	f0 91 74 07 	lds	r31, 0x0774
    1536:	09 95       	icall
		}
	}
	if((SERVO_PPM_ID != temp_value) || (BSU_BROADCASTING_ID == id))				// BSU的ID段，调用BSU总线方法
    1538:	0e 30       	cpi	r16, 0x0E	; 14
    153a:	21 f4       	brne	.+8      	; 0x1544 <SetServoTorqueEnable+0x40>
    153c:	1e 3f       	cpi	r17, 0xFE	; 254
    153e:	11 f0       	breq	.+4      	; 0x1544 <SetServoTorqueEnable+0x40>
    1540:	81 e0       	ldi	r24, 0x01	; 1
    1542:	17 c0       	rjmp	.+46     	; 0x1572 <SetServoTorqueEnable+0x6e>
	{

		if (SERVO_DIS == enable)
    1544:	ff 20       	and	r15, r15
    1546:	41 f4       	brne	.+16     	; 0x1558 <SetServoTorqueEnable+0x54>
		{
			temp_state = ttlbus_control.pWriteByte(id, 0x18, 0x00);				// 设置节点为卸载状态
    1548:	e0 91 5a 06 	lds	r30, 0x065A
    154c:	f0 91 5b 06 	lds	r31, 0x065B
    1550:	81 2f       	mov	r24, r17
    1552:	68 e1       	ldi	r22, 0x18	; 24
    1554:	40 e0       	ldi	r20, 0x00	; 0
    1556:	07 c0       	rjmp	.+14     	; 0x1566 <SetServoTorqueEnable+0x62>
		}
		else
		{
			temp_state = ttlbus_control.pWriteByte(id, 0x18, 0x01);				// 设置节点为力矩输出状态
    1558:	e0 91 5a 06 	lds	r30, 0x065A
    155c:	f0 91 5b 06 	lds	r31, 0x065B
    1560:	81 2f       	mov	r24, r17
    1562:	68 e1       	ldi	r22, 0x18	; 24
    1564:	41 e0       	ldi	r20, 0x01	; 1
    1566:	09 95       	icall
    1568:	98 2f       	mov	r25, r24
    156a:	81 11       	cpse	r24, r1
    156c:	91 e0       	ldi	r25, 0x01	; 1
    156e:	81 e0       	ldi	r24, 0x01	; 1
    1570:	89 27       	eor	r24, r25
			return FALSE;
		}
	}

	return TRUE;
}
    1572:	1f 91       	pop	r17
    1574:	0f 91       	pop	r16
    1576:	ff 90       	pop	r15
    1578:	08 95       	ret

0000157a <SetServoRegPosition>:
** 修订人:
** 修订日期:
**------------------------------------------------------------------------------------------------------------------------
*************************************************************************************************************************/
static uint8 SetServoRegPosition(uint8 id, uint16 position, uint16 speed)
{
    157a:	ef 92       	push	r14
    157c:	ff 92       	push	r15
    157e:	0f 93       	push	r16
    1580:	1f 93       	push	r17
    1582:	cf 93       	push	r28
    1584:	df 93       	push	r29
    1586:	18 2f       	mov	r17, r24
    1588:	eb 01       	movw	r28, r22
    158a:	7a 01       	movw	r14, r20
	uint8 temp_value = 0;
	uint8 temp_state = 0;

	temp_state = id;

	if (FALSE == temp_state)
    158c:	88 23       	and	r24, r24
    158e:	29 f1       	breq	.+74     	; 0x15da <SetServoRegPosition+0x60>
	{
		return TRUE;																// 判别为重复发送，忽略本条指令，返回操作成功
	}

	temp_value = (id >> 4);
    1590:	08 2f       	mov	r16, r24
    1592:	02 95       	swap	r16
    1594:	0f 70       	andi	r16, 0x0F	; 15

	if((SERVO_PPM_ID == temp_value) || (BSU_BROADCASTING_ID == id))						// PPMID段，调用PPM方法
    1596:	0e 30       	cpi	r16, 0x0E	; 14
    1598:	11 f0       	breq	.+4      	; 0x159e <SetServoRegPosition+0x24>
    159a:	8e 3f       	cpi	r24, 0xFE	; 254
    159c:	79 f4       	brne	.+30     	; 0x15bc <SetServoRegPosition+0x42>
	{
		temp_state = (ppm_control.pSetPpmPosition)(id - 0xE0, position, speed);		// 设置位置限制打开到最大，转换为舵机模式
    159e:	e0 91 71 07 	lds	r30, 0x0771
    15a2:	f0 91 72 07 	lds	r31, 0x0772
    15a6:	81 2f       	mov	r24, r17
    15a8:	80 5e       	subi	r24, 0xE0	; 224
    15aa:	be 01       	movw	r22, r28
    15ac:	a7 01       	movw	r20, r14
    15ae:	09 95       	icall

		if(FALSE == temp_state)
    15b0:	88 23       	and	r24, r24
    15b2:	a1 f0       	breq	.+40     	; 0x15dc <SetServoRegPosition+0x62>
		{
			return FALSE;
		}
	}
	if((SERVO_PPM_ID != temp_value) || (BSU_BROADCASTING_ID == id))					// BSU的ID段，调用BSU总线方法
    15b4:	0e 30       	cpi	r16, 0x0E	; 14
    15b6:	11 f4       	brne	.+4      	; 0x15bc <SetServoRegPosition+0x42>
    15b8:	1e 3f       	cpi	r17, 0xFE	; 254
    15ba:	79 f4       	brne	.+30     	; 0x15da <SetServoRegPosition+0x60>
	{
		temp_state = ttlbus_control.pWriteRegWord2(id, 0x1E, position, speed);				//
    15bc:	e0 91 52 06 	lds	r30, 0x0652
    15c0:	f0 91 53 06 	lds	r31, 0x0653
    15c4:	81 2f       	mov	r24, r17
    15c6:	6e e1       	ldi	r22, 0x1E	; 30
    15c8:	ae 01       	movw	r20, r28
    15ca:	97 01       	movw	r18, r14
    15cc:	09 95       	icall
    15ce:	98 2f       	mov	r25, r24
    15d0:	81 11       	cpse	r24, r1
    15d2:	91 e0       	ldi	r25, 0x01	; 1
    15d4:	81 e0       	ldi	r24, 0x01	; 1
    15d6:	89 27       	eor	r24, r25
    15d8:	01 c0       	rjmp	.+2      	; 0x15dc <SetServoRegPosition+0x62>
    15da:	81 e0       	ldi	r24, 0x01	; 1
			return FALSE;
		}
	}

	return TRUE;
}
    15dc:	df 91       	pop	r29
    15de:	cf 91       	pop	r28
    15e0:	1f 91       	pop	r17
    15e2:	0f 91       	pop	r16
    15e4:	ff 90       	pop	r15
    15e6:	ef 90       	pop	r14
    15e8:	08 95       	ret

000015ea <SetServoPosition>:
** 修订人:
** 修订日期:
**------------------------------------------------------------------------------------------------------------------------
*************************************************************************************************************************/
static uint8 SetServoPosition(uint8 id, uint16 position, uint16 speed)
{
    15ea:	df 92       	push	r13
    15ec:	ef 92       	push	r14
    15ee:	ff 92       	push	r15
    15f0:	0f 93       	push	r16
    15f2:	1f 93       	push	r17
    15f4:	cf 93       	push	r28
    15f6:	df 93       	push	r29
    15f8:	18 2f       	mov	r17, r24
    15fa:	eb 01       	movw	r28, r22
    15fc:	7a 01       	movw	r14, r20
	uint8 temp_value = 0;
	uint8 temp_state = 0;

	temp_state = id;

	if (FALSE == temp_state)
    15fe:	88 23       	and	r24, r24
    1600:	89 f1       	breq	.+98     	; 0x1664 <SetServoPosition+0x7a>
	{
		return TRUE;																// 判别为重复发送，忽略本条指令，返回操作成功
	}

	temp_value = (id >> 4);
    1602:	d8 2e       	mov	r13, r24
    1604:	d2 94       	swap	r13
    1606:	8f e0       	ldi	r24, 0x0F	; 15
    1608:	d8 22       	and	r13, r24

	if((SERVO_PPM_ID == temp_value) || (BSU_BROADCASTING_ID == id))						// PPMID段，调用PPM方法
    160a:	8e e0       	ldi	r24, 0x0E	; 14
    160c:	d8 16       	cp	r13, r24
    160e:	11 f0       	breq	.+4      	; 0x1614 <SetServoPosition+0x2a>
    1610:	1e 3f       	cpi	r17, 0xFE	; 254
    1612:	c9 f4       	brne	.+50     	; 0x1646 <SetServoPosition+0x5c>
	{
		temp_state = (ppm_control.pSetPpmPosition)(id - 0xE0, position, speed);		// 设置位置限制打开到最大，转换为舵机模式
    1614:	01 2f       	mov	r16, r17
    1616:	00 5e       	subi	r16, 0xE0	; 224
    1618:	e0 91 71 07 	lds	r30, 0x0771
    161c:	f0 91 72 07 	lds	r31, 0x0772
    1620:	80 2f       	mov	r24, r16
    1622:	be 01       	movw	r22, r28
    1624:	a7 01       	movw	r20, r14
    1626:	09 95       	icall

		if(FALSE == temp_state)
    1628:	88 23       	and	r24, r24
    162a:	f1 f0       	breq	.+60     	; 0x1668 <SetServoPosition+0x7e>
		{
			return FALSE;
		}

		temp_state = (ppm_control.pRunPpm)(id - 0xE0);
    162c:	e0 91 73 07 	lds	r30, 0x0773
    1630:	f0 91 74 07 	lds	r31, 0x0774
    1634:	80 2f       	mov	r24, r16
    1636:	09 95       	icall

		if(FALSE == temp_state)
    1638:	88 23       	and	r24, r24
    163a:	b1 f0       	breq	.+44     	; 0x1668 <SetServoPosition+0x7e>
		{
			return FALSE;
		}
	}
	if((SERVO_PPM_ID != temp_value) || (BSU_BROADCASTING_ID == id))					// BSU的ID段，调用BSU总线方法
    163c:	8e e0       	ldi	r24, 0x0E	; 14
    163e:	d8 16       	cp	r13, r24
    1640:	11 f4       	brne	.+4      	; 0x1646 <SetServoPosition+0x5c>
    1642:	1e 3f       	cpi	r17, 0xFE	; 254
    1644:	79 f4       	brne	.+30     	; 0x1664 <SetServoPosition+0x7a>
	{
		temp_state = ttlbus_control.pWriteWord2(id, 0x1E, position, speed);				//
    1646:	e0 91 54 06 	lds	r30, 0x0654
    164a:	f0 91 55 06 	lds	r31, 0x0655
    164e:	81 2f       	mov	r24, r17
    1650:	6e e1       	ldi	r22, 0x1E	; 30
    1652:	ae 01       	movw	r20, r28
    1654:	97 01       	movw	r18, r14
    1656:	09 95       	icall
    1658:	98 2f       	mov	r25, r24
    165a:	81 11       	cpse	r24, r1
    165c:	91 e0       	ldi	r25, 0x01	; 1
    165e:	81 e0       	ldi	r24, 0x01	; 1
    1660:	89 27       	eor	r24, r25
    1662:	03 c0       	rjmp	.+6      	; 0x166a <SetServoPosition+0x80>
    1664:	81 e0       	ldi	r24, 0x01	; 1
    1666:	01 c0       	rjmp	.+2      	; 0x166a <SetServoPosition+0x80>
    1668:	80 e0       	ldi	r24, 0x00	; 0
			return FALSE;
		}
	}

	return TRUE;
}
    166a:	df 91       	pop	r29
    166c:	cf 91       	pop	r28
    166e:	1f 91       	pop	r17
    1670:	0f 91       	pop	r16
    1672:	ff 90       	pop	r15
    1674:	ef 90       	pop	r14
    1676:	df 90       	pop	r13
    1678:	08 95       	ret

0000167a <SetServoSyncPosition>:
** 修订人:
** 修订日期:
**------------------------------------------------------------------------------------------------------------------------
*************************************************************************************************************************/
static uint8 SetServoSyncPosition(uint8 id, uint16 position, uint16 speed)
{
    167a:	cf 92       	push	r12
    167c:	df 92       	push	r13
    167e:	ef 92       	push	r14
    1680:	ff 92       	push	r15
    1682:	0f 93       	push	r16
    1684:	1f 93       	push	r17
    1686:	df 93       	push	r29
    1688:	cf 93       	push	r28
    168a:	0f 92       	push	r0
    168c:	cd b7       	in	r28, 0x3d	; 61
    168e:	de b7       	in	r29, 0x3e	; 62
    1690:	c8 2e       	mov	r12, r24
    1692:	8b 01       	movw	r16, r22
    1694:	7a 01       	movw	r14, r20
{
	uint8 temp_state = FALSE;
	uint8 temp_value = 0;
	uint8 count = 0;

	temp_value = (id >> 4);
    1696:	82 95       	swap	r24
    1698:	8f 70       	andi	r24, 0x0F	; 15
    169a:	89 83       	std	Y+1, r24	; 0x01

	if (SERVO_PPM_ID == temp_value)						// PPMID段，调用PPM方法
    169c:	8e 30       	cpi	r24, 0x0E	; 14
    169e:	09 f4       	brne	.+2      	; 0x16a2 <SetServoSyncPosition+0x28>
    16a0:	91 c0       	rjmp	.+290    	; 0x17c4 <SetServoSyncPosition+0x14a>
	{
		return TRUE;
	}

	if (BSU_BROADCASTING_ID == id)
    16a2:	8e ef       	ldi	r24, 0xFE	; 254
    16a4:	c8 16       	cp	r12, r24
    16a6:	a9 f4       	brne	.+42     	; 0x16d2 <SetServoSyncPosition+0x58>
	{
		for (count = 0; count < ttlbus_control.device_amount; count++)
    16a8:	80 91 4e 06 	lds	r24, 0x064E
    16ac:	e2 e2       	ldi	r30, 0x22	; 34
    16ae:	f3 e0       	ldi	r31, 0x03	; 3
    16b0:	90 e0       	ldi	r25, 0x00	; 0
    16b2:	88 0f       	add	r24, r24
    16b4:	99 1f       	adc	r25, r25
    16b6:	8e 0f       	add	r24, r30
    16b8:	9f 1f       	adc	r25, r31
    16ba:	07 c0       	rjmp	.+14     	; 0x16ca <SetServoSyncPosition+0x50>
		{
			servo_control.last_position[count] = position;
    16bc:	11 83       	std	Z+1, r17	; 0x01
    16be:	00 83       	st	Z, r16
			servo_control.last_velocity[count] = velocity;
    16c0:	e0 5c       	subi	r30, 0xC0	; 192
    16c2:	ff 4f       	sbci	r31, 0xFF	; 255
    16c4:	f1 82       	std	Z+1, r15	; 0x01
    16c6:	e0 82       	st	Z, r14
    16c8:	fe 97       	sbiw	r30, 0x3e	; 62
		return TRUE;
	}

	if (BSU_BROADCASTING_ID == id)
	{
		for (count = 0; count < ttlbus_control.device_amount; count++)
    16ca:	e8 17       	cp	r30, r24
    16cc:	f9 07       	cpc	r31, r25
    16ce:	b1 f7       	brne	.-20     	; 0x16bc <SetServoSyncPosition+0x42>
    16d0:	53 c0       	rjmp	.+166    	; 0x1778 <SetServoSyncPosition+0xfe>
			servo_control.last_velocity[count] = velocity;
		}
		return TRUE;
	}

	temp_state = mapping_control.pInverse1DimArray(ttlbus_control.p_device_mapping, ttlbus_control.device_amount, id, &temp_value);
    16d2:	e0 91 71 06 	lds	r30, 0x0671
    16d6:	f0 91 72 06 	lds	r31, 0x0672
    16da:	80 91 4c 06 	lds	r24, 0x064C
    16de:	90 91 4d 06 	lds	r25, 0x064D
    16e2:	60 91 4e 06 	lds	r22, 0x064E
    16e6:	4c 2d       	mov	r20, r12
    16e8:	9e 01       	movw	r18, r28
    16ea:	2f 5f       	subi	r18, 0xFF	; 255
    16ec:	3f 4f       	sbci	r19, 0xFF	; 255
    16ee:	09 95       	icall
    16f0:	d8 2e       	mov	r13, r24

	if (TRUE == temp_state)
    16f2:	81 e0       	ldi	r24, 0x01	; 1
    16f4:	d8 16       	cp	r13, r24
    16f6:	09 f0       	breq	.+2      	; 0x16fa <SetServoSyncPosition+0x80>
    16f8:	59 c0       	rjmp	.+178    	; 0x17ac <SetServoSyncPosition+0x132>
	{
		timer0_control.pDisableInterrupt(TIMER8_IMR_OI);								// 禁止系统中断
    16fa:	e0 91 d4 07 	lds	r30, 0x07D4
    16fe:	f0 91 d5 07 	lds	r31, 0x07D5
    1702:	80 e0       	ldi	r24, 0x00	; 0
    1704:	09 95       	icall

		if ((servo_control.last_position[temp_value] == position) && (servo_control.last_velocity[temp_value] == velocity))
    1706:	89 81       	ldd	r24, Y+1	; 0x01
    1708:	a8 2f       	mov	r26, r24
    170a:	b0 e0       	ldi	r27, 0x00	; 0
    170c:	fd 01       	movw	r30, r26
    170e:	ee 0f       	add	r30, r30
    1710:	ff 1f       	adc	r31, r31
    1712:	ee 5d       	subi	r30, 0xDE	; 222
    1714:	fc 4f       	sbci	r31, 0xFC	; 252
    1716:	80 81       	ld	r24, Z
    1718:	91 81       	ldd	r25, Z+1	; 0x01
    171a:	80 17       	cp	r24, r16
    171c:	91 07       	cpc	r25, r17
    171e:	61 f4       	brne	.+24     	; 0x1738 <SetServoSyncPosition+0xbe>
    1720:	fd 01       	movw	r30, r26
    1722:	ee 0f       	add	r30, r30
    1724:	ff 1f       	adc	r31, r31
    1726:	ee 59       	subi	r30, 0x9E	; 158
    1728:	fc 4f       	sbci	r31, 0xFC	; 252
    172a:	80 81       	ld	r24, Z
    172c:	91 81       	ldd	r25, Z+1	; 0x01
    172e:	8e 15       	cp	r24, r14
    1730:	9f 05       	cpc	r25, r15
    1732:	11 f4       	brne	.+4      	; 0x1738 <SetServoSyncPosition+0xbe>
    1734:	dd 24       	eor	r13, r13
    1736:	0b c0       	rjmp	.+22     	; 0x174e <SetServoSyncPosition+0xd4>
		{
			temp_state = FALSE;
		}
		else
		{
			servo_control.last_position[temp_value] = position;
    1738:	aa 0f       	add	r26, r26
    173a:	bb 1f       	adc	r27, r27
    173c:	fd 01       	movw	r30, r26
    173e:	ee 5d       	subi	r30, 0xDE	; 222
    1740:	fc 4f       	sbci	r31, 0xFC	; 252
    1742:	11 83       	std	Z+1, r17	; 0x01
    1744:	00 83       	st	Z, r16
			servo_control.last_velocity[temp_value] = velocity;
    1746:	ae 59       	subi	r26, 0x9E	; 158
    1748:	bc 4f       	sbci	r27, 0xFC	; 252
    174a:	ed 92       	st	X+, r14
    174c:	fc 92       	st	X, r15
		}

		timer0_control.pEnableInterrupt(TIMER8_IMR_OI);									// 系统中断
    174e:	e0 91 d2 07 	lds	r30, 0x07D2
    1752:	f0 91 d3 07 	lds	r31, 0x07D3
    1756:	80 e0       	ldi	r24, 0x00	; 0
    1758:	09 95       	icall
	uint8 temp_value = 0;
	uint8 temp_state = 0;

	temp_state = CompareServoPosition(id, position, speed);

	if (FALSE == temp_state)
    175a:	dd 20       	and	r13, r13
    175c:	39 f1       	breq	.+78     	; 0x17ac <SetServoSyncPosition+0x132>
    175e:	0c c0       	rjmp	.+24     	; 0x1778 <SetServoSyncPosition+0xfe>
		if(FALSE == temp_state)
		{
			return FALSE;
		}

		temp_state = (ppm_control.pRunPpm)(id - 0xE0);
    1760:	e0 91 73 07 	lds	r30, 0x0773
    1764:	f0 91 74 07 	lds	r31, 0x0774
    1768:	8d 2d       	mov	r24, r13
    176a:	09 95       	icall
    176c:	90 e0       	ldi	r25, 0x00	; 0
    176e:	88 23       	and	r24, r24
    1770:	09 f4       	brne	.+2      	; 0x1774 <SetServoSyncPosition+0xfa>
    1772:	91 e0       	ldi	r25, 0x01	; 1
    1774:	81 e0       	ldi	r24, 0x01	; 1
    1776:	18 c0       	rjmp	.+48     	; 0x17a8 <SetServoSyncPosition+0x12e>
			return FALSE;
		}
	}
	if(SERVO_PPM_ID != temp_value)													// BSU的ID段，调用BSU总线方法
	{
		if (TRUE == ttlbus_control.sync_update_state)
    1778:	80 91 4f 06 	lds	r24, 0x064F
    177c:	81 30       	cpi	r24, 0x01	; 1
    177e:	49 f4       	brne	.+18     	; 0x1792 <SetServoSyncPosition+0x118>
		{
			ttlbus_control.pWriteSyncControl(0x1E, 0x04);
    1780:	e0 91 5c 06 	lds	r30, 0x065C
    1784:	f0 91 5d 06 	lds	r31, 0x065D
    1788:	8e e1       	ldi	r24, 0x1E	; 30
    178a:	64 e0       	ldi	r22, 0x04	; 4
    178c:	09 95       	icall
			ttlbus_control.sync_update_state = FALSE;
    178e:	10 92 4f 06 	sts	0x064F, r1
		}

		temp_state = ttlbus_control.pWriteSyncWord2(id, position, speed);						//
    1792:	e0 91 5e 06 	lds	r30, 0x065E
    1796:	f0 91 5f 06 	lds	r31, 0x065F
    179a:	8c 2d       	mov	r24, r12
    179c:	b8 01       	movw	r22, r16
    179e:	a7 01       	movw	r20, r14
    17a0:	09 95       	icall
    17a2:	81 11       	cpse	r24, r1
    17a4:	81 e0       	ldi	r24, 0x01	; 1
    17a6:	91 e0       	ldi	r25, 0x01	; 1
    17a8:	98 27       	eor	r25, r24
    17aa:	01 c0       	rjmp	.+2      	; 0x17ae <SetServoSyncPosition+0x134>
    17ac:	91 e0       	ldi	r25, 0x01	; 1
			return FALSE;															//
		}
	}

	return TRUE;
}
    17ae:	89 2f       	mov	r24, r25
    17b0:	0f 90       	pop	r0
    17b2:	cf 91       	pop	r28
    17b4:	df 91       	pop	r29
    17b6:	1f 91       	pop	r17
    17b8:	0f 91       	pop	r16
    17ba:	ff 90       	pop	r15
    17bc:	ef 90       	pop	r14
    17be:	df 90       	pop	r13
    17c0:	cf 90       	pop	r12
    17c2:	08 95       	ret

	temp_value = (id >> 4);

	if(SERVO_PPM_ID == temp_value)					// PPMID段，调用PPM方法
	{
		temp_state = (ppm_control.pSetPpmPosition)(id - 0xE0, position, speed);		// 设置位置限制打开到最大，转换为舵机模式
    17c4:	90 e2       	ldi	r25, 0x20	; 32
    17c6:	d9 2e       	mov	r13, r25
    17c8:	dc 0c       	add	r13, r12
    17ca:	e0 91 71 07 	lds	r30, 0x0771
    17ce:	f0 91 72 07 	lds	r31, 0x0772
    17d2:	8d 2d       	mov	r24, r13
    17d4:	09 95       	icall

		if(FALSE == temp_state)
    17d6:	88 23       	and	r24, r24
    17d8:	19 f6       	brne	.-122    	; 0x1760 <SetServoSyncPosition+0xe6>
    17da:	90 e0       	ldi	r25, 0x00	; 0
    17dc:	e8 cf       	rjmp	.-48     	; 0x17ae <SetServoSyncPosition+0x134>

000017de <SetServoRegVelocity>:
** 修订人:
** 修订日期:
**------------------------------------------------------------------------------------------------------------------------
*************************************************************************************************************************/
static uint8 SetServoRegVelocity(uint8 id, uint8 direction, uint16 velocity)
{
    17de:	ef 92       	push	r14
    17e0:	ff 92       	push	r15
    17e2:	0f 93       	push	r16
    17e4:	1f 93       	push	r17
    17e6:	cf 93       	push	r28
    17e8:	df 93       	push	r29
    17ea:	18 2f       	mov	r17, r24
    17ec:	e6 2e       	mov	r14, r22
    17ee:	ea 01       	movw	r28, r20
	uint8 temp_value = 0;
	uint8 temp_state = 0;
	
	temp_state = id;

	if (FALSE == temp_state)
    17f0:	88 23       	and	r24, r24
    17f2:	b9 f1       	breq	.+110    	; 0x1862 <SetServoRegVelocity+0x84>
	{
		return TRUE;																// 判别为重复发送，忽略本条指令，返回操作成功
	}

	temp_value = (id >> 4);
    17f4:	f8 2e       	mov	r15, r24
    17f6:	f2 94       	swap	r15
    17f8:	7f e0       	ldi	r23, 0x0F	; 15
    17fa:	f7 22       	and	r15, r23

	if((SERVO_PPM_ID == temp_value) || (BSU_BROADCASTING_ID == id))						// PPMID段，调用PPM方法
    17fc:	8e e0       	ldi	r24, 0x0E	; 14
    17fe:	f8 16       	cp	r15, r24
    1800:	11 f0       	breq	.+4      	; 0x1806 <SetServoRegVelocity+0x28>
    1802:	1e 3f       	cpi	r17, 0xFE	; 254
    1804:	d9 f4       	brne	.+54     	; 0x183c <SetServoRegVelocity+0x5e>
	{
		temp_state = (ppm_control.pSetPpmVelocity)(id - 0xE0, direction, velocity);		//
    1806:	01 2f       	mov	r16, r17
    1808:	00 5e       	subi	r16, 0xE0	; 224
    180a:	e0 91 6f 07 	lds	r30, 0x076F
    180e:	f0 91 70 07 	lds	r31, 0x0770
    1812:	80 2f       	mov	r24, r16
    1814:	6e 2d       	mov	r22, r14
    1816:	ae 01       	movw	r20, r28
    1818:	09 95       	icall

		if(FALSE == temp_state)
    181a:	88 23       	and	r24, r24
    181c:	21 f1       	breq	.+72     	; 0x1866 <SetServoRegVelocity+0x88>
		{
			return FALSE;
		}
		
		temp_state = (ppm_control.pSetPpmAcceleration)(id - 0xE0, 0x3FF);				// 设置加速度为最大
    181e:	e0 91 6d 07 	lds	r30, 0x076D
    1822:	f0 91 6e 07 	lds	r31, 0x076E
    1826:	80 2f       	mov	r24, r16
    1828:	6f ef       	ldi	r22, 0xFF	; 255
    182a:	73 e0       	ldi	r23, 0x03	; 3
    182c:	09 95       	icall

		if(FALSE == temp_state)
    182e:	88 23       	and	r24, r24
    1830:	d1 f0       	breq	.+52     	; 0x1866 <SetServoRegVelocity+0x88>
		{
			return FALSE;
		}
	}
	
	if((SERVO_PPM_ID != temp_value) || (BSU_BROADCASTING_ID == id))						// BSU的ID段，调用BSU总线方法
    1832:	8e e0       	ldi	r24, 0x0E	; 14
    1834:	f8 16       	cp	r15, r24
    1836:	11 f4       	brne	.+4      	; 0x183c <SetServoRegVelocity+0x5e>
    1838:	1e 3f       	cpi	r17, 0xFE	; 254
    183a:	99 f4       	brne	.+38     	; 0x1862 <SetServoRegVelocity+0x84>
	{
		temp_state = ttlbus_control.pWriteRegWord(id, 0x20, (direction << 10) + velocity);			//
    183c:	5e 2d       	mov	r21, r14
    183e:	55 0f       	add	r21, r21
    1840:	55 0f       	add	r21, r21
    1842:	40 e0       	ldi	r20, 0x00	; 0
    1844:	4c 0f       	add	r20, r28
    1846:	5d 1f       	adc	r21, r29
    1848:	e0 91 56 06 	lds	r30, 0x0656
    184c:	f0 91 57 06 	lds	r31, 0x0657
    1850:	81 2f       	mov	r24, r17
    1852:	60 e2       	ldi	r22, 0x20	; 32
    1854:	09 95       	icall
    1856:	98 2f       	mov	r25, r24
    1858:	81 11       	cpse	r24, r1
    185a:	91 e0       	ldi	r25, 0x01	; 1
    185c:	81 e0       	ldi	r24, 0x01	; 1
    185e:	89 27       	eor	r24, r25
    1860:	03 c0       	rjmp	.+6      	; 0x1868 <SetServoRegVelocity+0x8a>
    1862:	81 e0       	ldi	r24, 0x01	; 1
    1864:	01 c0       	rjmp	.+2      	; 0x1868 <SetServoRegVelocity+0x8a>
    1866:	80 e0       	ldi	r24, 0x00	; 0
			return FALSE;
		}
	}

	return TRUE;
}
    1868:	df 91       	pop	r29
    186a:	cf 91       	pop	r28
    186c:	1f 91       	pop	r17
    186e:	0f 91       	pop	r16
    1870:	ff 90       	pop	r15
    1872:	ef 90       	pop	r14
    1874:	08 95       	ret

00001876 <SetServoVelocity>:
** 修订人:
** 修订日期:
**------------------------------------------------------------------------------------------------------------------------
*************************************************************************************************************************/
static uint8 SetServoVelocity(uint8 id, uint8 direction, uint16 velocity)
{
    1876:	ef 92       	push	r14
    1878:	ff 92       	push	r15
    187a:	0f 93       	push	r16
    187c:	1f 93       	push	r17
    187e:	cf 93       	push	r28
    1880:	df 93       	push	r29
    1882:	08 2f       	mov	r16, r24
    1884:	e6 2e       	mov	r14, r22
    1886:	ea 01       	movw	r28, r20
	uint8 temp_value = 0;
	uint8 temp_state = 0;

	temp_state = id;

	if (FALSE == temp_state)
    1888:	88 23       	and	r24, r24
    188a:	e9 f1       	breq	.+122    	; 0x1906 <SetServoVelocity+0x90>
	{
		return TRUE;																// 判别为重复发送，忽略本条指令，返回操作成功
	}

	temp_value = (id >> 4);
    188c:	f8 2e       	mov	r15, r24
    188e:	f2 94       	swap	r15
    1890:	ef e0       	ldi	r30, 0x0F	; 15
    1892:	fe 22       	and	r15, r30

	if((SERVO_PPM_ID == temp_value) || (BSU_BROADCASTING_ID == id))						// PPMID段，调用PPM方法
    1894:	8e e0       	ldi	r24, 0x0E	; 14
    1896:	f8 16       	cp	r15, r24
    1898:	11 f0       	breq	.+4      	; 0x189e <SetServoVelocity+0x28>
    189a:	0e 3f       	cpi	r16, 0xFE	; 254
    189c:	09 f5       	brne	.+66     	; 0x18e0 <SetServoVelocity+0x6a>
	{
		temp_state = (ppm_control.pSetPpmVelocity)(id - 0xE0, direction, velocity);		//
    189e:	10 2f       	mov	r17, r16
    18a0:	10 5e       	subi	r17, 0xE0	; 224
    18a2:	e0 91 6f 07 	lds	r30, 0x076F
    18a6:	f0 91 70 07 	lds	r31, 0x0770
    18aa:	81 2f       	mov	r24, r17
    18ac:	6e 2d       	mov	r22, r14
    18ae:	ae 01       	movw	r20, r28
    18b0:	09 95       	icall

		if(FALSE == temp_state)
    18b2:	88 23       	and	r24, r24
    18b4:	51 f1       	breq	.+84     	; 0x190a <SetServoVelocity+0x94>
		{
			return FALSE;
		}

		temp_state = (ppm_control.pSetPpmAcceleration)(id - 0xE0, 0x3FF);				// 设置加速度为最大
    18b6:	e0 91 6d 07 	lds	r30, 0x076D
    18ba:	f0 91 6e 07 	lds	r31, 0x076E
    18be:	81 2f       	mov	r24, r17
    18c0:	6f ef       	ldi	r22, 0xFF	; 255
    18c2:	73 e0       	ldi	r23, 0x03	; 3
    18c4:	09 95       	icall

		if(FALSE == temp_state)
    18c6:	88 23       	and	r24, r24
    18c8:	01 f1       	breq	.+64     	; 0x190a <SetServoVelocity+0x94>
		{
			return FALSE;
		}

		ppm_control.pRunPpm(id - 0xE0);
    18ca:	e0 91 73 07 	lds	r30, 0x0773
    18ce:	f0 91 74 07 	lds	r31, 0x0774
    18d2:	81 2f       	mov	r24, r17
    18d4:	09 95       	icall
	}

	if((SERVO_PPM_ID != temp_value) || (BSU_BROADCASTING_ID == id))						// BSU的ID段，调用BSU总线方法
    18d6:	8e e0       	ldi	r24, 0x0E	; 14
    18d8:	f8 16       	cp	r15, r24
    18da:	11 f4       	brne	.+4      	; 0x18e0 <SetServoVelocity+0x6a>
    18dc:	0e 3f       	cpi	r16, 0xFE	; 254
    18de:	99 f4       	brne	.+38     	; 0x1906 <SetServoVelocity+0x90>
	{
		temp_state = ttlbus_control.pWriteWord(id, 0x20, (direction << 10) + velocity);			//
    18e0:	5e 2d       	mov	r21, r14
    18e2:	55 0f       	add	r21, r21
    18e4:	55 0f       	add	r21, r21
    18e6:	40 e0       	ldi	r20, 0x00	; 0
    18e8:	4c 0f       	add	r20, r28
    18ea:	5d 1f       	adc	r21, r29
    18ec:	e0 91 58 06 	lds	r30, 0x0658
    18f0:	f0 91 59 06 	lds	r31, 0x0659
    18f4:	80 2f       	mov	r24, r16
    18f6:	60 e2       	ldi	r22, 0x20	; 32
    18f8:	09 95       	icall
    18fa:	98 2f       	mov	r25, r24
    18fc:	81 11       	cpse	r24, r1
    18fe:	91 e0       	ldi	r25, 0x01	; 1
    1900:	81 e0       	ldi	r24, 0x01	; 1
    1902:	89 27       	eor	r24, r25
    1904:	03 c0       	rjmp	.+6      	; 0x190c <SetServoVelocity+0x96>
    1906:	81 e0       	ldi	r24, 0x01	; 1
    1908:	01 c0       	rjmp	.+2      	; 0x190c <SetServoVelocity+0x96>
    190a:	80 e0       	ldi	r24, 0x00	; 0
			return FALSE;
		}
	}

	return TRUE;
}
    190c:	df 91       	pop	r29
    190e:	cf 91       	pop	r28
    1910:	1f 91       	pop	r17
    1912:	0f 91       	pop	r16
    1914:	ff 90       	pop	r15
    1916:	ef 90       	pop	r14
    1918:	08 95       	ret

0000191a <SetServoSyncVelocity>:
** 修订人:
** 修订日期:
**------------------------------------------------------------------------------------------------------------------------
*************************************************************************************************************************/
static uint8 SetServoSyncVelocity(uint8 id, uint8 direction, uint16 velocity)
{
    191a:	bf 92       	push	r11
    191c:	cf 92       	push	r12
    191e:	df 92       	push	r13
    1920:	ef 92       	push	r14
    1922:	ff 92       	push	r15
    1924:	0f 93       	push	r16
    1926:	1f 93       	push	r17
    1928:	df 93       	push	r29
    192a:	cf 93       	push	r28
    192c:	0f 92       	push	r0
    192e:	cd b7       	in	r28, 0x3d	; 61
    1930:	de b7       	in	r29, 0x3e	; 62
    1932:	e8 2e       	mov	r14, r24
    1934:	b6 2e       	mov	r11, r22
    1936:	6a 01       	movw	r12, r20
	uint8 temp_value = 0;
	uint8 count = 0;

	uint16 temp_velocity = 0;

	temp_value = (id >> 4);
    1938:	f8 2e       	mov	r15, r24
    193a:	f2 94       	swap	r15
    193c:	1f e0       	ldi	r17, 0x0F	; 15
    193e:	f1 22       	and	r15, r17
    1940:	f9 82       	std	Y+1, r15	; 0x01

	if (SERVO_PPM_ID == temp_value)						// PPMID段，调用PPM方法
    1942:	8e e0       	ldi	r24, 0x0E	; 14
    1944:	f8 16       	cp	r15, r24
    1946:	09 f4       	brne	.+2      	; 0x194a <SetServoSyncVelocity+0x30>
    1948:	4e c0       	rjmp	.+156    	; 0x19e6 <SetServoSyncVelocity+0xcc>
	{
		return TRUE;
	}

	temp_velocity = (direction << 10) + velocity;
    194a:	96 2f       	mov	r25, r22
    194c:	99 0f       	add	r25, r25
    194e:	99 0f       	add	r25, r25
    1950:	80 e0       	ldi	r24, 0x00	; 0
    1952:	8c 01       	movw	r16, r24
    1954:	04 0f       	add	r16, r20
    1956:	15 1f       	adc	r17, r21

	if (BSU_BROADCASTING_ID == id)
    1958:	8e ef       	ldi	r24, 0xFE	; 254
    195a:	e8 16       	cp	r14, r24
    195c:	81 f4       	brne	.+32     	; 0x197e <SetServoSyncVelocity+0x64>
	{
		for (count = 0; count < ttlbus_control.device_amount; count++)
    195e:	80 91 4e 06 	lds	r24, 0x064E
    1962:	e2 e6       	ldi	r30, 0x62	; 98
    1964:	f3 e0       	ldi	r31, 0x03	; 3
    1966:	90 e0       	ldi	r25, 0x00	; 0
    1968:	88 0f       	add	r24, r24
    196a:	99 1f       	adc	r25, r25
    196c:	8e 0f       	add	r24, r30
    196e:	9f 1f       	adc	r25, r31
    1970:	02 c0       	rjmp	.+4      	; 0x1976 <SetServoSyncVelocity+0x5c>
		{
			servo_control.last_velocity[count] = temp_velocity;
    1972:	01 93       	st	Z+, r16
    1974:	11 93       	st	Z+, r17

	temp_velocity = (direction << 10) + velocity;

	if (BSU_BROADCASTING_ID == id)
	{
		for (count = 0; count < ttlbus_control.device_amount; count++)
    1976:	e8 17       	cp	r30, r24
    1978:	f9 07       	cpc	r31, r25
    197a:	d9 f7       	brne	.-10     	; 0x1972 <SetServoSyncVelocity+0x58>
    197c:	34 c0       	rjmp	.+104    	; 0x19e6 <SetServoSyncVelocity+0xcc>
			servo_control.last_velocity[count] = temp_velocity;
		}
		return TRUE;
	}

	temp_state = mapping_control.pInverse1DimArray(ttlbus_control.p_device_mapping, ttlbus_control.device_amount, id, &temp_value);
    197e:	e0 91 71 06 	lds	r30, 0x0671
    1982:	f0 91 72 06 	lds	r31, 0x0672
    1986:	80 91 4c 06 	lds	r24, 0x064C
    198a:	90 91 4d 06 	lds	r25, 0x064D
    198e:	60 91 4e 06 	lds	r22, 0x064E
    1992:	4e 2d       	mov	r20, r14
    1994:	9e 01       	movw	r18, r28
    1996:	2f 5f       	subi	r18, 0xFF	; 255
    1998:	3f 4f       	sbci	r19, 0xFF	; 255
    199a:	09 95       	icall
    199c:	f8 2e       	mov	r15, r24

	if (TRUE == temp_state)
    199e:	81 e0       	ldi	r24, 0x01	; 1
    19a0:	f8 16       	cp	r15, r24
    19a2:	09 f0       	breq	.+2      	; 0x19a6 <SetServoSyncVelocity+0x8c>
    19a4:	65 c0       	rjmp	.+202    	; 0x1a70 <SetServoSyncVelocity+0x156>
	{
		timer0_control.pDisableInterrupt(TIMER8_IMR_OI);								// 禁止系统中断
    19a6:	e0 91 d4 07 	lds	r30, 0x07D4
    19aa:	f0 91 d5 07 	lds	r31, 0x07D5
    19ae:	80 e0       	ldi	r24, 0x00	; 0
    19b0:	09 95       	icall

		if (servo_control.last_velocity[temp_value] == temp_velocity)
    19b2:	89 81       	ldd	r24, Y+1	; 0x01
    19b4:	e8 2f       	mov	r30, r24
    19b6:	f0 e0       	ldi	r31, 0x00	; 0
    19b8:	ee 0f       	add	r30, r30
    19ba:	ff 1f       	adc	r31, r31
    19bc:	ee 59       	subi	r30, 0x9E	; 158
    19be:	fc 4f       	sbci	r31, 0xFC	; 252
    19c0:	80 81       	ld	r24, Z
    19c2:	91 81       	ldd	r25, Z+1	; 0x01
    19c4:	80 17       	cp	r24, r16
    19c6:	91 07       	cpc	r25, r17
    19c8:	11 f4       	brne	.+4      	; 0x19ce <SetServoSyncVelocity+0xb4>
    19ca:	ff 24       	eor	r15, r15
    19cc:	02 c0       	rjmp	.+4      	; 0x19d2 <SetServoSyncVelocity+0xb8>
		{
			temp_state = FALSE;
		}
		else
		{
			servo_control.last_velocity[temp_value] = temp_velocity;
    19ce:	11 83       	std	Z+1, r17	; 0x01
    19d0:	00 83       	st	Z, r16
		}

		timer0_control.pEnableInterrupt(TIMER8_IMR_OI);									// 系统中断
    19d2:	e0 91 d2 07 	lds	r30, 0x07D2
    19d6:	f0 91 d3 07 	lds	r31, 0x07D3
    19da:	80 e0       	ldi	r24, 0x00	; 0
    19dc:	09 95       	icall
	uint8 temp_value = 0;
	uint8 temp_state = 0;

	temp_state = CompareServoVelocity(id, direction, velocity);

	if (FALSE == temp_state)
    19de:	ff 20       	and	r15, r15
    19e0:	09 f4       	brne	.+2      	; 0x19e4 <SetServoSyncVelocity+0xca>
    19e2:	46 c0       	rjmp	.+140    	; 0x1a70 <SetServoSyncVelocity+0x156>
    19e4:	24 c0       	rjmp	.+72     	; 0x1a2e <SetServoSyncVelocity+0x114>

	temp_value = (id >> 4);

	if((SERVO_PPM_ID == temp_value) || (BSU_BROADCASTING_ID == id))						// PPMID段，调用PPM方法
	{
		temp_state = (ppm_control.pSetPpmVelocity)(id - 0xE0, direction, velocity);		//
    19e6:	1e 2d       	mov	r17, r14
    19e8:	10 5e       	subi	r17, 0xE0	; 224
    19ea:	e0 91 6f 07 	lds	r30, 0x076F
    19ee:	f0 91 70 07 	lds	r31, 0x0770
    19f2:	81 2f       	mov	r24, r17
    19f4:	6b 2d       	mov	r22, r11
    19f6:	a6 01       	movw	r20, r12
    19f8:	09 95       	icall

		if(FALSE == temp_state)
    19fa:	88 23       	and	r24, r24
    19fc:	d9 f1       	breq	.+118    	; 0x1a74 <SetServoSyncVelocity+0x15a>
		{
			return FALSE;
		}

		temp_state = (ppm_control.pSetPpmAcceleration)(id - 0xE0, 0x3FF);				// 设置加速度为最大
    19fe:	e0 91 6d 07 	lds	r30, 0x076D
    1a02:	f0 91 6e 07 	lds	r31, 0x076E
    1a06:	81 2f       	mov	r24, r17
    1a08:	6f ef       	ldi	r22, 0xFF	; 255
    1a0a:	73 e0       	ldi	r23, 0x03	; 3
    1a0c:	09 95       	icall

		if(FALSE == temp_state)
    1a0e:	88 23       	and	r24, r24
    1a10:	89 f1       	breq	.+98     	; 0x1a74 <SetServoSyncVelocity+0x15a>
		{
			return FALSE;
		}

		temp_state = (ppm_control.pRunPpm)(id - 0xE0);
    1a12:	e0 91 73 07 	lds	r30, 0x0773
    1a16:	f0 91 74 07 	lds	r31, 0x0774
    1a1a:	81 2f       	mov	r24, r17
    1a1c:	09 95       	icall

		if(FALSE == temp_state)
    1a1e:	88 23       	and	r24, r24
    1a20:	49 f1       	breq	.+82     	; 0x1a74 <SetServoSyncVelocity+0x15a>
		{
			return FALSE;
		}
	}

	if((SERVO_PPM_ID != temp_value) || (BSU_BROADCASTING_ID == id))						// BSU的ID段，调用BSU总线方法
    1a22:	8e e0       	ldi	r24, 0x0E	; 14
    1a24:	f8 16       	cp	r15, r24
    1a26:	19 f4       	brne	.+6      	; 0x1a2e <SetServoSyncVelocity+0x114>
    1a28:	8e ef       	ldi	r24, 0xFE	; 254
    1a2a:	e8 16       	cp	r14, r24
    1a2c:	09 f5       	brne	.+66     	; 0x1a70 <SetServoSyncVelocity+0x156>
	{
		if (TRUE == ttlbus_control.sync_update_state)
    1a2e:	80 91 4f 06 	lds	r24, 0x064F
    1a32:	81 30       	cpi	r24, 0x01	; 1
    1a34:	49 f4       	brne	.+18     	; 0x1a48 <SetServoSyncVelocity+0x12e>
		{
			ttlbus_control.pWriteSyncControl(0x1E, 0x04);
    1a36:	e0 91 5c 06 	lds	r30, 0x065C
    1a3a:	f0 91 5d 06 	lds	r31, 0x065D
    1a3e:	8e e1       	ldi	r24, 0x1E	; 30
    1a40:	64 e0       	ldi	r22, 0x04	; 4
    1a42:	09 95       	icall
			ttlbus_control.sync_update_state = FALSE;
    1a44:	10 92 4f 06 	sts	0x064F, r1
		}

		temp_state = ttlbus_control.pWriteSyncWord2(id, 0x0200, (direction << 10) + velocity);			//
    1a48:	5b 2d       	mov	r21, r11
    1a4a:	55 0f       	add	r21, r21
    1a4c:	55 0f       	add	r21, r21
    1a4e:	40 e0       	ldi	r20, 0x00	; 0
    1a50:	4c 0d       	add	r20, r12
    1a52:	5d 1d       	adc	r21, r13
    1a54:	e0 91 5e 06 	lds	r30, 0x065E
    1a58:	f0 91 5f 06 	lds	r31, 0x065F
    1a5c:	8e 2d       	mov	r24, r14
    1a5e:	60 e0       	ldi	r22, 0x00	; 0
    1a60:	72 e0       	ldi	r23, 0x02	; 2
    1a62:	09 95       	icall
    1a64:	98 2f       	mov	r25, r24
    1a66:	81 11       	cpse	r24, r1
    1a68:	91 e0       	ldi	r25, 0x01	; 1
    1a6a:	81 e0       	ldi	r24, 0x01	; 1
    1a6c:	89 27       	eor	r24, r25
    1a6e:	03 c0       	rjmp	.+6      	; 0x1a76 <SetServoSyncVelocity+0x15c>
    1a70:	81 e0       	ldi	r24, 0x01	; 1
    1a72:	01 c0       	rjmp	.+2      	; 0x1a76 <SetServoSyncVelocity+0x15c>
    1a74:	80 e0       	ldi	r24, 0x00	; 0
			return FALSE;
		}
	}

	return TRUE;
}
    1a76:	0f 90       	pop	r0
    1a78:	cf 91       	pop	r28
    1a7a:	df 91       	pop	r29
    1a7c:	1f 91       	pop	r17
    1a7e:	0f 91       	pop	r16
    1a80:	ff 90       	pop	r15
    1a82:	ef 90       	pop	r14
    1a84:	df 90       	pop	r13
    1a86:	cf 90       	pop	r12
    1a88:	bf 90       	pop	r11
    1a8a:	08 95       	ret

00001a8c <SetServoAngleLimit>:
** 修订人:
** 修订日期:
**------------------------------------------------------------------------------------------------------------------------
*************************************************************************************************************************/
static uint8 SetServoAngleLimit(uint8 id, uint16 cw, uint16 ccw)
{
    1a8c:	ef 92       	push	r14
    1a8e:	ff 92       	push	r15
    1a90:	0f 93       	push	r16
    1a92:	1f 93       	push	r17
    1a94:	cf 93       	push	r28
    1a96:	df 93       	push	r29
    1a98:	18 2f       	mov	r17, r24
    1a9a:	eb 01       	movw	r28, r22
    1a9c:	7a 01       	movw	r14, r20
	uint8 temp_value = 0;
	uint8 temp_state = 0;
	
	temp_value = (id >> 4);
    1a9e:	08 2f       	mov	r16, r24
    1aa0:	02 95       	swap	r16
    1aa2:	0f 70       	andi	r16, 0x0F	; 15

	if((SERVO_PPM_ID == temp_value) || (BSU_BROADCASTING_ID == id))						// PPMID段，调用PPM方法
    1aa4:	0e 30       	cpi	r16, 0x0E	; 14
    1aa6:	11 f0       	breq	.+4      	; 0x1aac <SetServoAngleLimit+0x20>
    1aa8:	8e 3f       	cpi	r24, 0xFE	; 254
    1aaa:	89 f4       	brne	.+34     	; 0x1ace <SetServoAngleLimit+0x42>
	{
		temp_state = (ppm_control.pSetPpmLimit)(id - 0xE0, cw, ccw);					// 设置位置限制打开到最大，转换为舵机模式
    1aac:	e0 91 65 07 	lds	r30, 0x0765
    1ab0:	f0 91 66 07 	lds	r31, 0x0766
    1ab4:	81 2f       	mov	r24, r17
    1ab6:	80 5e       	subi	r24, 0xE0	; 224
    1ab8:	be 01       	movw	r22, r28
    1aba:	a7 01       	movw	r20, r14
    1abc:	09 95       	icall
		
		if(FALSE == temp_state)
    1abe:	88 23       	and	r24, r24
    1ac0:	a1 f0       	breq	.+40     	; 0x1aea <SetServoAngleLimit+0x5e>
		{
			return FALSE;
		}
	}
	if((SERVO_PPM_ID != temp_value) || (BSU_BROADCASTING_ID == id))						// BSU的ID段，调用BSU总线方法
    1ac2:	0e 30       	cpi	r16, 0x0E	; 14
    1ac4:	21 f4       	brne	.+8      	; 0x1ace <SetServoAngleLimit+0x42>
    1ac6:	1e 3f       	cpi	r17, 0xFE	; 254
    1ac8:	11 f0       	breq	.+4      	; 0x1ace <SetServoAngleLimit+0x42>
    1aca:	81 e0       	ldi	r24, 0x01	; 1
    1acc:	0e c0       	rjmp	.+28     	; 0x1aea <SetServoAngleLimit+0x5e>
	{
		temp_state = ttlbus_control.pWriteWord2(id, 0x06, cw, ccw);									// 设置位置限制打开到最大，转换为舵机模式
    1ace:	e0 91 54 06 	lds	r30, 0x0654
    1ad2:	f0 91 55 06 	lds	r31, 0x0655
    1ad6:	81 2f       	mov	r24, r17
    1ad8:	66 e0       	ldi	r22, 0x06	; 6
    1ada:	ae 01       	movw	r20, r28
    1adc:	97 01       	movw	r18, r14
    1ade:	09 95       	icall
    1ae0:	98 2f       	mov	r25, r24
    1ae2:	81 11       	cpse	r24, r1
    1ae4:	91 e0       	ldi	r25, 0x01	; 1
    1ae6:	81 e0       	ldi	r24, 0x01	; 1
    1ae8:	89 27       	eor	r24, r25
			return FALSE;
		}
	}
	
	return TRUE;
}
    1aea:	df 91       	pop	r29
    1aec:	cf 91       	pop	r28
    1aee:	1f 91       	pop	r17
    1af0:	0f 91       	pop	r16
    1af2:	ff 90       	pop	r15
    1af4:	ef 90       	pop	r14
    1af6:	08 95       	ret

00001af8 <SetServoId>:
** 修订人:
** 修订日期:
**------------------------------------------------------------------------------------------------------------------------
*************************************************************************************************************************/
static uint8 SetServoId(uint8 id, uint8 new_id)
{
    1af8:	98 2f       	mov	r25, r24
    1afa:	46 2f       	mov	r20, r22
	uint8 temp_value = 0;
	uint8 temp_state = 0;
	
	temp_value = (id >> 4);

	if((SERVO_PPM_ID == temp_value))										// PPMID段，调用PPM方法
    1afc:	82 95       	swap	r24
    1afe:	8f 70       	andi	r24, 0x0F	; 15
    1b00:	8e 30       	cpi	r24, 0x0E	; 14
    1b02:	11 f4       	brne	.+4      	; 0x1b08 <SetServoId+0x10>
    1b04:	90 e0       	ldi	r25, 0x00	; 0
    1b06:	0b c0       	rjmp	.+22     	; 0x1b1e <SetServoId+0x26>
	{																		
		return FALSE;
	}
	if((SERVO_PPM_ID != temp_value) || (BSU_BROADCASTING_ID == id))			// BSU的ID段，调用BSU总线方法
	{
		temp_state = ttlbus_control.pWriteByte(id, 0x03, new_id);						// 设置位置限制打开到最大，转换为舵机模式
    1b08:	e0 91 5a 06 	lds	r30, 0x065A
    1b0c:	f0 91 5b 06 	lds	r31, 0x065B
    1b10:	89 2f       	mov	r24, r25
    1b12:	63 e0       	ldi	r22, 0x03	; 3
    1b14:	09 95       	icall
    1b16:	90 e0       	ldi	r25, 0x00	; 0
    1b18:	88 23       	and	r24, r24
    1b1a:	09 f4       	brne	.+2      	; 0x1b1e <SetServoId+0x26>
    1b1c:	91 e0       	ldi	r25, 0x01	; 1
			return FALSE;
		}
	}
	
	return TRUE;
}
    1b1e:	89 2f       	mov	r24, r25
    1b20:	08 95       	ret

00001b22 <GetServoPosition>:
** 修订人:
** 修订日期:
**------------------------------------------------------------------------------------------------------------------------
*************************************************************************************************************************/
static uint8 GetServoPosition(uint8 id, uint16* position)
{
    1b22:	1f 93       	push	r17
    1b24:	cf 93       	push	r28
    1b26:	df 93       	push	r29
    1b28:	18 2f       	mov	r17, r24
    1b2a:	eb 01       	movw	r28, r22
	uint8 temp_value = 0;
	uint8 temp_state = 0;
	
	temp_value = (id >> 4);

	if(SERVO_PPM_ID == temp_value)														// PPMID段，调用PPM方法
    1b2c:	82 95       	swap	r24
    1b2e:	8f 70       	andi	r24, 0x0F	; 15
    1b30:	8e 30       	cpi	r24, 0x0E	; 14
    1b32:	51 f4       	brne	.+20     	; 0x1b48 <GetServoPosition+0x26>
	{
		temp_state = (ppm_control.pGetPpmPosition)(id - 0xE0, position);				// 设置位置限制打开到最大，转换为舵机模式
    1b34:	e0 91 69 07 	lds	r30, 0x0769
    1b38:	f0 91 6a 07 	lds	r31, 0x076A
    1b3c:	81 2f       	mov	r24, r17
    1b3e:	80 5e       	subi	r24, 0xE0	; 224
    1b40:	09 95       	icall
		
		
		if(FALSE == temp_state)
    1b42:	88 23       	and	r24, r24
    1b44:	91 f4       	brne	.+36     	; 0x1b6a <GetServoPosition+0x48>
    1b46:	0d c0       	rjmp	.+26     	; 0x1b62 <GetServoPosition+0x40>
		}
	}
	if((SERVO_PPM_ID != temp_value) || (BSU_BROADCASTING_ID == id))						// BSU的ID段，调用BSU总线方法
	{

		temp_state = ttlbus_control.pReadWord(id, 0x24, position);									// 设置位置限制打开到最大，转换为舵机模式
    1b48:	e0 91 64 06 	lds	r30, 0x0664
    1b4c:	f0 91 65 06 	lds	r31, 0x0665
    1b50:	81 2f       	mov	r24, r17
    1b52:	64 e2       	ldi	r22, 0x24	; 36
    1b54:	ae 01       	movw	r20, r28
    1b56:	09 95       	icall
    1b58:	98 2f       	mov	r25, r24
    1b5a:	81 11       	cpse	r24, r1
    1b5c:	91 e0       	ldi	r25, 0x01	; 1
    1b5e:	81 e0       	ldi	r24, 0x01	; 1
    1b60:	89 27       	eor	r24, r25
			return FALSE;
		}
	}
	
	return TRUE;
}
    1b62:	df 91       	pop	r29
    1b64:	cf 91       	pop	r28
    1b66:	1f 91       	pop	r17
    1b68:	08 95       	ret
		if(FALSE == temp_state)
		{
			return FALSE;
		}
	}
	if((SERVO_PPM_ID != temp_value) || (BSU_BROADCASTING_ID == id))						// BSU的ID段，调用BSU总线方法
    1b6a:	1e 3f       	cpi	r17, 0xFE	; 254
    1b6c:	69 f3       	breq	.-38     	; 0x1b48 <GetServoPosition+0x26>
    1b6e:	81 e0       	ldi	r24, 0x01	; 1
    1b70:	f8 cf       	rjmp	.-16     	; 0x1b62 <GetServoPosition+0x40>

00001b72 <CalcServoVelocity>:
** 修订人:
** 修订日期:
**------------------------------------------------------------------------------------------------------------------------
*************************************************************************************************************************/
static uint8 CalcServoVelocity(uint8 id, uint16 position, uint16 ref_time, uint16* calc_velocity, uint16* calc_time)
{
    1b72:	8f 92       	push	r8
    1b74:	9f 92       	push	r9
    1b76:	af 92       	push	r10
    1b78:	bf 92       	push	r11
    1b7a:	cf 92       	push	r12
    1b7c:	df 92       	push	r13
    1b7e:	ef 92       	push	r14
    1b80:	ff 92       	push	r15
    1b82:	0f 93       	push	r16
    1b84:	1f 93       	push	r17
    1b86:	df 93       	push	r29
    1b88:	cf 93       	push	r28
    1b8a:	0f 92       	push	r0
    1b8c:	cd b7       	in	r28, 0x3d	; 61
    1b8e:	de b7       	in	r29, 0x3e	; 62
    1b90:	a8 2f       	mov	r26, r24
    1b92:	7b 01       	movw	r14, r22
    1b94:	6a 01       	movw	r12, r20
    1b96:	49 01       	movw	r8, r18
    1b98:	58 01       	movw	r10, r16
static uint8 GetServoLastPosition(uint8 id, uint16* last_position)
{
	uint8 temp_value = 0;
	uint8 temp_state = 0;

	temp_value = (id >> 4);
    1b9a:	28 2f       	mov	r18, r24
    1b9c:	22 95       	swap	r18
    1b9e:	2f 70       	andi	r18, 0x0F	; 15

	if ((SERVO_PPM_ID == temp_value) || (BSU_BROADCASTING_ID == id))			// PPMID段，调用PPM方法
    1ba0:	2e 30       	cpi	r18, 0x0E	; 14
    1ba2:	09 f4       	brne	.+2      	; 0x1ba6 <CalcServoVelocity+0x34>
    1ba4:	5a c0       	rjmp	.+180    	; 0x1c5a <CalcServoVelocity+0xe8>
    1ba6:	8e 3f       	cpi	r24, 0xFE	; 254
    1ba8:	09 f4       	brne	.+2      	; 0x1bac <CalcServoVelocity+0x3a>
    1baa:	57 c0       	rjmp	.+174    	; 0x1c5a <CalcServoVelocity+0xe8>
	{
		return FALSE;
	}
	else
	{
		temp_state = mapping_control.pInverse1DimArray(ttlbus_control.p_device_mapping, ttlbus_control.device_amount, id, &temp_value);
    1bac:	e0 91 71 06 	lds	r30, 0x0671
    1bb0:	f0 91 72 06 	lds	r31, 0x0672
    1bb4:	80 91 4c 06 	lds	r24, 0x064C
    1bb8:	90 91 4d 06 	lds	r25, 0x064D
    1bbc:	60 91 4e 06 	lds	r22, 0x064E
static uint8 GetServoLastPosition(uint8 id, uint16* last_position)
{
	uint8 temp_value = 0;
	uint8 temp_state = 0;

	temp_value = (id >> 4);
    1bc0:	29 83       	std	Y+1, r18	; 0x01
	{
		return FALSE;
	}
	else
	{
		temp_state = mapping_control.pInverse1DimArray(ttlbus_control.p_device_mapping, ttlbus_control.device_amount, id, &temp_value);
    1bc2:	4a 2f       	mov	r20, r26
    1bc4:	9e 01       	movw	r18, r28
    1bc6:	2f 5f       	subi	r18, 0xFF	; 255
    1bc8:	3f 4f       	sbci	r19, 0xFF	; 255
    1bca:	09 95       	icall

		if (TRUE == temp_state)
    1bcc:	81 30       	cpi	r24, 0x01	; 1
    1bce:	09 f0       	breq	.+2      	; 0x1bd2 <CalcServoVelocity+0x60>
    1bd0:	53 c0       	rjmp	.+166    	; 0x1c78 <CalcServoVelocity+0x106>
		{
			*last_position = servo_control.last_position[temp_value];
    1bd2:	e9 81       	ldd	r30, Y+1	; 0x01
    1bd4:	f0 e0       	ldi	r31, 0x00	; 0
    1bd6:	ee 0f       	add	r30, r30
    1bd8:	ff 1f       	adc	r31, r31
    1bda:	ee 5d       	subi	r30, 0xDE	; 222
    1bdc:	fc 4f       	sbci	r31, 0xFC	; 252
    1bde:	60 81       	ld	r22, Z
    1be0:	71 81       	ldd	r23, Z+1	; 0x01
    1be2:	4c c0       	rjmp	.+152    	; 0x1c7c <CalcServoVelocity+0x10a>

	if (TRUE == temp_state)
	{
		if (position > last_position)
		{
			temp_value = (uint32)(position - last_position);
    1be4:	e6 1a       	sub	r14, r22
    1be6:	f7 0a       	sbc	r15, r23
    1be8:	b7 01       	movw	r22, r14
    1bea:	05 c0       	rjmp	.+10     	; 0x1bf6 <CalcServoVelocity+0x84>
		}
		else if (last_position > position)
    1bec:	e6 16       	cp	r14, r22
    1bee:	f7 06       	cpc	r15, r23
    1bf0:	d8 f4       	brcc	.+54     	; 0x1c28 <CalcServoVelocity+0xb6>
		{
			temp_value = (uint32)(last_position - position);
    1bf2:	6e 19       	sub	r22, r14
    1bf4:	7f 09       	sbc	r23, r15
    1bf6:	80 e0       	ldi	r24, 0x00	; 0
    1bf8:	90 e0       	ldi	r25, 0x00	; 0
		{
			*calc_time = 0;
			return TRUE;
		}

		temp_calc_velocity = (uint16)(((temp_value << 10) / (uint32)(ref_time)) - 1);
    1bfa:	7b 01       	movw	r14, r22
    1bfc:	8c 01       	movw	r16, r24
    1bfe:	8a e0       	ldi	r24, 0x0A	; 10
    1c00:	ee 0c       	add	r14, r14
    1c02:	ff 1c       	adc	r15, r15
    1c04:	00 1f       	adc	r16, r16
    1c06:	11 1f       	adc	r17, r17
    1c08:	8a 95       	dec	r24
    1c0a:	d1 f7       	brne	.-12     	; 0x1c00 <CalcServoVelocity+0x8e>
    1c0c:	96 01       	movw	r18, r12
    1c0e:	40 e0       	ldi	r20, 0x00	; 0
    1c10:	50 e0       	ldi	r21, 0x00	; 0
    1c12:	c8 01       	movw	r24, r16
    1c14:	b7 01       	movw	r22, r14
    1c16:	0e 94 27 40 	call	0x804e	; 0x804e <__udivmodsi4>
    1c1a:	21 50       	subi	r18, 0x01	; 1
    1c1c:	30 40       	sbci	r19, 0x00	; 0

		if (temp_calc_velocity > 1023)
    1c1e:	f4 e0       	ldi	r31, 0x04	; 4
    1c20:	20 30       	cpi	r18, 0x00	; 0
    1c22:	3f 07       	cpc	r19, r31
    1c24:	40 f4       	brcc	.+16     	; 0x1c36 <CalcServoVelocity+0xc4>
    1c26:	04 c0       	rjmp	.+8      	; 0x1c30 <CalcServoVelocity+0xbe>
		{
			temp_value = (uint32)(last_position - position);
		}
		else
		{
			*calc_time = 0;
    1c28:	f5 01       	movw	r30, r10
    1c2a:	11 82       	std	Z+1, r1	; 0x01
    1c2c:	10 82       	st	Z, r1
    1c2e:	15 c0       	rjmp	.+42     	; 0x1c5a <CalcServoVelocity+0xe8>
			return TRUE;
		}

		temp_calc_velocity = (uint16)(((temp_value << 10) / (uint32)(ref_time)) - 1);

		if (temp_calc_velocity > 1023)
    1c30:	8c 2d       	mov	r24, r12
    1c32:	4d 2d       	mov	r20, r13
    1c34:	0c c0       	rjmp	.+24     	; 0x1c4e <CalcServoVelocity+0xdc>
		{
			temp_calc_velocity = 1023;
			temp_calc_time = (uint16)(((temp_value << 10) / (((uint32)temp_calc_velocity) + 1)));
    1c36:	d8 01       	movw	r26, r16
    1c38:	c7 01       	movw	r24, r14
    1c3a:	0a e0       	ldi	r16, 0x0A	; 10
    1c3c:	b6 95       	lsr	r27
    1c3e:	a7 95       	ror	r26
    1c40:	97 95       	ror	r25
    1c42:	87 95       	ror	r24
    1c44:	0a 95       	dec	r16
    1c46:	d1 f7       	brne	.-12     	; 0x1c3c <CalcServoVelocity+0xca>
    1c48:	49 2f       	mov	r20, r25
    1c4a:	2f ef       	ldi	r18, 0xFF	; 255
    1c4c:	33 e0       	ldi	r19, 0x03	; 3
		else
		{
			temp_calc_time = ref_time;
		}

		*calc_time = temp_calc_time;
    1c4e:	f5 01       	movw	r30, r10
    1c50:	80 83       	st	Z, r24
    1c52:	41 83       	std	Z+1, r20	; 0x01
		*calc_velocity = temp_calc_velocity;
    1c54:	f4 01       	movw	r30, r8
    1c56:	31 83       	std	Z+1, r19	; 0x01
    1c58:	20 83       	st	Z, r18
	}

	return TRUE;
}
    1c5a:	81 e0       	ldi	r24, 0x01	; 1
    1c5c:	0f 90       	pop	r0
    1c5e:	cf 91       	pop	r28
    1c60:	df 91       	pop	r29
    1c62:	1f 91       	pop	r17
    1c64:	0f 91       	pop	r16
    1c66:	ff 90       	pop	r15
    1c68:	ef 90       	pop	r14
    1c6a:	df 90       	pop	r13
    1c6c:	cf 90       	pop	r12
    1c6e:	bf 90       	pop	r11
    1c70:	af 90       	pop	r10
    1c72:	9f 90       	pop	r9
    1c74:	8f 90       	pop	r8
    1c76:	08 95       	ret
		{
			temp_calc_time = ref_time;
		}

		*calc_time = temp_calc_time;
		*calc_velocity = temp_calc_velocity;
    1c78:	60 e0       	ldi	r22, 0x00	; 0
    1c7a:	70 e0       	ldi	r23, 0x00	; 0

	temp_state = GetServoLastPosition(id, &last_position);

	if (TRUE == temp_state)
	{
		if (position > last_position)
    1c7c:	6e 15       	cp	r22, r14
    1c7e:	7f 05       	cpc	r23, r15
    1c80:	08 f4       	brcc	.+2      	; 0x1c84 <CalcServoVelocity+0x112>
    1c82:	b0 cf       	rjmp	.-160    	; 0x1be4 <CalcServoVelocity+0x72>
    1c84:	b3 cf       	rjmp	.-154    	; 0x1bec <CalcServoVelocity+0x7a>

00001c86 <GetServoLoad>:
** 修订人:
** 修订日期:
**------------------------------------------------------------------------------------------------------------------------
*************************************************************************************************************************/
static uint8 GetServoLoad(uint8 id, uint16* load)
{
    1c86:	98 2f       	mov	r25, r24
    1c88:	ab 01       	movw	r20, r22
	uint8 temp_value = 0;
	uint8 temp_state = 0;

	temp_value = (id >> 4);

	if(SERVO_PPM_ID == temp_value || (BSU_BROADCASTING_ID == id))						// PPMID段，调用PPM方法
    1c8a:	82 95       	swap	r24
    1c8c:	8f 70       	andi	r24, 0x0F	; 15
    1c8e:	8e 30       	cpi	r24, 0x0E	; 14
    1c90:	71 f0       	breq	.+28     	; 0x1cae <GetServoLoad+0x28>
    1c92:	9e 3f       	cpi	r25, 0xFE	; 254
    1c94:	61 f0       	breq	.+24     	; 0x1cae <GetServoLoad+0x28>
		return FALSE;
	}
	if((SERVO_PPM_ID != temp_value) )													// BSU的ID段，调用BSU总线方法
	{

		temp_state = ttlbus_control.pReadWord(id, 0x28, load);										// 读取Load值。
    1c96:	e0 91 64 06 	lds	r30, 0x0664
    1c9a:	f0 91 65 06 	lds	r31, 0x0665
    1c9e:	89 2f       	mov	r24, r25
    1ca0:	68 e2       	ldi	r22, 0x28	; 40
    1ca2:	09 95       	icall
    1ca4:	90 e0       	ldi	r25, 0x00	; 0
    1ca6:	88 23       	and	r24, r24
    1ca8:	19 f4       	brne	.+6      	; 0x1cb0 <GetServoLoad+0x2a>
    1caa:	91 e0       	ldi	r25, 0x01	; 1
    1cac:	01 c0       	rjmp	.+2      	; 0x1cb0 <GetServoLoad+0x2a>
    1cae:	90 e0       	ldi	r25, 0x00	; 0
			return FALSE;
		}
	}

	return TRUE;
}
    1cb0:	89 2f       	mov	r24, r25
    1cb2:	08 95       	ret

00001cb4 <GetServoAngleLimit>:
** 修订人:
** 修订日期:
**------------------------------------------------------------------------------------------------------------------------
*************************************************************************************************************************/
static uint8 GetServoAngleLimit(uint8 id, uint16* cw, uint16* ccw)
{
    1cb4:	98 2f       	mov	r25, r24
    1cb6:	db 01       	movw	r26, r22
    1cb8:	9a 01       	movw	r18, r20
	uint8 temp_value = 0;
	uint8 temp_state = 0;
	
	temp_value = (id >> 4);

	if(SERVO_PPM_ID == temp_value)														// PPMID段，调用PPM方法
    1cba:	82 95       	swap	r24
    1cbc:	8f 70       	andi	r24, 0x0F	; 15
    1cbe:	8e 30       	cpi	r24, 0x0E	; 14
    1cc0:	69 f4       	brne	.+26     	; 0x1cdc <GetServoAngleLimit+0x28>
	{
		temp_state = (ppm_control.pGetPpmLimit)(id - 0xE0, cw, ccw);					// 读取cw，ccw
    1cc2:	e0 91 67 07 	lds	r30, 0x0767
    1cc6:	f0 91 68 07 	lds	r31, 0x0768
    1cca:	89 2f       	mov	r24, r25
    1ccc:	80 5e       	subi	r24, 0xE0	; 224
    1cce:	09 95       	icall
    1cd0:	90 e0       	ldi	r25, 0x00	; 0
    1cd2:	88 23       	and	r24, r24
    1cd4:	09 f4       	brne	.+2      	; 0x1cd8 <GetServoAngleLimit+0x24>
    1cd6:	91 e0       	ldi	r25, 0x01	; 1
    1cd8:	81 e0       	ldi	r24, 0x01	; 1
    1cda:	0b c0       	rjmp	.+22     	; 0x1cf2 <GetServoAngleLimit+0x3e>
		}
	}
	
	if(SERVO_PPM_ID != temp_value)														// BSU的ID段，调用BSU总线方法
	{
		temp_state = ttlbus_control.pReadWord2(id, 0x06, cw, ccw);									// 读取节点
    1cdc:	e0 91 66 06 	lds	r30, 0x0666
    1ce0:	f0 91 67 06 	lds	r31, 0x0667
    1ce4:	89 2f       	mov	r24, r25
    1ce6:	66 e0       	ldi	r22, 0x06	; 6
    1ce8:	ad 01       	movw	r20, r26
    1cea:	09 95       	icall
    1cec:	81 11       	cpse	r24, r1
    1cee:	81 e0       	ldi	r24, 0x01	; 1
    1cf0:	91 e0       	ldi	r25, 0x01	; 1
    1cf2:	98 27       	eor	r25, r24
			return FALSE;
		}
	}
	
	return TRUE;
}
    1cf4:	89 2f       	mov	r24, r25
    1cf6:	08 95       	ret

00001cf8 <ActionServo>:
*************************************************************************************************************************/
static uint8 ActionServo(void)
{
	uint8 temp_state = 0;
	
	temp_state = (ppm_control.pRunPpm)(0x1E);					// 设置位置限制打开到最大，转换为舵机模式
    1cf8:	e0 91 73 07 	lds	r30, 0x0773
    1cfc:	f0 91 74 07 	lds	r31, 0x0774
    1d00:	8e e1       	ldi	r24, 0x1E	; 30
    1d02:	09 95       	icall
		
	if(FALSE == temp_state)
    1d04:	88 23       	and	r24, r24
    1d06:	11 f4       	brne	.+4      	; 0x1d0c <ActionServo+0x14>
    1d08:	90 e0       	ldi	r25, 0x00	; 0
    1d0a:	09 c0       	rjmp	.+18     	; 0x1d1e <ActionServo+0x26>
	{
		return FALSE;
	}

	temp_state = ttlbus_control.pAction();				// 设置位置限制打开到最大，转换为舵机模式
    1d0c:	e0 91 62 06 	lds	r30, 0x0662
    1d10:	f0 91 63 06 	lds	r31, 0x0663
    1d14:	09 95       	icall
    1d16:	90 e0       	ldi	r25, 0x00	; 0
    1d18:	88 23       	and	r24, r24
    1d1a:	09 f4       	brne	.+2      	; 0x1d1e <ActionServo+0x26>
    1d1c:	91 e0       	ldi	r25, 0x01	; 1
	{
		return FALSE;
	}
	
	return TRUE;
}
    1d1e:	89 2f       	mov	r24, r25
    1d20:	08 95       	ret

00001d22 <ActionSyncServo>:
** 修订日期:
**------------------------------------------------------------------------------------------------------------------------
*************************************************************************************************************************/
static uint8 ActionSyncServo(void)
{
	ttlbus_control.pActionSync();
    1d22:	e0 91 60 06 	lds	r30, 0x0660
    1d26:	f0 91 61 06 	lds	r31, 0x0661
    1d2a:	09 95       	icall
	ttlbus_control.sync_update_state = TRUE;				// TRUE时允许访问Control命令
    1d2c:	81 e0       	ldi	r24, 0x01	; 1
    1d2e:	80 93 4f 06 	sts	0x064F, r24

	return TRUE;
}
    1d32:	08 95       	ret

00001d34 <SetServoMode>:
** 修订人:
** 修订日期:
**------------------------------------------------------------------------------------------------------------------------
*************************************************************************************************************************/
static uint8 SetServoMode(uint8 id, uint8 mode)
{
    1d34:	df 92       	push	r13
    1d36:	ef 92       	push	r14
    1d38:	ff 92       	push	r15
    1d3a:	0f 93       	push	r16
    1d3c:	1f 93       	push	r17
    1d3e:	df 93       	push	r29
    1d40:	cf 93       	push	r28
    1d42:	00 d0       	rcall	.+0      	; 0x1d44 <SetServoMode+0x10>
    1d44:	00 d0       	rcall	.+0      	; 0x1d46 <SetServoMode+0x12>
    1d46:	cd b7       	in	r28, 0x3d	; 61
    1d48:	de b7       	in	r29, 0x3e	; 62
    1d4a:	08 2f       	mov	r16, r24
    1d4c:	e6 2e       	mov	r14, r22
	uint8 temp_value = 0;
	uint8 temp_state = 0;
	uint8 temp_mode = SERVO_MODE_SERVO;

	uint16 temp_cw_limit = 0;
    1d4e:	1a 82       	std	Y+2, r1	; 0x02
    1d50:	19 82       	std	Y+1, r1	; 0x01
	uint16 temp_ccw_limit = 0;
    1d52:	1c 82       	std	Y+4, r1	; 0x04
    1d54:	1b 82       	std	Y+3, r1	; 0x03

	if (id == BSU_BROADCASTING_ID)
    1d56:	8e 3f       	cpi	r24, 0xFE	; 254
    1d58:	11 f4       	brne	.+4      	; 0x1d5e <SetServoMode+0x2a>
    1d5a:	10 e0       	ldi	r17, 0x00	; 0
    1d5c:	1f c0       	rjmp	.+62     	; 0x1d9c <SetServoMode+0x68>
	{
		temp_mode = mode;
	}
	else
	{
		temp_state = SetServoTorqueEnable(id, SERVO_DIS);
    1d5e:	60 e0       	ldi	r22, 0x00	; 0
    1d60:	0e 94 82 0a 	call	0x1504	; 0x1504 <SetServoTorqueEnable>
    1d64:	18 2f       	mov	r17, r24

		if (FALSE != temp_state)
    1d66:	88 23       	and	r24, r24
    1d68:	09 f4       	brne	.+2      	; 0x1d6c <SetServoMode+0x38>
    1d6a:	a0 c0       	rjmp	.+320    	; 0x1eac <SetServoMode+0x178>
		{
			GetServoAngleLimit(id, &temp_cw_limit, &temp_ccw_limit);
    1d6c:	80 2f       	mov	r24, r16
    1d6e:	be 01       	movw	r22, r28
    1d70:	6f 5f       	subi	r22, 0xFF	; 255
    1d72:	7f 4f       	sbci	r23, 0xFF	; 255
    1d74:	ae 01       	movw	r20, r28
    1d76:	4d 5f       	subi	r20, 0xFD	; 253
    1d78:	5f 4f       	sbci	r21, 0xFF	; 255
    1d7a:	0e 94 5a 0e 	call	0x1cb4	; 0x1cb4 <GetServoAngleLimit>

			if ((0 == temp_cw_limit) && (0 == temp_ccw_limit))
    1d7e:	89 81       	ldd	r24, Y+1	; 0x01
    1d80:	9a 81       	ldd	r25, Y+2	; 0x02
    1d82:	89 2b       	or	r24, r25
    1d84:	41 f4       	brne	.+16     	; 0x1d96 <SetServoMode+0x62>
    1d86:	8b 81       	ldd	r24, Y+3	; 0x03
    1d88:	9c 81       	ldd	r25, Y+4	; 0x04
    1d8a:	89 2b       	or	r24, r25
    1d8c:	21 f4       	brne	.+8      	; 0x1d96 <SetServoMode+0x62>
			{
				if (SERVO_MODE_MOTO == mode)
    1d8e:	81 e0       	ldi	r24, 0x01	; 1
    1d90:	e8 16       	cp	r14, r24
    1d92:	21 f4       	brne	.+8      	; 0x1d9c <SetServoMode+0x68>
    1d94:	89 c0       	rjmp	.+274    	; 0x1ea8 <SetServoMode+0x174>
					temp_mode = mode;
				}
			}
			else
			{
				if (SERVO_MODE_SERVO == mode)
    1d96:	ee 20       	and	r14, r14
    1d98:	09 f4       	brne	.+2      	; 0x1d9c <SetServoMode+0x68>
    1d9a:	86 c0       	rjmp	.+268    	; 0x1ea8 <SetServoMode+0x174>
		{
			return FALSE;
		}
	}

	temp_value = (id >> 4);
    1d9c:	d0 2e       	mov	r13, r16
    1d9e:	d2 94       	swap	r13
    1da0:	3f e0       	ldi	r19, 0x0F	; 15
    1da2:	d3 22       	and	r13, r19

	if((SERVO_PPM_ID == temp_value) || (BSU_BROADCASTING_ID == id))						// PPMID段，调用PPM方法
    1da4:	8e e0       	ldi	r24, 0x0E	; 14
    1da6:	d8 16       	cp	r13, r24
    1da8:	19 f0       	breq	.+6      	; 0x1db0 <SetServoMode+0x7c>
    1daa:	0e 3f       	cpi	r16, 0xFE	; 254
    1dac:	09 f0       	breq	.+2      	; 0x1db0 <SetServoMode+0x7c>
    1dae:	45 c0       	rjmp	.+138    	; 0x1e3a <SetServoMode+0x106>
	{
		switch(temp_mode)
    1db0:	ee 20       	and	r14, r14
    1db2:	21 f0       	breq	.+8      	; 0x1dbc <SetServoMode+0x88>
    1db4:	81 e0       	ldi	r24, 0x01	; 1
    1db6:	e8 16       	cp	r14, r24
    1db8:	c1 f5       	brne	.+112    	; 0x1e2a <SetServoMode+0xf6>
    1dba:	0d c0       	rjmp	.+26     	; 0x1dd6 <SetServoMode+0xa2>
		{
			case SERVO_MODE_SERVO:
			{
				temp_state = (ppm_control.pSetPpmLimit)(id - 0xE0, 0x0000, 0x03FF);		// 设置位置限制打开到最大，转换为舵机模式
    1dbc:	e0 91 65 07 	lds	r30, 0x0765
    1dc0:	f0 91 66 07 	lds	r31, 0x0766
    1dc4:	80 2f       	mov	r24, r16
    1dc6:	80 5e       	subi	r24, 0xE0	; 224
    1dc8:	60 e0       	ldi	r22, 0x00	; 0
    1dca:	70 e0       	ldi	r23, 0x00	; 0
    1dcc:	4f ef       	ldi	r20, 0xFF	; 255
    1dce:	53 e0       	ldi	r21, 0x03	; 3
    1dd0:	09 95       	icall
    1dd2:	18 2f       	mov	r17, r24
    1dd4:	2a c0       	rjmp	.+84     	; 0x1e2a <SetServoMode+0xf6>

				break;
			}
			case SERVO_MODE_MOTO:
			{
				temp_state = (ppm_control.pSetPpmLimit)(id - 0xE0, 0x0000, 0x0000);		// 设置位置限制同时为0，转换为电机模式(可用于控制电调)
    1dd6:	20 e2       	ldi	r18, 0x20	; 32
    1dd8:	f2 2e       	mov	r15, r18
    1dda:	f0 0e       	add	r15, r16
    1ddc:	e0 91 65 07 	lds	r30, 0x0765
    1de0:	f0 91 66 07 	lds	r31, 0x0766
    1de4:	8f 2d       	mov	r24, r15
    1de6:	60 e0       	ldi	r22, 0x00	; 0
    1de8:	70 e0       	ldi	r23, 0x00	; 0
    1dea:	40 e0       	ldi	r20, 0x00	; 0
    1dec:	50 e0       	ldi	r21, 0x00	; 0
    1dee:	09 95       	icall
    1df0:	18 2f       	mov	r17, r24

				if (FALSE != temp_state)
    1df2:	88 23       	and	r24, r24
    1df4:	09 f4       	brne	.+2      	; 0x1df8 <SetServoMode+0xc4>
    1df6:	5a c0       	rjmp	.+180    	; 0x1eac <SetServoMode+0x178>
				{
					ppm_control.pSetPpmVelocity(id - 0xE0, 1, 0);
    1df8:	e0 91 6f 07 	lds	r30, 0x076F
    1dfc:	f0 91 70 07 	lds	r31, 0x0770
    1e00:	8f 2d       	mov	r24, r15
    1e02:	61 e0       	ldi	r22, 0x01	; 1
    1e04:	40 e0       	ldi	r20, 0x00	; 0
    1e06:	50 e0       	ldi	r21, 0x00	; 0
    1e08:	09 95       	icall
    1e0a:	88 e5       	ldi	r24, 0x58	; 88
    1e0c:	92 e0       	ldi	r25, 0x02	; 2
    milliseconds can be achieved.
 */
void
_delay_loop_2(uint16_t __count)
{
	__asm__ volatile (
    1e0e:	20 e9       	ldi	r18, 0x90	; 144
    1e10:	31 e0       	ldi	r19, 0x01	; 1
    1e12:	f9 01       	movw	r30, r18
    1e14:	31 97       	sbiw	r30, 0x01	; 1
    1e16:	f1 f7       	brne	.-4      	; 0x1e14 <SetServoMode+0xe0>
		__ticks = (uint16_t) (__ms * 10.0);
		while(__ticks)
		{
			// wait 1/10 ms
			_delay_loop_2(((F_CPU) / 4e3) / 10);
			__ticks --;
    1e18:	01 97       	sbiw	r24, 0x01	; 1
		__ticks = 1;
	else if (__tmp > 65535)
	{
		//	__ticks = requested delay in 1/10 ms
		__ticks = (uint16_t) (__ms * 10.0);
		while(__ticks)
    1e1a:	d9 f7       	brne	.-10     	; 0x1e12 <SetServoMode+0xde>
					_delay_ms(60);														// 等待3个舵机周期
					ppm_control.pStopPpm(id - 0xE0);									// PPM输出停止
    1e1c:	e0 91 6b 07 	lds	r30, 0x076B
    1e20:	f0 91 6c 07 	lds	r31, 0x076C
    1e24:	8f 2d       	mov	r24, r15
    1e26:	09 95       	icall
    1e28:	03 c0       	rjmp	.+6      	; 0x1e30 <SetServoMode+0xfc>
			{
				break;
			}
		}

		if(FALSE == temp_state)
    1e2a:	11 23       	and	r17, r17
    1e2c:	09 f4       	brne	.+2      	; 0x1e30 <SetServoMode+0xfc>
    1e2e:	3e c0       	rjmp	.+124    	; 0x1eac <SetServoMode+0x178>
		{
			return FALSE;
		}
	}
	if((SERVO_PPM_ID != temp_value) || (BSU_BROADCASTING_ID == id))							// BSU的ID段，调用BSU总线方法
    1e30:	8e e0       	ldi	r24, 0x0E	; 14
    1e32:	d8 16       	cp	r13, r24
    1e34:	11 f4       	brne	.+4      	; 0x1e3a <SetServoMode+0x106>
    1e36:	0e 3f       	cpi	r16, 0xFE	; 254
    1e38:	b9 f5       	brne	.+110    	; 0x1ea8 <SetServoMode+0x174>
	{
		switch(temp_mode)
    1e3a:	ee 20       	and	r14, r14
    1e3c:	21 f0       	breq	.+8      	; 0x1e46 <SetServoMode+0x112>
    1e3e:	81 e0       	ldi	r24, 0x01	; 1
    1e40:	e8 16       	cp	r14, r24
    1e42:	61 f5       	brne	.+88     	; 0x1e9c <SetServoMode+0x168>
    1e44:	16 c0       	rjmp	.+44     	; 0x1e72 <SetServoMode+0x13e>
		{
			case SERVO_MODE_SERVO:
			{
				temp_state = ttlbus_control.pWriteWord2(id, 0x06, 0x0000, 0x03FF);			// 设置位置限制打开到最大，转换为舵机模式
    1e46:	e0 91 54 06 	lds	r30, 0x0654
    1e4a:	f0 91 55 06 	lds	r31, 0x0655
    1e4e:	80 2f       	mov	r24, r16
    1e50:	66 e0       	ldi	r22, 0x06	; 6
    1e52:	40 e0       	ldi	r20, 0x00	; 0
    1e54:	50 e0       	ldi	r21, 0x00	; 0
    1e56:	2f ef       	ldi	r18, 0xFF	; 255
    1e58:	33 e0       	ldi	r19, 0x03	; 3
    1e5a:	09 95       	icall
    1e5c:	18 2f       	mov	r17, r24
    1e5e:	88 ec       	ldi	r24, 0xC8	; 200
    1e60:	90 e0       	ldi	r25, 0x00	; 0
    1e62:	20 e9       	ldi	r18, 0x90	; 144
    1e64:	31 e0       	ldi	r19, 0x01	; 1
    1e66:	f9 01       	movw	r30, r18
    1e68:	31 97       	sbiw	r30, 0x01	; 1
    1e6a:	f1 f7       	brne	.-4      	; 0x1e68 <SetServoMode+0x134>
		{
			// wait 1/10 ms
			_delay_loop_2(((F_CPU) / 4e3) / 10);
			__ticks --;
    1e6c:	01 97       	sbiw	r24, 0x01	; 1
		__ticks = 1;
	else if (__tmp > 65535)
	{
		//	__ticks = requested delay in 1/10 ms
		__ticks = (uint16_t) (__ms * 10.0);
		while(__ticks)
    1e6e:	d9 f7       	brne	.-10     	; 0x1e66 <SetServoMode+0x132>
    1e70:	15 c0       	rjmp	.+42     	; 0x1e9c <SetServoMode+0x168>

				break;
			}
			case SERVO_MODE_MOTO:
			{
				temp_state = ttlbus_control.pWriteWord2(id, 0x06, 0x0000, 0x0000);			// 设置位置限制同时为0，转换为电机模式(可用于控制电调)
    1e72:	e0 91 54 06 	lds	r30, 0x0654
    1e76:	f0 91 55 06 	lds	r31, 0x0655
    1e7a:	80 2f       	mov	r24, r16
    1e7c:	66 e0       	ldi	r22, 0x06	; 6
    1e7e:	40 e0       	ldi	r20, 0x00	; 0
    1e80:	50 e0       	ldi	r21, 0x00	; 0
    1e82:	20 e0       	ldi	r18, 0x00	; 0
    1e84:	30 e0       	ldi	r19, 0x00	; 0
    1e86:	09 95       	icall
    1e88:	18 2f       	mov	r17, r24
    1e8a:	88 ec       	ldi	r24, 0xC8	; 200
    1e8c:	90 e0       	ldi	r25, 0x00	; 0
    1e8e:	20 e9       	ldi	r18, 0x90	; 144
    1e90:	31 e0       	ldi	r19, 0x01	; 1
    1e92:	f9 01       	movw	r30, r18
    1e94:	31 97       	sbiw	r30, 0x01	; 1
    1e96:	f1 f7       	brne	.-4      	; 0x1e94 <SetServoMode+0x160>
		{
			// wait 1/10 ms
			_delay_loop_2(((F_CPU) / 4e3) / 10);
			__ticks --;
    1e98:	01 97       	sbiw	r24, 0x01	; 1
		__ticks = 1;
	else if (__tmp > 65535)
	{
		//	__ticks = requested delay in 1/10 ms
		__ticks = (uint16_t) (__ms * 10.0);
		while(__ticks)
    1e9a:	d9 f7       	brne	.-10     	; 0x1e92 <SetServoMode+0x15e>
    1e9c:	91 2f       	mov	r25, r17
    1e9e:	11 11       	cpse	r17, r1
    1ea0:	91 e0       	ldi	r25, 0x01	; 1
    1ea2:	81 e0       	ldi	r24, 0x01	; 1
    1ea4:	89 27       	eor	r24, r25
    1ea6:	03 c0       	rjmp	.+6      	; 0x1eae <SetServoMode+0x17a>
    1ea8:	81 e0       	ldi	r24, 0x01	; 1
    1eaa:	01 c0       	rjmp	.+2      	; 0x1eae <SetServoMode+0x17a>
    1eac:	80 e0       	ldi	r24, 0x00	; 0
			return FALSE;
		}
	}

	return TRUE;
}
    1eae:	0f 90       	pop	r0
    1eb0:	0f 90       	pop	r0
    1eb2:	0f 90       	pop	r0
    1eb4:	0f 90       	pop	r0
    1eb6:	cf 91       	pop	r28
    1eb8:	df 91       	pop	r29
    1eba:	1f 91       	pop	r17
    1ebc:	0f 91       	pop	r16
    1ebe:	ff 90       	pop	r15
    1ec0:	ef 90       	pop	r14
    1ec2:	df 90       	pop	r13
    1ec4:	08 95       	ret

00001ec6 <InitServoNodeBuffer>:
** 修订人:
** 修订日期:
**------------------------------------------------------------------------------------------------------------------------
*************************************************************************************************************************/
static void InitServoNodeBuffer(uint8* p_mapping, uint8 amount)
{
    1ec6:	ef 92       	push	r14
    1ec8:	ff 92       	push	r15
    1eca:	0f 93       	push	r16
    1ecc:	1f 93       	push	r17
    1ece:	cf 93       	push	r28
    1ed0:	df 93       	push	r29
    1ed2:	9c 01       	movw	r18, r24
    1ed4:	f6 2e       	mov	r15, r22

	uint8 temp_state = 0;
	uint8 temp_value = 0;
	uint8 temp_amount = 0;

	if (amount > 32)
    1ed6:	80 e2       	ldi	r24, 0x20	; 32
    1ed8:	86 17       	cp	r24, r22
    1eda:	b0 f1       	brcs	.+108    	; 0x1f48 <InitServoNodeBuffer+0x82>
	{
		return;
    1edc:	89 01       	movw	r16, r18
    1ede:	d9 01       	movw	r26, r18
    1ee0:	60 e0       	ldi	r22, 0x00	; 0
** 修订人:
** 修订日期:
**------------------------------------------------------------------------------------------------------------------------
*************************************************************************************************************************/
static void InitServoNodeBuffer(uint8* p_mapping, uint8 amount)
{
    1ee2:	e2 2e       	mov	r14, r18
    1ee4:	0f c0       	rjmp	.+30     	; 0x1f04 <InitServoNodeBuffer+0x3e>
		return;
	}

	for (count = 0; count < amount; count++)
	{
		temp_value = *(p_mapping + count);
    1ee6:	9c 91       	ld	r25, X

		if ((SERVO_PPM_ID != (temp_value >> 4)) && (BSU_BROADCASTING_ID != temp_value) )
    1ee8:	89 2f       	mov	r24, r25
    1eea:	82 95       	swap	r24
    1eec:	8f 70       	andi	r24, 0x0F	; 15
    1eee:	8e 30       	cpi	r24, 0x0E	; 14
    1ef0:	41 f0       	breq	.+16     	; 0x1f02 <InitServoNodeBuffer+0x3c>
    1ef2:	9e 3f       	cpi	r25, 0xFE	; 254
    1ef4:	31 f0       	breq	.+12     	; 0x1f02 <InitServoNodeBuffer+0x3c>
		{
			servo_control.node_mapping[temp_amount] = *(p_mapping + count);
    1ef6:	e6 2f       	mov	r30, r22
    1ef8:	f0 e0       	ldi	r31, 0x00	; 0
    1efa:	ee 55       	subi	r30, 0x5E	; 94
    1efc:	fc 4f       	sbci	r31, 0xFC	; 252
    1efe:	90 83       	st	Z, r25
			temp_amount++;
    1f00:	6f 5f       	subi	r22, 0xFF	; 255
    1f02:	11 96       	adiw	r26, 0x01	; 1
	if (amount > 32)
	{
		return;
	}

	for (count = 0; count < amount; count++)
    1f04:	8a 2f       	mov	r24, r26
    1f06:	8e 19       	sub	r24, r14
    1f08:	8f 15       	cp	r24, r15
    1f0a:	68 f3       	brcs	.-38     	; 0x1ee6 <InitServoNodeBuffer+0x20>
			servo_control.node_mapping[temp_amount] = *(p_mapping + count);
			temp_amount++;
		}
	}

	ttlbus_control.pInitSync(&servo_control.node_mapping[0], temp_amount);
    1f0c:	e0 91 50 06 	lds	r30, 0x0650
    1f10:	f0 91 51 06 	lds	r31, 0x0651
    1f14:	82 ea       	ldi	r24, 0xA2	; 162
    1f16:	93 e0       	ldi	r25, 0x03	; 3
    1f18:	09 95       	icall
    1f1a:	c2 e2       	ldi	r28, 0x22	; 34
    1f1c:	d3 e0       	ldi	r29, 0x03	; 3
    1f1e:	10 c0       	rjmp	.+32     	; 0x1f40 <InitServoNodeBuffer+0x7a>

	for (count = 0; count < amount; count++)
	{
		temp_state = GetServoPosition(*(p_mapping + count), &servo_control.last_position[count]);
    1f20:	f8 01       	movw	r30, r16
    1f22:	80 81       	ld	r24, Z
    1f24:	be 01       	movw	r22, r28
    1f26:	0e 94 91 0d 	call	0x1b22	; 0x1b22 <GetServoPosition>

		if (FALSE == temp_state)
    1f2a:	88 23       	and	r24, r24
    1f2c:	11 f4       	brne	.+4      	; 0x1f32 <InitServoNodeBuffer+0x6c>
		{
			servo_control.last_position[count] = 0;
    1f2e:	19 82       	std	Y+1, r1	; 0x01
    1f30:	18 82       	st	Y, r1
		}
		servo_control.last_velocity[count] = 0;
    1f32:	c0 5c       	subi	r28, 0xC0	; 192
    1f34:	df 4f       	sbci	r29, 0xFF	; 255
    1f36:	19 82       	std	Y+1, r1	; 0x01
    1f38:	18 82       	st	Y, r1
    1f3a:	0f 5f       	subi	r16, 0xFF	; 255
    1f3c:	1f 4f       	sbci	r17, 0xFF	; 255
    1f3e:	ee 97       	sbiw	r28, 0x3e	; 62
		}
	}

	ttlbus_control.pInitSync(&servo_control.node_mapping[0], temp_amount);

	for (count = 0; count < amount; count++)
    1f40:	80 2f       	mov	r24, r16
    1f42:	8e 19       	sub	r24, r14
    1f44:	8f 15       	cp	r24, r15
    1f46:	60 f3       	brcs	.-40     	; 0x1f20 <InitServoNodeBuffer+0x5a>
		{
			servo_control.last_position[count] = 0;
		}
		servo_control.last_velocity[count] = 0;
	}
}
    1f48:	df 91       	pop	r29
    1f4a:	cf 91       	pop	r28
    1f4c:	1f 91       	pop	r17
    1f4e:	0f 91       	pop	r16
    1f50:	ff 90       	pop	r15
    1f52:	ef 90       	pop	r14
    1f54:	08 95       	ret

00001f56 <SetSignalRegisterByte>:
** 修订日期:
**------------------------------------------------------------------------------------------------------------------------
*************************************************************************************************************************/
static uint8 SetSignalRegisterByte(uint8 address, uint8 val)
{
	if (sizeof(signal_control.data_register) > address)
    1f56:	80 34       	cpi	r24, 0x40	; 64
    1f58:	10 f0       	brcs	.+4      	; 0x1f5e <SetSignalRegisterByte+0x8>
    1f5a:	80 e0       	ldi	r24, 0x00	; 0
    1f5c:	08 95       	ret
	{
		signal_control.data_register[address] = val;
    1f5e:	e8 2f       	mov	r30, r24
    1f60:	f0 e0       	ldi	r31, 0x00	; 0
    1f62:	ea 51       	subi	r30, 0x1A	; 26
    1f64:	fc 4f       	sbci	r31, 0xFC	; 252
    1f66:	60 83       	st	Z, r22
    1f68:	81 e0       	ldi	r24, 0x01	; 1
	{
		return FALSE;
	}

	return TRUE;
}
    1f6a:	08 95       	ret

00001f6c <GetSignalRegisterByte>:
** 修订人:
** 修订日期:
**------------------------------------------------------------------------------------------------------------------------
*************************************************************************************************************************/
static uint8 GetSignalRegisterByte(uint8 address, uint8* val)
{
    1f6c:	db 01       	movw	r26, r22
	if (sizeof(signal_control.data_register) > address)
    1f6e:	80 34       	cpi	r24, 0x40	; 64
    1f70:	10 f0       	brcs	.+4      	; 0x1f76 <GetSignalRegisterByte+0xa>
    1f72:	80 e0       	ldi	r24, 0x00	; 0
    1f74:	08 95       	ret
	{
		*val = signal_control.data_register[address];
    1f76:	e8 2f       	mov	r30, r24
    1f78:	f0 e0       	ldi	r31, 0x00	; 0
    1f7a:	ea 51       	subi	r30, 0x1A	; 26
    1f7c:	fc 4f       	sbci	r31, 0xFC	; 252
    1f7e:	80 81       	ld	r24, Z
    1f80:	8c 93       	st	X, r24
    1f82:	81 e0       	ldi	r24, 0x01	; 1
	{
		return FALSE;
	}

	return TRUE;
}
    1f84:	08 95       	ret

00001f86 <InitSignalRegister>:
** 修订人:
** 修订日期:
**------------------------------------------------------------------------------------------------------------------------
*************************************************************************************************************************/
static void InitSignalRegister(void)
{
    1f86:	e6 ee       	ldi	r30, 0xE6	; 230
    1f88:	f3 e0       	ldi	r31, 0x03	; 3
	uint8 count = 0;

	for (count = 0; count < sizeof(signal_control.data_register); count++)
	{
		signal_control.data_register[count] = 0;
    1f8a:	11 92       	st	Z+, r1
*************************************************************************************************************************/
static void InitSignalRegister(void)
{
	uint8 count = 0;

	for (count = 0; count < sizeof(signal_control.data_register); count++)
    1f8c:	84 e0       	ldi	r24, 0x04	; 4
    1f8e:	e6 32       	cpi	r30, 0x26	; 38
    1f90:	f8 07       	cpc	r31, r24
    1f92:	d9 f7       	brne	.-10     	; 0x1f8a <InitSignalRegister+0x4>
	{
		signal_control.data_register[count] = 0;
	}

	signal_control.pSetByte = SetSignalRegisterByte;
    1f94:	8b ea       	ldi	r24, 0xAB	; 171
    1f96:	9f e0       	ldi	r25, 0x0F	; 15
    1f98:	93 83       	std	Z+3, r25	; 0x03
    1f9a:	82 83       	std	Z+2, r24	; 0x02
	signal_control.pGetByte = GetSignalRegisterByte;
    1f9c:	86 eb       	ldi	r24, 0xB6	; 182
    1f9e:	9f e0       	ldi	r25, 0x0F	; 15
    1fa0:	95 83       	std	Z+5, r25	; 0x05
    1fa2:	84 83       	std	Z+4, r24	; 0x04
}
    1fa4:	08 95       	ret

00001fa6 <WriteTtlBusRegWord2>:
** 修订人:
** 修订日期:
**------------------------------------------------------------------------------------------------------------------------
*************************************************************************************************************************/
static uint8 WriteTtlBusRegWord2(uint8 id, uint8 adress, uint16 first_word, uint16 second_word)
{
    1fa6:	cf 92       	push	r12
    1fa8:	df 92       	push	r13
    1faa:	ef 92       	push	r14
    1fac:	ff 92       	push	r15
    1fae:	0f 93       	push	r16
    1fb0:	1f 93       	push	r17
    1fb2:	18 2f       	mov	r17, r24
    1fb4:	06 2f       	mov	r16, r22
    1fb6:	d4 2e       	mov	r13, r20
    1fb8:	f5 2e       	mov	r15, r21
    1fba:	c2 2e       	mov	r12, r18
    1fbc:	e3 2e       	mov	r14, r19
	uint8 temp_state = ERR_OK;

	timer0_control.pDisableInterrupt(TIMER8_IMR_OI);								// 禁止系统中断
    1fbe:	e0 91 d4 07 	lds	r30, 0x07D4
    1fc2:	f0 91 d5 07 	lds	r31, 0x07D5
    1fc6:	80 e0       	ldi	r24, 0x00	; 0
    1fc8:	09 95       	icall

	ttlbus_control.str_bsu_stack.bsu_send.device_id = id;
    1fca:	10 93 93 05 	sts	0x0593, r17
	ttlbus_control.str_bsu_stack.bsu_send.instruction_byte = INST_REG_WRITE;
    1fce:	84 e0       	ldi	r24, 0x04	; 4
    1fd0:	80 93 94 05 	sts	0x0594, r24
	ttlbus_control.str_bsu_stack.bsu_send.first_address = adress;
    1fd4:	00 93 95 05 	sts	0x0595, r16
	ttlbus_control.str_bsu_stack.bsu_send.parameter_length = 0x04;
    1fd8:	80 93 97 05 	sts	0x0597, r24

	Out16(ttlbus_control.str_bsu_stack.bsu_send.write_parameter[0], ttlbus_control.str_bsu_stack.bsu_send.write_parameter[1], first_word);
    1fdc:	f0 92 99 05 	sts	0x0599, r15
    1fe0:	d0 92 98 05 	sts	0x0598, r13
	Out16(ttlbus_control.str_bsu_stack.bsu_send.write_parameter[2], ttlbus_control.str_bsu_stack.bsu_send.write_parameter[3], second_word);
    1fe4:	e0 92 9b 05 	sts	0x059B, r14
    1fe8:	c0 92 9a 05 	sts	0x059A, r12

	ttlbus_control.p_uart_control->pClearReceiveBuffer();
    1fec:	e0 91 4a 06 	lds	r30, 0x064A
    1ff0:	f0 91 4b 06 	lds	r31, 0x064B
    1ff4:	07 8c       	ldd	r0, Z+31	; 0x1f
    1ff6:	f0 a1       	ldd	r31, Z+32	; 0x20
    1ff8:	e0 2d       	mov	r30, r0
    1ffa:	09 95       	icall

	temp_state = (bsu_control.pTxPacket)(&ttlbus_control.str_bsu_stack.bsu_send, ttlbus_control.p_uart_control);
    1ffc:	60 91 4a 06 	lds	r22, 0x064A
    2000:	70 91 4b 06 	lds	r23, 0x064B
    2004:	e0 91 6d 06 	lds	r30, 0x066D
    2008:	f0 91 6e 06 	lds	r31, 0x066E
    200c:	83 e9       	ldi	r24, 0x93	; 147
    200e:	95 e0       	ldi	r25, 0x05	; 5
    2010:	09 95       	icall
    2012:	18 2f       	mov	r17, r24

	if(ERR_OK == temp_state)
    2014:	88 23       	and	r24, r24
    2016:	c1 f4       	brne	.+48     	; 0x2048 <WriteTtlBusRegWord2+0xa2>
	{
		temp_state = (bsu_control.pRxPacket)(&ttlbus_control.str_bsu_stack.bsu_receive, ttlbus_control.p_uart_control);
    2018:	60 91 4a 06 	lds	r22, 0x064A
    201c:	70 91 4b 06 	lds	r23, 0x064B
    2020:	e0 91 6b 06 	lds	r30, 0x066B
    2024:	f0 91 6c 06 	lds	r31, 0x066C
    2028:	81 e8       	ldi	r24, 0x81	; 129
    202a:	95 e0       	ldi	r25, 0x05	; 5
    202c:	09 95       	icall
    202e:	18 2f       	mov	r17, r24
		if(ERR_OK == temp_state)
    2030:	88 23       	and	r24, r24
    2032:	51 f4       	brne	.+20     	; 0x2048 <WriteTtlBusRegWord2+0xa2>
		{
			if(ttlbus_control.str_bsu_stack.bsu_receive.device_id == ttlbus_control.str_bsu_stack.bsu_send.device_id)
    2034:	90 91 81 05 	lds	r25, 0x0581
    2038:	80 91 93 05 	lds	r24, 0x0593
    203c:	98 17       	cp	r25, r24
    203e:	21 f4       	brne	.+8      	; 0x2048 <WriteTtlBusRegWord2+0xa2>
			{
				ttlbus_control.state = ttlbus_control.str_bsu_stack.bsu_receive.error_byte;
    2040:	80 91 82 05 	lds	r24, 0x0582
    2044:	80 93 6a 06 	sts	0x066A, r24
				temp_state = ERR_OK;
			}
		}
	}

	timer0_control.pEnableInterrupt(TIMER8_IMR_OI);								// 使能系统中断
    2048:	e0 91 d2 07 	lds	r30, 0x07D2
    204c:	f0 91 d3 07 	lds	r31, 0x07D3
    2050:	80 e0       	ldi	r24, 0x00	; 0
    2052:	09 95       	icall

	return temp_state;
}
    2054:	81 2f       	mov	r24, r17
    2056:	1f 91       	pop	r17
    2058:	0f 91       	pop	r16
    205a:	ff 90       	pop	r15
    205c:	ef 90       	pop	r14
    205e:	df 90       	pop	r13
    2060:	cf 90       	pop	r12
    2062:	08 95       	ret

00002064 <WriteTtlBusWord2>:
** 修订人:
** 修订日期:
**------------------------------------------------------------------------------------------------------------------------
*************************************************************************************************************************/
static uint8 WriteTtlBusWord2(uint8 id, uint8 adress, uint16 first_word, uint16 second_word)
{
    2064:	cf 92       	push	r12
    2066:	df 92       	push	r13
    2068:	ef 92       	push	r14
    206a:	ff 92       	push	r15
    206c:	0f 93       	push	r16
    206e:	1f 93       	push	r17
    2070:	18 2f       	mov	r17, r24
    2072:	06 2f       	mov	r16, r22
    2074:	d4 2e       	mov	r13, r20
    2076:	f5 2e       	mov	r15, r21
    2078:	c2 2e       	mov	r12, r18
    207a:	e3 2e       	mov	r14, r19
	uint8 temp_state = ERR_OK;

	timer0_control.pDisableInterrupt(TIMER8_IMR_OI);								// 禁止系统中断
    207c:	e0 91 d4 07 	lds	r30, 0x07D4
    2080:	f0 91 d5 07 	lds	r31, 0x07D5
    2084:	80 e0       	ldi	r24, 0x00	; 0
    2086:	09 95       	icall

	ttlbus_control.str_bsu_stack.bsu_send.device_id = id;
    2088:	10 93 93 05 	sts	0x0593, r17
	ttlbus_control.str_bsu_stack.bsu_send.instruction_byte = INST_WRITE;
    208c:	83 e0       	ldi	r24, 0x03	; 3
    208e:	80 93 94 05 	sts	0x0594, r24
	ttlbus_control.str_bsu_stack.bsu_send.first_address = adress;
    2092:	00 93 95 05 	sts	0x0595, r16
	ttlbus_control.str_bsu_stack.bsu_send.parameter_length = 0x04;
    2096:	84 e0       	ldi	r24, 0x04	; 4
    2098:	80 93 97 05 	sts	0x0597, r24

	Out16(ttlbus_control.str_bsu_stack.bsu_send.write_parameter[0], ttlbus_control.str_bsu_stack.bsu_send.write_parameter[1], first_word);
    209c:	f0 92 99 05 	sts	0x0599, r15
    20a0:	d0 92 98 05 	sts	0x0598, r13
	Out16(ttlbus_control.str_bsu_stack.bsu_send.write_parameter[2], ttlbus_control.str_bsu_stack.bsu_send.write_parameter[3], second_word);
    20a4:	e0 92 9b 05 	sts	0x059B, r14
    20a8:	c0 92 9a 05 	sts	0x059A, r12

	ttlbus_control.p_uart_control->pClearReceiveBuffer();
    20ac:	e0 91 4a 06 	lds	r30, 0x064A
    20b0:	f0 91 4b 06 	lds	r31, 0x064B
    20b4:	07 8c       	ldd	r0, Z+31	; 0x1f
    20b6:	f0 a1       	ldd	r31, Z+32	; 0x20
    20b8:	e0 2d       	mov	r30, r0
    20ba:	09 95       	icall

	temp_state = (bsu_control.pTxPacket)(&ttlbus_control.str_bsu_stack.bsu_send, ttlbus_control.p_uart_control);
    20bc:	60 91 4a 06 	lds	r22, 0x064A
    20c0:	70 91 4b 06 	lds	r23, 0x064B
    20c4:	e0 91 6d 06 	lds	r30, 0x066D
    20c8:	f0 91 6e 06 	lds	r31, 0x066E
    20cc:	83 e9       	ldi	r24, 0x93	; 147
    20ce:	95 e0       	ldi	r25, 0x05	; 5
    20d0:	09 95       	icall
    20d2:	18 2f       	mov	r17, r24

	if(ERR_OK == temp_state)
    20d4:	88 23       	and	r24, r24
    20d6:	c1 f4       	brne	.+48     	; 0x2108 <WriteTtlBusWord2+0xa4>
	{
		temp_state = (bsu_control.pRxPacket)(&ttlbus_control.str_bsu_stack.bsu_receive, ttlbus_control.p_uart_control);
    20d8:	60 91 4a 06 	lds	r22, 0x064A
    20dc:	70 91 4b 06 	lds	r23, 0x064B
    20e0:	e0 91 6b 06 	lds	r30, 0x066B
    20e4:	f0 91 6c 06 	lds	r31, 0x066C
    20e8:	81 e8       	ldi	r24, 0x81	; 129
    20ea:	95 e0       	ldi	r25, 0x05	; 5
    20ec:	09 95       	icall
    20ee:	18 2f       	mov	r17, r24
		if(ERR_OK == temp_state)
    20f0:	88 23       	and	r24, r24
    20f2:	51 f4       	brne	.+20     	; 0x2108 <WriteTtlBusWord2+0xa4>
		{
			if(ttlbus_control.str_bsu_stack.bsu_receive.device_id == ttlbus_control.str_bsu_stack.bsu_send.device_id)
    20f4:	90 91 81 05 	lds	r25, 0x0581
    20f8:	80 91 93 05 	lds	r24, 0x0593
    20fc:	98 17       	cp	r25, r24
    20fe:	21 f4       	brne	.+8      	; 0x2108 <WriteTtlBusWord2+0xa4>
			{
				ttlbus_control.state = ttlbus_control.str_bsu_stack.bsu_receive.error_byte;
    2100:	80 91 82 05 	lds	r24, 0x0582
    2104:	80 93 6a 06 	sts	0x066A, r24
				temp_state = ERR_OK;
			}
		}
	}

	timer0_control.pEnableInterrupt(TIMER8_IMR_OI);								// 使能系统中断
    2108:	e0 91 d2 07 	lds	r30, 0x07D2
    210c:	f0 91 d3 07 	lds	r31, 0x07D3
    2110:	80 e0       	ldi	r24, 0x00	; 0
    2112:	09 95       	icall

	return temp_state;
}
    2114:	81 2f       	mov	r24, r17
    2116:	1f 91       	pop	r17
    2118:	0f 91       	pop	r16
    211a:	ff 90       	pop	r15
    211c:	ef 90       	pop	r14
    211e:	df 90       	pop	r13
    2120:	cf 90       	pop	r12
    2122:	08 95       	ret

00002124 <WriteTtlBusRegWord>:
** 修订人:
** 修订日期:
**------------------------------------------------------------------------------------------------------------------------
*************************************************************************************************************************/
static uint8 WriteTtlBusRegWord(uint8 id, uint8 adress, uint16 word)
{
    2124:	ef 92       	push	r14
    2126:	ff 92       	push	r15
    2128:	0f 93       	push	r16
    212a:	1f 93       	push	r17
    212c:	18 2f       	mov	r17, r24
    212e:	06 2f       	mov	r16, r22
    2130:	7a 01       	movw	r14, r20
	uint8 temp_state = ERR_OK;

	timer0_control.pDisableInterrupt(TIMER8_IMR_OI);								// 禁止系统中断
    2132:	e0 91 d4 07 	lds	r30, 0x07D4
    2136:	f0 91 d5 07 	lds	r31, 0x07D5
    213a:	80 e0       	ldi	r24, 0x00	; 0
    213c:	09 95       	icall

	ttlbus_control.str_bsu_stack.bsu_send.device_id = id;
    213e:	10 93 93 05 	sts	0x0593, r17
	ttlbus_control.str_bsu_stack.bsu_send.instruction_byte = INST_REG_WRITE;
    2142:	84 e0       	ldi	r24, 0x04	; 4
    2144:	80 93 94 05 	sts	0x0594, r24
	ttlbus_control.str_bsu_stack.bsu_send.first_address = adress;
    2148:	00 93 95 05 	sts	0x0595, r16
	ttlbus_control.str_bsu_stack.bsu_send.parameter_length = 0x02;
    214c:	82 e0       	ldi	r24, 0x02	; 2
    214e:	80 93 97 05 	sts	0x0597, r24

	Out16(ttlbus_control.str_bsu_stack.bsu_send.write_parameter[0], ttlbus_control.str_bsu_stack.bsu_send.write_parameter[1], word);
    2152:	f0 92 99 05 	sts	0x0599, r15
    2156:	e0 92 98 05 	sts	0x0598, r14

	ttlbus_control.p_uart_control->pClearReceiveBuffer();
    215a:	e0 91 4a 06 	lds	r30, 0x064A
    215e:	f0 91 4b 06 	lds	r31, 0x064B
    2162:	07 8c       	ldd	r0, Z+31	; 0x1f
    2164:	f0 a1       	ldd	r31, Z+32	; 0x20
    2166:	e0 2d       	mov	r30, r0
    2168:	09 95       	icall

	temp_state = (bsu_control.pTxPacket)(&ttlbus_control.str_bsu_stack.bsu_send, ttlbus_control.p_uart_control);
    216a:	60 91 4a 06 	lds	r22, 0x064A
    216e:	70 91 4b 06 	lds	r23, 0x064B
    2172:	e0 91 6d 06 	lds	r30, 0x066D
    2176:	f0 91 6e 06 	lds	r31, 0x066E
    217a:	83 e9       	ldi	r24, 0x93	; 147
    217c:	95 e0       	ldi	r25, 0x05	; 5
    217e:	09 95       	icall
    2180:	18 2f       	mov	r17, r24

	if(ERR_OK == temp_state)
    2182:	88 23       	and	r24, r24
    2184:	c1 f4       	brne	.+48     	; 0x21b6 <WriteTtlBusRegWord+0x92>
	{
		temp_state = (bsu_control.pRxPacket)(&ttlbus_control.str_bsu_stack.bsu_receive, ttlbus_control.p_uart_control);
    2186:	60 91 4a 06 	lds	r22, 0x064A
    218a:	70 91 4b 06 	lds	r23, 0x064B
    218e:	e0 91 6b 06 	lds	r30, 0x066B
    2192:	f0 91 6c 06 	lds	r31, 0x066C
    2196:	81 e8       	ldi	r24, 0x81	; 129
    2198:	95 e0       	ldi	r25, 0x05	; 5
    219a:	09 95       	icall
    219c:	18 2f       	mov	r17, r24
		if(ERR_OK == temp_state)
    219e:	88 23       	and	r24, r24
    21a0:	51 f4       	brne	.+20     	; 0x21b6 <WriteTtlBusRegWord+0x92>
		{
			if(ttlbus_control.str_bsu_stack.bsu_receive.device_id == ttlbus_control.str_bsu_stack.bsu_send.device_id)
    21a2:	90 91 81 05 	lds	r25, 0x0581
    21a6:	80 91 93 05 	lds	r24, 0x0593
    21aa:	98 17       	cp	r25, r24
    21ac:	21 f4       	brne	.+8      	; 0x21b6 <WriteTtlBusRegWord+0x92>
			{
				ttlbus_control.state = ttlbus_control.str_bsu_stack.bsu_receive.error_byte;
    21ae:	80 91 82 05 	lds	r24, 0x0582
    21b2:	80 93 6a 06 	sts	0x066A, r24
				temp_state = ERR_OK;
			}
		}
	}

	timer0_control.pEnableInterrupt(TIMER8_IMR_OI);								// 使能系统中断
    21b6:	e0 91 d2 07 	lds	r30, 0x07D2
    21ba:	f0 91 d3 07 	lds	r31, 0x07D3
    21be:	80 e0       	ldi	r24, 0x00	; 0
    21c0:	09 95       	icall

	return temp_state;
}
    21c2:	81 2f       	mov	r24, r17
    21c4:	1f 91       	pop	r17
    21c6:	0f 91       	pop	r16
    21c8:	ff 90       	pop	r15
    21ca:	ef 90       	pop	r14
    21cc:	08 95       	ret

000021ce <WriteTtlBusWord>:
** 修订人:
** 修订日期:
**------------------------------------------------------------------------------------------------------------------------
*************************************************************************************************************************/
static uint8 WriteTtlBusWord(uint8 id, uint8 adress, uint16 word)
{
    21ce:	ef 92       	push	r14
    21d0:	ff 92       	push	r15
    21d2:	0f 93       	push	r16
    21d4:	1f 93       	push	r17
    21d6:	18 2f       	mov	r17, r24
    21d8:	06 2f       	mov	r16, r22
    21da:	7a 01       	movw	r14, r20
	uint8 temp_state = ERR_OK;

	timer0_control.pDisableInterrupt(TIMER8_IMR_OI);								// 禁止系统中断
    21dc:	e0 91 d4 07 	lds	r30, 0x07D4
    21e0:	f0 91 d5 07 	lds	r31, 0x07D5
    21e4:	80 e0       	ldi	r24, 0x00	; 0
    21e6:	09 95       	icall

	ttlbus_control.str_bsu_stack.bsu_send.device_id = id;
    21e8:	10 93 93 05 	sts	0x0593, r17
	ttlbus_control.str_bsu_stack.bsu_send.instruction_byte = INST_WRITE;
    21ec:	83 e0       	ldi	r24, 0x03	; 3
    21ee:	80 93 94 05 	sts	0x0594, r24
	ttlbus_control.str_bsu_stack.bsu_send.first_address = adress;
    21f2:	00 93 95 05 	sts	0x0595, r16
	ttlbus_control.str_bsu_stack.bsu_send.parameter_length = 0x02;
    21f6:	82 e0       	ldi	r24, 0x02	; 2
    21f8:	80 93 97 05 	sts	0x0597, r24

	Out16(ttlbus_control.str_bsu_stack.bsu_send.write_parameter[0], ttlbus_control.str_bsu_stack.bsu_send.write_parameter[1], word);
    21fc:	f0 92 99 05 	sts	0x0599, r15
    2200:	e0 92 98 05 	sts	0x0598, r14

	ttlbus_control.p_uart_control->pClearReceiveBuffer();
    2204:	e0 91 4a 06 	lds	r30, 0x064A
    2208:	f0 91 4b 06 	lds	r31, 0x064B
    220c:	07 8c       	ldd	r0, Z+31	; 0x1f
    220e:	f0 a1       	ldd	r31, Z+32	; 0x20
    2210:	e0 2d       	mov	r30, r0
    2212:	09 95       	icall

	temp_state = (bsu_control.pTxPacket)(&ttlbus_control.str_bsu_stack.bsu_send, ttlbus_control.p_uart_control);
    2214:	60 91 4a 06 	lds	r22, 0x064A
    2218:	70 91 4b 06 	lds	r23, 0x064B
    221c:	e0 91 6d 06 	lds	r30, 0x066D
    2220:	f0 91 6e 06 	lds	r31, 0x066E
    2224:	83 e9       	ldi	r24, 0x93	; 147
    2226:	95 e0       	ldi	r25, 0x05	; 5
    2228:	09 95       	icall
    222a:	18 2f       	mov	r17, r24

	if(ERR_OK == temp_state)
    222c:	88 23       	and	r24, r24
    222e:	c1 f4       	brne	.+48     	; 0x2260 <WriteTtlBusWord+0x92>
	{
		temp_state = (bsu_control.pRxPacket)(&ttlbus_control.str_bsu_stack.bsu_receive, ttlbus_control.p_uart_control);
    2230:	60 91 4a 06 	lds	r22, 0x064A
    2234:	70 91 4b 06 	lds	r23, 0x064B
    2238:	e0 91 6b 06 	lds	r30, 0x066B
    223c:	f0 91 6c 06 	lds	r31, 0x066C
    2240:	81 e8       	ldi	r24, 0x81	; 129
    2242:	95 e0       	ldi	r25, 0x05	; 5
    2244:	09 95       	icall
    2246:	18 2f       	mov	r17, r24
		if(ERR_OK == temp_state)
    2248:	88 23       	and	r24, r24
    224a:	51 f4       	brne	.+20     	; 0x2260 <WriteTtlBusWord+0x92>
		{
			if(ttlbus_control.str_bsu_stack.bsu_receive.device_id == ttlbus_control.str_bsu_stack.bsu_send.device_id)
    224c:	90 91 81 05 	lds	r25, 0x0581
    2250:	80 91 93 05 	lds	r24, 0x0593
    2254:	98 17       	cp	r25, r24
    2256:	21 f4       	brne	.+8      	; 0x2260 <WriteTtlBusWord+0x92>
			{
				ttlbus_control.state = ttlbus_control.str_bsu_stack.bsu_receive.error_byte;
    2258:	80 91 82 05 	lds	r24, 0x0582
    225c:	80 93 6a 06 	sts	0x066A, r24
				temp_state = ERR_OK;
			}
		}
	}

	timer0_control.pEnableInterrupt(TIMER8_IMR_OI);								// 使能系统中断
    2260:	e0 91 d2 07 	lds	r30, 0x07D2
    2264:	f0 91 d3 07 	lds	r31, 0x07D3
    2268:	80 e0       	ldi	r24, 0x00	; 0
    226a:	09 95       	icall

	return temp_state;
}
    226c:	81 2f       	mov	r24, r17
    226e:	1f 91       	pop	r17
    2270:	0f 91       	pop	r16
    2272:	ff 90       	pop	r15
    2274:	ef 90       	pop	r14
    2276:	08 95       	ret

00002278 <WriteTtlBusByte>:
** 修订人:
** 修订日期:
**------------------------------------------------------------------------------------------------------------------------
*************************************************************************************************************************/
static uint8 WriteTtlBusByte(uint8 id, uint8 adress, uint8 byte)
{
    2278:	ff 92       	push	r15
    227a:	0f 93       	push	r16
    227c:	1f 93       	push	r17
    227e:	18 2f       	mov	r17, r24
    2280:	06 2f       	mov	r16, r22
    2282:	f4 2e       	mov	r15, r20
	uint8 temp_state = ERR_OK;

	timer0_control.pDisableInterrupt(TIMER8_IMR_OI);								// 禁止系统中断
    2284:	e0 91 d4 07 	lds	r30, 0x07D4
    2288:	f0 91 d5 07 	lds	r31, 0x07D5
    228c:	80 e0       	ldi	r24, 0x00	; 0
    228e:	09 95       	icall

	ttlbus_control.str_bsu_stack.bsu_send.device_id = id;
    2290:	10 93 93 05 	sts	0x0593, r17
	ttlbus_control.str_bsu_stack.bsu_send.instruction_byte = INST_WRITE;
    2294:	83 e0       	ldi	r24, 0x03	; 3
    2296:	80 93 94 05 	sts	0x0594, r24
	ttlbus_control.str_bsu_stack.bsu_send.first_address = adress;
    229a:	00 93 95 05 	sts	0x0595, r16
	ttlbus_control.str_bsu_stack.bsu_send.parameter_length = 0x01;
    229e:	81 e0       	ldi	r24, 0x01	; 1
    22a0:	80 93 97 05 	sts	0x0597, r24

	ttlbus_control.str_bsu_stack.bsu_send.write_parameter[0] = byte;
    22a4:	f0 92 98 05 	sts	0x0598, r15

	ttlbus_control.p_uart_control->pClearReceiveBuffer();
    22a8:	e0 91 4a 06 	lds	r30, 0x064A
    22ac:	f0 91 4b 06 	lds	r31, 0x064B
    22b0:	07 8c       	ldd	r0, Z+31	; 0x1f
    22b2:	f0 a1       	ldd	r31, Z+32	; 0x20
    22b4:	e0 2d       	mov	r30, r0
    22b6:	09 95       	icall

	temp_state = (bsu_control.pTxPacket)(&ttlbus_control.str_bsu_stack.bsu_send, ttlbus_control.p_uart_control);
    22b8:	60 91 4a 06 	lds	r22, 0x064A
    22bc:	70 91 4b 06 	lds	r23, 0x064B
    22c0:	e0 91 6d 06 	lds	r30, 0x066D
    22c4:	f0 91 6e 06 	lds	r31, 0x066E
    22c8:	83 e9       	ldi	r24, 0x93	; 147
    22ca:	95 e0       	ldi	r25, 0x05	; 5
    22cc:	09 95       	icall
    22ce:	18 2f       	mov	r17, r24

	if(ERR_OK == temp_state)
    22d0:	88 23       	and	r24, r24
    22d2:	c1 f4       	brne	.+48     	; 0x2304 <WriteTtlBusByte+0x8c>
	{
		temp_state = (bsu_control.pRxPacket)(&ttlbus_control.str_bsu_stack.bsu_receive, ttlbus_control.p_uart_control);
    22d4:	60 91 4a 06 	lds	r22, 0x064A
    22d8:	70 91 4b 06 	lds	r23, 0x064B
    22dc:	e0 91 6b 06 	lds	r30, 0x066B
    22e0:	f0 91 6c 06 	lds	r31, 0x066C
    22e4:	81 e8       	ldi	r24, 0x81	; 129
    22e6:	95 e0       	ldi	r25, 0x05	; 5
    22e8:	09 95       	icall
    22ea:	18 2f       	mov	r17, r24
		if(ERR_OK == temp_state)
    22ec:	88 23       	and	r24, r24
    22ee:	51 f4       	brne	.+20     	; 0x2304 <WriteTtlBusByte+0x8c>
		{
			if(ttlbus_control.str_bsu_stack.bsu_receive.device_id == ttlbus_control.str_bsu_stack.bsu_send.device_id)
    22f0:	90 91 81 05 	lds	r25, 0x0581
    22f4:	80 91 93 05 	lds	r24, 0x0593
    22f8:	98 17       	cp	r25, r24
    22fa:	21 f4       	brne	.+8      	; 0x2304 <WriteTtlBusByte+0x8c>
			{
				ttlbus_control.state = ttlbus_control.str_bsu_stack.bsu_receive.error_byte;
    22fc:	80 91 82 05 	lds	r24, 0x0582
    2300:	80 93 6a 06 	sts	0x066A, r24
				temp_state = ERR_OK;
			}
		}
	}

	timer0_control.pEnableInterrupt(TIMER8_IMR_OI);								// 使能系统中断
    2304:	e0 91 d2 07 	lds	r30, 0x07D2
    2308:	f0 91 d3 07 	lds	r31, 0x07D3
    230c:	80 e0       	ldi	r24, 0x00	; 0
    230e:	09 95       	icall

	return temp_state;
}
    2310:	81 2f       	mov	r24, r17
    2312:	1f 91       	pop	r17
    2314:	0f 91       	pop	r16
    2316:	ff 90       	pop	r15
    2318:	08 95       	ret

0000231a <WriteTtlBusSyncControl>:
** 修订人:
** 修订日期:
**------------------------------------------------------------------------------------------------------------------------
*************************************************************************************************************************/
static void WriteTtlBusSyncControl(uint8 adress, uint8 length)
{
    231a:	0f 93       	push	r16
    231c:	1f 93       	push	r17
    231e:	18 2f       	mov	r17, r24
    2320:	06 2f       	mov	r16, r22
	timer0_control.pDisableInterrupt(TIMER8_IMR_OI);								// 禁止系统中断
    2322:	e0 91 d4 07 	lds	r30, 0x07D4
    2326:	f0 91 d5 07 	lds	r31, 0x07D5
    232a:	80 e0       	ldi	r24, 0x00	; 0
    232c:	09 95       	icall

	ttlbus_control.str_bsu_sync.first_address = adress;
    232e:	10 93 c8 05 	sts	0x05C8, r17
	ttlbus_control.str_bsu_sync.parameter_length = length;
    2332:	00 93 c9 05 	sts	0x05C9, r16


	timer0_control.pEnableInterrupt(TIMER8_IMR_OI);
    2336:	e0 91 d2 07 	lds	r30, 0x07D2
    233a:	f0 91 d3 07 	lds	r31, 0x07D3
    233e:	80 e0       	ldi	r24, 0x00	; 0
    2340:	09 95       	icall
}
    2342:	1f 91       	pop	r17
    2344:	0f 91       	pop	r16
    2346:	08 95       	ret

00002348 <WriteTtlBusSyncWord2>:
** 修订人:
** 修订日期:
**------------------------------------------------------------------------------------------------------------------------
*************************************************************************************************************************/
static uint8 WriteTtlBusSyncWord2(uint8 id, uint16 first_word, uint16 second_word)
{
    2348:	df 92       	push	r13
    234a:	ef 92       	push	r14
    234c:	ff 92       	push	r15
    234e:	0f 93       	push	r16
    2350:	1f 93       	push	r17
    2352:	df 93       	push	r29
    2354:	cf 93       	push	r28
    2356:	0f 92       	push	r0
    2358:	cd b7       	in	r28, 0x3d	; 61
    235a:	de b7       	in	r29, 0x3e	; 62
    235c:	18 2f       	mov	r17, r24
    235e:	f6 2e       	mov	r15, r22
    2360:	07 2f       	mov	r16, r23
    2362:	d4 2e       	mov	r13, r20
    2364:	e5 2e       	mov	r14, r21
	uint8 count = 0;
	uint8 temp_value = 0;
    2366:	19 82       	std	Y+1, r1	; 0x01
	uint8 temp_state = 0;

	timer0_control.pDisableInterrupt(TIMER8_IMR_OI);								// 禁止系统中断
    2368:	e0 91 d4 07 	lds	r30, 0x07D4
    236c:	f0 91 d5 07 	lds	r31, 0x07D5
    2370:	80 e0       	ldi	r24, 0x00	; 0
    2372:	09 95       	icall

	temp_state = mapping_control.pInverse1DimArray(ttlbus_control.p_device_mapping, ttlbus_control.device_amount, id, &temp_value);
    2374:	e0 91 71 06 	lds	r30, 0x0671
    2378:	f0 91 72 06 	lds	r31, 0x0672
    237c:	80 91 4c 06 	lds	r24, 0x064C
    2380:	90 91 4d 06 	lds	r25, 0x064D
    2384:	60 91 4e 06 	lds	r22, 0x064E
    2388:	41 2f       	mov	r20, r17
    238a:	9e 01       	movw	r18, r28
    238c:	2f 5f       	subi	r18, 0xFF	; 255
    238e:	3f 4f       	sbci	r19, 0xFF	; 255
    2390:	09 95       	icall

	if (TRUE == temp_state)
    2392:	81 30       	cpi	r24, 0x01	; 1
    2394:	11 f0       	breq	.+4      	; 0x239a <WriteTtlBusSyncWord2+0x52>
    2396:	13 e0       	ldi	r17, 0x03	; 3
    2398:	2b c0       	rjmp	.+86     	; 0x23f0 <WriteTtlBusSyncWord2+0xa8>
	{
		for (count = 0; count < ttlbus_control.str_bsu_sync.update_amount; count++)
    239a:	20 91 a7 05 	lds	r18, 0x05A7
		{
			if (temp_value == ttlbus_control.str_bsu_sync.update_mapping[count])
    239e:	a9 81       	ldd	r26, Y+1	; 0x01
    23a0:	e8 ea       	ldi	r30, 0xA8	; 168
    23a2:	f5 e0       	ldi	r31, 0x05	; 5
    23a4:	90 e0       	ldi	r25, 0x00	; 0
    23a6:	04 c0       	rjmp	.+8      	; 0x23b0 <WriteTtlBusSyncWord2+0x68>
    23a8:	81 91       	ld	r24, Z+
    23aa:	a8 17       	cp	r26, r24
    23ac:	21 f0       	breq	.+8      	; 0x23b6 <WriteTtlBusSyncWord2+0x6e>

	temp_state = mapping_control.pInverse1DimArray(ttlbus_control.p_device_mapping, ttlbus_control.device_amount, id, &temp_value);

	if (TRUE == temp_state)
	{
		for (count = 0; count < ttlbus_control.str_bsu_sync.update_amount; count++)
    23ae:	9f 5f       	subi	r25, 0xFF	; 255
    23b0:	92 17       	cp	r25, r18
    23b2:	d0 f3       	brcs	.-12     	; 0x23a8 <WriteTtlBusSyncWord2+0x60>
    23b4:	2d c0       	rjmp	.+90     	; 0x2410 <WriteTtlBusSyncWord2+0xc8>
		{
			ttlbus_control.str_bsu_sync.update_mapping[ttlbus_control.str_bsu_sync.update_amount] = temp_value;
			ttlbus_control.str_bsu_sync.update_amount++;
		}

		Out16(ttlbus_control.str_bsu_sync.write_parameter[temp_value][0], ttlbus_control.str_bsu_sync.write_parameter[temp_value][1], first_word);
    23b6:	b0 e0       	ldi	r27, 0x00	; 0
    23b8:	fd 01       	movw	r30, r26
    23ba:	ee 0f       	add	r30, r30
    23bc:	ff 1f       	adc	r31, r31
    23be:	ee 0f       	add	r30, r30
    23c0:	ff 1f       	adc	r31, r31
    23c2:	eb 55       	subi	r30, 0x5B	; 91
    23c4:	fa 4f       	sbci	r31, 0xFA	; 250
    23c6:	06 a3       	std	Z+38, r16	; 0x26
    23c8:	fd 01       	movw	r30, r26
    23ca:	ee 0f       	add	r30, r30
    23cc:	ff 1f       	adc	r31, r31
    23ce:	ee 0f       	add	r30, r30
    23d0:	ff 1f       	adc	r31, r31
    23d2:	e6 53       	subi	r30, 0x36	; 54
    23d4:	fa 4f       	sbci	r31, 0xFA	; 250
    23d6:	f0 82       	st	Z, r15
		Out16(ttlbus_control.str_bsu_sync.write_parameter[temp_value][2], ttlbus_control.str_bsu_sync.write_parameter[temp_value][3], second_word);
    23d8:	aa 0f       	add	r26, r26
    23da:	bb 1f       	adc	r27, r27
    23dc:	aa 0f       	add	r26, r26
    23de:	bb 1f       	adc	r27, r27
    23e0:	fd 01       	movw	r30, r26
    23e2:	e3 53       	subi	r30, 0x33	; 51
    23e4:	fa 4f       	sbci	r31, 0xFA	; 250
    23e6:	e0 82       	st	Z, r14
    23e8:	a4 53       	subi	r26, 0x34	; 52
    23ea:	ba 4f       	sbci	r27, 0xFA	; 250
    23ec:	dc 92       	st	X, r13
    23ee:	10 e0       	ldi	r17, 0x00	; 0
	else
	{
		temp_state = ERR_VALUE;
	}

	timer0_control.pEnableInterrupt(TIMER8_IMR_OI);
    23f0:	e0 91 d2 07 	lds	r30, 0x07D2
    23f4:	f0 91 d3 07 	lds	r31, 0x07D3
    23f8:	80 e0       	ldi	r24, 0x00	; 0
    23fa:	09 95       	icall

	return temp_state;
}
    23fc:	81 2f       	mov	r24, r17
    23fe:	0f 90       	pop	r0
    2400:	cf 91       	pop	r28
    2402:	df 91       	pop	r29
    2404:	1f 91       	pop	r17
    2406:	0f 91       	pop	r16
    2408:	ff 90       	pop	r15
    240a:	ef 90       	pop	r14
    240c:	df 90       	pop	r13
    240e:	08 95       	ret
			}
		}

		if (TRUE == temp_state)
		{
			ttlbus_control.str_bsu_sync.update_mapping[ttlbus_control.str_bsu_sync.update_amount] = temp_value;
    2410:	e2 2f       	mov	r30, r18
    2412:	f0 e0       	ldi	r31, 0x00	; 0
    2414:	ef 57       	subi	r30, 0x7F	; 127
    2416:	fa 4f       	sbci	r31, 0xFA	; 250
    2418:	a7 a3       	std	Z+39, r26	; 0x27
			ttlbus_control.str_bsu_sync.update_amount++;
    241a:	2f 5f       	subi	r18, 0xFF	; 255
    241c:	20 93 a7 05 	sts	0x05A7, r18
    2420:	ca cf       	rjmp	.-108    	; 0x23b6 <WriteTtlBusSyncWord2+0x6e>

00002422 <ActionTtlBusSync>:
** 修订日期:
**------------------------------------------------------------------------------------------------------------------------
*************************************************************************************************************************/
static void ActionTtlBusSync(void)
{
	timer0_control.pDisableInterrupt(TIMER8_IMR_OI);								// 禁止系统中断
    2422:	e0 91 d4 07 	lds	r30, 0x07D4
    2426:	f0 91 d5 07 	lds	r31, 0x07D5
    242a:	80 e0       	ldi	r24, 0x00	; 0
    242c:	09 95       	icall

	bsu_control.pTxSyncPacket(&ttlbus_control.str_bsu_sync, ttlbus_control.p_device_mapping, ttlbus_control.p_uart_control);
    242e:	60 91 4c 06 	lds	r22, 0x064C
    2432:	70 91 4d 06 	lds	r23, 0x064D
    2436:	40 91 4a 06 	lds	r20, 0x064A
    243a:	50 91 4b 06 	lds	r21, 0x064B
    243e:	e0 91 6f 06 	lds	r30, 0x066F
    2442:	f0 91 70 06 	lds	r31, 0x0670
    2446:	87 ea       	ldi	r24, 0xA7	; 167
    2448:	95 e0       	ldi	r25, 0x05	; 5
    244a:	09 95       	icall

	timer0_control.pEnableInterrupt(TIMER8_IMR_OI);
    244c:	e0 91 d2 07 	lds	r30, 0x07D2
    2450:	f0 91 d3 07 	lds	r31, 0x07D3
    2454:	80 e0       	ldi	r24, 0x00	; 0
    2456:	09 95       	icall
}
    2458:	08 95       	ret

0000245a <ActionTtlBus>:
** 修订人:
** 修订日期:
**------------------------------------------------------------------------------------------------------------------------
*************************************************************************************************************************/
static uint8 ActionTtlBus(void)
{
    245a:	1f 93       	push	r17
	uint8 temp_state = ERR_OK;

	timer0_control.pDisableInterrupt(TIMER8_IMR_OI);								// 禁止系统中断
    245c:	e0 91 d4 07 	lds	r30, 0x07D4
    2460:	f0 91 d5 07 	lds	r31, 0x07D5
    2464:	80 e0       	ldi	r24, 0x00	; 0
    2466:	09 95       	icall

	ttlbus_control.str_bsu_stack.bsu_send.device_id = BSU_BROADCASTING_ID;
    2468:	8e ef       	ldi	r24, 0xFE	; 254
    246a:	80 93 93 05 	sts	0x0593, r24
	ttlbus_control.str_bsu_stack.bsu_send.instruction_byte = INST_ACTION;
    246e:	85 e0       	ldi	r24, 0x05	; 5
    2470:	80 93 94 05 	sts	0x0594, r24

	temp_state = (bsu_control.pTxPacket)(&ttlbus_control.str_bsu_stack.bsu_send, ttlbus_control.p_uart_control);
    2474:	60 91 4a 06 	lds	r22, 0x064A
    2478:	70 91 4b 06 	lds	r23, 0x064B
    247c:	e0 91 6d 06 	lds	r30, 0x066D
    2480:	f0 91 6e 06 	lds	r31, 0x066E
    2484:	83 e9       	ldi	r24, 0x93	; 147
    2486:	95 e0       	ldi	r25, 0x05	; 5
    2488:	09 95       	icall
    248a:	18 2f       	mov	r17, r24

	timer0_control.pEnableInterrupt(TIMER8_IMR_OI);									// 使能系统中断
    248c:	e0 91 d2 07 	lds	r30, 0x07D2
    2490:	f0 91 d3 07 	lds	r31, 0x07D3
    2494:	80 e0       	ldi	r24, 0x00	; 0
    2496:	09 95       	icall

	return temp_state;
}
    2498:	81 2f       	mov	r24, r17
    249a:	1f 91       	pop	r17
    249c:	08 95       	ret

0000249e <ReadTtlBusWord>:
** 修订人:
** 修订日期:
**------------------------------------------------------------------------------------------------------------------------
*************************************************************************************************************************/
static uint8 ReadTtlBusWord(uint8 id, uint8 adress, uint16* value)
{
    249e:	0f 93       	push	r16
    24a0:	1f 93       	push	r17
    24a2:	cf 93       	push	r28
    24a4:	df 93       	push	r29
    24a6:	18 2f       	mov	r17, r24
    24a8:	06 2f       	mov	r16, r22
    24aa:	ea 01       	movw	r28, r20
	uint8 temp_state = ERR_OK;
	uint8 temp_length = 0;
	uint8 count = 0;
	uint8 temp_parameter[2];

	timer0_control.pDisableInterrupt(TIMER8_IMR_OI);								// 禁止系统中断
    24ac:	e0 91 d4 07 	lds	r30, 0x07D4
    24b0:	f0 91 d5 07 	lds	r31, 0x07D5
    24b4:	80 e0       	ldi	r24, 0x00	; 0
    24b6:	09 95       	icall

	ttlbus_control.str_bsu_stack.bsu_send.device_id = id;
    24b8:	10 93 93 05 	sts	0x0593, r17
	ttlbus_control.str_bsu_stack.bsu_send.instruction_byte = INST_READ;
    24bc:	82 e0       	ldi	r24, 0x02	; 2
    24be:	80 93 94 05 	sts	0x0594, r24
	ttlbus_control.str_bsu_stack.bsu_send.first_address = adress;
    24c2:	00 93 95 05 	sts	0x0595, r16
	ttlbus_control.str_bsu_stack.bsu_send.read_length = 0x02;
    24c6:	80 93 96 05 	sts	0x0596, r24

	ttlbus_control.p_uart_control->pClearReceiveBuffer();
    24ca:	e0 91 4a 06 	lds	r30, 0x064A
    24ce:	f0 91 4b 06 	lds	r31, 0x064B
    24d2:	07 8c       	ldd	r0, Z+31	; 0x1f
    24d4:	f0 a1       	ldd	r31, Z+32	; 0x20
    24d6:	e0 2d       	mov	r30, r0
    24d8:	09 95       	icall

	temp_state = (bsu_control.pTxPacket)(&ttlbus_control.str_bsu_stack.bsu_send, ttlbus_control.p_uart_control);
    24da:	60 91 4a 06 	lds	r22, 0x064A
    24de:	70 91 4b 06 	lds	r23, 0x064B
    24e2:	e0 91 6d 06 	lds	r30, 0x066D
    24e6:	f0 91 6e 06 	lds	r31, 0x066E
    24ea:	83 e9       	ldi	r24, 0x93	; 147
    24ec:	95 e0       	ldi	r25, 0x05	; 5
    24ee:	09 95       	icall
    24f0:	18 2f       	mov	r17, r24


	if(ERR_OK == temp_state)
    24f2:	88 23       	and	r24, r24
    24f4:	41 f5       	brne	.+80     	; 0x2546 <ReadTtlBusWord+0xa8>
	{
		temp_state = (bsu_control.pRxPacket)(&ttlbus_control.str_bsu_stack.bsu_receive, ttlbus_control.p_uart_control);
    24f6:	60 91 4a 06 	lds	r22, 0x064A
    24fa:	70 91 4b 06 	lds	r23, 0x064B
    24fe:	e0 91 6b 06 	lds	r30, 0x066B
    2502:	f0 91 6c 06 	lds	r31, 0x066C
    2506:	81 e8       	ldi	r24, 0x81	; 129
    2508:	95 e0       	ldi	r25, 0x05	; 5
    250a:	09 95       	icall
    250c:	18 2f       	mov	r17, r24
		if(ERR_OK == temp_state)
    250e:	88 23       	and	r24, r24
    2510:	d1 f4       	brne	.+52     	; 0x2546 <ReadTtlBusWord+0xa8>
		{
			if(ttlbus_control.str_bsu_stack.bsu_receive.device_id == ttlbus_control.str_bsu_stack.bsu_send.device_id)
    2512:	90 91 81 05 	lds	r25, 0x0581
    2516:	80 91 93 05 	lds	r24, 0x0593
    251a:	98 17       	cp	r25, r24
    251c:	a1 f4       	brne	.+40     	; 0x2546 <ReadTtlBusWord+0xa8>
			{
				temp_length = ttlbus_control.str_bsu_stack.bsu_receive.parameter_length;

				if(2 == temp_length)
    251e:	80 91 83 05 	lds	r24, 0x0583
    2522:	82 30       	cpi	r24, 0x02	; 2
    2524:	11 f0       	breq	.+4      	; 0x252a <ReadTtlBusWord+0x8c>
    2526:	13 e0       	ldi	r17, 0x03	; 3
    2528:	0e c0       	rjmp	.+28     	; 0x2546 <ReadTtlBusWord+0xa8>
				{
					ttlbus_control.state = ttlbus_control.str_bsu_stack.bsu_receive.error_byte;
    252a:	80 91 82 05 	lds	r24, 0x0582
    252e:	80 93 6a 06 	sts	0x066A, r24
					for(count = 0; count < temp_length; count++)
					{
						temp_parameter[count] = ttlbus_control.str_bsu_stack.bsu_receive.receive_parameter[count];
					}

					In16(*value, temp_parameter[0], temp_parameter[1]);
    2532:	90 91 85 05 	lds	r25, 0x0585
    2536:	80 e0       	ldi	r24, 0x00	; 0
    2538:	20 91 84 05 	lds	r18, 0x0584
    253c:	30 e0       	ldi	r19, 0x00	; 0
    253e:	82 2b       	or	r24, r18
    2540:	93 2b       	or	r25, r19
    2542:	99 83       	std	Y+1, r25	; 0x01
    2544:	88 83       	st	Y, r24
				}
			}
		}
	}

	timer0_control.pEnableInterrupt(TIMER8_IMR_OI);									// 使能系统中断
    2546:	e0 91 d2 07 	lds	r30, 0x07D2
    254a:	f0 91 d3 07 	lds	r31, 0x07D3
    254e:	80 e0       	ldi	r24, 0x00	; 0
    2550:	09 95       	icall

	return temp_state;
}
    2552:	81 2f       	mov	r24, r17
    2554:	df 91       	pop	r29
    2556:	cf 91       	pop	r28
    2558:	1f 91       	pop	r17
    255a:	0f 91       	pop	r16
    255c:	08 95       	ret

0000255e <ReadTtlBusWord2>:
** 修订人:
** 修订日期:
**------------------------------------------------------------------------------------------------------------------------
*************************************************************************************************************************/
static uint8 ReadTtlBusWord2(uint8 id, uint8 adress, uint16* first_word, uint16* second_word)
{
    255e:	ef 92       	push	r14
    2560:	ff 92       	push	r15
    2562:	0f 93       	push	r16
    2564:	1f 93       	push	r17
    2566:	cf 93       	push	r28
    2568:	df 93       	push	r29
    256a:	18 2f       	mov	r17, r24
    256c:	06 2f       	mov	r16, r22
    256e:	ea 01       	movw	r28, r20
    2570:	79 01       	movw	r14, r18
	uint8 temp_state = ERR_OK;
	uint8 temp_length = 0;
	uint8 count = 0;
	uint8 temp_parameter[4];

	timer0_control.pDisableInterrupt(TIMER8_IMR_OI);								// 禁止系统中断
    2572:	e0 91 d4 07 	lds	r30, 0x07D4
    2576:	f0 91 d5 07 	lds	r31, 0x07D5
    257a:	80 e0       	ldi	r24, 0x00	; 0
    257c:	09 95       	icall

	ttlbus_control.str_bsu_stack.bsu_send.device_id = id;
    257e:	10 93 93 05 	sts	0x0593, r17
	ttlbus_control.str_bsu_stack.bsu_send.instruction_byte = INST_READ;
    2582:	82 e0       	ldi	r24, 0x02	; 2
    2584:	80 93 94 05 	sts	0x0594, r24
	ttlbus_control.str_bsu_stack.bsu_send.first_address = adress;
    2588:	00 93 95 05 	sts	0x0595, r16
	ttlbus_control.str_bsu_stack.bsu_send.read_length = 0x04;
    258c:	84 e0       	ldi	r24, 0x04	; 4
    258e:	80 93 96 05 	sts	0x0596, r24

	ttlbus_control.p_uart_control->pClearReceiveBuffer();
    2592:	e0 91 4a 06 	lds	r30, 0x064A
    2596:	f0 91 4b 06 	lds	r31, 0x064B
    259a:	07 8c       	ldd	r0, Z+31	; 0x1f
    259c:	f0 a1       	ldd	r31, Z+32	; 0x20
    259e:	e0 2d       	mov	r30, r0
    25a0:	09 95       	icall

	temp_state = (bsu_control.pTxPacket)(&ttlbus_control.str_bsu_stack.bsu_send, ttlbus_control.p_uart_control);
    25a2:	60 91 4a 06 	lds	r22, 0x064A
    25a6:	70 91 4b 06 	lds	r23, 0x064B
    25aa:	e0 91 6d 06 	lds	r30, 0x066D
    25ae:	f0 91 6e 06 	lds	r31, 0x066E
    25b2:	83 e9       	ldi	r24, 0x93	; 147
    25b4:	95 e0       	ldi	r25, 0x05	; 5
    25b6:	09 95       	icall
    25b8:	18 2f       	mov	r17, r24

	if(ERR_OK == temp_state)
    25ba:	88 23       	and	r24, r24
    25bc:	a1 f5       	brne	.+104    	; 0x2626 <ReadTtlBusWord2+0xc8>
	{
		temp_state = (bsu_control.pRxPacket)(&ttlbus_control.str_bsu_stack.bsu_receive, ttlbus_control.p_uart_control);
    25be:	60 91 4a 06 	lds	r22, 0x064A
    25c2:	70 91 4b 06 	lds	r23, 0x064B
    25c6:	e0 91 6b 06 	lds	r30, 0x066B
    25ca:	f0 91 6c 06 	lds	r31, 0x066C
    25ce:	81 e8       	ldi	r24, 0x81	; 129
    25d0:	95 e0       	ldi	r25, 0x05	; 5
    25d2:	09 95       	icall
    25d4:	18 2f       	mov	r17, r24
		if(ERR_OK == temp_state)
    25d6:	88 23       	and	r24, r24
    25d8:	31 f5       	brne	.+76     	; 0x2626 <ReadTtlBusWord2+0xc8>
		{
			if(ttlbus_control.str_bsu_stack.bsu_receive.device_id == ttlbus_control.str_bsu_stack.bsu_send.device_id)
    25da:	90 91 81 05 	lds	r25, 0x0581
    25de:	80 91 93 05 	lds	r24, 0x0593
    25e2:	98 17       	cp	r25, r24
    25e4:	01 f5       	brne	.+64     	; 0x2626 <ReadTtlBusWord2+0xc8>
			{
				temp_length = ttlbus_control.str_bsu_stack.bsu_receive.parameter_length;

				if(4 == temp_length)
    25e6:	80 91 83 05 	lds	r24, 0x0583
    25ea:	84 30       	cpi	r24, 0x04	; 4
    25ec:	11 f0       	breq	.+4      	; 0x25f2 <ReadTtlBusWord2+0x94>
    25ee:	13 e0       	ldi	r17, 0x03	; 3
    25f0:	1a c0       	rjmp	.+52     	; 0x2626 <ReadTtlBusWord2+0xc8>
				{
					ttlbus_control.state = ttlbus_control.str_bsu_stack.bsu_receive.error_byte;
    25f2:	80 91 82 05 	lds	r24, 0x0582
    25f6:	80 93 6a 06 	sts	0x066A, r24

					for(count = 0; count < temp_length; count++)
					{
						temp_parameter[count] = ttlbus_control.str_bsu_stack.bsu_receive.receive_parameter[count];
    25fa:	40 91 86 05 	lds	r20, 0x0586
    25fe:	60 91 87 05 	lds	r22, 0x0587
					}

					In16(*first_word, temp_parameter[0], temp_parameter[1]);
    2602:	90 91 85 05 	lds	r25, 0x0585
    2606:	80 e0       	ldi	r24, 0x00	; 0
    2608:	20 91 84 05 	lds	r18, 0x0584
    260c:	30 e0       	ldi	r19, 0x00	; 0
    260e:	82 2b       	or	r24, r18
    2610:	93 2b       	or	r25, r19
    2612:	99 83       	std	Y+1, r25	; 0x01
    2614:	88 83       	st	Y, r24
					In16(*second_word, temp_parameter[2], temp_parameter[3]);
    2616:	96 2f       	mov	r25, r22
    2618:	80 e0       	ldi	r24, 0x00	; 0
    261a:	50 e0       	ldi	r21, 0x00	; 0
    261c:	84 2b       	or	r24, r20
    261e:	95 2b       	or	r25, r21
    2620:	f7 01       	movw	r30, r14
    2622:	91 83       	std	Z+1, r25	; 0x01
    2624:	80 83       	st	Z, r24
				}
			}
		}
	}

	timer0_control.pEnableInterrupt(TIMER8_IMR_OI);									// 使能系统中断
    2626:	e0 91 d2 07 	lds	r30, 0x07D2
    262a:	f0 91 d3 07 	lds	r31, 0x07D3
    262e:	80 e0       	ldi	r24, 0x00	; 0
    2630:	09 95       	icall

	return temp_state;
}
    2632:	81 2f       	mov	r24, r17
    2634:	df 91       	pop	r29
    2636:	cf 91       	pop	r28
    2638:	1f 91       	pop	r17
    263a:	0f 91       	pop	r16
    263c:	ff 90       	pop	r15
    263e:	ef 90       	pop	r14
    2640:	08 95       	ret

00002642 <PingTtlBus>:
** 修订人:
** 修订日期:
**------------------------------------------------------------------------------------------------------------------------
*************************************************************************************************************************/
static uint8 PingTtlBus(uint8 id, uint8* back_id)
{
    2642:	1f 93       	push	r17
    2644:	cf 93       	push	r28
    2646:	df 93       	push	r29
    2648:	18 2f       	mov	r17, r24
    264a:	eb 01       	movw	r28, r22
	uint8 temp_state = ERR_OK;

	timer0_control.pDisableInterrupt(TIMER8_IMR_OI);								// 禁止系统中断
    264c:	e0 91 d4 07 	lds	r30, 0x07D4
    2650:	f0 91 d5 07 	lds	r31, 0x07D5
    2654:	80 e0       	ldi	r24, 0x00	; 0
    2656:	09 95       	icall

	ttlbus_control.str_bsu_stack.bsu_send.device_id = id;
    2658:	10 93 93 05 	sts	0x0593, r17
	ttlbus_control.str_bsu_stack.bsu_send.instruction_byte = INST_PING;
    265c:	81 e0       	ldi	r24, 0x01	; 1
    265e:	80 93 94 05 	sts	0x0594, r24

	ttlbus_control.p_uart_control->pClearReceiveBuffer();
    2662:	e0 91 4a 06 	lds	r30, 0x064A
    2666:	f0 91 4b 06 	lds	r31, 0x064B
    266a:	07 8c       	ldd	r0, Z+31	; 0x1f
    266c:	f0 a1       	ldd	r31, Z+32	; 0x20
    266e:	e0 2d       	mov	r30, r0
    2670:	09 95       	icall

	temp_state = (bsu_control.pTxPacket)(&ttlbus_control.str_bsu_stack.bsu_send, ttlbus_control.p_uart_control);
    2672:	60 91 4a 06 	lds	r22, 0x064A
    2676:	70 91 4b 06 	lds	r23, 0x064B
    267a:	e0 91 6d 06 	lds	r30, 0x066D
    267e:	f0 91 6e 06 	lds	r31, 0x066E
    2682:	83 e9       	ldi	r24, 0x93	; 147
    2684:	95 e0       	ldi	r25, 0x05	; 5
    2686:	09 95       	icall
    2688:	18 2f       	mov	r17, r24

	if(ERR_OK == temp_state)
    268a:	88 23       	and	r24, r24
    268c:	a9 f4       	brne	.+42     	; 0x26b8 <PingTtlBus+0x76>
	{
		temp_state = (bsu_control.pRxPacket)(&ttlbus_control.str_bsu_stack.bsu_receive, ttlbus_control.p_uart_control);
    268e:	60 91 4a 06 	lds	r22, 0x064A
    2692:	70 91 4b 06 	lds	r23, 0x064B
    2696:	e0 91 6b 06 	lds	r30, 0x066B
    269a:	f0 91 6c 06 	lds	r31, 0x066C
    269e:	81 e8       	ldi	r24, 0x81	; 129
    26a0:	95 e0       	ldi	r25, 0x05	; 5
    26a2:	09 95       	icall
    26a4:	18 2f       	mov	r17, r24
		if(ERR_OK == temp_state)
    26a6:	88 23       	and	r24, r24
    26a8:	39 f4       	brne	.+14     	; 0x26b8 <PingTtlBus+0x76>
		{
			*back_id = ttlbus_control.str_bsu_stack.bsu_receive.device_id;
    26aa:	80 91 81 05 	lds	r24, 0x0581
    26ae:	88 83       	st	Y, r24
			ttlbus_control.state = ttlbus_control.str_bsu_stack.bsu_receive.error_byte;
    26b0:	80 91 82 05 	lds	r24, 0x0582
    26b4:	80 93 6a 06 	sts	0x066A, r24
			temp_state = ERR_OK;
		}
	}

	timer0_control.pEnableInterrupt(TIMER8_IMR_OI);									// 使能系统中断
    26b8:	e0 91 d2 07 	lds	r30, 0x07D2
    26bc:	f0 91 d3 07 	lds	r31, 0x07D3
    26c0:	80 e0       	ldi	r24, 0x00	; 0
    26c2:	09 95       	icall

	return temp_state;
}
    26c4:	81 2f       	mov	r24, r17
    26c6:	df 91       	pop	r29
    26c8:	cf 91       	pop	r28
    26ca:	1f 91       	pop	r17
    26cc:	08 95       	ret

000026ce <InitTtlBusSync>:
** 修订日期:
**------------------------------------------------------------------------------------------------------------------------
*************************************************************************************************************************/
static uint8 InitTtlBusSync(uint8* p_mapping, uint8 amount)
{
	if (amount > 32)
    26ce:	61 32       	cpi	r22, 0x21	; 33
    26d0:	10 f0       	brcs	.+4      	; 0x26d6 <InitTtlBusSync+0x8>
    26d2:	80 e0       	ldi	r24, 0x00	; 0
    26d4:	08 95       	ret
	{
		return FALSE;
	}

	ttlbus_control.p_device_mapping = p_mapping;
    26d6:	90 93 4d 06 	sts	0x064D, r25
    26da:	80 93 4c 06 	sts	0x064C, r24
	ttlbus_control.str_bsu_sync.update_amount = 0;
    26de:	10 92 a7 05 	sts	0x05A7, r1
	ttlbus_control.device_amount = amount;
    26e2:	60 93 4e 06 	sts	0x064E, r22
	ttlbus_control.sync_update_state = TRUE;				// TRUE时允许访问Control命令
    26e6:	81 e0       	ldi	r24, 0x01	; 1
    26e8:	80 93 4f 06 	sts	0x064F, r24

	return TRUE;
}
    26ec:	08 95       	ret

000026ee <TxBsuSyncPacket>:
** 修订人:
** 修订日期:
**------------------------------------------------------------------------------------------------------------------------
*************************************************************************************************************************/
static uint8 TxBsuSyncPacket(BSU_SYNC_SEND_STRUCT* p_sync_send, const uint8* p_id_mapping, UART_CONTROL_STRUCT* p_uart_control)
{
    26ee:	6f 92       	push	r6
    26f0:	7f 92       	push	r7
    26f2:	8f 92       	push	r8
    26f4:	9f 92       	push	r9
    26f6:	bf 92       	push	r11
    26f8:	cf 92       	push	r12
    26fa:	df 92       	push	r13
    26fc:	ef 92       	push	r14
    26fe:	ff 92       	push	r15
    2700:	0f 93       	push	r16
    2702:	1f 93       	push	r17
    2704:	df 93       	push	r29
    2706:	cf 93       	push	r28
    2708:	0f 92       	push	r0
    270a:	cd b7       	in	r28, 0x3d	; 61
    270c:	de b7       	in	r29, 0x3e	; 62
    270e:	3c 01       	movw	r6, r24
    2710:	4b 01       	movw	r8, r22
    2712:	6a 01       	movw	r12, r20

	uint8 temp_value = 0;
	uint8 check_sum = 0;


	if (0 == p_sync_send->update_amount)											// 清除更新标志
    2714:	dc 01       	movw	r26, r24
    2716:	8c 91       	ld	r24, X
    2718:	88 23       	and	r24, r24
    271a:	11 f4       	brne	.+4      	; 0x2720 <TxBsuSyncPacket+0x32>
    271c:	83 e0       	ldi	r24, 0x03	; 3
    271e:	88 c0       	rjmp	.+272    	; 0x2830 <TxBsuSyncPacket+0x142>
	{
		return ERR_VALUE;
	}

	(p_uart_control->pWriteTxBuffer)(BSU_START1);									// 开始位1、2
    2720:	da 01       	movw	r26, r20
    2722:	59 96       	adiw	r26, 0x19	; 25
    2724:	ed 91       	ld	r30, X+
    2726:	fc 91       	ld	r31, X
    2728:	5a 97       	sbiw	r26, 0x1a	; 26
    272a:	8f ef       	ldi	r24, 0xFF	; 255
    272c:	09 95       	icall
	(p_uart_control->pWriteTxBuffer)(BSU_START2);
    272e:	d6 01       	movw	r26, r12
    2730:	59 96       	adiw	r26, 0x19	; 25
    2732:	ed 91       	ld	r30, X+
    2734:	fc 91       	ld	r31, X
    2736:	5a 97       	sbiw	r26, 0x1a	; 26
    2738:	8f ef       	ldi	r24, 0xFF	; 255
    273a:	09 95       	icall
	(p_uart_control->pWriteTxBuffer)(BSU_BROADCASTING_ID);							// 设备ID
    273c:	d6 01       	movw	r26, r12
    273e:	59 96       	adiw	r26, 0x19	; 25
    2740:	ed 91       	ld	r30, X+
    2742:	fc 91       	ld	r31, X
    2744:	5a 97       	sbiw	r26, 0x1a	; 26
    2746:	8e ef       	ldi	r24, 0xFE	; 254
    2748:	09 95       	icall

	check_sum = BSU_BROADCASTING_ID;

	temp_value = ((p_sync_send->parameter_length + 1) *  p_sync_send->update_amount) + 4;
    274a:	f3 01       	movw	r30, r6
    274c:	12 a1       	ldd	r17, Z+34	; 0x22
    274e:	1f 5f       	subi	r17, 0xFF	; 255
    2750:	80 81       	ld	r24, Z
    2752:	18 9f       	mul	r17, r24
    2754:	10 2d       	mov	r17, r0
    2756:	11 24       	eor	r1, r1
    2758:	1c 5f       	subi	r17, 0xFC	; 252

	(p_uart_control->pWriteTxBuffer)(temp_value);									// 数据长度
    275a:	d6 01       	movw	r26, r12
    275c:	59 96       	adiw	r26, 0x19	; 25
    275e:	ed 91       	ld	r30, X+
    2760:	fc 91       	ld	r31, X
    2762:	5a 97       	sbiw	r26, 0x1a	; 26
    2764:	81 2f       	mov	r24, r17
    2766:	09 95       	icall

	check_sum += temp_value;

	(p_uart_control->pWriteTxBuffer)(INST_SYNC_WRITE);								// 控制字
    2768:	d6 01       	movw	r26, r12
    276a:	59 96       	adiw	r26, 0x19	; 25
    276c:	ed 91       	ld	r30, X+
    276e:	fc 91       	ld	r31, X
    2770:	5a 97       	sbiw	r26, 0x1a	; 26
    2772:	83 e8       	ldi	r24, 0x83	; 131
    2774:	09 95       	icall

	check_sum += INST_SYNC_WRITE;

	(p_uart_control->pWriteTxBuffer)(p_sync_send->first_address);					// 寄存器首地址
    2776:	d6 01       	movw	r26, r12
    2778:	59 96       	adiw	r26, 0x19	; 25
    277a:	ed 91       	ld	r30, X+
    277c:	fc 91       	ld	r31, X
    277e:	5a 97       	sbiw	r26, 0x1a	; 26
    2780:	d3 01       	movw	r26, r6
    2782:	91 96       	adiw	r26, 0x21	; 33
    2784:	8c 91       	ld	r24, X
    2786:	09 95       	icall

	check_sum += p_sync_send->first_address;
    2788:	f3 01       	movw	r30, r6
    278a:	01 a1       	ldd	r16, Z+33	; 0x21

	(p_uart_control->pWriteTxBuffer)(p_sync_send->parameter_length);				// 同步控制的参数个数
    278c:	d6 01       	movw	r26, r12
    278e:	59 96       	adiw	r26, 0x19	; 25
    2790:	ed 91       	ld	r30, X+
    2792:	fc 91       	ld	r31, X
    2794:	5a 97       	sbiw	r26, 0x1a	; 26
    2796:	d3 01       	movw	r26, r6
    2798:	92 96       	adiw	r26, 0x22	; 34
    279a:	8c 91       	ld	r24, X
    279c:	09 95       	icall

	check_sum += temp_value;

	(p_uart_control->pWriteTxBuffer)(INST_SYNC_WRITE);								// 控制字

	check_sum += INST_SYNC_WRITE;
    279e:	f3 01       	movw	r30, r6
    27a0:	82 a1       	ldd	r24, Z+34	; 0x22
    27a2:	08 0f       	add	r16, r24

	(p_uart_control->pWriteTxBuffer)(p_sync_send->first_address);					// 寄存器首地址

	check_sum += p_sync_send->first_address;
    27a4:	0f 57       	subi	r16, 0x7F	; 127

	(p_uart_control->pWriteTxBuffer)(p_sync_send->parameter_length);				// 同步控制的参数个数

	check_sum += p_sync_send->parameter_length;
    27a6:	01 0f       	add	r16, r17
    27a8:	bb 24       	eor	r11, r11
    27aa:	2e c0       	rjmp	.+92     	; 0x2808 <TxBsuSyncPacket+0x11a>

	for (id_count = 0; id_count < (p_sync_send->update_amount); id_count++)
	{
		temp_value = *(p_id_mapping + p_sync_send->update_mapping[id_count]);
    27ac:	f3 01       	movw	r30, r6
    27ae:	eb 0d       	add	r30, r11
    27b0:	f1 1d       	adc	r31, r1
    27b2:	7f 01       	movw	r14, r30
    27b4:	08 94       	sec
    27b6:	e1 1c       	adc	r14, r1
    27b8:	f1 1c       	adc	r15, r1
    27ba:	81 81       	ldd	r24, Z+1	; 0x01
    27bc:	f4 01       	movw	r30, r8
    27be:	e8 0f       	add	r30, r24
    27c0:	f1 1d       	adc	r31, r1
    27c2:	10 81       	ld	r17, Z
		(p_uart_control->pWriteTxBuffer)(temp_value);								// ID
    27c4:	81 2f       	mov	r24, r17
    27c6:	f9 01       	movw	r30, r18
    27c8:	09 95       	icall
		check_sum += temp_value;
    27ca:	01 0f       	add	r16, r17
    27cc:	90 e0       	ldi	r25, 0x00	; 0
    27ce:	17 c0       	rjmp	.+46     	; 0x27fe <TxBsuSyncPacket+0x110>

		for (parameter_count = 0; parameter_count < (p_sync_send->parameter_length); parameter_count++)
		{
			temp_value = p_sync_send->write_parameter[p_sync_send->update_mapping[id_count]][parameter_count];
    27d0:	d7 01       	movw	r26, r14
    27d2:	ec 91       	ld	r30, X
    27d4:	f0 e0       	ldi	r31, 0x00	; 0
    27d6:	ee 0f       	add	r30, r30
    27d8:	ff 1f       	adc	r31, r31
    27da:	ee 0f       	add	r30, r30
    27dc:	ff 1f       	adc	r31, r31
    27de:	e6 0d       	add	r30, r6
    27e0:	f7 1d       	adc	r31, r7
    27e2:	e9 0f       	add	r30, r25
    27e4:	f1 1d       	adc	r31, r1
    27e6:	13 a1       	ldd	r17, Z+35	; 0x23
			(p_uart_control->pWriteTxBuffer)(temp_value);							// 参数
    27e8:	d6 01       	movw	r26, r12
    27ea:	59 96       	adiw	r26, 0x19	; 25
    27ec:	ed 91       	ld	r30, X+
    27ee:	fc 91       	ld	r31, X
    27f0:	5a 97       	sbiw	r26, 0x1a	; 26
    27f2:	81 2f       	mov	r24, r17
    27f4:	99 83       	std	Y+1, r25	; 0x01
    27f6:	09 95       	icall
			check_sum += temp_value;
    27f8:	01 0f       	add	r16, r17
	{
		temp_value = *(p_id_mapping + p_sync_send->update_mapping[id_count]);
		(p_uart_control->pWriteTxBuffer)(temp_value);								// ID
		check_sum += temp_value;

		for (parameter_count = 0; parameter_count < (p_sync_send->parameter_length); parameter_count++)
    27fa:	99 81       	ldd	r25, Y+1	; 0x01
    27fc:	9f 5f       	subi	r25, 0xFF	; 255
    27fe:	f3 01       	movw	r30, r6
    2800:	82 a1       	ldd	r24, Z+34	; 0x22
    2802:	98 17       	cp	r25, r24
    2804:	28 f3       	brcs	.-54     	; 0x27d0 <TxBsuSyncPacket+0xe2>

	(p_uart_control->pWriteTxBuffer)(p_sync_send->parameter_length);				// 同步控制的参数个数

	check_sum += p_sync_send->parameter_length;

	for (id_count = 0; id_count < (p_sync_send->update_amount); id_count++)
    2806:	b3 94       	inc	r11
    2808:	d3 01       	movw	r26, r6
    280a:	8c 91       	ld	r24, X
    280c:	f6 01       	movw	r30, r12
    280e:	21 8d       	ldd	r18, Z+25	; 0x19
    2810:	32 8d       	ldd	r19, Z+26	; 0x1a
    2812:	b8 16       	cp	r11, r24
    2814:	58 f2       	brcs	.-106    	; 0x27ac <TxBsuSyncPacket+0xbe>
		}
	}

	check_sum = ~check_sum;															// 校验和计算

	(p_uart_control->pWriteTxBuffer)(check_sum);									// 校验和
    2816:	80 2f       	mov	r24, r16
    2818:	80 95       	com	r24
    281a:	f9 01       	movw	r30, r18
    281c:	09 95       	icall

	p_sync_send->update_amount = 0;													// 清除更新标志
    281e:	d3 01       	movw	r26, r6
    2820:	1c 92       	st	X, r1

	(p_uart_control->pSendTxBuffer)();												// 发送缓冲数据
    2822:	d6 01       	movw	r26, r12
    2824:	5b 96       	adiw	r26, 0x1b	; 27
    2826:	ed 91       	ld	r30, X+
    2828:	fc 91       	ld	r31, X
    282a:	5c 97       	sbiw	r26, 0x1c	; 28
    282c:	09 95       	icall
    282e:	80 e0       	ldi	r24, 0x00	; 0

	return ERR_OK;
}
    2830:	0f 90       	pop	r0
    2832:	cf 91       	pop	r28
    2834:	df 91       	pop	r29
    2836:	1f 91       	pop	r17
    2838:	0f 91       	pop	r16
    283a:	ff 90       	pop	r15
    283c:	ef 90       	pop	r14
    283e:	df 90       	pop	r13
    2840:	cf 90       	pop	r12
    2842:	bf 90       	pop	r11
    2844:	9f 90       	pop	r9
    2846:	8f 90       	pop	r8
    2848:	7f 90       	pop	r7
    284a:	6f 90       	pop	r6
    284c:	08 95       	ret

0000284e <RxBsuPacket>:
** 修订人:
** 修订日期:
**------------------------------------------------------------------------------------------------------------------------
*************************************************************************************************************************/
static uint8 RxBsuPacket(BSU_RECEIVE_STRUCT *p_bsu_receive, UART_CONTROL_STRUCT* p_uart_control)
{
    284e:	8f 92       	push	r8
    2850:	9f 92       	push	r9
    2852:	af 92       	push	r10
    2854:	bf 92       	push	r11
    2856:	df 92       	push	r13
    2858:	ef 92       	push	r14
    285a:	ff 92       	push	r15
    285c:	0f 93       	push	r16
    285e:	1f 93       	push	r17
    2860:	df 93       	push	r29
    2862:	cf 93       	push	r28
    2864:	0f 92       	push	r0
    2866:	cd b7       	in	r28, 0x3d	; 61
    2868:	de b7       	in	r29, 0x3e	; 62
    286a:	7c 01       	movw	r14, r24
    286c:	5b 01       	movw	r10, r22
	#define BSU_RX_TIMEOUT_COUNT 		700							// 最长等待1ms
	
	uint8 count = 0;												// 循环次数计数器
	uint32 timeout_count = 0;										// 等待超时计数器
	
	uint8 temp_buffer = 0;											// 数据缓存
    286e:	19 82       	std	Y+1, r1	; 0x01
    2870:	dd 24       	eor	r13, r13
    2872:	d3 94       	inc	r13
				return ERR_OVERFLOW;
			}
		}
		
//		cli();
		p_uart_control->pReceiveByte(&temp_buffer);
    2874:	4e 01       	movw	r8, r28
    2876:	08 94       	sec
    2878:	81 1c       	adc	r8, r1
    287a:	91 1c       	adc	r9, r1
    287c:	08 c0       	rjmp	.+16     	; 0x288e <RxBsuPacket+0x40>
	#define BSU_RX_TIMEOUT_COUNT 		700							// 最长等待1ms
	
	uint8 count = 0;												// 循环次数计数器
	uint32 timeout_count = 0;										// 等待超时计数器
	
	uint8 temp_buffer = 0;											// 数据缓存
    287e:	0f 5f       	subi	r16, 0xFF	; 255
    2880:	1f 4f       	sbci	r17, 0xFF	; 255
		timeout_count = 0;
		
		while(!p_uart_control->pTestReceiveBuffer())		// 如果接收数据不成功(FALSE)则开始计时
		{
			timeout_count++;
			if(timeout_count > BSU_RX_TIMEOUT_COUNT)
    2882:	82 e0       	ldi	r24, 0x02	; 2
    2884:	0d 3b       	cpi	r16, 0xBD	; 189
    2886:	18 07       	cpc	r17, r24
    2888:	21 f4       	brne	.+8      	; 0x2892 <RxBsuPacket+0x44>
    288a:	84 e0       	ldi	r24, 0x04	; 4
    288c:	68 c0       	rjmp	.+208    	; 0x295e <RxBsuPacket+0x110>
    288e:	00 e0       	ldi	r16, 0x00	; 0
    2890:	10 e0       	ldi	r17, 0x00	; 0
	
	for(count = 1; count <= (BSU_MAX_PARAMETER_LENGTH + 6); count++)
	{
		timeout_count = 0;
		
		while(!p_uart_control->pTestReceiveBuffer())		// 如果接收数据不成功(FALSE)则开始计时
    2892:	d5 01       	movw	r26, r10
    2894:	5d 96       	adiw	r26, 0x1d	; 29
    2896:	ed 91       	ld	r30, X+
    2898:	fc 91       	ld	r31, X
    289a:	5e 97       	sbiw	r26, 0x1e	; 30
    289c:	09 95       	icall
    289e:	88 23       	and	r24, r24
    28a0:	71 f3       	breq	.-36     	; 0x287e <RxBsuPacket+0x30>
				return ERR_OVERFLOW;
			}
		}
		
//		cli();
		p_uart_control->pReceiveByte(&temp_buffer);
    28a2:	d5 01       	movw	r26, r10
    28a4:	57 96       	adiw	r26, 0x17	; 23
    28a6:	ed 91       	ld	r30, X+
    28a8:	fc 91       	ld	r31, X
    28aa:	58 97       	sbiw	r26, 0x18	; 24
    28ac:	c4 01       	movw	r24, r8
    28ae:	09 95       	icall
//		sei();

		switch(count)
    28b0:	b3 e0       	ldi	r27, 0x03	; 3
    28b2:	db 16       	cp	r13, r27
    28b4:	a1 f0       	breq	.+40     	; 0x28de <RxBsuPacket+0x90>
    28b6:	bd 15       	cp	r27, r13
    28b8:	38 f0       	brcs	.+14     	; 0x28c8 <RxBsuPacket+0x7a>
    28ba:	e1 e0       	ldi	r30, 0x01	; 1
    28bc:	de 16       	cp	r13, r30
    28be:	59 f0       	breq	.+22     	; 0x28d6 <RxBsuPacket+0x88>
    28c0:	f2 e0       	ldi	r31, 0x02	; 2
    28c2:	df 16       	cp	r13, r31
    28c4:	e1 f4       	brne	.+56     	; 0x28fe <RxBsuPacket+0xb0>
    28c6:	07 c0       	rjmp	.+14     	; 0x28d6 <RxBsuPacket+0x88>
    28c8:	84 e0       	ldi	r24, 0x04	; 4
    28ca:	d8 16       	cp	r13, r24
    28cc:	59 f0       	breq	.+22     	; 0x28e4 <RxBsuPacket+0x96>
    28ce:	a5 e0       	ldi	r26, 0x05	; 5
    28d0:	da 16       	cp	r13, r26
    28d2:	a9 f4       	brne	.+42     	; 0x28fe <RxBsuPacket+0xb0>
    28d4:	10 c0       	rjmp	.+32     	; 0x28f6 <RxBsuPacket+0xa8>
				}
				break;
			}
			case 2:													// 匹配启动字2
			{		
				if(BSU_START2 != temp_buffer)
    28d6:	89 81       	ldd	r24, Y+1	; 0x01
    28d8:	8f 3f       	cpi	r24, 0xFF	; 255
    28da:	d1 f5       	brne	.+116    	; 0x2950 <RxBsuPacket+0x102>
    28dc:	3a c0       	rjmp	.+116    	; 0x2952 <RxBsuPacket+0x104>
				}
				break;
			}
			case 3:													// 设备ID号
			{
				p_bsu_receive -> device_id = temp_buffer;
    28de:	89 81       	ldd	r24, Y+1	; 0x01
    28e0:	f7 01       	movw	r30, r14
    28e2:	1c c0       	rjmp	.+56     	; 0x291c <RxBsuPacket+0xce>
				break;
			}
			case 4:													// 数据包长度
			{
				p_bsu_receive -> parameter_length = temp_buffer - 2;
    28e4:	89 81       	ldd	r24, Y+1	; 0x01
    28e6:	82 50       	subi	r24, 0x02	; 2
    28e8:	d7 01       	movw	r26, r14
    28ea:	12 96       	adiw	r26, 0x02	; 2
    28ec:	8c 93       	st	X, r24
				
				if(BSU_MAX_PARAMETER_LENGTH < p_bsu_receive -> parameter_length)
    28ee:	80 31       	cpi	r24, 0x10	; 16
    28f0:	80 f1       	brcs	.+96     	; 0x2952 <RxBsuPacket+0x104>
    28f2:	82 e0       	ldi	r24, 0x02	; 2
    28f4:	34 c0       	rjmp	.+104    	; 0x295e <RxBsuPacket+0x110>
				
				break;
			}
			case 5:													// 错误状态字
			{
				p_bsu_receive -> error_byte = temp_buffer;
    28f6:	89 81       	ldd	r24, Y+1	; 0x01
    28f8:	f7 01       	movw	r30, r14
    28fa:	81 83       	std	Z+1, r24	; 0x01
    28fc:	2a c0       	rjmp	.+84     	; 0x2952 <RxBsuPacket+0x104>
				break;
			}
			default:
			{
				if(count < (6 + p_bsu_receive -> parameter_length))
    28fe:	d7 01       	movw	r26, r14
    2900:	12 96       	adiw	r26, 0x02	; 2
    2902:	3c 91       	ld	r19, X
    2904:	ed 2d       	mov	r30, r13
    2906:	f0 e0       	ldi	r31, 0x00	; 0
    2908:	83 2f       	mov	r24, r19
    290a:	90 e0       	ldi	r25, 0x00	; 0
    290c:	05 96       	adiw	r24, 0x05	; 5
    290e:	8e 17       	cp	r24, r30
    2910:	9f 07       	cpc	r25, r31
    2912:	34 f0       	brlt	.+12     	; 0x2920 <RxBsuPacket+0xd2>
				{
					p_bsu_receive -> receive_parameter[count - 6] = temp_buffer;
    2914:	ee 0d       	add	r30, r14
    2916:	ff 1d       	adc	r31, r15
    2918:	33 97       	sbiw	r30, 0x03	; 3
    291a:	89 81       	ldd	r24, Y+1	; 0x01
    291c:	80 83       	st	Z, r24
    291e:	19 c0       	rjmp	.+50     	; 0x2952 <RxBsuPacket+0x104>
				}
				else
				{
					check_sum = p_bsu_receive -> device_id;			// 计算检验和
					check_sum += (p_bsu_receive -> parameter_length + 2);
    2920:	f7 01       	movw	r30, r14
    2922:	90 81       	ld	r25, Z
    2924:	81 81       	ldd	r24, Z+1	; 0x01
    2926:	98 0f       	add	r25, r24
    2928:	9e 5f       	subi	r25, 0xFE	; 254
					check_sum += p_bsu_receive -> error_byte;
    292a:	93 0f       	add	r25, r19
    292c:	20 e0       	ldi	r18, 0x00	; 0
    292e:	06 c0       	rjmp	.+12     	; 0x293c <RxBsuPacket+0xee>
					for(check_sum_count = 0; check_sum_count < (p_bsu_receive -> parameter_length); check_sum_count++)
					{
						check_sum += p_bsu_receive -> receive_parameter[check_sum_count];
    2930:	f7 01       	movw	r30, r14
    2932:	e2 0f       	add	r30, r18
    2934:	f1 1d       	adc	r31, r1
    2936:	83 81       	ldd	r24, Z+3	; 0x03
    2938:	98 0f       	add	r25, r24
				else
				{
					check_sum = p_bsu_receive -> device_id;			// 计算检验和
					check_sum += (p_bsu_receive -> parameter_length + 2);
					check_sum += p_bsu_receive -> error_byte;
					for(check_sum_count = 0; check_sum_count < (p_bsu_receive -> parameter_length); check_sum_count++)
    293a:	2f 5f       	subi	r18, 0xFF	; 255
    293c:	23 17       	cp	r18, r19
    293e:	c0 f3       	brcs	.-16     	; 0x2930 <RxBsuPacket+0xe2>
					{
						check_sum += p_bsu_receive -> receive_parameter[check_sum_count];
					}
					check_sum = ~check_sum;
					if(check_sum != temp_buffer)
    2940:	90 95       	com	r25
    2942:	89 81       	ldd	r24, Y+1	; 0x01
    2944:	98 17       	cp	r25, r24
    2946:	11 f4       	brne	.+4      	; 0x294c <RxBsuPacket+0xfe>
    2948:	80 e0       	ldi	r24, 0x00	; 0
    294a:	09 c0       	rjmp	.+18     	; 0x295e <RxBsuPacket+0x110>
    294c:	84 e1       	ldi	r24, 0x14	; 20
    294e:	07 c0       	rjmp	.+14     	; 0x295e <RxBsuPacket+0x110>
    2950:	dd 24       	eor	r13, r13
	
	uint8 temp_buffer = 0;											// 数据缓存
	uint8 check_sum = 0;
	uint8 check_sum_count = 0;
	
	for(count = 1; count <= (BSU_MAX_PARAMETER_LENGTH + 6); count++)
    2952:	d3 94       	inc	r13
    2954:	f5 e1       	ldi	r31, 0x15	; 21
    2956:	fd 15       	cp	r31, r13
    2958:	08 f0       	brcs	.+2      	; 0x295c <RxBsuPacket+0x10e>
    295a:	99 cf       	rjmp	.-206    	; 0x288e <RxBsuPacket+0x40>
    295c:	85 e0       	ldi	r24, 0x05	; 5
				break;
			}
		}
	}
	return ERR_MATH;
}
    295e:	0f 90       	pop	r0
    2960:	cf 91       	pop	r28
    2962:	df 91       	pop	r29
    2964:	1f 91       	pop	r17
    2966:	0f 91       	pop	r16
    2968:	ff 90       	pop	r15
    296a:	ef 90       	pop	r14
    296c:	df 90       	pop	r13
    296e:	bf 90       	pop	r11
    2970:	af 90       	pop	r10
    2972:	9f 90       	pop	r9
    2974:	8f 90       	pop	r8
    2976:	08 95       	ret

00002978 <TxBsuPacket>:
** 修订人:              
** 修订日期:            
**------------------------------------------------------------------------------------------------------------------------
*************************************************************************************************************************/
static uint8 TxBsuPacket(BSU_SEND_STRUCT* p_bsu_send, UART_CONTROL_STRUCT* p_uart_control)
{
    2978:	af 92       	push	r10
    297a:	bf 92       	push	r11
    297c:	cf 92       	push	r12
    297e:	df 92       	push	r13
    2980:	ef 92       	push	r14
    2982:	ff 92       	push	r15
    2984:	0f 93       	push	r16
    2986:	1f 93       	push	r17
    2988:	df 93       	push	r29
    298a:	cf 93       	push	r28
    298c:	0f 92       	push	r0
    298e:	cd b7       	in	r28, 0x3d	; 61
    2990:	de b7       	in	r29, 0x3e	; 62
    2992:	5c 01       	movw	r10, r24
    2994:	8b 01       	movw	r16, r22
	uint8 count = 0;
	uint8 check_sum = 0;
	
	(p_uart_control->pWriteTxBuffer)(BSU_START1);											// 开始位1、2
    2996:	db 01       	movw	r26, r22
    2998:	59 96       	adiw	r26, 0x19	; 25
    299a:	ed 91       	ld	r30, X+
    299c:	fc 91       	ld	r31, X
    299e:	5a 97       	sbiw	r26, 0x1a	; 26
    29a0:	8f ef       	ldi	r24, 0xFF	; 255
    29a2:	09 95       	icall
	(p_uart_control->pWriteTxBuffer)(BSU_START2);
    29a4:	d8 01       	movw	r26, r16
    29a6:	59 96       	adiw	r26, 0x19	; 25
    29a8:	ed 91       	ld	r30, X+
    29aa:	fc 91       	ld	r31, X
    29ac:	5a 97       	sbiw	r26, 0x1a	; 26
    29ae:	8f ef       	ldi	r24, 0xFF	; 255
    29b0:	09 95       	icall
	(p_uart_control->pWriteTxBuffer)(p_bsu_send->device_id);								// 设备ID
    29b2:	d8 01       	movw	r26, r16
    29b4:	59 96       	adiw	r26, 0x19	; 25
    29b6:	ed 91       	ld	r30, X+
    29b8:	fc 91       	ld	r31, X
    29ba:	5a 97       	sbiw	r26, 0x1a	; 26
    29bc:	d5 01       	movw	r26, r10
    29be:	8c 91       	ld	r24, X
    29c0:	09 95       	icall
	
	switch (p_bsu_send->instruction_byte)
    29c2:	f5 01       	movw	r30, r10
    29c4:	81 81       	ldd	r24, Z+1	; 0x01
    29c6:	83 30       	cpi	r24, 0x03	; 3
    29c8:	e1 f1       	breq	.+120    	; 0x2a42 <TxBsuPacket+0xca>
    29ca:	84 30       	cpi	r24, 0x04	; 4
    29cc:	30 f4       	brcc	.+12     	; 0x29da <TxBsuPacket+0x62>
    29ce:	81 30       	cpi	r24, 0x01	; 1
    29d0:	09 f4       	brne	.+2      	; 0x29d4 <TxBsuPacket+0x5c>
    29d2:	c5 c0       	rjmp	.+394    	; 0x2b5e <TxBsuPacket+0x1e6>
    29d4:	82 30       	cpi	r24, 0x02	; 2
    29d6:	39 f4       	brne	.+14     	; 0x29e6 <TxBsuPacket+0x6e>
    29d8:	08 c0       	rjmp	.+16     	; 0x29ea <TxBsuPacket+0x72>
    29da:	84 30       	cpi	r24, 0x04	; 4
    29dc:	09 f4       	brne	.+2      	; 0x29e0 <TxBsuPacket+0x68>
    29de:	75 c0       	rjmp	.+234    	; 0x2aca <TxBsuPacket+0x152>
    29e0:	85 30       	cpi	r24, 0x05	; 5
    29e2:	09 f4       	brne	.+2      	; 0x29e6 <TxBsuPacket+0x6e>
    29e4:	bc c0       	rjmp	.+376    	; 0x2b5e <TxBsuPacket+0x1e6>
    29e6:	83 e0       	ldi	r24, 0x03	; 3
    29e8:	dd c0       	rjmp	.+442    	; 0x2ba4 <TxBsuPacket+0x22c>
			
			break;
		}
		case INST_READ:
		{
			(p_uart_control->pWriteTxBuffer)(0x04);											// 读取操作时，数据长度为4，不会变化
    29ea:	d8 01       	movw	r26, r16
    29ec:	59 96       	adiw	r26, 0x19	; 25
    29ee:	ed 91       	ld	r30, X+
    29f0:	fc 91       	ld	r31, X
    29f2:	5a 97       	sbiw	r26, 0x1a	; 26
    29f4:	84 e0       	ldi	r24, 0x04	; 4
    29f6:	09 95       	icall
			(p_uart_control->pWriteTxBuffer)(p_bsu_send->instruction_byte);
    29f8:	d8 01       	movw	r26, r16
    29fa:	59 96       	adiw	r26, 0x19	; 25
    29fc:	ed 91       	ld	r30, X+
    29fe:	fc 91       	ld	r31, X
    2a00:	5a 97       	sbiw	r26, 0x1a	; 26
    2a02:	d5 01       	movw	r26, r10
    2a04:	11 96       	adiw	r26, 0x01	; 1
    2a06:	8c 91       	ld	r24, X
    2a08:	09 95       	icall
			(p_uart_control->pWriteTxBuffer)(p_bsu_send->first_address);					// 寄存器首地址
    2a0a:	d8 01       	movw	r26, r16
    2a0c:	59 96       	adiw	r26, 0x19	; 25
    2a0e:	ed 91       	ld	r30, X+
    2a10:	fc 91       	ld	r31, X
    2a12:	5a 97       	sbiw	r26, 0x1a	; 26
    2a14:	d5 01       	movw	r26, r10
    2a16:	12 96       	adiw	r26, 0x02	; 2
    2a18:	8c 91       	ld	r24, X
    2a1a:	09 95       	icall
			(p_uart_control->pWriteTxBuffer)(p_bsu_send->read_length);						// 要读取的数据长度
    2a1c:	d8 01       	movw	r26, r16
    2a1e:	59 96       	adiw	r26, 0x19	; 25
    2a20:	ed 91       	ld	r30, X+
    2a22:	fc 91       	ld	r31, X
    2a24:	5a 97       	sbiw	r26, 0x1a	; 26
    2a26:	d5 01       	movw	r26, r10
    2a28:	13 96       	adiw	r26, 0x03	; 3
    2a2a:	8c 91       	ld	r24, X
    2a2c:	09 95       	icall
			
			check_sum = p_bsu_send->device_id;
    2a2e:	f5 01       	movw	r30, r10
    2a30:	80 81       	ld	r24, Z
			check_sum += 0x04;
    2a32:	91 81       	ldd	r25, Z+1	; 0x01
    2a34:	89 0f       	add	r24, r25
			check_sum += p_bsu_send->instruction_byte;
    2a36:	8c 5f       	subi	r24, 0xFC	; 252
			check_sum += p_bsu_send->first_address;
    2a38:	92 81       	ldd	r25, Z+2	; 0x02
    2a3a:	89 0f       	add	r24, r25
			check_sum += p_bsu_send->read_length;
    2a3c:	93 81       	ldd	r25, Z+3	; 0x03
    2a3e:	89 0f       	add	r24, r25
    2a40:	a3 c0       	rjmp	.+326    	; 0x2b88 <TxBsuPacket+0x210>
			
			break;
		}
		case INST_WRITE:
		{
			(p_uart_control->pWriteTxBuffer)(p_bsu_send->parameter_length + 3);				// 数据长度
    2a42:	f5 01       	movw	r30, r10
    2a44:	84 81       	ldd	r24, Z+4	; 0x04
    2a46:	d8 01       	movw	r26, r16
    2a48:	59 96       	adiw	r26, 0x19	; 25
    2a4a:	ed 91       	ld	r30, X+
    2a4c:	fc 91       	ld	r31, X
    2a4e:	5a 97       	sbiw	r26, 0x1a	; 26
    2a50:	8d 5f       	subi	r24, 0xFD	; 253
    2a52:	09 95       	icall

			(p_uart_control->pWriteTxBuffer)(p_bsu_send->instruction_byte);					// 控制字
    2a54:	d8 01       	movw	r26, r16
    2a56:	59 96       	adiw	r26, 0x19	; 25
    2a58:	ed 91       	ld	r30, X+
    2a5a:	fc 91       	ld	r31, X
    2a5c:	5a 97       	sbiw	r26, 0x1a	; 26
    2a5e:	d5 01       	movw	r26, r10
    2a60:	11 96       	adiw	r26, 0x01	; 1
    2a62:	8c 91       	ld	r24, X
    2a64:	09 95       	icall

			(p_uart_control->pWriteTxBuffer)(p_bsu_send->first_address);					// 寄存器首地址
    2a66:	d8 01       	movw	r26, r16
    2a68:	59 96       	adiw	r26, 0x19	; 25
    2a6a:	ed 91       	ld	r30, X+
    2a6c:	fc 91       	ld	r31, X
    2a6e:	5a 97       	sbiw	r26, 0x1a	; 26
    2a70:	d5 01       	movw	r26, r10
    2a72:	12 96       	adiw	r26, 0x02	; 2
    2a74:	8c 91       	ld	r24, X
    2a76:	09 95       	icall
			
			check_sum = p_bsu_send->device_id;
    2a78:	f5 01       	movw	r30, r10
    2a7a:	c0 80       	ld	r12, Z
			check_sum += (p_bsu_send->parameter_length + 3);
    2a7c:	f4 80       	ldd	r15, Z+4	; 0x04
			check_sum += p_bsu_send->instruction_byte;
    2a7e:	d1 80       	ldd	r13, Z+1	; 0x01
			check_sum += p_bsu_send->first_address;
    2a80:	e2 80       	ldd	r14, Z+2	; 0x02
    2a82:	90 e0       	ldi	r25, 0x00	; 0
    2a84:	0e c0       	rjmp	.+28     	; 0x2aa2 <TxBsuPacket+0x12a>

			for(count = 0; count < (p_bsu_send->parameter_length); count++)
			{
				(p_uart_control->pWriteTxBuffer)(p_bsu_send->write_parameter[count]);		// 写数据组
    2a86:	f5 01       	movw	r30, r10
    2a88:	e9 0f       	add	r30, r25
    2a8a:	f1 1d       	adc	r31, r1
    2a8c:	d8 01       	movw	r26, r16
    2a8e:	59 96       	adiw	r26, 0x19	; 25
    2a90:	2d 91       	ld	r18, X+
    2a92:	3c 91       	ld	r19, X
    2a94:	5a 97       	sbiw	r26, 0x1a	; 26
    2a96:	85 81       	ldd	r24, Z+5	; 0x05
    2a98:	99 83       	std	Y+1, r25	; 0x01
    2a9a:	f9 01       	movw	r30, r18
    2a9c:	09 95       	icall
			check_sum = p_bsu_send->device_id;
			check_sum += (p_bsu_send->parameter_length + 3);
			check_sum += p_bsu_send->instruction_byte;
			check_sum += p_bsu_send->first_address;

			for(count = 0; count < (p_bsu_send->parameter_length); count++)
    2a9e:	99 81       	ldd	r25, Y+1	; 0x01
    2aa0:	9f 5f       	subi	r25, 0xFF	; 255
    2aa2:	f5 01       	movw	r30, r10
    2aa4:	34 81       	ldd	r19, Z+4	; 0x04
    2aa6:	93 17       	cp	r25, r19
    2aa8:	70 f3       	brcs	.-36     	; 0x2a86 <TxBsuPacket+0x10e>
			(p_uart_control->pWriteTxBuffer)(p_bsu_send->instruction_byte);					// 控制字

			(p_uart_control->pWriteTxBuffer)(p_bsu_send->first_address);					// 寄存器首地址
			
			check_sum = p_bsu_send->device_id;
			check_sum += (p_bsu_send->parameter_length + 3);
    2aaa:	9c 2d       	mov	r25, r12
    2aac:	9f 0d       	add	r25, r15
    2aae:	9d 5f       	subi	r25, 0xFD	; 253
			check_sum += p_bsu_send->instruction_byte;
    2ab0:	9d 0d       	add	r25, r13
			check_sum += p_bsu_send->first_address;
    2ab2:	9e 0d       	add	r25, r14
    2ab4:	20 e0       	ldi	r18, 0x00	; 0
    2ab6:	06 c0       	rjmp	.+12     	; 0x2ac4 <TxBsuPacket+0x14c>
				(p_uart_control->pWriteTxBuffer)(p_bsu_send->write_parameter[count]);		// 写数据组
			}
			
			for(count = 0; count < (p_bsu_send->parameter_length); count++)
			{
				check_sum += p_bsu_send->write_parameter[count];							// 校验和计算
    2ab8:	f5 01       	movw	r30, r10
    2aba:	e2 0f       	add	r30, r18
    2abc:	f1 1d       	adc	r31, r1
    2abe:	85 81       	ldd	r24, Z+5	; 0x05
    2ac0:	98 0f       	add	r25, r24
			for(count = 0; count < (p_bsu_send->parameter_length); count++)
			{
				(p_uart_control->pWriteTxBuffer)(p_bsu_send->write_parameter[count]);		// 写数据组
			}
			
			for(count = 0; count < (p_bsu_send->parameter_length); count++)
    2ac2:	2f 5f       	subi	r18, 0xFF	; 255
    2ac4:	23 17       	cp	r18, r19
    2ac6:	c0 f3       	brcs	.-16     	; 0x2ab8 <TxBsuPacket+0x140>
    2ac8:	43 c0       	rjmp	.+134    	; 0x2b50 <TxBsuPacket+0x1d8>
			
			break;
		}
		case INST_REG_WRITE:
		{
			(p_uart_control->pWriteTxBuffer)(p_bsu_send->parameter_length + 3);				// 数据长度
    2aca:	f5 01       	movw	r30, r10
    2acc:	84 81       	ldd	r24, Z+4	; 0x04
    2ace:	d8 01       	movw	r26, r16
    2ad0:	59 96       	adiw	r26, 0x19	; 25
    2ad2:	ed 91       	ld	r30, X+
    2ad4:	fc 91       	ld	r31, X
    2ad6:	5a 97       	sbiw	r26, 0x1a	; 26
    2ad8:	8d 5f       	subi	r24, 0xFD	; 253
    2ada:	09 95       	icall

			(p_uart_control->pWriteTxBuffer)(p_bsu_send->instruction_byte);					// 控制字
    2adc:	d8 01       	movw	r26, r16
    2ade:	59 96       	adiw	r26, 0x19	; 25
    2ae0:	ed 91       	ld	r30, X+
    2ae2:	fc 91       	ld	r31, X
    2ae4:	5a 97       	sbiw	r26, 0x1a	; 26
    2ae6:	d5 01       	movw	r26, r10
    2ae8:	11 96       	adiw	r26, 0x01	; 1
    2aea:	8c 91       	ld	r24, X
    2aec:	09 95       	icall

			(p_uart_control->pWriteTxBuffer)(p_bsu_send->first_address);					// 寄存器首地址
    2aee:	d8 01       	movw	r26, r16
    2af0:	59 96       	adiw	r26, 0x19	; 25
    2af2:	ed 91       	ld	r30, X+
    2af4:	fc 91       	ld	r31, X
    2af6:	5a 97       	sbiw	r26, 0x1a	; 26
    2af8:	d5 01       	movw	r26, r10
    2afa:	12 96       	adiw	r26, 0x02	; 2
    2afc:	8c 91       	ld	r24, X
    2afe:	09 95       	icall
			
			check_sum = p_bsu_send->device_id;
    2b00:	f5 01       	movw	r30, r10
    2b02:	c0 80       	ld	r12, Z
			check_sum += (p_bsu_send->parameter_length + 3);
    2b04:	f4 80       	ldd	r15, Z+4	; 0x04
			check_sum += p_bsu_send->instruction_byte;
    2b06:	d1 80       	ldd	r13, Z+1	; 0x01
			check_sum += p_bsu_send->first_address;
    2b08:	e2 80       	ldd	r14, Z+2	; 0x02
    2b0a:	90 e0       	ldi	r25, 0x00	; 0
    2b0c:	0e c0       	rjmp	.+28     	; 0x2b2a <TxBsuPacket+0x1b2>

			for(count = 0; count < (p_bsu_send->parameter_length); count++)
			{
				(p_uart_control->pWriteTxBuffer)(p_bsu_send->write_parameter[count]);		// 写数据组
    2b0e:	f5 01       	movw	r30, r10
    2b10:	e9 0f       	add	r30, r25
    2b12:	f1 1d       	adc	r31, r1
    2b14:	d8 01       	movw	r26, r16
    2b16:	59 96       	adiw	r26, 0x19	; 25
    2b18:	2d 91       	ld	r18, X+
    2b1a:	3c 91       	ld	r19, X
    2b1c:	5a 97       	sbiw	r26, 0x1a	; 26
    2b1e:	85 81       	ldd	r24, Z+5	; 0x05
    2b20:	99 83       	std	Y+1, r25	; 0x01
    2b22:	f9 01       	movw	r30, r18
    2b24:	09 95       	icall
			check_sum = p_bsu_send->device_id;
			check_sum += (p_bsu_send->parameter_length + 3);
			check_sum += p_bsu_send->instruction_byte;
			check_sum += p_bsu_send->first_address;

			for(count = 0; count < (p_bsu_send->parameter_length); count++)
    2b26:	99 81       	ldd	r25, Y+1	; 0x01
    2b28:	9f 5f       	subi	r25, 0xFF	; 255
    2b2a:	f5 01       	movw	r30, r10
    2b2c:	34 81       	ldd	r19, Z+4	; 0x04
    2b2e:	93 17       	cp	r25, r19
    2b30:	70 f3       	brcs	.-36     	; 0x2b0e <TxBsuPacket+0x196>
			(p_uart_control->pWriteTxBuffer)(p_bsu_send->instruction_byte);					// 控制字

			(p_uart_control->pWriteTxBuffer)(p_bsu_send->first_address);					// 寄存器首地址
			
			check_sum = p_bsu_send->device_id;
			check_sum += (p_bsu_send->parameter_length + 3);
    2b32:	9c 2d       	mov	r25, r12
    2b34:	9f 0d       	add	r25, r15
    2b36:	9d 5f       	subi	r25, 0xFD	; 253
			check_sum += p_bsu_send->instruction_byte;
    2b38:	9d 0d       	add	r25, r13
			check_sum += p_bsu_send->first_address;
    2b3a:	9e 0d       	add	r25, r14
    2b3c:	20 e0       	ldi	r18, 0x00	; 0
    2b3e:	06 c0       	rjmp	.+12     	; 0x2b4c <TxBsuPacket+0x1d4>
				(p_uart_control->pWriteTxBuffer)(p_bsu_send->write_parameter[count]);		// 写数据组
			}
			
			for(count = 0; count < (p_bsu_send->parameter_length); count++)
			{
				check_sum += p_bsu_send->write_parameter[count];		// 校验和计算
    2b40:	f5 01       	movw	r30, r10
    2b42:	e2 0f       	add	r30, r18
    2b44:	f1 1d       	adc	r31, r1
    2b46:	85 81       	ldd	r24, Z+5	; 0x05
    2b48:	98 0f       	add	r25, r24
			for(count = 0; count < (p_bsu_send->parameter_length); count++)
			{
				(p_uart_control->pWriteTxBuffer)(p_bsu_send->write_parameter[count]);		// 写数据组
			}
			
			for(count = 0; count < (p_bsu_send->parameter_length); count++)
    2b4a:	2f 5f       	subi	r18, 0xFF	; 255
    2b4c:	23 17       	cp	r18, r19
    2b4e:	c0 f3       	brcs	.-16     	; 0x2b40 <TxBsuPacket+0x1c8>
				check_sum += p_bsu_send->write_parameter[count];		// 校验和计算
			}

			check_sum = ~check_sum;										// 校验和计算
			
			(p_uart_control->pWriteTxBuffer)(check_sum);				// 校验和
    2b50:	d8 01       	movw	r26, r16
    2b52:	59 96       	adiw	r26, 0x19	; 25
    2b54:	ed 91       	ld	r30, X+
    2b56:	fc 91       	ld	r31, X
    2b58:	5a 97       	sbiw	r26, 0x1a	; 26
    2b5a:	89 2f       	mov	r24, r25
    2b5c:	1a c0       	rjmp	.+52     	; 0x2b92 <TxBsuPacket+0x21a>
			
			break;
		}
		case INST_ACTION:
		{
			(p_uart_control->pWriteTxBuffer)(0x02);						// ACTION操作时，数据长度为2，不会变化
    2b5e:	d8 01       	movw	r26, r16
    2b60:	59 96       	adiw	r26, 0x19	; 25
    2b62:	ed 91       	ld	r30, X+
    2b64:	fc 91       	ld	r31, X
    2b66:	5a 97       	sbiw	r26, 0x1a	; 26
    2b68:	82 e0       	ldi	r24, 0x02	; 2
    2b6a:	09 95       	icall
			(p_uart_control->pWriteTxBuffer)(p_bsu_send->instruction_byte);
    2b6c:	d8 01       	movw	r26, r16
    2b6e:	59 96       	adiw	r26, 0x19	; 25
    2b70:	ed 91       	ld	r30, X+
    2b72:	fc 91       	ld	r31, X
    2b74:	5a 97       	sbiw	r26, 0x1a	; 26
    2b76:	d5 01       	movw	r26, r10
    2b78:	11 96       	adiw	r26, 0x01	; 1
    2b7a:	8c 91       	ld	r24, X
    2b7c:	09 95       	icall

			check_sum = p_bsu_send->device_id;							// 校验和计算
			check_sum += (p_bsu_send->instruction_byte + 0x02);
    2b7e:	f5 01       	movw	r30, r10
    2b80:	80 81       	ld	r24, Z
    2b82:	91 81       	ldd	r25, Z+1	; 0x01
    2b84:	89 0f       	add	r24, r25
    2b86:	8e 5f       	subi	r24, 0xFE	; 254
			check_sum = ~check_sum;

			(p_uart_control->pWriteTxBuffer)(check_sum);				// 校验和
    2b88:	d8 01       	movw	r26, r16
    2b8a:	59 96       	adiw	r26, 0x19	; 25
    2b8c:	ed 91       	ld	r30, X+
    2b8e:	fc 91       	ld	r31, X
    2b90:	5a 97       	sbiw	r26, 0x1a	; 26
    2b92:	80 95       	com	r24
    2b94:	09 95       	icall
			break;
		}
	}
	

	(p_uart_control->pSendTxBuffer)();									// 发送缓冲数据
    2b96:	d8 01       	movw	r26, r16
    2b98:	5b 96       	adiw	r26, 0x1b	; 27
    2b9a:	ed 91       	ld	r30, X+
    2b9c:	fc 91       	ld	r31, X
    2b9e:	5c 97       	sbiw	r26, 0x1c	; 28
    2ba0:	09 95       	icall
    2ba2:	80 e0       	ldi	r24, 0x00	; 0

	
	return ERR_OK;
}
    2ba4:	0f 90       	pop	r0
    2ba6:	cf 91       	pop	r28
    2ba8:	df 91       	pop	r29
    2baa:	1f 91       	pop	r17
    2bac:	0f 91       	pop	r16
    2bae:	ff 90       	pop	r15
    2bb0:	ef 90       	pop	r14
    2bb2:	df 90       	pop	r13
    2bb4:	cf 90       	pop	r12
    2bb6:	bf 90       	pop	r11
    2bb8:	af 90       	pop	r10
    2bba:	08 95       	ret

00002bbc <Inverse1DimArray>:
** 修订人:
** 修订日期:
**------------------------------------------------------------------------------------------------------------------------
*************************************************************************************************************************/
static uint8 Inverse1DimArray(uint8* p_mapping, uint8 length, uint8 val, uint8* site)
{
    2bbc:	d9 01       	movw	r26, r18
    2bbe:	fc 01       	movw	r30, r24
    2bc0:	90 e0       	ldi	r25, 0x00	; 0
    2bc2:	07 c0       	rjmp	.+14     	; 0x2bd2 <Inverse1DimArray+0x16>
	uint8 count = 0;

	for (count = 0; count < length; count++)
	{
		if (val == *(p_mapping + count))
    2bc4:	81 91       	ld	r24, Z+
    2bc6:	48 17       	cp	r20, r24
    2bc8:	19 f4       	brne	.+6      	; 0x2bd0 <Inverse1DimArray+0x14>
		{
			*site = count;
    2bca:	9c 93       	st	X, r25
    2bcc:	81 e0       	ldi	r24, 0x01	; 1
    2bce:	08 95       	ret
*************************************************************************************************************************/
static uint8 Inverse1DimArray(uint8* p_mapping, uint8 length, uint8 val, uint8* site)
{
	uint8 count = 0;

	for (count = 0; count < length; count++)
    2bd0:	9f 5f       	subi	r25, 0xFF	; 255
    2bd2:	96 17       	cp	r25, r22
    2bd4:	b8 f3       	brcs	.-18     	; 0x2bc4 <Inverse1DimArray+0x8>
    2bd6:	80 e0       	ldi	r24, 0x00	; 0
			return TRUE;
		}
	}

	return FALSE;
}
    2bd8:	08 95       	ret

00002bda <TestEmptyBufferQueue>:
** 修订人:
** 修订日期:
**------------------------------------------------------------------------------------------------------------------------
*************************************************************************************************************************/
static uint8 TestEmptyBufferQueue(BUFFER_QUEUE *p_buffer)
{
    2bda:	fc 01       	movw	r30, r24
    2bdc:	40 e0       	ldi	r20, 0x00	; 0
    2bde:	26 81       	ldd	r18, Z+6	; 0x06
    2be0:	37 81       	ldd	r19, Z+7	; 0x07
    2be2:	84 81       	ldd	r24, Z+4	; 0x04
    2be4:	95 81       	ldd	r25, Z+5	; 0x05
    2be6:	28 17       	cp	r18, r24
    2be8:	39 07       	cpc	r19, r25
    2bea:	09 f4       	brne	.+2      	; 0x2bee <TestEmptyBufferQueue+0x14>
    2bec:	41 e0       	ldi	r20, 0x01	; 1
	return (p_buffer->rear == p_buffer->front);
}
    2bee:	84 2f       	mov	r24, r20
    2bf0:	08 95       	ret

00002bf2 <AddBufferQueue>:
** 修订人:
** 修订日期:
**------------------------------------------------------------------------------------------------------------------------
*************************************************************************************************************************/
static void AddBufferQueue(BUFFER_QUEUE *p_buffer, uint8 item)
{
    2bf2:	dc 01       	movw	r26, r24
	*p_buffer->rear = item;												// 数据入队
    2bf4:	16 96       	adiw	r26, 0x06	; 6
    2bf6:	ed 91       	ld	r30, X+
    2bf8:	fc 91       	ld	r31, X
    2bfa:	17 97       	sbiw	r26, 0x07	; 7
    2bfc:	60 83       	st	Z, r22

	p_buffer->rear++;													// 队尾地址＋1
    2bfe:	16 96       	adiw	r26, 0x06	; 6
    2c00:	2d 91       	ld	r18, X+
    2c02:	3c 91       	ld	r19, X
    2c04:	17 97       	sbiw	r26, 0x07	; 7
    2c06:	2f 5f       	subi	r18, 0xFF	; 255
    2c08:	3f 4f       	sbci	r19, 0xFF	; 255
    2c0a:	17 96       	adiw	r26, 0x07	; 7
    2c0c:	3c 93       	st	X, r19
    2c0e:	2e 93       	st	-X, r18
    2c10:	16 97       	sbiw	r26, 0x06	; 6

	if (p_buffer->rear >= (p_buffer->init_address + p_buffer->length))	// 队尾地址超过分配内存边界
    2c12:	12 96       	adiw	r26, 0x02	; 2
    2c14:	4d 91       	ld	r20, X+
    2c16:	5c 91       	ld	r21, X
    2c18:	13 97       	sbiw	r26, 0x03	; 3
    2c1a:	11 96       	adiw	r26, 0x01	; 1
    2c1c:	8c 91       	ld	r24, X
    2c1e:	11 97       	sbiw	r26, 0x01	; 1
    2c20:	ba 01       	movw	r22, r20
    2c22:	68 0f       	add	r22, r24
    2c24:	71 1d       	adc	r23, r1
    2c26:	26 17       	cp	r18, r22
    2c28:	37 07       	cpc	r19, r23
    2c2a:	20 f0       	brcs	.+8      	; 0x2c34 <AddBufferQueue+0x42>
	{
		p_buffer->rear = p_buffer->init_address;						// 队尾地址回缓冲区首地址
    2c2c:	17 96       	adiw	r26, 0x07	; 7
    2c2e:	5c 93       	st	X, r21
    2c30:	4e 93       	st	-X, r20
    2c32:	16 97       	sbiw	r26, 0x06	; 6
	}
	
	if (p_buffer->rear == p_buffer->front)					// 队列长度大于缓冲区长度
    2c34:	16 96       	adiw	r26, 0x06	; 6
    2c36:	2d 91       	ld	r18, X+
    2c38:	3c 91       	ld	r19, X
    2c3a:	17 97       	sbiw	r26, 0x07	; 7
    2c3c:	14 96       	adiw	r26, 0x04	; 4
    2c3e:	8d 91       	ld	r24, X+
    2c40:	9c 91       	ld	r25, X
    2c42:	15 97       	sbiw	r26, 0x05	; 5
    2c44:	28 17       	cp	r18, r24
    2c46:	39 07       	cpc	r19, r25
    2c48:	21 f4       	brne	.+8      	; 0x2c52 <AddBufferQueue+0x60>
	{
		SetRegMask(p_buffer->state, ERR_MASK, ERR_OVERRUN);				// 置溢出错误标志
    2c4a:	8c 91       	ld	r24, X
    2c4c:	80 7c       	andi	r24, 0xC0	; 192
    2c4e:	8d 60       	ori	r24, 0x0D	; 13
    2c50:	8c 93       	st	X, r24
    2c52:	08 95       	ret

00002c54 <OutBufferQueue>:
** 修订人:
** 修订日期:
**------------------------------------------------------------------------------------------------------------------------
*************************************************************************************************************************/
static uint8 OutBufferQueue(BUFFER_QUEUE *p_buffer, uint8 *p_item)
{
    2c54:	cf 93       	push	r28
    2c56:	df 93       	push	r29
    2c58:	fc 01       	movw	r30, r24
    2c5a:	eb 01       	movw	r28, r22
** 修订日期:
**------------------------------------------------------------------------------------------------------------------------
*************************************************************************************************************************/
static uint8 TestEmptyBufferQueue(BUFFER_QUEUE *p_buffer)
{
	return (p_buffer->rear == p_buffer->front);
    2c5c:	a4 81       	ldd	r26, Z+4	; 0x04
    2c5e:	b5 81       	ldd	r27, Z+5	; 0x05
** 修订日期:
**------------------------------------------------------------------------------------------------------------------------
*************************************************************************************************************************/
static uint8 OutBufferQueue(BUFFER_QUEUE *p_buffer, uint8 *p_item)
{
	if(TestEmptyBufferQueue(p_buffer))
    2c60:	86 81       	ldd	r24, Z+6	; 0x06
    2c62:	97 81       	ldd	r25, Z+7	; 0x07
    2c64:	8a 17       	cp	r24, r26
    2c66:	9b 07       	cpc	r25, r27
    2c68:	11 f4       	brne	.+4      	; 0x2c6e <OutBufferQueue+0x1a>
    2c6a:	80 e0       	ldi	r24, 0x00	; 0
    2c6c:	14 c0       	rjmp	.+40     	; 0x2c96 <OutBufferQueue+0x42>
	{
		return FALSE;
	}
	else
	{
		*p_item = *p_buffer->front;											// 数据出队
    2c6e:	8c 91       	ld	r24, X
    2c70:	88 83       	st	Y, r24

		p_buffer->front++;
    2c72:	24 81       	ldd	r18, Z+4	; 0x04
    2c74:	35 81       	ldd	r19, Z+5	; 0x05
    2c76:	2f 5f       	subi	r18, 0xFF	; 255
    2c78:	3f 4f       	sbci	r19, 0xFF	; 255
    2c7a:	35 83       	std	Z+5, r19	; 0x05
    2c7c:	24 83       	std	Z+4, r18	; 0x04
		
		if(p_buffer->front >= (p_buffer->init_address + p_buffer->length))
    2c7e:	42 81       	ldd	r20, Z+2	; 0x02
    2c80:	53 81       	ldd	r21, Z+3	; 0x03
    2c82:	81 81       	ldd	r24, Z+1	; 0x01
    2c84:	ba 01       	movw	r22, r20
    2c86:	68 0f       	add	r22, r24
    2c88:	71 1d       	adc	r23, r1
    2c8a:	26 17       	cp	r18, r22
    2c8c:	37 07       	cpc	r19, r23
    2c8e:	10 f0       	brcs	.+4      	; 0x2c94 <OutBufferQueue+0x40>
		{
			p_buffer->front = p_buffer->init_address;
    2c90:	55 83       	std	Z+5, r21	; 0x05
    2c92:	44 83       	std	Z+4, r20	; 0x04
    2c94:	81 e0       	ldi	r24, 0x01	; 1
		}

		return TRUE;
	}
}
    2c96:	df 91       	pop	r29
    2c98:	cf 91       	pop	r28
    2c9a:	08 95       	ret

00002c9c <CheckBufferQueueLength>:
** 修订人:
** 修订日期:
**------------------------------------------------------------------------------------------------------------------------
*************************************************************************************************************************/
static uint8 CheckBufferQueueLength(BUFFER_QUEUE* p_buffer)
{
    2c9c:	fc 01       	movw	r30, r24
	uint8 temp_value = 0;

	if (p_buffer->rear >= p_buffer->front)
    2c9e:	26 81       	ldd	r18, Z+6	; 0x06
    2ca0:	37 81       	ldd	r19, Z+7	; 0x07
    2ca2:	84 81       	ldd	r24, Z+4	; 0x04
    2ca4:	95 81       	ldd	r25, Z+5	; 0x05
    2ca6:	28 17       	cp	r18, r24
    2ca8:	39 07       	cpc	r19, r25
    2caa:	10 f0       	brcs	.+4      	; 0x2cb0 <CheckBufferQueueLength+0x14>
	{
		temp_value = p_buffer->rear - p_buffer->front;
    2cac:	92 2f       	mov	r25, r18
    2cae:	02 c0       	rjmp	.+4      	; 0x2cb4 <CheckBufferQueueLength+0x18>
	}
	else
	{
		temp_value = p_buffer->front - p_buffer->rear;
    2cb0:	82 1b       	sub	r24, r18
		temp_value = p_buffer->length - temp_value;
    2cb2:	91 81       	ldd	r25, Z+1	; 0x01
    2cb4:	98 1b       	sub	r25, r24
	}

	return temp_value;
}
    2cb6:	89 2f       	mov	r24, r25
    2cb8:	08 95       	ret

00002cba <CheckBufferQueueState>:
** 修订人:
** 修订日期:
**------------------------------------------------------------------------------------------------------------------------
*************************************************************************************************************************/
static uint8 CheckBufferQueueState(BUFFER_QUEUE *p_buffer)
{
    2cba:	fc 01       	movw	r30, r24
	return p_buffer->state;
}
    2cbc:	80 81       	ld	r24, Z
    2cbe:	08 95       	ret

00002cc0 <ClearBufferQueue>:
** 修订人:
** 修订日期:
**------------------------------------------------------------------------------------------------------------------------
*************************************************************************************************************************/
static void ClearBufferQueue(BUFFER_QUEUE *p_buffer)
{
    2cc0:	fc 01       	movw	r30, r24
	p_buffer->rear = p_buffer->front;								// 移动头尾指针
    2cc2:	84 81       	ldd	r24, Z+4	; 0x04
    2cc4:	95 81       	ldd	r25, Z+5	; 0x05
    2cc6:	97 83       	std	Z+7, r25	; 0x07
    2cc8:	86 83       	std	Z+6, r24	; 0x06

	SetReg(p_buffer->state, 0);										// 初始化状态寄存器
	SetRegBit(p_buffer->state, INIT_COMPLETE);						// 置位初始化完成标志
    2cca:	80 e8       	ldi	r24, 0x80	; 128
    2ccc:	80 83       	st	Z, r24
}
    2cce:	08 95       	ret

00002cd0 <InitBufferQueue>:
** 修订人:			律晔
** 修订日期:			2009-08-10
**------------------------------------------------------------------------------------------------------------------------
*************************************************************************************************************************/
static void InitBufferQueue(BUFFER_QUEUE *p_buffer, uint8 length)
{
    2cd0:	cf 93       	push	r28
    2cd2:	df 93       	push	r29
    2cd4:	ec 01       	movw	r28, r24
	uint8* p_free_space = NULL;

	SetReg(p_buffer->state, 0);										// 初始化状态寄存器
    2cd6:	18 82       	st	Y, r1

	if(0x00 == length)
    2cd8:	66 23       	and	r22, r22
    2cda:	11 f4       	brne	.+4      	; 0x2ce0 <InitBufferQueue+0x10>
	{
		SetRegMask(p_buffer->state, ERR_MASK, ERR_VALUE);			// 置错误类型标志位
    2cdc:	83 e0       	ldi	r24, 0x03	; 3
    2cde:	14 c0       	rjmp	.+40     	; 0x2d08 <InitBufferQueue+0x38>
		return;
	}

	p_buffer->length = length;										// 初始化缓冲区长度
    2ce0:	69 83       	std	Y+1, r22	; 0x01

	p_free_space = malloc(length);									// 分配长度为length的RAM空间
    2ce2:	86 2f       	mov	r24, r22
    2ce4:	90 e0       	ldi	r25, 0x00	; 0
    2ce6:	0e 94 5d 40 	call	0x80ba	; 0x80ba <malloc>
    2cea:	9c 01       	movw	r18, r24
    2cec:	88 81       	ld	r24, Y

	if (NULL == p_free_space)
    2cee:	21 15       	cp	r18, r1
    2cf0:	31 05       	cpc	r19, r1
    2cf2:	19 f4       	brne	.+6      	; 0x2cfa <InitBufferQueue+0x2a>
	{
		SetRegMask(p_buffer->state, ERR_MASK, ERR_NOTAVAIL);		// 置错误类型标志位
    2cf4:	80 7c       	andi	r24, 0xC0	; 192
    2cf6:	89 60       	ori	r24, 0x09	; 9
    2cf8:	07 c0       	rjmp	.+14     	; 0x2d08 <InitBufferQueue+0x38>
		return;
	}

	p_buffer->init_address = p_free_space;
    2cfa:	3b 83       	std	Y+3, r19	; 0x03
    2cfc:	2a 83       	std	Y+2, r18	; 0x02

	p_buffer->rear = p_free_space;
    2cfe:	3f 83       	std	Y+7, r19	; 0x07
    2d00:	2e 83       	std	Y+6, r18	; 0x06
	p_buffer->front = p_free_space;
    2d02:	3d 83       	std	Y+5, r19	; 0x05
    2d04:	2c 83       	std	Y+4, r18	; 0x04

	SetRegBit(p_buffer->state, INIT_COMPLETE);						// 置位初始化完成标志
    2d06:	80 68       	ori	r24, 0x80	; 128
    2d08:	88 83       	st	Y, r24
}
    2d0a:	df 91       	pop	r29
    2d0c:	cf 91       	pop	r28
    2d0e:	08 95       	ret

00002d10 <UpRobotSlaveRxPacket>:
** 修订人:
** 修订日期:
**------------------------------------------------------------------------------------------------------------------------
*************************************************************************************************************************/
static uint8 UpRobotSlaveRxPacket(UPROBOT_MSSR_STRUCT* p_uprobot_receive, UART_CONTROL_STRUCT* p_uart_control)
{	
    2d10:	8f 92       	push	r8
    2d12:	9f 92       	push	r9
    2d14:	af 92       	push	r10
    2d16:	bf 92       	push	r11
    2d18:	cf 92       	push	r12
    2d1a:	df 92       	push	r13
    2d1c:	ff 92       	push	r15
    2d1e:	0f 93       	push	r16
    2d20:	1f 93       	push	r17
    2d22:	df 93       	push	r29
    2d24:	cf 93       	push	r28
    2d26:	0f 92       	push	r0
    2d28:	cd b7       	in	r28, 0x3d	; 61
    2d2a:	de b7       	in	r29, 0x3e	; 62
    2d2c:	6c 01       	movw	r12, r24
    2d2e:	5b 01       	movw	r10, r22
	uint8 count = 0;													// 循环次数计数器
	uint32 timeout_count = 0;											// 等待超时计数器

	uint8 temp_buffer = 0;												// 数据缓存
    2d30:	19 82       	std	Y+1, r1	; 0x01
    2d32:	ff 24       	eor	r15, r15
    2d34:	f3 94       	inc	r15
			{
				return ERR_OVERFLOW;									// 等待超时
			}
		}
		
		(p_uart_control->pReceiveByte)(&temp_buffer);
    2d36:	4e 01       	movw	r8, r28
    2d38:	08 94       	sec
    2d3a:	81 1c       	adc	r8, r1
    2d3c:	91 1c       	adc	r9, r1
    2d3e:	08 c0       	rjmp	.+16     	; 0x2d50 <UpRobotSlaveRxPacket+0x40>
static uint8 UpRobotSlaveRxPacket(UPROBOT_MSSR_STRUCT* p_uprobot_receive, UART_CONTROL_STRUCT* p_uart_control)
{	
	uint8 count = 0;													// 循环次数计数器
	uint32 timeout_count = 0;											// 等待超时计数器

	uint8 temp_buffer = 0;												// 数据缓存
    2d40:	0f 5f       	subi	r16, 0xFF	; 255
    2d42:	1f 4f       	sbci	r17, 0xFF	; 255
		timeout_count = 0;
		
		while(!p_uart_control->pTestReceiveBuffer())					// 如果接收数据不成功(FALSE)则开始计时
		{
			timeout_count++;
			if(timeout_count > UPROBOT_RX_TIMEOUT_COUNT)
    2d44:	85 e0       	ldi	r24, 0x05	; 5
    2d46:	09 37       	cpi	r16, 0x79	; 121
    2d48:	18 07       	cpc	r17, r24
    2d4a:	21 f4       	brne	.+8      	; 0x2d54 <UpRobotSlaveRxPacket+0x44>
    2d4c:	84 e0       	ldi	r24, 0x04	; 4
    2d4e:	58 c0       	rjmp	.+176    	; 0x2e00 <UpRobotSlaveRxPacket+0xf0>
    2d50:	00 e0       	ldi	r16, 0x00	; 0
    2d52:	10 e0       	ldi	r17, 0x00	; 0
	
	for(count = 1; count <= (UPROBOT_MSSR_MAX_PARAMETER_LENGTH + 7); count++)
	{
		timeout_count = 0;
		
		while(!p_uart_control->pTestReceiveBuffer())					// 如果接收数据不成功(FALSE)则开始计时
    2d54:	d5 01       	movw	r26, r10
    2d56:	5d 96       	adiw	r26, 0x1d	; 29
    2d58:	ed 91       	ld	r30, X+
    2d5a:	fc 91       	ld	r31, X
    2d5c:	5e 97       	sbiw	r26, 0x1e	; 30
    2d5e:	09 95       	icall
    2d60:	88 23       	and	r24, r24
    2d62:	71 f3       	breq	.-36     	; 0x2d40 <UpRobotSlaveRxPacket+0x30>
			{
				return ERR_OVERFLOW;									// 等待超时
			}
		}
		
		(p_uart_control->pReceiveByte)(&temp_buffer);
    2d64:	d5 01       	movw	r26, r10
    2d66:	57 96       	adiw	r26, 0x17	; 23
    2d68:	ed 91       	ld	r30, X+
    2d6a:	fc 91       	ld	r31, X
    2d6c:	58 97       	sbiw	r26, 0x18	; 24
    2d6e:	c4 01       	movw	r24, r8
    2d70:	09 95       	icall

		switch(count)
    2d72:	b3 e0       	ldi	r27, 0x03	; 3
    2d74:	fb 16       	cp	r15, r27
    2d76:	d1 f0       	breq	.+52     	; 0x2dac <UpRobotSlaveRxPacket+0x9c>
    2d78:	bf 15       	cp	r27, r15
    2d7a:	38 f0       	brcs	.+14     	; 0x2d8a <UpRobotSlaveRxPacket+0x7a>
    2d7c:	e1 e0       	ldi	r30, 0x01	; 1
    2d7e:	fe 16       	cp	r15, r30
    2d80:	69 f0       	breq	.+26     	; 0x2d9c <UpRobotSlaveRxPacket+0x8c>
    2d82:	f2 e0       	ldi	r31, 0x02	; 2
    2d84:	ff 16       	cp	r15, r31
    2d86:	19 f5       	brne	.+70     	; 0x2dce <UpRobotSlaveRxPacket+0xbe>
    2d88:	0d c0       	rjmp	.+26     	; 0x2da4 <UpRobotSlaveRxPacket+0x94>
    2d8a:	85 e0       	ldi	r24, 0x05	; 5
    2d8c:	f8 16       	cp	r15, r24
    2d8e:	b1 f0       	breq	.+44     	; 0x2dbc <UpRobotSlaveRxPacket+0xac>
    2d90:	f8 16       	cp	r15, r24
    2d92:	78 f0       	brcs	.+30     	; 0x2db2 <UpRobotSlaveRxPacket+0xa2>
    2d94:	a6 e0       	ldi	r26, 0x06	; 6
    2d96:	fa 16       	cp	r15, r26
    2d98:	d1 f4       	brne	.+52     	; 0x2dce <UpRobotSlaveRxPacket+0xbe>
    2d9a:	14 c0       	rjmp	.+40     	; 0x2dc4 <UpRobotSlaveRxPacket+0xb4>
		{
			case 1:														// 匹配启动字1
			{
				if(UPROBOT_START1 != temp_buffer)
    2d9c:	89 81       	ldd	r24, Y+1	; 0x01
    2d9e:	85 35       	cpi	r24, 0x55	; 85
    2da0:	41 f5       	brne	.+80     	; 0x2df2 <UpRobotSlaveRxPacket+0xe2>
    2da2:	28 c0       	rjmp	.+80     	; 0x2df4 <UpRobotSlaveRxPacket+0xe4>
				}
				break;
			}
			case 2:														// 匹配启动字2
			{		
				if(UPROBOT_START2 != temp_buffer)
    2da4:	89 81       	ldd	r24, Y+1	; 0x01
    2da6:	8a 3a       	cpi	r24, 0xAA	; 170
    2da8:	21 f5       	brne	.+72     	; 0x2df2 <UpRobotSlaveRxPacket+0xe2>
    2daa:	24 c0       	rjmp	.+72     	; 0x2df4 <UpRobotSlaveRxPacket+0xe4>
				}
				break;
			}
			case 3:														// 设备ID号
			{
				p_uprobot_receive->device_id = temp_buffer;
    2dac:	89 81       	ldd	r24, Y+1	; 0x01
    2dae:	f6 01       	movw	r30, r12
    2db0:	1e c0       	rjmp	.+60     	; 0x2dee <UpRobotSlaveRxPacket+0xde>
				break;
			}
			case 4:														// 数据包长度
			{
				p_uprobot_receive->parameter_length = temp_buffer ;
    2db2:	89 81       	ldd	r24, Y+1	; 0x01
    2db4:	d6 01       	movw	r26, r12
    2db6:	13 96       	adiw	r26, 0x03	; 3
    2db8:	8c 93       	st	X, r24
    2dba:	1c c0       	rjmp	.+56     	; 0x2df4 <UpRobotSlaveRxPacket+0xe4>
				break;
			}
			case 5:														// 功能单元编号
			{
				p_uprobot_receive->functional_unit = temp_buffer;
    2dbc:	89 81       	ldd	r24, Y+1	; 0x01
    2dbe:	f6 01       	movw	r30, r12
    2dc0:	81 83       	std	Z+1, r24	; 0x01
    2dc2:	18 c0       	rjmp	.+48     	; 0x2df4 <UpRobotSlaveRxPacket+0xe4>
				break;
			}
			case 6:														// 方法编号
			{
				p_uprobot_receive->method_code = temp_buffer;
    2dc4:	89 81       	ldd	r24, Y+1	; 0x01
    2dc6:	d6 01       	movw	r26, r12
    2dc8:	12 96       	adiw	r26, 0x02	; 2
    2dca:	8c 93       	st	X, r24
    2dcc:	13 c0       	rjmp	.+38     	; 0x2df4 <UpRobotSlaveRxPacket+0xe4>
				break;
			}
			default:
			{
				if(count < (7 + p_uprobot_receive->parameter_length))
    2dce:	ef 2d       	mov	r30, r15
    2dd0:	f0 e0       	ldi	r31, 0x00	; 0
    2dd2:	d6 01       	movw	r26, r12
    2dd4:	13 96       	adiw	r26, 0x03	; 3
    2dd6:	8c 91       	ld	r24, X
    2dd8:	90 e0       	ldi	r25, 0x00	; 0
    2dda:	06 96       	adiw	r24, 0x06	; 6
    2ddc:	8e 17       	cp	r24, r30
    2dde:	9f 07       	cpc	r25, r31
    2de0:	14 f4       	brge	.+4      	; 0x2de6 <UpRobotSlaveRxPacket+0xd6>
    2de2:	80 e0       	ldi	r24, 0x00	; 0
    2de4:	0d c0       	rjmp	.+26     	; 0x2e00 <UpRobotSlaveRxPacket+0xf0>
				{
					p_uprobot_receive->parameter[count - 7] = temp_buffer;
    2de6:	ec 0d       	add	r30, r12
    2de8:	fd 1d       	adc	r31, r13
    2dea:	33 97       	sbiw	r30, 0x03	; 3
    2dec:	89 81       	ldd	r24, Y+1	; 0x01
    2dee:	80 83       	st	Z, r24
    2df0:	01 c0       	rjmp	.+2      	; 0x2df4 <UpRobotSlaveRxPacket+0xe4>
    2df2:	ff 24       	eor	r15, r15

	uint8 temp_buffer = 0;												// 数据缓存
	uint8 check_sum = 0;
	uint8 check_sum_count = 0;
	
	for(count = 1; count <= (UPROBOT_MSSR_MAX_PARAMETER_LENGTH + 7); count++)
    2df4:	f3 94       	inc	r15
    2df6:	bd e9       	ldi	r27, 0x9D	; 157
    2df8:	bf 15       	cp	r27, r15
    2dfa:	08 f0       	brcs	.+2      	; 0x2dfe <UpRobotSlaveRxPacket+0xee>
    2dfc:	a9 cf       	rjmp	.-174    	; 0x2d50 <UpRobotSlaveRxPacket+0x40>
    2dfe:	85 e0       	ldi	r24, 0x05	; 5
			}			
		}	 
	}
	
	return ERR_MATH;													// 无效缓冲数据溢出
}
    2e00:	0f 90       	pop	r0
    2e02:	cf 91       	pop	r28
    2e04:	df 91       	pop	r29
    2e06:	1f 91       	pop	r17
    2e08:	0f 91       	pop	r16
    2e0a:	ff 90       	pop	r15
    2e0c:	df 90       	pop	r13
    2e0e:	cf 90       	pop	r12
    2e10:	bf 90       	pop	r11
    2e12:	af 90       	pop	r10
    2e14:	9f 90       	pop	r9
    2e16:	8f 90       	pop	r8
    2e18:	08 95       	ret

00002e1a <UpRobotSlaveTxPacket>:
** 修订人:
** 修订日期:
**------------------------------------------------------------------------------------------------------------------------
*************************************************************************************************************************/
static uint8 UpRobotSlaveTxPacket(UPROBOT_MRSS_STRUCT* p_uprobot_send, UART_CONTROL_STRUCT* p_uart_control)
{
    2e1a:	ef 92       	push	r14
    2e1c:	ff 92       	push	r15
    2e1e:	0f 93       	push	r16
    2e20:	1f 93       	push	r17
    2e22:	df 93       	push	r29
    2e24:	cf 93       	push	r28
    2e26:	0f 92       	push	r0
    2e28:	cd b7       	in	r28, 0x3d	; 61
    2e2a:	de b7       	in	r29, 0x3e	; 62
    2e2c:	7c 01       	movw	r14, r24
    2e2e:	8b 01       	movw	r16, r22
	uint8 count = 0;
	uint8 check_sum = 0;
	
	(p_uart_control->pWriteTxBuffer)(UPROBOT_START1);									// 开始位1、2
    2e30:	db 01       	movw	r26, r22
    2e32:	59 96       	adiw	r26, 0x19	; 25
    2e34:	ed 91       	ld	r30, X+
    2e36:	fc 91       	ld	r31, X
    2e38:	5a 97       	sbiw	r26, 0x1a	; 26
    2e3a:	85 e5       	ldi	r24, 0x55	; 85
    2e3c:	09 95       	icall
	(p_uart_control->pWriteTxBuffer)(UPROBOT_START2);
    2e3e:	d8 01       	movw	r26, r16
    2e40:	59 96       	adiw	r26, 0x19	; 25
    2e42:	ed 91       	ld	r30, X+
    2e44:	fc 91       	ld	r31, X
    2e46:	5a 97       	sbiw	r26, 0x1a	; 26
    2e48:	8a ea       	ldi	r24, 0xAA	; 170
    2e4a:	09 95       	icall
	(p_uart_control->pWriteTxBuffer)(p_uprobot_send->device_id);						// 设备ID
    2e4c:	d8 01       	movw	r26, r16
    2e4e:	59 96       	adiw	r26, 0x19	; 25
    2e50:	ed 91       	ld	r30, X+
    2e52:	fc 91       	ld	r31, X
    2e54:	5a 97       	sbiw	r26, 0x1a	; 26
    2e56:	d7 01       	movw	r26, r14
    2e58:	8c 91       	ld	r24, X
    2e5a:	09 95       	icall
	(p_uart_control->pWriteTxBuffer)(p_uprobot_send->parameter_length);					// 参数长度
    2e5c:	d8 01       	movw	r26, r16
    2e5e:	59 96       	adiw	r26, 0x19	; 25
    2e60:	ed 91       	ld	r30, X+
    2e62:	fc 91       	ld	r31, X
    2e64:	5a 97       	sbiw	r26, 0x1a	; 26
    2e66:	d7 01       	movw	r26, r14
    2e68:	14 96       	adiw	r26, 0x04	; 4
    2e6a:	8c 91       	ld	r24, X
    2e6c:	09 95       	icall
	(p_uart_control->pWriteTxBuffer)(p_uprobot_send->functional_unit);					// 功能单元代号
    2e6e:	d8 01       	movw	r26, r16
    2e70:	59 96       	adiw	r26, 0x19	; 25
    2e72:	ed 91       	ld	r30, X+
    2e74:	fc 91       	ld	r31, X
    2e76:	5a 97       	sbiw	r26, 0x1a	; 26
    2e78:	d7 01       	movw	r26, r14
    2e7a:	11 96       	adiw	r26, 0x01	; 1
    2e7c:	8c 91       	ld	r24, X
    2e7e:	09 95       	icall
	(p_uart_control->pWriteTxBuffer)(p_uprobot_send->method_code);						// 方法代号
    2e80:	d8 01       	movw	r26, r16
    2e82:	59 96       	adiw	r26, 0x19	; 25
    2e84:	ed 91       	ld	r30, X+
    2e86:	fc 91       	ld	r31, X
    2e88:	5a 97       	sbiw	r26, 0x1a	; 26
    2e8a:	d7 01       	movw	r26, r14
    2e8c:	12 96       	adiw	r26, 0x02	; 2
    2e8e:	8c 91       	ld	r24, X
    2e90:	09 95       	icall
	(p_uart_control->pWriteTxBuffer)(p_uprobot_send->state_byte);						// 状态标志
    2e92:	d8 01       	movw	r26, r16
    2e94:	59 96       	adiw	r26, 0x19	; 25
    2e96:	ed 91       	ld	r30, X+
    2e98:	fc 91       	ld	r31, X
    2e9a:	5a 97       	sbiw	r26, 0x1a	; 26
    2e9c:	d7 01       	movw	r26, r14
    2e9e:	13 96       	adiw	r26, 0x03	; 3
    2ea0:	8c 91       	ld	r24, X
    2ea2:	09 95       	icall
    2ea4:	90 e0       	ldi	r25, 0x00	; 0
    2ea6:	0e c0       	rjmp	.+28     	; 0x2ec4 <UpRobotSlaveTxPacket+0xaa>
	
	for(count = 0; count < (p_uprobot_send->parameter_length); count++)
	{
		(p_uart_control->pWriteTxBuffer)(p_uprobot_send->parameter[count]);				// 写数据组
    2ea8:	f7 01       	movw	r30, r14
    2eaa:	e9 0f       	add	r30, r25
    2eac:	f1 1d       	adc	r31, r1
    2eae:	d8 01       	movw	r26, r16
    2eb0:	59 96       	adiw	r26, 0x19	; 25
    2eb2:	2d 91       	ld	r18, X+
    2eb4:	3c 91       	ld	r19, X
    2eb6:	5a 97       	sbiw	r26, 0x1a	; 26
    2eb8:	85 81       	ldd	r24, Z+5	; 0x05
    2eba:	99 83       	std	Y+1, r25	; 0x01
    2ebc:	f9 01       	movw	r30, r18
    2ebe:	09 95       	icall
	(p_uart_control->pWriteTxBuffer)(p_uprobot_send->parameter_length);					// 参数长度
	(p_uart_control->pWriteTxBuffer)(p_uprobot_send->functional_unit);					// 功能单元代号
	(p_uart_control->pWriteTxBuffer)(p_uprobot_send->method_code);						// 方法代号
	(p_uart_control->pWriteTxBuffer)(p_uprobot_send->state_byte);						// 状态标志
	
	for(count = 0; count < (p_uprobot_send->parameter_length); count++)
    2ec0:	99 81       	ldd	r25, Y+1	; 0x01
    2ec2:	9f 5f       	subi	r25, 0xFF	; 255
    2ec4:	f7 01       	movw	r30, r14
    2ec6:	34 81       	ldd	r19, Z+4	; 0x04
    2ec8:	93 17       	cp	r25, r19
    2eca:	70 f3       	brcs	.-36     	; 0x2ea8 <UpRobotSlaveTxPacket+0x8e>
		(p_uart_control->pWriteTxBuffer)(p_uprobot_send->parameter[count]);				// 写数据组
	}
	
	check_sum = UPROBOT_START1;
	check_sum += UPROBOT_START2;
	check_sum += p_uprobot_send->device_id;
    2ecc:	90 81       	ld	r25, Z
    2ece:	81 81       	ldd	r24, Z+1	; 0x01
    2ed0:	98 0f       	add	r25, r24
	check_sum += p_uprobot_send->parameter_length;
    2ed2:	91 50       	subi	r25, 0x01	; 1
	check_sum += p_uprobot_send->functional_unit;
    2ed4:	82 81       	ldd	r24, Z+2	; 0x02
    2ed6:	98 0f       	add	r25, r24
	check_sum += p_uprobot_send->method_code;
    2ed8:	83 81       	ldd	r24, Z+3	; 0x03
    2eda:	98 0f       	add	r25, r24
	check_sum += p_uprobot_send->state_byte;
    2edc:	93 0f       	add	r25, r19
    2ede:	20 e0       	ldi	r18, 0x00	; 0
    2ee0:	06 c0       	rjmp	.+12     	; 0x2eee <UpRobotSlaveTxPacket+0xd4>
	
	for(count = 0; count < (p_uprobot_send->parameter_length); count++)
	{
		check_sum += p_uprobot_send->parameter[count];									// 校验和计算
    2ee2:	f7 01       	movw	r30, r14
    2ee4:	e2 0f       	add	r30, r18
    2ee6:	f1 1d       	adc	r31, r1
    2ee8:	85 81       	ldd	r24, Z+5	; 0x05
    2eea:	98 0f       	add	r25, r24
	check_sum += p_uprobot_send->parameter_length;
	check_sum += p_uprobot_send->functional_unit;
	check_sum += p_uprobot_send->method_code;
	check_sum += p_uprobot_send->state_byte;
	
	for(count = 0; count < (p_uprobot_send->parameter_length); count++)
    2eec:	2f 5f       	subi	r18, 0xFF	; 255
    2eee:	23 17       	cp	r18, r19
    2ef0:	c0 f3       	brcs	.-16     	; 0x2ee2 <UpRobotSlaveTxPacket+0xc8>
	{
		check_sum += p_uprobot_send->parameter[count];									// 校验和计算
	}

	(p_uart_control->pWriteTxBuffer)(check_sum);
    2ef2:	d8 01       	movw	r26, r16
    2ef4:	59 96       	adiw	r26, 0x19	; 25
    2ef6:	ed 91       	ld	r30, X+
    2ef8:	fc 91       	ld	r31, X
    2efa:	5a 97       	sbiw	r26, 0x1a	; 26
    2efc:	89 2f       	mov	r24, r25
    2efe:	09 95       	icall
	
	p_uart_control->pSendTxBuffer();													// 发送缓冲数据
    2f00:	d8 01       	movw	r26, r16
    2f02:	5b 96       	adiw	r26, 0x1b	; 27
    2f04:	ed 91       	ld	r30, X+
    2f06:	fc 91       	ld	r31, X
    2f08:	5c 97       	sbiw	r26, 0x1c	; 28
    2f0a:	09 95       	icall
	
	return ERR_OK;
}
    2f0c:	80 e0       	ldi	r24, 0x00	; 0
    2f0e:	0f 90       	pop	r0
    2f10:	cf 91       	pop	r28
    2f12:	df 91       	pop	r29
    2f14:	1f 91       	pop	r17
    2f16:	0f 91       	pop	r16
    2f18:	ff 90       	pop	r15
    2f1a:	ef 90       	pop	r14
    2f1c:	08 95       	ret

00002f1e <UpRobotMasterRxPacket>:
** 修订人:
** 修订日期:
**------------------------------------------------------------------------------------------------------------------------
*************************************************************************************************************************/
static uint8 UpRobotMasterRxPacket(UPROBOT_MRSS_STRUCT* p_uprobot_receive, UART_CONTROL_STRUCT* p_uart_control)
{	
    2f1e:	8f 92       	push	r8
    2f20:	9f 92       	push	r9
    2f22:	af 92       	push	r10
    2f24:	bf 92       	push	r11
    2f26:	df 92       	push	r13
    2f28:	ef 92       	push	r14
    2f2a:	ff 92       	push	r15
    2f2c:	0f 93       	push	r16
    2f2e:	1f 93       	push	r17
    2f30:	df 93       	push	r29
    2f32:	cf 93       	push	r28
    2f34:	0f 92       	push	r0
    2f36:	cd b7       	in	r28, 0x3d	; 61
    2f38:	de b7       	in	r29, 0x3e	; 62
    2f3a:	7c 01       	movw	r14, r24
    2f3c:	5b 01       	movw	r10, r22
	uint8 count = 0;														// 循环次数计数器
	uint32 timeout_count = 0;												// 等待超时计数器

	uint8 temp_buffer = 0;													// 数据缓存
    2f3e:	19 82       	std	Y+1, r1	; 0x01
    2f40:	dd 24       	eor	r13, r13
    2f42:	d3 94       	inc	r13
				return ERR_OVERFLOW;									// 等待超时
			}
		}
		
		cli();
		(p_uart_control->pReceiveByte)(&temp_buffer);
    2f44:	4e 01       	movw	r8, r28
    2f46:	08 94       	sec
    2f48:	81 1c       	adc	r8, r1
    2f4a:	91 1c       	adc	r9, r1
    2f4c:	08 c0       	rjmp	.+16     	; 0x2f5e <UpRobotMasterRxPacket+0x40>
static uint8 UpRobotMasterRxPacket(UPROBOT_MRSS_STRUCT* p_uprobot_receive, UART_CONTROL_STRUCT* p_uart_control)
{	
	uint8 count = 0;														// 循环次数计数器
	uint32 timeout_count = 0;												// 等待超时计数器

	uint8 temp_buffer = 0;													// 数据缓存
    2f4e:	0f 5f       	subi	r16, 0xFF	; 255
    2f50:	1f 4f       	sbci	r17, 0xFF	; 255
		timeout_count = 0;
		
		while(!p_uart_control->pTestReceiveBuffer())					// 如果接收数据不成功(FALSE)则开始计时
		{
			timeout_count++;
			if(timeout_count > UPROBOT_RX_TIMEOUT_COUNT)
    2f52:	85 e0       	ldi	r24, 0x05	; 5
    2f54:	09 37       	cpi	r16, 0x79	; 121
    2f56:	18 07       	cpc	r17, r24
    2f58:	21 f4       	brne	.+8      	; 0x2f62 <UpRobotMasterRxPacket+0x44>
    2f5a:	84 e0       	ldi	r24, 0x04	; 4
    2f5c:	69 c0       	rjmp	.+210    	; 0x3030 <UpRobotMasterRxPacket+0x112>
    2f5e:	00 e0       	ldi	r16, 0x00	; 0
    2f60:	10 e0       	ldi	r17, 0x00	; 0
	
	for(count = 1; count <= (UPROBOT_MRSS_MAX_PARAMETER_LENGTH + 8); count++)
	{
		timeout_count = 0;
		
		while(!p_uart_control->pTestReceiveBuffer())					// 如果接收数据不成功(FALSE)则开始计时
    2f62:	d5 01       	movw	r26, r10
    2f64:	5d 96       	adiw	r26, 0x1d	; 29
    2f66:	ed 91       	ld	r30, X+
    2f68:	fc 91       	ld	r31, X
    2f6a:	5e 97       	sbiw	r26, 0x1e	; 30
    2f6c:	09 95       	icall
    2f6e:	88 23       	and	r24, r24
    2f70:	71 f3       	breq	.-36     	; 0x2f4e <UpRobotMasterRxPacket+0x30>
			{
				return ERR_OVERFLOW;									// 等待超时
			}
		}
		
		cli();
    2f72:	f8 94       	cli
		(p_uart_control->pReceiveByte)(&temp_buffer);
    2f74:	d5 01       	movw	r26, r10
    2f76:	57 96       	adiw	r26, 0x17	; 23
    2f78:	ed 91       	ld	r30, X+
    2f7a:	fc 91       	ld	r31, X
    2f7c:	58 97       	sbiw	r26, 0x18	; 24
    2f7e:	c4 01       	movw	r24, r8
    2f80:	09 95       	icall
		sei();
    2f82:	78 94       	sei

		switch(count)
    2f84:	b3 e0       	ldi	r27, 0x03	; 3
    2f86:	db 16       	cp	r13, r27
    2f88:	c1 f0       	breq	.+48     	; 0x2fba <UpRobotMasterRxPacket+0x9c>
    2f8a:	bd 15       	cp	r27, r13
    2f8c:	38 f0       	brcs	.+14     	; 0x2f9c <UpRobotMasterRxPacket+0x7e>
    2f8e:	e1 e0       	ldi	r30, 0x01	; 1
    2f90:	de 16       	cp	r13, r30
    2f92:	59 f0       	breq	.+22     	; 0x2faa <UpRobotMasterRxPacket+0x8c>
    2f94:	f2 e0       	ldi	r31, 0x02	; 2
    2f96:	df 16       	cp	r13, r31
    2f98:	e1 f4       	brne	.+56     	; 0x2fd2 <UpRobotMasterRxPacket+0xb4>
    2f9a:	0b c0       	rjmp	.+22     	; 0x2fb2 <UpRobotMasterRxPacket+0x94>
    2f9c:	84 e0       	ldi	r24, 0x04	; 4
    2f9e:	d8 16       	cp	r13, r24
    2fa0:	79 f0       	breq	.+30     	; 0x2fc0 <UpRobotMasterRxPacket+0xa2>
    2fa2:	a5 e0       	ldi	r26, 0x05	; 5
    2fa4:	da 16       	cp	r13, r26
    2fa6:	a9 f4       	brne	.+42     	; 0x2fd2 <UpRobotMasterRxPacket+0xb4>
    2fa8:	10 c0       	rjmp	.+32     	; 0x2fca <UpRobotMasterRxPacket+0xac>
		{
			case 1:															// 匹配启动字1
			{
				if(UPROBOT_START1 != temp_buffer)
    2faa:	89 81       	ldd	r24, Y+1	; 0x01
    2fac:	85 35       	cpi	r24, 0x55	; 85
    2fae:	c9 f5       	brne	.+114    	; 0x3022 <UpRobotMasterRxPacket+0x104>
    2fb0:	39 c0       	rjmp	.+114    	; 0x3024 <UpRobotMasterRxPacket+0x106>
				}
				break;
			}
			case 2:															// 匹配启动字2
			{		
				if(UPROBOT_START2 != temp_buffer)
    2fb2:	89 81       	ldd	r24, Y+1	; 0x01
    2fb4:	8a 3a       	cpi	r24, 0xAA	; 170
    2fb6:	a9 f5       	brne	.+106    	; 0x3022 <UpRobotMasterRxPacket+0x104>
    2fb8:	35 c0       	rjmp	.+106    	; 0x3024 <UpRobotMasterRxPacket+0x106>
				}
				break;
			}
			case 3:															// 设备ID号
			{
				p_uprobot_receive->device_id = temp_buffer;
    2fba:	89 81       	ldd	r24, Y+1	; 0x01
    2fbc:	f7 01       	movw	r30, r14
    2fbe:	18 c0       	rjmp	.+48     	; 0x2ff0 <UpRobotMasterRxPacket+0xd2>
				break;
			}
			case 4:															// 数据包长度
			{
				p_uprobot_receive->parameter_length = temp_buffer ;
    2fc0:	89 81       	ldd	r24, Y+1	; 0x01
    2fc2:	d7 01       	movw	r26, r14
    2fc4:	14 96       	adiw	r26, 0x04	; 4
    2fc6:	8c 93       	st	X, r24
    2fc8:	2d c0       	rjmp	.+90     	; 0x3024 <UpRobotMasterRxPacket+0x106>
				break;
			}
			case 5:															// 状态字
			{
				p_uprobot_receive->state_byte  = temp_buffer;
    2fca:	89 81       	ldd	r24, Y+1	; 0x01
    2fcc:	f7 01       	movw	r30, r14
    2fce:	83 83       	std	Z+3, r24	; 0x03
    2fd0:	29 c0       	rjmp	.+82     	; 0x3024 <UpRobotMasterRxPacket+0x106>
				break;
			}
			default:
			{
				if(count < (6 + p_uprobot_receive->parameter_length))
    2fd2:	d7 01       	movw	r26, r14
    2fd4:	14 96       	adiw	r26, 0x04	; 4
    2fd6:	3c 91       	ld	r19, X
    2fd8:	ed 2d       	mov	r30, r13
    2fda:	f0 e0       	ldi	r31, 0x00	; 0
    2fdc:	83 2f       	mov	r24, r19
    2fde:	90 e0       	ldi	r25, 0x00	; 0
    2fe0:	05 96       	adiw	r24, 0x05	; 5
    2fe2:	8e 17       	cp	r24, r30
    2fe4:	9f 07       	cpc	r25, r31
    2fe6:	34 f0       	brlt	.+12     	; 0x2ff4 <UpRobotMasterRxPacket+0xd6>
				{
					p_uprobot_receive->parameter[count - 7] = temp_buffer;
    2fe8:	ee 0d       	add	r30, r14
    2fea:	ff 1d       	adc	r31, r15
    2fec:	32 97       	sbiw	r30, 0x02	; 2
    2fee:	89 81       	ldd	r24, Y+1	; 0x01
    2ff0:	80 83       	st	Z, r24
    2ff2:	18 c0       	rjmp	.+48     	; 0x3024 <UpRobotMasterRxPacket+0x106>
				}
				else
				{
					check_sum = UPROBOT_START1;								// 计算检验和
					check_sum += UPROBOT_START2;
					check_sum += p_uprobot_receive->device_id;			
    2ff4:	f7 01       	movw	r30, r14
    2ff6:	90 81       	ld	r25, Z
    2ff8:	83 81       	ldd	r24, Z+3	; 0x03
    2ffa:	98 0f       	add	r25, r24
					check_sum += p_uprobot_receive->parameter_length;
    2ffc:	91 50       	subi	r25, 0x01	; 1
					check_sum += p_uprobot_receive->state_byte;
    2ffe:	93 0f       	add	r25, r19
    3000:	20 e0       	ldi	r18, 0x00	; 0
    3002:	06 c0       	rjmp	.+12     	; 0x3010 <UpRobotMasterRxPacket+0xf2>
					for(check_sum_count = 0; check_sum_count < (p_uprobot_receive->parameter_length); check_sum_count++)
					{
						check_sum += p_uprobot_receive -> parameter[check_sum_count];
    3004:	f7 01       	movw	r30, r14
    3006:	e2 0f       	add	r30, r18
    3008:	f1 1d       	adc	r31, r1
    300a:	85 81       	ldd	r24, Z+5	; 0x05
    300c:	98 0f       	add	r25, r24
					check_sum = UPROBOT_START1;								// 计算检验和
					check_sum += UPROBOT_START2;
					check_sum += p_uprobot_receive->device_id;			
					check_sum += p_uprobot_receive->parameter_length;
					check_sum += p_uprobot_receive->state_byte;
					for(check_sum_count = 0; check_sum_count < (p_uprobot_receive->parameter_length); check_sum_count++)
    300e:	2f 5f       	subi	r18, 0xFF	; 255
    3010:	23 17       	cp	r18, r19
    3012:	c0 f3       	brcs	.-16     	; 0x3004 <UpRobotMasterRxPacket+0xe6>
					{
						check_sum += p_uprobot_receive -> parameter[check_sum_count];
					}
					
					if(check_sum == temp_buffer)
    3014:	89 81       	ldd	r24, Y+1	; 0x01
    3016:	98 17       	cp	r25, r24
    3018:	11 f0       	breq	.+4      	; 0x301e <UpRobotMasterRxPacket+0x100>
    301a:	84 e1       	ldi	r24, 0x14	; 20
    301c:	09 c0       	rjmp	.+18     	; 0x3030 <UpRobotMasterRxPacket+0x112>
    301e:	80 e0       	ldi	r24, 0x00	; 0
    3020:	07 c0       	rjmp	.+14     	; 0x3030 <UpRobotMasterRxPacket+0x112>
    3022:	dd 24       	eor	r13, r13

	uint8 temp_buffer = 0;													// 数据缓存
	uint8 check_sum = 0;
	uint8 check_sum_count = 0;
	
	for(count = 1; count <= (UPROBOT_MRSS_MAX_PARAMETER_LENGTH + 8); count++)
    3024:	d3 94       	inc	r13
    3026:	ff e0       	ldi	r31, 0x0F	; 15
    3028:	fd 15       	cp	r31, r13
    302a:	08 f0       	brcs	.+2      	; 0x302e <UpRobotMasterRxPacket+0x110>
    302c:	98 cf       	rjmp	.-208    	; 0x2f5e <UpRobotMasterRxPacket+0x40>
    302e:	85 e0       	ldi	r24, 0x05	; 5
		}	 
	}
	
	
	return ERR_MATH;														// 无效缓冲数据溢出
}
    3030:	0f 90       	pop	r0
    3032:	cf 91       	pop	r28
    3034:	df 91       	pop	r29
    3036:	1f 91       	pop	r17
    3038:	0f 91       	pop	r16
    303a:	ff 90       	pop	r15
    303c:	ef 90       	pop	r14
    303e:	df 90       	pop	r13
    3040:	bf 90       	pop	r11
    3042:	af 90       	pop	r10
    3044:	9f 90       	pop	r9
    3046:	8f 90       	pop	r8
    3048:	08 95       	ret

0000304a <UpRobotMasterTxPacket>:
** 修订人:
** 修订日期:
**------------------------------------------------------------------------------------------------------------------------
*************************************************************************************************************************/
static uint8 UpRobotMasterTxPacket(UPROBOT_MSSR_STRUCT* p_uprobot_send, UART_CONTROL_STRUCT* p_uart_control)
{
    304a:	ef 92       	push	r14
    304c:	ff 92       	push	r15
    304e:	0f 93       	push	r16
    3050:	1f 93       	push	r17
    3052:	df 93       	push	r29
    3054:	cf 93       	push	r28
    3056:	0f 92       	push	r0
    3058:	cd b7       	in	r28, 0x3d	; 61
    305a:	de b7       	in	r29, 0x3e	; 62
    305c:	7c 01       	movw	r14, r24
    305e:	8b 01       	movw	r16, r22
	uint8 count = 0;
	uint8 check_sum = 0;
	
	(p_uart_control->pWriteTxBuffer)(UPROBOT_START1);									// 开始位1、2
    3060:	db 01       	movw	r26, r22
    3062:	59 96       	adiw	r26, 0x19	; 25
    3064:	ed 91       	ld	r30, X+
    3066:	fc 91       	ld	r31, X
    3068:	5a 97       	sbiw	r26, 0x1a	; 26
    306a:	85 e5       	ldi	r24, 0x55	; 85
    306c:	09 95       	icall
	(p_uart_control->pWriteTxBuffer)(UPROBOT_START2);
    306e:	d8 01       	movw	r26, r16
    3070:	59 96       	adiw	r26, 0x19	; 25
    3072:	ed 91       	ld	r30, X+
    3074:	fc 91       	ld	r31, X
    3076:	5a 97       	sbiw	r26, 0x1a	; 26
    3078:	8a ea       	ldi	r24, 0xAA	; 170
    307a:	09 95       	icall
	(p_uart_control->pWriteTxBuffer)(p_uprobot_send->device_id);						// 设备ID
    307c:	d8 01       	movw	r26, r16
    307e:	59 96       	adiw	r26, 0x19	; 25
    3080:	ed 91       	ld	r30, X+
    3082:	fc 91       	ld	r31, X
    3084:	5a 97       	sbiw	r26, 0x1a	; 26
    3086:	d7 01       	movw	r26, r14
    3088:	8c 91       	ld	r24, X
    308a:	09 95       	icall
	(p_uart_control->pWriteTxBuffer)(p_uprobot_send->parameter_length);					// 参数长度
    308c:	d8 01       	movw	r26, r16
    308e:	59 96       	adiw	r26, 0x19	; 25
    3090:	ed 91       	ld	r30, X+
    3092:	fc 91       	ld	r31, X
    3094:	5a 97       	sbiw	r26, 0x1a	; 26
    3096:	d7 01       	movw	r26, r14
    3098:	13 96       	adiw	r26, 0x03	; 3
    309a:	8c 91       	ld	r24, X
    309c:	09 95       	icall
	(p_uart_control->pWriteTxBuffer)(p_uprobot_send->functional_unit);					// 功能模块编号
    309e:	d8 01       	movw	r26, r16
    30a0:	59 96       	adiw	r26, 0x19	; 25
    30a2:	ed 91       	ld	r30, X+
    30a4:	fc 91       	ld	r31, X
    30a6:	5a 97       	sbiw	r26, 0x1a	; 26
    30a8:	d7 01       	movw	r26, r14
    30aa:	11 96       	adiw	r26, 0x01	; 1
    30ac:	8c 91       	ld	r24, X
    30ae:	09 95       	icall
	(p_uart_control->pWriteTxBuffer)(p_uprobot_send->method_code);						// 方法编号
    30b0:	d8 01       	movw	r26, r16
    30b2:	59 96       	adiw	r26, 0x19	; 25
    30b4:	ed 91       	ld	r30, X+
    30b6:	fc 91       	ld	r31, X
    30b8:	5a 97       	sbiw	r26, 0x1a	; 26
    30ba:	d7 01       	movw	r26, r14
    30bc:	12 96       	adiw	r26, 0x02	; 2
    30be:	8c 91       	ld	r24, X
    30c0:	09 95       	icall
    30c2:	90 e0       	ldi	r25, 0x00	; 0
    30c4:	0e c0       	rjmp	.+28     	; 0x30e2 <UpRobotMasterTxPacket+0x98>
	
	for(count = 0; count < (p_uprobot_send->parameter_length); count++)
	{
		(p_uart_control->pWriteTxBuffer)(p_uprobot_send->parameter[count]);				// 写数据组
    30c6:	f7 01       	movw	r30, r14
    30c8:	e9 0f       	add	r30, r25
    30ca:	f1 1d       	adc	r31, r1
    30cc:	d8 01       	movw	r26, r16
    30ce:	59 96       	adiw	r26, 0x19	; 25
    30d0:	2d 91       	ld	r18, X+
    30d2:	3c 91       	ld	r19, X
    30d4:	5a 97       	sbiw	r26, 0x1a	; 26
    30d6:	84 81       	ldd	r24, Z+4	; 0x04
    30d8:	99 83       	std	Y+1, r25	; 0x01
    30da:	f9 01       	movw	r30, r18
    30dc:	09 95       	icall
	(p_uart_control->pWriteTxBuffer)(p_uprobot_send->device_id);						// 设备ID
	(p_uart_control->pWriteTxBuffer)(p_uprobot_send->parameter_length);					// 参数长度
	(p_uart_control->pWriteTxBuffer)(p_uprobot_send->functional_unit);					// 功能模块编号
	(p_uart_control->pWriteTxBuffer)(p_uprobot_send->method_code);						// 方法编号
	
	for(count = 0; count < (p_uprobot_send->parameter_length); count++)
    30de:	99 81       	ldd	r25, Y+1	; 0x01
    30e0:	9f 5f       	subi	r25, 0xFF	; 255
    30e2:	f7 01       	movw	r30, r14
    30e4:	33 81       	ldd	r19, Z+3	; 0x03
    30e6:	93 17       	cp	r25, r19
    30e8:	70 f3       	brcs	.-36     	; 0x30c6 <UpRobotMasterTxPacket+0x7c>
		(p_uart_control->pWriteTxBuffer)(p_uprobot_send->parameter[count]);				// 写数据组
	}
	
	check_sum = UPROBOT_START1;
	check_sum += UPROBOT_START2;
	check_sum += p_uprobot_send->device_id;
    30ea:	90 81       	ld	r25, Z
    30ec:	81 81       	ldd	r24, Z+1	; 0x01
    30ee:	98 0f       	add	r25, r24
	check_sum += p_uprobot_send->parameter_length;
    30f0:	91 50       	subi	r25, 0x01	; 1
	check_sum += p_uprobot_send->functional_unit;
    30f2:	82 81       	ldd	r24, Z+2	; 0x02
    30f4:	98 0f       	add	r25, r24
	check_sum += p_uprobot_send->method_code;
    30f6:	93 0f       	add	r25, r19
    30f8:	20 e0       	ldi	r18, 0x00	; 0
    30fa:	06 c0       	rjmp	.+12     	; 0x3108 <UpRobotMasterTxPacket+0xbe>
	
	for(count = 0; count < (p_uprobot_send->parameter_length); count++)
	{
		check_sum += p_uprobot_send->parameter[count];									// 校验和计算
    30fc:	f7 01       	movw	r30, r14
    30fe:	e2 0f       	add	r30, r18
    3100:	f1 1d       	adc	r31, r1
    3102:	84 81       	ldd	r24, Z+4	; 0x04
    3104:	98 0f       	add	r25, r24
	check_sum += p_uprobot_send->device_id;
	check_sum += p_uprobot_send->parameter_length;
	check_sum += p_uprobot_send->functional_unit;
	check_sum += p_uprobot_send->method_code;
	
	for(count = 0; count < (p_uprobot_send->parameter_length); count++)
    3106:	2f 5f       	subi	r18, 0xFF	; 255
    3108:	23 17       	cp	r18, r19
    310a:	c0 f3       	brcs	.-16     	; 0x30fc <UpRobotMasterTxPacket+0xb2>
	{
		check_sum += p_uprobot_send->parameter[count];									// 校验和计算
	}

	(p_uart_control->pWriteTxBuffer)(check_sum);
    310c:	d8 01       	movw	r26, r16
    310e:	59 96       	adiw	r26, 0x19	; 25
    3110:	ed 91       	ld	r30, X+
    3112:	fc 91       	ld	r31, X
    3114:	5a 97       	sbiw	r26, 0x1a	; 26
    3116:	89 2f       	mov	r24, r25
    3118:	09 95       	icall
	
	p_uart_control->pSendTxBuffer();													// 发送缓冲数据
    311a:	d8 01       	movw	r26, r16
    311c:	5b 96       	adiw	r26, 0x1b	; 27
    311e:	ed 91       	ld	r30, X+
    3120:	fc 91       	ld	r31, X
    3122:	5c 97       	sbiw	r26, 0x1c	; 28
    3124:	09 95       	icall
	
	return ERR_OK;
}
    3126:	80 e0       	ldi	r24, 0x00	; 0
    3128:	0f 90       	pop	r0
    312a:	cf 91       	pop	r28
    312c:	df 91       	pop	r29
    312e:	1f 91       	pop	r17
    3130:	0f 91       	pop	r16
    3132:	ff 90       	pop	r15
    3134:	ef 90       	pop	r14
    3136:	08 95       	ret

00003138 <GetAdcRegValue>:
** 修订人:
** 修订日期:
**------------------------------------------------------------------------------------------------------------------------
*************************************************************************************************************************/
static uint8 GetAdcRegValue(uint16* item)
{
    3138:	fc 01       	movw	r30, r24
	if(GetRegBit(ADC_ADCSRA, ADIF))										// 查询转换完成中断标志
    313a:	34 99       	sbic	0x06, 4	; 6
    313c:	02 c0       	rjmp	.+4      	; 0x3142 <GetAdcRegValue+0xa>
    313e:	80 e0       	ldi	r24, 0x00	; 0
    3140:	08 95       	ret
	{
		In16(*item, GetReg(ADC_ADC_L), GetReg(ADC_ADC_H));				// 读取转换结果
    3142:	84 b1       	in	r24, 0x04	; 4
    3144:	45 b1       	in	r20, 0x05	; 5
    3146:	34 2f       	mov	r19, r20
    3148:	20 e0       	ldi	r18, 0x00	; 0
    314a:	90 e0       	ldi	r25, 0x00	; 0
    314c:	28 2b       	or	r18, r24
    314e:	39 2b       	or	r19, r25
    3150:	31 83       	std	Z+1, r19	; 0x01
    3152:	20 83       	st	Z, r18
		SetRegBit(ADC_ADCSRA, ADIF);									// 清中断标志
    3154:	34 9a       	sbi	0x06, 4	; 6
    3156:	81 e0       	ldi	r24, 0x01	; 1
	}
	else
	{
		return FALSE;
	}
}
    3158:	08 95       	ret

0000315a <GetAdcValue>:
** 修订人:
** 修订日期:
**------------------------------------------------------------------------------------------------------------------------
*************************************************************************************************************************/
static uint8 GetAdcValue(uint8 channel, uint16* item)
{
    315a:	e8 2f       	mov	r30, r24
    315c:	db 01       	movw	r26, r22
	if(channel > 7)
    315e:	88 30       	cpi	r24, 0x08	; 8
    3160:	90 f4       	brcc	.+36     	; 0x3186 <GetAdcValue+0x2c>
	{
		return FALSE;
	}
	
	if(ERR_OK == (adc_control.state & ERR_MASK))
    3162:	80 91 89 06 	lds	r24, 0x0689
    3166:	90 e0       	ldi	r25, 0x00	; 0
    3168:	8f 73       	andi	r24, 0x3F	; 63
    316a:	90 70       	andi	r25, 0x00	; 0
    316c:	89 2b       	or	r24, r25
    316e:	59 f4       	brne	.+22     	; 0x3186 <GetAdcValue+0x2c>
	{
		*item = adc_control.adc_value_buffer[channel];
    3170:	f0 e0       	ldi	r31, 0x00	; 0
    3172:	ee 0f       	add	r30, r30
    3174:	ff 1f       	adc	r31, r31
    3176:	ed 56       	subi	r30, 0x6D	; 109
    3178:	f9 4f       	sbci	r31, 0xF9	; 249
    317a:	80 81       	ld	r24, Z
    317c:	91 81       	ldd	r25, Z+1	; 0x01
    317e:	8d 93       	st	X+, r24
    3180:	9c 93       	st	X, r25
    3182:	81 e0       	ldi	r24, 0x01	; 1
    3184:	08 95       	ret
		return TRUE;
    3186:	80 e0       	ldi	r24, 0x00	; 0
	}
	else
	{
		return FALSE;
	}
}
    3188:	08 95       	ret

0000318a <StartAdc>:
** 修订日期:
**------------------------------------------------------------------------------------------------------------------------
*************************************************************************************************************************/
static void StartAdc(uint8 channel)
{
	SetAdcChannel(adc_control.mapping[channel]);								// 选择通道
    318a:	e9 e8       	ldi	r30, 0x89	; 137
    318c:	f6 e0       	ldi	r31, 0x06	; 6
    318e:	e8 0f       	add	r30, r24
    3190:	f1 1d       	adc	r31, r1
    3192:	82 81       	ldd	r24, Z+2	; 0x02
    3194:	8f 71       	andi	r24, 0x1F	; 31
    3196:	87 b9       	out	0x07, r24	; 7
	SetRegBit(ADC_ADCSRA, ADSC);												// 启动转换
    3198:	36 9a       	sbi	0x06, 6	; 6
}
    319a:	08 95       	ret

0000319c <IsrAdcSampling>:
** 修订人:
** 修订日期:
**------------------------------------------------------------------------------------------------------------------------
*************************************************************************************************************************/
void IsrAdcSampling(void)
{
    319c:	1f 93       	push	r17
	uint8 temp_sign = FALSE;

	uint8 temp_value = 0;
	
	temp_value = adc_control.channel;
    319e:	80 91 8a 06 	lds	r24, 0x068A

	temp_sign = (adc_control.pGetRegValue)(&adc_control.adc_value_buffer[temp_value++]);
    31a2:	18 2f       	mov	r17, r24
    31a4:	1f 5f       	subi	r17, 0xFF	; 255
    31a6:	90 e0       	ldi	r25, 0x00	; 0
    31a8:	88 0f       	add	r24, r24
    31aa:	99 1f       	adc	r25, r25
    31ac:	e0 91 a7 06 	lds	r30, 0x06A7
    31b0:	f0 91 a8 06 	lds	r31, 0x06A8
    31b4:	8d 56       	subi	r24, 0x6D	; 109
    31b6:	99 4f       	sbci	r25, 0xF9	; 249
    31b8:	09 95       	icall

	if(FALSE == temp_sign)
    31ba:	88 23       	and	r24, r24
    31bc:	31 f4       	brne	.+12     	; 0x31ca <IsrAdcSampling+0x2e>
	{
		ClrRegBits(adc_control.state , ERR_MASK);
    31be:	80 91 89 06 	lds	r24, 0x0689
    31c2:	80 7c       	andi	r24, 0xC0	; 192
		SetRegBits(adc_control.state , ERR_NOTAVAIL);
    31c4:	89 60       	ori	r24, 0x09	; 9
    31c6:	80 93 89 06 	sts	0x0689, r24
	}

	if(temp_value > 7)
    31ca:	18 30       	cpi	r17, 0x08	; 8
    31cc:	08 f0       	brcs	.+2      	; 0x31d0 <IsrAdcSampling+0x34>
    31ce:	10 e0       	ldi	r17, 0x00	; 0
	{
		temp_value = 0;
	}

	(adc_control.pStartConvert)(temp_value);							// 启动下一通道转换
    31d0:	e0 91 a5 06 	lds	r30, 0x06A5
    31d4:	f0 91 a6 06 	lds	r31, 0x06A6
    31d8:	81 2f       	mov	r24, r17
    31da:	09 95       	icall
	adc_control.channel = temp_value;
    31dc:	10 93 8a 06 	sts	0x068A, r17
}
    31e0:	1f 91       	pop	r17
    31e2:	08 95       	ret

000031e4 <InitAdc>:
*************************************************************************************************************************/
static void InitAdc(void)
{
	SetReg(adc_control.state , 0x00);								// 初始化状态寄存器
		
	SetReg(ADC_DDR, 0x00);											// 初始化端口
    31e4:	10 92 61 00 	sts	0x0061, r1
	SetReg(ADC_PORT, 0x00);
    31e8:	10 92 62 00 	sts	0x0062, r1
	
	SetReg(ADC_ADMUX, ADC_REFERENCE);								// 设置电压基准源、通道默认为ADC0
    31ec:	17 b8       	out	0x07, r1	; 7
	SetReg(ADC_ADCSRA, (ADC_EN | ADC_PRESCALER));					// 设置分频数、启动ADC单元
    31ee:	87 e8       	ldi	r24, 0x87	; 135
    31f0:	86 b9       	out	0x06, r24	; 6
	SetRegBit(ADC_ADCSRA, ADSC);									// 启动一次转换
    31f2:	36 9a       	sbi	0x06, 6	; 6
	
	adc_control.mapping[0] = 7;										// 初始化映射表
    31f4:	87 e0       	ldi	r24, 0x07	; 7
    31f6:	80 93 8b 06 	sts	0x068B, r24
	adc_control.mapping[1] = 0;										// 初始化映射表
    31fa:	10 92 8c 06 	sts	0x068C, r1
	adc_control.mapping[2] = 1;										// 初始化映射表
    31fe:	81 e0       	ldi	r24, 0x01	; 1
    3200:	80 93 8d 06 	sts	0x068D, r24
	adc_control.mapping[3] = 2;										// 初始化映射表
    3204:	82 e0       	ldi	r24, 0x02	; 2
    3206:	80 93 8e 06 	sts	0x068E, r24
	adc_control.mapping[4] = 3;										// 初始化映射表
    320a:	83 e0       	ldi	r24, 0x03	; 3
    320c:	80 93 8f 06 	sts	0x068F, r24
	adc_control.mapping[5] = 4;										// 初始化映射表
    3210:	84 e0       	ldi	r24, 0x04	; 4
    3212:	80 93 90 06 	sts	0x0690, r24
	adc_control.mapping[6] = 5;										// 初始化映射表
    3216:	85 e0       	ldi	r24, 0x05	; 5
    3218:	80 93 91 06 	sts	0x0691, r24
	adc_control.mapping[7] = 6;										// 初始化映射表
    321c:	86 e0       	ldi	r24, 0x06	; 6
    321e:	80 93 92 06 	sts	0x0692, r24
	
	adc_control.pStartConvert = StartAdc;
    3222:	85 ec       	ldi	r24, 0xC5	; 197
    3224:	98 e1       	ldi	r25, 0x18	; 24
    3226:	90 93 a6 06 	sts	0x06A6, r25
    322a:	80 93 a5 06 	sts	0x06A5, r24
	adc_control.pGetRegValue = GetAdcRegValue;						// 初始化函数指针
    322e:	8c e9       	ldi	r24, 0x9C	; 156
    3230:	98 e1       	ldi	r25, 0x18	; 24
    3232:	90 93 a8 06 	sts	0x06A8, r25
    3236:	80 93 a7 06 	sts	0x06A7, r24
	adc_control.pGetValue = GetAdcValue;
    323a:	8d ea       	ldi	r24, 0xAD	; 173
    323c:	98 e1       	ldi	r25, 0x18	; 24
    323e:	90 93 aa 06 	sts	0x06AA, r25
    3242:	80 93 a9 06 	sts	0x06A9, r24
	
	adc_control.channel = 0;										// 初始化通道编号
    3246:	10 92 8a 06 	sts	0x068A, r1
	
	SetRegBit(adc_control.state, INIT_COMPLETE);					// 置位初始化完成标志
    324a:	80 e8       	ldi	r24, 0x80	; 128
    324c:	80 93 89 06 	sts	0x0689, r24
}
    3250:	08 95       	ret

00003252 <SetExtIntMode>:
** 修订人:
** 修订日期:
**------------------------------------------------------------------------------------------------------------------------
*************************************************************************************************************************/
static void SetExtIntMode(uint8 number, uint8 mode)
{
    3252:	70 e0       	ldi	r23, 0x00	; 0
	uint8 temp_number = 0;

	if (number > 3)
    3254:	84 30       	cpi	r24, 0x04	; 4
    3256:	c0 f0       	brcs	.+48     	; 0x3288 <SetExtIntMode+0x36>
	{
		temp_number = number - 4;
		SetRegMask(EXTINT_EICRB, EXTINT_MODE_MASK << (temp_number << 1), mode << (temp_number << 1));
    3258:	4a b7       	in	r20, 0x3a	; 58
    325a:	84 50       	subi	r24, 0x04	; 4
    325c:	28 2f       	mov	r18, r24
    325e:	30 e0       	ldi	r19, 0x00	; 0
    3260:	22 0f       	add	r18, r18
    3262:	33 1f       	adc	r19, r19
    3264:	83 e0       	ldi	r24, 0x03	; 3
    3266:	90 e0       	ldi	r25, 0x00	; 0
    3268:	02 2e       	mov	r0, r18
    326a:	02 c0       	rjmp	.+4      	; 0x3270 <SetExtIntMode+0x1e>
    326c:	88 0f       	add	r24, r24
    326e:	99 1f       	adc	r25, r25
    3270:	0a 94       	dec	r0
    3272:	e2 f7       	brpl	.-8      	; 0x326c <SetExtIntMode+0x1a>
    3274:	80 95       	com	r24
    3276:	84 23       	and	r24, r20
    3278:	02 c0       	rjmp	.+4      	; 0x327e <SetExtIntMode+0x2c>
    327a:	66 0f       	add	r22, r22
    327c:	77 1f       	adc	r23, r23
    327e:	2a 95       	dec	r18
    3280:	e2 f7       	brpl	.-8      	; 0x327a <SetExtIntMode+0x28>
    3282:	86 2b       	or	r24, r22
    3284:	8a bf       	out	0x3a, r24	; 58
    3286:	08 95       	ret
	}
	else
	{
		SetRegMask(EXTINT_EICRA, EXTINT_MODE_MASK << (number << 1), mode << (number << 1));
    3288:	40 91 6a 00 	lds	r20, 0x006A
    328c:	28 2f       	mov	r18, r24
    328e:	30 e0       	ldi	r19, 0x00	; 0
    3290:	22 0f       	add	r18, r18
    3292:	33 1f       	adc	r19, r19
    3294:	83 e0       	ldi	r24, 0x03	; 3
    3296:	90 e0       	ldi	r25, 0x00	; 0
    3298:	02 2e       	mov	r0, r18
    329a:	02 c0       	rjmp	.+4      	; 0x32a0 <SetExtIntMode+0x4e>
    329c:	88 0f       	add	r24, r24
    329e:	99 1f       	adc	r25, r25
    32a0:	0a 94       	dec	r0
    32a2:	e2 f7       	brpl	.-8      	; 0x329c <SetExtIntMode+0x4a>
    32a4:	80 95       	com	r24
    32a6:	84 23       	and	r24, r20
    32a8:	02 c0       	rjmp	.+4      	; 0x32ae <SetExtIntMode+0x5c>
    32aa:	66 0f       	add	r22, r22
    32ac:	77 1f       	adc	r23, r23
    32ae:	2a 95       	dec	r18
    32b0:	e2 f7       	brpl	.-8      	; 0x32aa <SetExtIntMode+0x58>
    32b2:	86 2b       	or	r24, r22
    32b4:	80 93 6a 00 	sts	0x006A, r24
    32b8:	08 95       	ret

000032ba <EnableExtIntInterrupt>:
** 修订日期:
**------------------------------------------------------------------------------------------------------------------------
*************************************************************************************************************************/
static void EnableExtIntInterrupt(uint8 number)
{
	SetRegBit(EXTINT_EIMSK, number);
    32ba:	99 b7       	in	r25, 0x39	; 57
    32bc:	21 e0       	ldi	r18, 0x01	; 1
    32be:	30 e0       	ldi	r19, 0x00	; 0
    32c0:	02 c0       	rjmp	.+4      	; 0x32c6 <EnableExtIntInterrupt+0xc>
    32c2:	22 0f       	add	r18, r18
    32c4:	33 1f       	adc	r19, r19
    32c6:	8a 95       	dec	r24
    32c8:	e2 f7       	brpl	.-8      	; 0x32c2 <EnableExtIntInterrupt+0x8>
    32ca:	92 2b       	or	r25, r18
    32cc:	99 bf       	out	0x39, r25	; 57
}
    32ce:	08 95       	ret

000032d0 <DisableExtIntInterrupt>:
** 修订日期:
**------------------------------------------------------------------------------------------------------------------------
*************************************************************************************************************************/
static void DisableExtIntInterrupt(uint8 number)
{
	ClrRegBit(EXTINT_EIMSK, number);
    32d0:	99 b7       	in	r25, 0x39	; 57
    32d2:	21 e0       	ldi	r18, 0x01	; 1
    32d4:	30 e0       	ldi	r19, 0x00	; 0
    32d6:	02 c0       	rjmp	.+4      	; 0x32dc <DisableExtIntInterrupt+0xc>
    32d8:	22 0f       	add	r18, r18
    32da:	33 1f       	adc	r19, r19
    32dc:	8a 95       	dec	r24
    32de:	e2 f7       	brpl	.-8      	; 0x32d8 <DisableExtIntInterrupt+0x8>
    32e0:	20 95       	com	r18
    32e2:	29 23       	and	r18, r25
    32e4:	29 bf       	out	0x39, r18	; 57
}
    32e6:	08 95       	ret

000032e8 <InitExtInt>:
** 修订日期:
**------------------------------------------------------------------------------------------------------------------------
*************************************************************************************************************************/
static void InitExtInt(void)
{
	SetReg(extint_control.state , 0x00);								// 初始化状态寄存器
    32e8:	10 92 ab 06 	sts	0x06AB, r1

	ClrRegBit(EXTINT_DDR_INT0, EXTINT_DDR_BIT_INT0);
    32ec:	88 98       	cbi	0x11, 0	; 17
	ClrRegBit(EXTINT_PORT_INT0, EXTINT_PORT_BIT_INT0);
    32ee:	90 98       	cbi	0x12, 0	; 18

	SetExtIntMode(EXTINT_INT0, EXTINT_MODE_RISING);						// 设置INT0为上升沿中断
    32f0:	80 e0       	ldi	r24, 0x00	; 0
    32f2:	63 e0       	ldi	r22, 0x03	; 3
    32f4:	0e 94 29 19 	call	0x3252	; 0x3252 <SetExtIntMode>
** 修订日期:
**------------------------------------------------------------------------------------------------------------------------
*************************************************************************************************************************/
static void EnableExtIntInterrupt(uint8 number)
{
	SetRegBit(EXTINT_EIMSK, number);
    32f8:	89 b7       	in	r24, 0x39	; 57
    32fa:	81 60       	ori	r24, 0x01	; 1
    32fc:	89 bf       	out	0x39, r24	; 57

	SetExtIntMode(EXTINT_INT0, EXTINT_MODE_RISING);						// 设置INT0为上升沿中断

	EnableExtIntInterrupt(EXTINT_INT0);									// 使能INT0中断

	extint_control.pSetMode = SetExtIntMode;
    32fe:	89 e2       	ldi	r24, 0x29	; 41
    3300:	99 e1       	ldi	r25, 0x19	; 25
    3302:	90 93 af 06 	sts	0x06AF, r25
    3306:	80 93 ae 06 	sts	0x06AE, r24
	extint_control.pEnableInterrupt = EnableExtIntInterrupt;
    330a:	8d e5       	ldi	r24, 0x5D	; 93
    330c:	99 e1       	ldi	r25, 0x19	; 25
    330e:	90 93 b1 06 	sts	0x06B1, r25
    3312:	80 93 b0 06 	sts	0x06B0, r24
	extint_control.pDisableInterrupt = DisableExtIntInterrupt;
    3316:	88 e6       	ldi	r24, 0x68	; 104
    3318:	99 e1       	ldi	r25, 0x19	; 25
    331a:	90 93 b3 06 	sts	0x06B3, r25
    331e:	80 93 b2 06 	sts	0x06B2, r24

	SetRegBit(extint_control.state, INIT_COMPLETE);						// 置位初始化完成标志
    3322:	80 91 ab 06 	lds	r24, 0x06AB
    3326:	80 68       	ori	r24, 0x80	; 128
    3328:	80 93 ab 06 	sts	0x06AB, r24
}
    332c:	08 95       	ret

0000332e <SetGpioDdr>:
** 修订人:              
** 修订日期:            
**------------------------------------------------------------------------------------------------------------------------
*************************************************************************************************************************/
static void SetGpioDdr(uint16 val)
{
    332e:	cf 92       	push	r12
    3330:	df 92       	push	r13
    3332:	ef 92       	push	r14
    3334:	ff 92       	push	r15
    3336:	0f 93       	push	r16
    3338:	1f 93       	push	r17
    333a:	cf 93       	push	r28
    333c:	df 93       	push	r29
    333e:	8c 01       	movw	r16, r24
    3340:	c5 ee       	ldi	r28, 0xE5	; 229
    3342:	d6 e0       	ldi	r29, 0x06	; 6
    3344:	de 01       	movw	r26, r28
    3346:	58 96       	adiw	r26, 0x18	; 24
    3348:	be 01       	movw	r22, r28
    334a:	60 53       	subi	r22, 0x30	; 48
    334c:	70 40       	sbci	r23, 0x00	; 0
    334e:	40 e0       	ldi	r20, 0x00	; 0
    3350:	50 e0       	ldi	r21, 0x00	; 0
	uint8 count = 0;
	
	for(count = 0; count < 12; count++)
	{
		if(GetRegBit(val, count))
    3352:	81 e0       	ldi	r24, 0x01	; 1
    3354:	e8 2e       	mov	r14, r24
    3356:	f1 2c       	mov	r15, r1
    3358:	c7 01       	movw	r24, r14
    335a:	04 2e       	mov	r0, r20
    335c:	02 c0       	rjmp	.+4      	; 0x3362 <SetGpioDdr+0x34>
    335e:	88 0f       	add	r24, r24
    3360:	99 1f       	adc	r25, r25
    3362:	0a 94       	dec	r0
    3364:	e2 f7       	brpl	.-8      	; 0x335e <SetGpioDdr+0x30>
    3366:	80 23       	and	r24, r16
    3368:	91 23       	and	r25, r17
    336a:	e8 81       	ld	r30, Y
    336c:	f9 81       	ldd	r31, Y+1	; 0x01
    336e:	3c 91       	ld	r19, X
    3370:	89 2b       	or	r24, r25
    3372:	c9 f0       	breq	.+50     	; 0x33a6 <SetGpioDdr+0x78>
		{
			SetRegBit(*gpio_control.ddr_mapping[count], gpio_control.bit_mapping[count]);
    3374:	20 81       	ld	r18, Z
    3376:	c7 01       	movw	r24, r14
    3378:	02 c0       	rjmp	.+4      	; 0x337e <SetGpioDdr+0x50>
    337a:	88 0f       	add	r24, r24
    337c:	99 1f       	adc	r25, r25
    337e:	3a 95       	dec	r19
    3380:	e2 f7       	brpl	.-8      	; 0x337a <SetGpioDdr+0x4c>
    3382:	28 2b       	or	r18, r24
    3384:	20 83       	st	Z, r18
			ClrRegBit(*gpio_control.port_mapping[count], gpio_control.bit_mapping[count]);
    3386:	fb 01       	movw	r30, r22
    3388:	c0 80       	ld	r12, Z
    338a:	d1 80       	ldd	r13, Z+1	; 0x01
    338c:	f6 01       	movw	r30, r12
    338e:	20 81       	ld	r18, Z
    3390:	c7 01       	movw	r24, r14
    3392:	0c 90       	ld	r0, X
    3394:	02 c0       	rjmp	.+4      	; 0x339a <SetGpioDdr+0x6c>
    3396:	88 0f       	add	r24, r24
    3398:	99 1f       	adc	r25, r25
    339a:	0a 94       	dec	r0
    339c:	e2 f7       	brpl	.-8      	; 0x3396 <SetGpioDdr+0x68>
    339e:	80 95       	com	r24
    33a0:	82 23       	and	r24, r18
    33a2:	80 83       	st	Z, r24
    33a4:	18 c0       	rjmp	.+48     	; 0x33d6 <SetGpioDdr+0xa8>
		}
		else
		{
			ClrRegBit(*gpio_control.ddr_mapping[count], gpio_control.bit_mapping[count]);
    33a6:	20 81       	ld	r18, Z
    33a8:	c7 01       	movw	r24, r14
    33aa:	02 c0       	rjmp	.+4      	; 0x33b0 <SetGpioDdr+0x82>
    33ac:	88 0f       	add	r24, r24
    33ae:	99 1f       	adc	r25, r25
    33b0:	3a 95       	dec	r19
    33b2:	e2 f7       	brpl	.-8      	; 0x33ac <SetGpioDdr+0x7e>
    33b4:	80 95       	com	r24
    33b6:	82 23       	and	r24, r18
    33b8:	80 83       	st	Z, r24
			SetRegBit(*gpio_control.port_mapping[count], gpio_control.bit_mapping[count]);
    33ba:	fb 01       	movw	r30, r22
    33bc:	c0 80       	ld	r12, Z
    33be:	d1 80       	ldd	r13, Z+1	; 0x01
    33c0:	f6 01       	movw	r30, r12
    33c2:	20 81       	ld	r18, Z
    33c4:	c7 01       	movw	r24, r14
    33c6:	0c 90       	ld	r0, X
    33c8:	02 c0       	rjmp	.+4      	; 0x33ce <SetGpioDdr+0xa0>
    33ca:	88 0f       	add	r24, r24
    33cc:	99 1f       	adc	r25, r25
    33ce:	0a 94       	dec	r0
    33d0:	e2 f7       	brpl	.-8      	; 0x33ca <SetGpioDdr+0x9c>
    33d2:	28 2b       	or	r18, r24
    33d4:	20 83       	st	Z, r18
    33d6:	4f 5f       	subi	r20, 0xFF	; 255
    33d8:	5f 4f       	sbci	r21, 0xFF	; 255
    33da:	22 96       	adiw	r28, 0x02	; 2
    33dc:	11 96       	adiw	r26, 0x01	; 1
    33de:	6e 5f       	subi	r22, 0xFE	; 254
    33e0:	7f 4f       	sbci	r23, 0xFF	; 255
*************************************************************************************************************************/
static void SetGpioDdr(uint16 val)
{
	uint8 count = 0;
	
	for(count = 0; count < 12; count++)
    33e2:	4c 30       	cpi	r20, 0x0C	; 12
    33e4:	51 05       	cpc	r21, r1
    33e6:	09 f0       	breq	.+2      	; 0x33ea <SetGpioDdr+0xbc>
    33e8:	b7 cf       	rjmp	.-146    	; 0x3358 <SetGpioDdr+0x2a>
			ClrRegBit(*gpio_control.ddr_mapping[count], gpio_control.bit_mapping[count]);
			SetRegBit(*gpio_control.port_mapping[count], gpio_control.bit_mapping[count]);
		}
	}
	
	gpio_control.direction_mask = val & 0x0FFF;
    33ea:	1f 70       	andi	r17, 0x0F	; 15
    33ec:	10 93 3b 07 	sts	0x073B, r17
    33f0:	00 93 3a 07 	sts	0x073A, r16
}
    33f4:	df 91       	pop	r29
    33f6:	cf 91       	pop	r28
    33f8:	1f 91       	pop	r17
    33fa:	0f 91       	pop	r16
    33fc:	ff 90       	pop	r15
    33fe:	ef 90       	pop	r14
    3400:	df 90       	pop	r13
    3402:	cf 90       	pop	r12
    3404:	08 95       	ret

00003406 <SetGpioPort>:
** 修订人:              
** 修订日期:            
**------------------------------------------------------------------------------------------------------------------------
*************************************************************************************************************************/
static void SetGpioPort(uint16 word)
{
    3406:	0f 93       	push	r16
    3408:	1f 93       	push	r17
    340a:	cf 93       	push	r28
    340c:	df 93       	push	r29
    340e:	8c 01       	movw	r16, r24
    3410:	c5 eb       	ldi	r28, 0xB5	; 181
    3412:	d6 e0       	ldi	r29, 0x06	; 6
    3414:	ad ef       	ldi	r26, 0xFD	; 253
    3416:	b6 e0       	ldi	r27, 0x06	; 6
    3418:	40 e0       	ldi	r20, 0x00	; 0
    341a:	50 e0       	ldi	r21, 0x00	; 0
	uint8 count = 0;
	
	for(count = 0; count < 12; count++)
	{
		if(GetRegBit(word, count))
    341c:	61 e0       	ldi	r22, 0x01	; 1
    341e:	70 e0       	ldi	r23, 0x00	; 0
    3420:	cb 01       	movw	r24, r22
    3422:	04 2e       	mov	r0, r20
    3424:	02 c0       	rjmp	.+4      	; 0x342a <SetGpioPort+0x24>
    3426:	88 0f       	add	r24, r24
    3428:	99 1f       	adc	r25, r25
    342a:	0a 94       	dec	r0
    342c:	e2 f7       	brpl	.-8      	; 0x3426 <SetGpioPort+0x20>
    342e:	80 23       	and	r24, r16
    3430:	91 23       	and	r25, r17
    3432:	e8 81       	ld	r30, Y
    3434:	f9 81       	ldd	r31, Y+1	; 0x01
    3436:	3c 91       	ld	r19, X
    3438:	89 2b       	or	r24, r25
    343a:	51 f0       	breq	.+20     	; 0x3450 <SetGpioPort+0x4a>
		{
			SetRegBit(*gpio_control.port_mapping[count], gpio_control.bit_mapping[count]);
    343c:	20 81       	ld	r18, Z
    343e:	cb 01       	movw	r24, r22
    3440:	02 c0       	rjmp	.+4      	; 0x3446 <SetGpioPort+0x40>
    3442:	88 0f       	add	r24, r24
    3444:	99 1f       	adc	r25, r25
    3446:	3a 95       	dec	r19
    3448:	e2 f7       	brpl	.-8      	; 0x3442 <SetGpioPort+0x3c>
    344a:	28 2b       	or	r18, r24
    344c:	20 83       	st	Z, r18
    344e:	0a c0       	rjmp	.+20     	; 0x3464 <SetGpioPort+0x5e>
		}
		else
		{
			ClrRegBit(*gpio_control.port_mapping[count], gpio_control.bit_mapping[count]);
    3450:	20 81       	ld	r18, Z
    3452:	cb 01       	movw	r24, r22
    3454:	02 c0       	rjmp	.+4      	; 0x345a <SetGpioPort+0x54>
    3456:	88 0f       	add	r24, r24
    3458:	99 1f       	adc	r25, r25
    345a:	3a 95       	dec	r19
    345c:	e2 f7       	brpl	.-8      	; 0x3456 <SetGpioPort+0x50>
    345e:	80 95       	com	r24
    3460:	82 23       	and	r24, r18
    3462:	80 83       	st	Z, r24
    3464:	4f 5f       	subi	r20, 0xFF	; 255
    3466:	5f 4f       	sbci	r21, 0xFF	; 255
    3468:	22 96       	adiw	r28, 0x02	; 2
    346a:	11 96       	adiw	r26, 0x01	; 1
*************************************************************************************************************************/
static void SetGpioPort(uint16 word)
{
	uint8 count = 0;
	
	for(count = 0; count < 12; count++)
    346c:	4c 30       	cpi	r20, 0x0C	; 12
    346e:	51 05       	cpc	r21, r1
    3470:	b9 f6       	brne	.-82     	; 0x3420 <SetGpioPort+0x1a>
		else
		{
			ClrRegBit(*gpio_control.port_mapping[count], gpio_control.bit_mapping[count]);
		}
	}
}
    3472:	df 91       	pop	r29
    3474:	cf 91       	pop	r28
    3476:	1f 91       	pop	r17
    3478:	0f 91       	pop	r16
    347a:	08 95       	ret

0000347c <SetOutputPort>:
{
	uint16 temp_word = 0;
	
	temp_word = (word & gpio_control.direction_mask);
	
	SetGpioPort(temp_word);
    347c:	20 91 3a 07 	lds	r18, 0x073A
    3480:	30 91 3b 07 	lds	r19, 0x073B
    3484:	82 23       	and	r24, r18
    3486:	93 23       	and	r25, r19
    3488:	0e 94 03 1a 	call	0x3406	; 0x3406 <SetGpioPort>
}
    348c:	08 95       	ret

0000348e <SetOutputBit>:
**------------------------------------------------------------------------------------------------------------------------
*************************************************************************************************************************/
static uint8 SetOutputBit(uint8 bit, uint8 val)
{

	if(bit >= 12)
    348e:	8c 30       	cpi	r24, 0x0C	; 12
    3490:	f0 f5       	brcc	.+124    	; 0x350e <SetOutputBit+0x80>
	{
		return FALSE;
	}
	
	if(GetRegBit(gpio_control.direction_mask, bit))
    3492:	a8 2f       	mov	r26, r24
    3494:	b0 e0       	ldi	r27, 0x00	; 0
    3496:	41 e0       	ldi	r20, 0x01	; 1
    3498:	50 e0       	ldi	r21, 0x00	; 0
    349a:	ca 01       	movw	r24, r20
    349c:	0a 2e       	mov	r0, r26
    349e:	02 c0       	rjmp	.+4      	; 0x34a4 <SetOutputBit+0x16>
    34a0:	88 0f       	add	r24, r24
    34a2:	99 1f       	adc	r25, r25
    34a4:	0a 94       	dec	r0
    34a6:	e2 f7       	brpl	.-8      	; 0x34a0 <SetOutputBit+0x12>
    34a8:	20 91 3a 07 	lds	r18, 0x073A
    34ac:	30 91 3b 07 	lds	r19, 0x073B
    34b0:	82 23       	and	r24, r18
    34b2:	93 23       	and	r25, r19
    34b4:	89 2b       	or	r24, r25
    34b6:	59 f1       	breq	.+86     	; 0x350e <SetOutputBit+0x80>
    34b8:	fd 01       	movw	r30, r26
    34ba:	ee 0f       	add	r30, r30
    34bc:	ff 1f       	adc	r31, r31
    34be:	ac 54       	subi	r26, 0x4C	; 76
    34c0:	b9 4f       	sbci	r27, 0xF9	; 249
	{
		if(val)
    34c2:	66 23       	and	r22, r22
    34c4:	81 f0       	breq	.+32     	; 0x34e6 <SetOutputBit+0x58>
		{
			SetRegBit(*gpio_control.port_mapping[bit], gpio_control.bit_mapping[bit]);
    34c6:	ec 54       	subi	r30, 0x4C	; 76
    34c8:	f9 4f       	sbci	r31, 0xF9	; 249
    34ca:	01 80       	ldd	r0, Z+1	; 0x01
    34cc:	f2 81       	ldd	r31, Z+2	; 0x02
    34ce:	e0 2d       	mov	r30, r0
    34d0:	80 81       	ld	r24, Z
    34d2:	a7 5b       	subi	r26, 0xB7	; 183
    34d4:	bf 4f       	sbci	r27, 0xFF	; 255
    34d6:	0c 90       	ld	r0, X
    34d8:	02 c0       	rjmp	.+4      	; 0x34de <SetOutputBit+0x50>
    34da:	44 0f       	add	r20, r20
    34dc:	55 1f       	adc	r21, r21
    34de:	0a 94       	dec	r0
    34e0:	e2 f7       	brpl	.-8      	; 0x34da <SetOutputBit+0x4c>
    34e2:	84 2b       	or	r24, r20
    34e4:	11 c0       	rjmp	.+34     	; 0x3508 <SetOutputBit+0x7a>
		}
		else
		{
			ClrRegBit(*gpio_control.port_mapping[bit], gpio_control.bit_mapping[bit]);
    34e6:	ec 54       	subi	r30, 0x4C	; 76
    34e8:	f9 4f       	sbci	r31, 0xF9	; 249
    34ea:	01 80       	ldd	r0, Z+1	; 0x01
    34ec:	f2 81       	ldd	r31, Z+2	; 0x02
    34ee:	e0 2d       	mov	r30, r0
    34f0:	90 81       	ld	r25, Z
    34f2:	a7 5b       	subi	r26, 0xB7	; 183
    34f4:	bf 4f       	sbci	r27, 0xFF	; 255
    34f6:	0c 90       	ld	r0, X
    34f8:	02 c0       	rjmp	.+4      	; 0x34fe <SetOutputBit+0x70>
    34fa:	44 0f       	add	r20, r20
    34fc:	55 1f       	adc	r21, r21
    34fe:	0a 94       	dec	r0
    3500:	e2 f7       	brpl	.-8      	; 0x34fa <SetOutputBit+0x6c>
    3502:	84 2f       	mov	r24, r20
    3504:	80 95       	com	r24
    3506:	89 23       	and	r24, r25
    3508:	80 83       	st	Z, r24
    350a:	81 e0       	ldi	r24, 0x01	; 1
    350c:	08 95       	ret
    350e:	80 e0       	ldi	r24, 0x00	; 0
	{
		return FALSE;
	}
	
	return TRUE;
}
    3510:	08 95       	ret

00003512 <GetGpioPort>:
** 修订人:              
** 修订日期:            
**------------------------------------------------------------------------------------------------------------------------
*************************************************************************************************************************/
static void GetGpioPort(uint16* val)
{
    3512:	0f 93       	push	r16
    3514:	1f 93       	push	r17
    3516:	cf 93       	push	r28
    3518:	df 93       	push	r29
    351a:	ec 01       	movw	r28, r24
    351c:	ad ec       	ldi	r26, 0xCD	; 205
    351e:	b6 e0       	ldi	r27, 0x06	; 6
    3520:	40 e0       	ldi	r20, 0x00	; 0
    3522:	50 e0       	ldi	r21, 0x00	; 0
    3524:	20 e0       	ldi	r18, 0x00	; 0
    3526:	30 e0       	ldi	r19, 0x00	; 0
		{
			SetRegBit(temp_value, count);
		}
		else
		{
			ClrRegBit(temp_value, count);
    3528:	01 e0       	ldi	r16, 0x01	; 1
    352a:	10 e0       	ldi	r17, 0x00	; 0
	uint16 temp_value = 0;
	uint8 count = 0;
	
	for(count = 0; count < 12; count++)
	{
		if(GetRegBit(*gpio_control.pin_mapping[count], gpio_control.bit_mapping[count]))
    352c:	ed 91       	ld	r30, X+
    352e:	fc 91       	ld	r31, X
    3530:	11 97       	sbiw	r26, 0x01	; 1
    3532:	80 81       	ld	r24, Z
    3534:	90 e0       	ldi	r25, 0x00	; 0
    3536:	f9 01       	movw	r30, r18
    3538:	e3 50       	subi	r30, 0x03	; 3
    353a:	f9 4f       	sbci	r31, 0xF9	; 249
    353c:	00 80       	ld	r0, Z
    353e:	02 c0       	rjmp	.+4      	; 0x3544 <GetGpioPort+0x32>
    3540:	95 95       	asr	r25
    3542:	87 95       	ror	r24
    3544:	0a 94       	dec	r0
    3546:	e2 f7       	brpl	.-8      	; 0x3540 <GetGpioPort+0x2e>
    3548:	80 ff       	sbrs	r24, 0
    354a:	0a c0       	rjmp	.+20     	; 0x3560 <GetGpioPort+0x4e>
		{
			SetRegBit(temp_value, count);
    354c:	c8 01       	movw	r24, r16
    354e:	02 2e       	mov	r0, r18
    3550:	02 c0       	rjmp	.+4      	; 0x3556 <GetGpioPort+0x44>
    3552:	88 0f       	add	r24, r24
    3554:	99 1f       	adc	r25, r25
    3556:	0a 94       	dec	r0
    3558:	e2 f7       	brpl	.-8      	; 0x3552 <GetGpioPort+0x40>
    355a:	48 2b       	or	r20, r24
    355c:	59 2b       	or	r21, r25
    355e:	0b c0       	rjmp	.+22     	; 0x3576 <GetGpioPort+0x64>
		}
		else
		{
			ClrRegBit(temp_value, count);
    3560:	c8 01       	movw	r24, r16
    3562:	02 2e       	mov	r0, r18
    3564:	02 c0       	rjmp	.+4      	; 0x356a <GetGpioPort+0x58>
    3566:	88 0f       	add	r24, r24
    3568:	99 1f       	adc	r25, r25
    356a:	0a 94       	dec	r0
    356c:	e2 f7       	brpl	.-8      	; 0x3566 <GetGpioPort+0x54>
    356e:	80 95       	com	r24
    3570:	90 95       	com	r25
    3572:	48 23       	and	r20, r24
    3574:	59 23       	and	r21, r25
    3576:	2f 5f       	subi	r18, 0xFF	; 255
    3578:	3f 4f       	sbci	r19, 0xFF	; 255
    357a:	12 96       	adiw	r26, 0x02	; 2
static void GetGpioPort(uint16* val)
{
	uint16 temp_value = 0;
	uint8 count = 0;
	
	for(count = 0; count < 12; count++)
    357c:	2c 30       	cpi	r18, 0x0C	; 12
    357e:	31 05       	cpc	r19, r1
    3580:	a9 f6       	brne	.-86     	; 0x352c <GetGpioPort+0x1a>
		{
			ClrRegBit(temp_value, count);
		}
	}
	
	*val = temp_value;
    3582:	59 83       	std	Y+1, r21	; 0x01
    3584:	48 83       	st	Y, r20
}
    3586:	df 91       	pop	r29
    3588:	cf 91       	pop	r28
    358a:	1f 91       	pop	r17
    358c:	0f 91       	pop	r16
    358e:	08 95       	ret

00003590 <GetInputPort>:
** 修订人:              
** 修订日期:            
**------------------------------------------------------------------------------------------------------------------------
*************************************************************************************************************************/
static void GetInputPort(uint16* val)
{
    3590:	0f 93       	push	r16
    3592:	1f 93       	push	r17
    3594:	df 93       	push	r29
    3596:	cf 93       	push	r28
    3598:	00 d0       	rcall	.+0      	; 0x359a <GetInputPort+0xa>
    359a:	cd b7       	in	r28, 0x3d	; 61
    359c:	de b7       	in	r29, 0x3e	; 62
    359e:	8c 01       	movw	r16, r24
	uint16 temp_value = 0;
    35a0:	1a 82       	std	Y+2, r1	; 0x02
    35a2:	19 82       	std	Y+1, r1	; 0x01

	GetGpioPort(&temp_value);
    35a4:	ce 01       	movw	r24, r28
    35a6:	01 96       	adiw	r24, 0x01	; 1
    35a8:	0e 94 89 1a 	call	0x3512	; 0x3512 <GetGpioPort>
	
	*val = temp_value & ~gpio_control.direction_mask;
    35ac:	80 91 3a 07 	lds	r24, 0x073A
    35b0:	90 91 3b 07 	lds	r25, 0x073B
    35b4:	80 95       	com	r24
    35b6:	90 95       	com	r25
    35b8:	29 81       	ldd	r18, Y+1	; 0x01
    35ba:	3a 81       	ldd	r19, Y+2	; 0x02
    35bc:	82 23       	and	r24, r18
    35be:	93 23       	and	r25, r19
    35c0:	f8 01       	movw	r30, r16
    35c2:	91 83       	std	Z+1, r25	; 0x01
    35c4:	80 83       	st	Z, r24
}
    35c6:	0f 90       	pop	r0
    35c8:	0f 90       	pop	r0
    35ca:	cf 91       	pop	r28
    35cc:	df 91       	pop	r29
    35ce:	1f 91       	pop	r17
    35d0:	0f 91       	pop	r16
    35d2:	08 95       	ret

000035d4 <GetInputBit>:
** 修订人:              
** 修订日期:            
**------------------------------------------------------------------------------------------------------------------------
*************************************************************************************************************************/
static uint8 GetInputBit(uint8 bit, uint8* val)
{
    35d4:	cf 93       	push	r28
    35d6:	df 93       	push	r29
    35d8:	eb 01       	movw	r28, r22
	uint8 temp_value = 0;

	if(bit >= 12)
    35da:	8c 30       	cpi	r24, 0x0C	; 12
    35dc:	78 f5       	brcc	.+94     	; 0x363c <GetInputBit+0x68>
	{
		return FALSE;
	}
	
	if(GetRegBit(gpio_control.direction_mask, bit))
    35de:	a8 2f       	mov	r26, r24
    35e0:	b0 e0       	ldi	r27, 0x00	; 0
    35e2:	41 e0       	ldi	r20, 0x01	; 1
    35e4:	50 e0       	ldi	r21, 0x00	; 0
    35e6:	ca 01       	movw	r24, r20
    35e8:	0a 2e       	mov	r0, r26
    35ea:	02 c0       	rjmp	.+4      	; 0x35f0 <GetInputBit+0x1c>
    35ec:	88 0f       	add	r24, r24
    35ee:	99 1f       	adc	r25, r25
    35f0:	0a 94       	dec	r0
    35f2:	e2 f7       	brpl	.-8      	; 0x35ec <GetInputBit+0x18>
    35f4:	20 91 3a 07 	lds	r18, 0x073A
    35f8:	30 91 3b 07 	lds	r19, 0x073B
    35fc:	82 23       	and	r24, r18
    35fe:	93 23       	and	r25, r19
    3600:	89 2b       	or	r24, r25
    3602:	e1 f4       	brne	.+56     	; 0x363c <GetInputBit+0x68>
	{
		return FALSE;
	}
	else
	{
		temp_value = GetRegBit(*gpio_control.pin_mapping[bit], gpio_control.bit_mapping[bit]);
    3604:	fd 01       	movw	r30, r26
    3606:	ee 0f       	add	r30, r30
    3608:	ff 1f       	adc	r31, r31
    360a:	ec 54       	subi	r30, 0x4C	; 76
    360c:	f9 4f       	sbci	r31, 0xF9	; 249
    360e:	01 8c       	ldd	r0, Z+25	; 0x19
    3610:	f2 8d       	ldd	r31, Z+26	; 0x1a
    3612:	e0 2d       	mov	r30, r0
    3614:	80 81       	ld	r24, Z
    3616:	a3 50       	subi	r26, 0x03	; 3
    3618:	b9 4f       	sbci	r27, 0xF9	; 249
    361a:	2c 91       	ld	r18, X
		*val = temp_value >> gpio_control.bit_mapping[bit];
    361c:	02 2e       	mov	r0, r18
    361e:	02 c0       	rjmp	.+4      	; 0x3624 <GetInputBit+0x50>
    3620:	44 0f       	add	r20, r20
    3622:	55 1f       	adc	r21, r21
    3624:	0a 94       	dec	r0
    3626:	e2 f7       	brpl	.-8      	; 0x3620 <GetInputBit+0x4c>
    3628:	84 23       	and	r24, r20
    362a:	90 e0       	ldi	r25, 0x00	; 0
    362c:	02 c0       	rjmp	.+4      	; 0x3632 <GetInputBit+0x5e>
    362e:	95 95       	asr	r25
    3630:	87 95       	ror	r24
    3632:	2a 95       	dec	r18
    3634:	e2 f7       	brpl	.-8      	; 0x362e <GetInputBit+0x5a>
    3636:	88 83       	st	Y, r24
    3638:	81 e0       	ldi	r24, 0x01	; 1
    363a:	01 c0       	rjmp	.+2      	; 0x363e <GetInputBit+0x6a>
	}
	
	return TRUE;	
    363c:	80 e0       	ldi	r24, 0x00	; 0
}
    363e:	df 91       	pop	r29
    3640:	cf 91       	pop	r28
    3642:	08 95       	ret

00003644 <IsrGpioSampling>:
** 修订日期:            
**------------------------------------------------------------------------------------------------------------------------
*************************************************************************************************************************/
void IsrGpioSampling(void)
{
	gpio_control.buffer_count++;
    3644:	80 91 21 07 	lds	r24, 0x0721
    3648:	8f 5f       	subi	r24, 0xFF	; 255
    364a:	80 93 21 07 	sts	0x0721, r24
	
	if(gpio_control.buffer_count > 7)
    364e:	88 30       	cpi	r24, 0x08	; 8
    3650:	10 f0       	brcs	.+4      	; 0x3656 <IsrGpioSampling+0x12>
	{
		gpio_control.buffer_count = 0;
    3652:	10 92 21 07 	sts	0x0721, r1
	}
	
	gpio_control.group0_buffer[gpio_control.buffer_count] = GPIO_GROUP0_PIN;
    3656:	e0 91 21 07 	lds	r30, 0x0721
    365a:	f0 e0       	ldi	r31, 0x00	; 0
    365c:	86 b3       	in	r24, 0x16	; 22
    365e:	ec 54       	subi	r30, 0x4C	; 76
    3660:	f9 4f       	sbci	r31, 0xF9	; 249
    3662:	eb 5a       	subi	r30, 0xAB	; 171
    3664:	ff 4f       	sbci	r31, 0xFF	; 255
    3666:	80 83       	st	Z, r24
	gpio_control.group1_buffer[gpio_control.buffer_count] = GPIO_GROUP1_PIN;
    3668:	80 b3       	in	r24, 0x10	; 16
    366a:	38 96       	adiw	r30, 0x08	; 8
    366c:	80 83       	st	Z, r24
	gpio_control.group2_buffer[gpio_control.buffer_count] = GPIO_GROUP2_PIN;
    366e:	81 b1       	in	r24, 0x01	; 1
    3670:	38 96       	adiw	r30, 0x08	; 8
    3672:	80 83       	st	Z, r24
}
    3674:	08 95       	ret

00003676 <GetInputFilte>:
** 修订人:              
** 修订日期:            
**------------------------------------------------------------------------------------------------------------------------
*************************************************************************************************************************/
static void GetInputFilte(uint16* val)
{
    3676:	af 92       	push	r10
    3678:	bf 92       	push	r11
    367a:	cf 92       	push	r12
    367c:	df 92       	push	r13
    367e:	ef 92       	push	r14
    3680:	ff 92       	push	r15
    3682:	0f 93       	push	r16
    3684:	1f 93       	push	r17
    3686:	df 93       	push	r29
    3688:	cf 93       	push	r28
    368a:	cd b7       	in	r28, 0x3d	; 61
    368c:	de b7       	in	r29, 0x3e	; 62
    368e:	2c 97       	sbiw	r28, 0x0c	; 12
    3690:	0f b6       	in	r0, 0x3f	; 63
    3692:	f8 94       	cli
    3694:	de bf       	out	0x3e, r29	; 62
    3696:	0f be       	out	0x3f, r0	; 63
    3698:	cd bf       	out	0x3d, r28	; 61
    369a:	6c 01       	movw	r12, r24
	uint8 count = 0;
	uint8 temp_channel = 0;
	uint16 result = 0;
	uint8 temp_buffer_count = 0;
	
	uint8 temp_channel_value[12] =				\
    369c:	fe 01       	movw	r30, r28
    369e:	31 96       	adiw	r30, 0x01	; 1
    36a0:	8c e0       	ldi	r24, 0x0C	; 12
    36a2:	df 01       	movw	r26, r30
    36a4:	1d 92       	st	X+, r1
    36a6:	8a 95       	dec	r24
    36a8:	e9 f7       	brne	.-6      	; 0x36a4 <GetInputFilte+0x2e>
	{											\
		0, 0, 0, 0, 0, 0, 0, 0, 0, 0, 0, 0		\
	};																								// 通道值，数组的下标代表通道号，值代表在本周期内获取值为TRUE的次数。
	
	for(count = gpio_control.buffer_count; count < gpio_control.buffer_count + 8; count++)			// 缓冲位置
    36aa:	60 91 21 07 	lds	r22, 0x0721
    36ae:	06 2f       	mov	r16, r22
    36b0:	10 e0       	ldi	r17, 0x00	; 0
    36b2:	09 5f       	subi	r16, 0xF9	; 249
    36b4:	1f 4f       	sbci	r17, 0xFF	; 255
	{
		if(count > 7)																				// 缓冲区环形化处理
    36b6:	5f 01       	movw	r10, r30
    36b8:	2c c0       	rjmp	.+88     	; 0x3712 <GetInputFilte+0x9c>
    36ba:	68 30       	cpi	r22, 0x08	; 8
    36bc:	10 f4       	brcc	.+4      	; 0x36c2 <GetInputFilte+0x4c>
    36be:	76 2f       	mov	r23, r22
    36c0:	02 c0       	rjmp	.+4      	; 0x36c6 <GetInputFilte+0x50>
    36c2:	76 2f       	mov	r23, r22
    36c4:	78 50       	subi	r23, 0x08	; 8
    36c6:	22 e2       	ldi	r18, 0x22	; 34
    36c8:	37 e0       	ldi	r19, 0x07	; 7
    36ca:	a9 01       	movw	r20, r18
    36cc:	45 52       	subi	r20, 0x25	; 37
    36ce:	50 40       	sbci	r21, 0x00	; 0
    36d0:	d5 01       	movw	r26, r10
			temp_buffer_count = count;
		}
		
		for(temp_channel = 0; temp_channel < 12; temp_channel++)		// 通道编号
		{
			if(GetRegBit(*(gpio_control.p_buffer_mapping[temp_channel] + temp_buffer_count), gpio_control.bit_mapping[temp_channel]))
    36d2:	e7 2e       	mov	r14, r23
    36d4:	ff 24       	eor	r15, r15
    36d6:	f9 01       	movw	r30, r18
    36d8:	80 81       	ld	r24, Z
    36da:	91 81       	ldd	r25, Z+1	; 0x01
    36dc:	8e 0d       	add	r24, r14
    36de:	9f 1d       	adc	r25, r15
    36e0:	fc 01       	movw	r30, r24
    36e2:	80 81       	ld	r24, Z
    36e4:	90 e0       	ldi	r25, 0x00	; 0
    36e6:	fa 01       	movw	r30, r20
    36e8:	00 80       	ld	r0, Z
    36ea:	02 c0       	rjmp	.+4      	; 0x36f0 <GetInputFilte+0x7a>
    36ec:	95 95       	asr	r25
    36ee:	87 95       	ror	r24
    36f0:	0a 94       	dec	r0
    36f2:	e2 f7       	brpl	.-8      	; 0x36ec <GetInputFilte+0x76>
    36f4:	80 ff       	sbrs	r24, 0
    36f6:	03 c0       	rjmp	.+6      	; 0x36fe <GetInputFilte+0x88>
			{
				temp_channel_value[temp_channel]++;
    36f8:	8c 91       	ld	r24, X
    36fa:	8f 5f       	subi	r24, 0xFF	; 255
    36fc:	8c 93       	st	X, r24
    36fe:	2e 5f       	subi	r18, 0xFE	; 254
    3700:	3f 4f       	sbci	r19, 0xFF	; 255
    3702:	4f 5f       	subi	r20, 0xFF	; 255
    3704:	5f 4f       	sbci	r21, 0xFF	; 255
    3706:	11 96       	adiw	r26, 0x01	; 1
		else
		{
			temp_buffer_count = count;
		}
		
		for(temp_channel = 0; temp_channel < 12; temp_channel++)		// 通道编号
    3708:	f7 e0       	ldi	r31, 0x07	; 7
    370a:	2a 33       	cpi	r18, 0x3A	; 58
    370c:	3f 07       	cpc	r19, r31
    370e:	19 f7       	brne	.-58     	; 0x36d6 <GetInputFilte+0x60>
	uint8 temp_channel_value[12] =				\
	{											\
		0, 0, 0, 0, 0, 0, 0, 0, 0, 0, 0, 0		\
	};																								// 通道值，数组的下标代表通道号，值代表在本周期内获取值为TRUE的次数。
	
	for(count = gpio_control.buffer_count; count < gpio_control.buffer_count + 8; count++)			// 缓冲位置
    3710:	6f 5f       	subi	r22, 0xFF	; 255
    3712:	86 2f       	mov	r24, r22
    3714:	90 e0       	ldi	r25, 0x00	; 0
    3716:	08 17       	cp	r16, r24
    3718:	19 07       	cpc	r17, r25
    371a:	7c f6       	brge	.-98     	; 0x36ba <GetInputFilte+0x44>
    371c:	40 e0       	ldi	r20, 0x00	; 0
    371e:	50 e0       	ldi	r21, 0x00	; 0
    3720:	20 e0       	ldi	r18, 0x00	; 0
    3722:	30 e0       	ldi	r19, 0x00	; 0
	
	// 滤波算法, 
	
	for(count = 0; count < 12; count++)
	{
		if(temp_channel_value[count] > 4)
    3724:	de 01       	movw	r26, r28
    3726:	11 96       	adiw	r26, 0x01	; 1
		{
			SetRegBit(result, count);
    3728:	61 e0       	ldi	r22, 0x01	; 1
    372a:	70 e0       	ldi	r23, 0x00	; 0
	
	// 滤波算法, 
	
	for(count = 0; count < 12; count++)
	{
		if(temp_channel_value[count] > 4)
    372c:	fd 01       	movw	r30, r26
    372e:	e2 0f       	add	r30, r18
    3730:	f3 1f       	adc	r31, r19
    3732:	80 81       	ld	r24, Z
    3734:	85 30       	cpi	r24, 0x05	; 5
    3736:	48 f0       	brcs	.+18     	; 0x374a <GetInputFilte+0xd4>
		{
			SetRegBit(result, count);
    3738:	fb 01       	movw	r30, r22
    373a:	02 2e       	mov	r0, r18
    373c:	02 c0       	rjmp	.+4      	; 0x3742 <GetInputFilte+0xcc>
    373e:	ee 0f       	add	r30, r30
    3740:	ff 1f       	adc	r31, r31
    3742:	0a 94       	dec	r0
    3744:	e2 f7       	brpl	.-8      	; 0x373e <GetInputFilte+0xc8>
    3746:	4e 2b       	or	r20, r30
    3748:	5f 2b       	or	r21, r31
    374a:	2f 5f       	subi	r18, 0xFF	; 255
    374c:	3f 4f       	sbci	r19, 0xFF	; 255
		}
	}
	
	// 滤波算法, 
	
	for(count = 0; count < 12; count++)
    374e:	2c 30       	cpi	r18, 0x0C	; 12
    3750:	31 05       	cpc	r19, r1
    3752:	61 f7       	brne	.-40     	; 0x372c <GetInputFilte+0xb6>
		{
			SetRegBit(result, count);
		}
	}
	
	*val = result;
    3754:	d6 01       	movw	r26, r12
    3756:	4d 93       	st	X+, r20
    3758:	5c 93       	st	X, r21
}
    375a:	2c 96       	adiw	r28, 0x0c	; 12
    375c:	0f b6       	in	r0, 0x3f	; 63
    375e:	f8 94       	cli
    3760:	de bf       	out	0x3e, r29	; 62
    3762:	0f be       	out	0x3f, r0	; 63
    3764:	cd bf       	out	0x3d, r28	; 61
    3766:	cf 91       	pop	r28
    3768:	df 91       	pop	r29
    376a:	1f 91       	pop	r17
    376c:	0f 91       	pop	r16
    376e:	ff 90       	pop	r15
    3770:	ef 90       	pop	r14
    3772:	df 90       	pop	r13
    3774:	cf 90       	pop	r12
    3776:	bf 90       	pop	r11
    3778:	af 90       	pop	r10
    377a:	08 95       	ret

0000377c <GetInputFilteBit>:
** 修订人:              
** 修订日期:            
**------------------------------------------------------------------------------------------------------------------------
*************************************************************************************************************************/
static uint8 GetInputFilteBit(uint8 channel, uint8* val)
{
    377c:	cf 93       	push	r28
    377e:	df 93       	push	r29
	uint8 count = 0;
	uint8 result = 0;
	uint8 temp_buffer_count = 0;
	uint8 temp_channel_value =	0;
																									// 通道值，数组的下标代表通道号，值代表在本周期内获取值为TRUE的次数。
	if(channel > 11)
    3780:	8c 30       	cpi	r24, 0x0C	; 12
    3782:	10 f0       	brcs	.+4      	; 0x3788 <GetInputFilteBit+0xc>
    3784:	80 e0       	ldi	r24, 0x00	; 0
    3786:	33 c0       	rjmp	.+102    	; 0x37ee <GetInputFilteBit+0x72>
	{
		return FALSE;
	}
	
	
	for(count = gpio_control.buffer_count; count < gpio_control.buffer_count + 8; count++)			// 缓冲位置
    3788:	20 91 21 07 	lds	r18, 0x0721
    378c:	30 e0       	ldi	r19, 0x00	; 0
    378e:	42 2f       	mov	r20, r18
    3790:	50 e0       	ldi	r21, 0x00	; 0
    3792:	49 5f       	subi	r20, 0xF9	; 249
    3794:	5f 4f       	sbci	r21, 0xFF	; 255
		{
			temp_buffer_count = count;
		}
		

		if(GetRegBit(*(gpio_control.p_buffer_mapping[channel] + temp_buffer_count), gpio_control.bit_mapping[channel]))
    3796:	90 e0       	ldi	r25, 0x00	; 0
    3798:	dc 01       	movw	r26, r24
    379a:	aa 0f       	add	r26, r26
    379c:	bb 1f       	adc	r27, r27
    379e:	ae 5d       	subi	r26, 0xDE	; 222
    37a0:	b8 4f       	sbci	r27, 0xF8	; 248
    37a2:	ec 01       	movw	r28, r24
    37a4:	c3 50       	subi	r28, 0x03	; 3
    37a6:	d9 4f       	sbci	r29, 0xF9	; 249
    37a8:	16 c0       	rjmp	.+44     	; 0x37d6 <GetInputFilteBit+0x5a>
	}
	
	
	for(count = gpio_control.buffer_count; count < gpio_control.buffer_count + 8; count++)			// 缓冲位置
	{
		if(count > 7)																				// 缓冲区环形化处理
    37aa:	28 30       	cpi	r18, 0x08	; 8
    37ac:	10 f4       	brcc	.+4      	; 0x37b2 <GetInputFilteBit+0x36>
    37ae:	82 2f       	mov	r24, r18
    37b0:	02 c0       	rjmp	.+4      	; 0x37b6 <GetInputFilteBit+0x3a>
    37b2:	82 2f       	mov	r24, r18
    37b4:	88 50       	subi	r24, 0x08	; 8
		{
			temp_buffer_count = count;
		}
		

		if(GetRegBit(*(gpio_control.p_buffer_mapping[channel] + temp_buffer_count), gpio_control.bit_mapping[channel]))
    37b6:	ed 91       	ld	r30, X+
    37b8:	fc 91       	ld	r31, X
    37ba:	11 97       	sbiw	r26, 0x01	; 1
    37bc:	e8 0f       	add	r30, r24
    37be:	f1 1d       	adc	r31, r1
    37c0:	80 81       	ld	r24, Z
    37c2:	90 e0       	ldi	r25, 0x00	; 0
    37c4:	08 80       	ld	r0, Y
    37c6:	02 c0       	rjmp	.+4      	; 0x37cc <GetInputFilteBit+0x50>
    37c8:	95 95       	asr	r25
    37ca:	87 95       	ror	r24
    37cc:	0a 94       	dec	r0
    37ce:	e2 f7       	brpl	.-8      	; 0x37c8 <GetInputFilteBit+0x4c>
    37d0:	80 fd       	sbrc	r24, 0
		{
			temp_channel_value++;
    37d2:	3f 5f       	subi	r19, 0xFF	; 255
	{
		return FALSE;
	}
	
	
	for(count = gpio_control.buffer_count; count < gpio_control.buffer_count + 8; count++)			// 缓冲位置
    37d4:	2f 5f       	subi	r18, 0xFF	; 255
    37d6:	82 2f       	mov	r24, r18
    37d8:	90 e0       	ldi	r25, 0x00	; 0
    37da:	48 17       	cp	r20, r24
    37dc:	59 07       	cpc	r21, r25
    37de:	2c f7       	brge	.-54     	; 0x37aa <GetInputFilteBit+0x2e>
	else
	{
		result = FALSE;
	}

	*val = result;
    37e0:	fb 01       	movw	r30, r22
    37e2:	10 82       	st	Z, r1
    37e4:	35 30       	cpi	r19, 0x05	; 5
    37e6:	10 f0       	brcs	.+4      	; 0x37ec <GetInputFilteBit+0x70>
    37e8:	81 e0       	ldi	r24, 0x01	; 1
    37ea:	80 83       	st	Z, r24
    37ec:	81 e0       	ldi	r24, 0x01	; 1
	
	return TRUE;
}
    37ee:	df 91       	pop	r29
    37f0:	cf 91       	pop	r28
    37f2:	08 95       	ret

000037f4 <InitGpio>:
** 修订日期:            
**------------------------------------------------------------------------------------------------------------------------
*************************************************************************************************************************/
static void InitGpio(void)
{
	SetReg(gpio_control.state , 0);									// 初始化状态寄存器
    37f4:	10 92 b4 06 	sts	0x06B4, r1
	
	//初始化gpio的映射表
	
	gpio_control.port_mapping[0] = &GPIO0_PORT;
    37f8:	83 e2       	ldi	r24, 0x23	; 35
    37fa:	90 e0       	ldi	r25, 0x00	; 0
    37fc:	90 93 b6 06 	sts	0x06B6, r25
    3800:	80 93 b5 06 	sts	0x06B5, r24
	gpio_control.port_mapping[1] = &GPIO1_PORT;
    3804:	90 93 b8 06 	sts	0x06B8, r25
    3808:	80 93 b7 06 	sts	0x06B7, r24
	gpio_control.port_mapping[2] = &GPIO2_PORT;
    380c:	90 93 ba 06 	sts	0x06BA, r25
    3810:	80 93 b9 06 	sts	0x06B9, r24
	gpio_control.port_mapping[3] = &GPIO3_PORT;
    3814:	90 93 bc 06 	sts	0x06BC, r25
    3818:	80 93 bb 06 	sts	0x06BB, r24
	
	gpio_control.port_mapping[4] = &GPIO4_PORT;
    381c:	28 e3       	ldi	r18, 0x38	; 56
    381e:	30 e0       	ldi	r19, 0x00	; 0
    3820:	30 93 be 06 	sts	0x06BE, r19
    3824:	20 93 bd 06 	sts	0x06BD, r18
	gpio_control.port_mapping[5] = &GPIO5_PORT;
    3828:	30 93 c0 06 	sts	0x06C0, r19
    382c:	20 93 bf 06 	sts	0x06BF, r18
	gpio_control.port_mapping[6] = &GPIO6_PORT;
    3830:	90 93 c2 06 	sts	0x06C2, r25
    3834:	80 93 c1 06 	sts	0x06C1, r24
	gpio_control.port_mapping[7] = &GPIO7_PORT;
    3838:	90 93 c4 06 	sts	0x06C4, r25
    383c:	80 93 c3 06 	sts	0x06C3, r24
	
	gpio_control.port_mapping[8] = &GPIO8_PORT;
    3840:	82 e3       	ldi	r24, 0x32	; 50
    3842:	90 e0       	ldi	r25, 0x00	; 0
    3844:	90 93 c6 06 	sts	0x06C6, r25
    3848:	80 93 c5 06 	sts	0x06C5, r24
	gpio_control.port_mapping[9] = &GPIO9_PORT;
    384c:	90 93 c8 06 	sts	0x06C8, r25
    3850:	80 93 c7 06 	sts	0x06C7, r24
	gpio_control.port_mapping[10] = &GPIO10_PORT;
    3854:	30 93 ca 06 	sts	0x06CA, r19
    3858:	20 93 c9 06 	sts	0x06C9, r18
	gpio_control.port_mapping[11] = &GPIO11_PORT;
    385c:	90 93 cc 06 	sts	0x06CC, r25
    3860:	80 93 cb 06 	sts	0x06CB, r24
	
	gpio_control.pin_mapping[0] = &GPIO0_PIN;
    3864:	81 e2       	ldi	r24, 0x21	; 33
    3866:	90 e0       	ldi	r25, 0x00	; 0
    3868:	90 93 ce 06 	sts	0x06CE, r25
    386c:	80 93 cd 06 	sts	0x06CD, r24
	gpio_control.pin_mapping[1] = &GPIO1_PIN;
    3870:	90 93 d0 06 	sts	0x06D0, r25
    3874:	80 93 cf 06 	sts	0x06CF, r24
	gpio_control.pin_mapping[2] = &GPIO2_PIN;
    3878:	90 93 d2 06 	sts	0x06D2, r25
    387c:	80 93 d1 06 	sts	0x06D1, r24
	gpio_control.pin_mapping[3] = &GPIO3_PIN;
    3880:	90 93 d4 06 	sts	0x06D4, r25
    3884:	80 93 d3 06 	sts	0x06D3, r24
	
	gpio_control.pin_mapping[4] = &GPIO4_PIN;
    3888:	26 e3       	ldi	r18, 0x36	; 54
    388a:	30 e0       	ldi	r19, 0x00	; 0
    388c:	30 93 d6 06 	sts	0x06D6, r19
    3890:	20 93 d5 06 	sts	0x06D5, r18
	gpio_control.pin_mapping[5] = &GPIO5_PIN;
    3894:	30 93 d8 06 	sts	0x06D8, r19
    3898:	20 93 d7 06 	sts	0x06D7, r18
	gpio_control.pin_mapping[6] = &GPIO6_PIN;
    389c:	90 93 da 06 	sts	0x06DA, r25
    38a0:	80 93 d9 06 	sts	0x06D9, r24
	gpio_control.pin_mapping[7] = &GPIO7_PIN;
    38a4:	90 93 dc 06 	sts	0x06DC, r25
    38a8:	80 93 db 06 	sts	0x06DB, r24
	
	gpio_control.pin_mapping[8] = &GPIO8_PIN;
    38ac:	80 e3       	ldi	r24, 0x30	; 48
    38ae:	90 e0       	ldi	r25, 0x00	; 0
    38b0:	90 93 de 06 	sts	0x06DE, r25
    38b4:	80 93 dd 06 	sts	0x06DD, r24
	gpio_control.pin_mapping[9] = &GPIO9_PIN;
    38b8:	90 93 e0 06 	sts	0x06E0, r25
    38bc:	80 93 df 06 	sts	0x06DF, r24
	gpio_control.pin_mapping[10] = &GPIO10_PIN;
    38c0:	30 93 e2 06 	sts	0x06E2, r19
    38c4:	20 93 e1 06 	sts	0x06E1, r18
	gpio_control.pin_mapping[11] = &GPIO11_PIN;
    38c8:	90 93 e4 06 	sts	0x06E4, r25
    38cc:	80 93 e3 06 	sts	0x06E3, r24
	
	
	gpio_control.ddr_mapping[0] = &GPIO0_DDR;
    38d0:	82 e2       	ldi	r24, 0x22	; 34
    38d2:	90 e0       	ldi	r25, 0x00	; 0
    38d4:	90 93 e6 06 	sts	0x06E6, r25
    38d8:	80 93 e5 06 	sts	0x06E5, r24
	gpio_control.ddr_mapping[1] = &GPIO1_DDR;
    38dc:	90 93 e8 06 	sts	0x06E8, r25
    38e0:	80 93 e7 06 	sts	0x06E7, r24
	gpio_control.ddr_mapping[2] = &GPIO2_DDR;
    38e4:	90 93 ea 06 	sts	0x06EA, r25
    38e8:	80 93 e9 06 	sts	0x06E9, r24
	gpio_control.ddr_mapping[3] = &GPIO3_DDR;
    38ec:	90 93 ec 06 	sts	0x06EC, r25
    38f0:	80 93 eb 06 	sts	0x06EB, r24
	
	gpio_control.ddr_mapping[4] = &GPIO4_DDR;
    38f4:	27 e3       	ldi	r18, 0x37	; 55
    38f6:	30 e0       	ldi	r19, 0x00	; 0
    38f8:	30 93 ee 06 	sts	0x06EE, r19
    38fc:	20 93 ed 06 	sts	0x06ED, r18
	gpio_control.ddr_mapping[5] = &GPIO5_DDR;
    3900:	30 93 f0 06 	sts	0x06F0, r19
    3904:	20 93 ef 06 	sts	0x06EF, r18
	gpio_control.ddr_mapping[6] = &GPIO6_DDR;
    3908:	e4 eb       	ldi	r30, 0xB4	; 180
    390a:	f6 e0       	ldi	r31, 0x06	; 6
    390c:	96 af       	std	Z+62, r25	; 0x3e
    390e:	85 af       	std	Z+61, r24	; 0x3d
	gpio_control.ddr_mapping[7] = &GPIO7_DDR;
    3910:	90 93 f4 06 	sts	0x06F4, r25
    3914:	80 93 f3 06 	sts	0x06F3, r24
	
	gpio_control.ddr_mapping[8] = &GPIO8_DDR;
    3918:	81 e3       	ldi	r24, 0x31	; 49
    391a:	90 e0       	ldi	r25, 0x00	; 0
    391c:	90 93 f6 06 	sts	0x06F6, r25
    3920:	80 93 f5 06 	sts	0x06F5, r24
	gpio_control.ddr_mapping[9] = &GPIO9_DDR;
    3924:	90 93 f8 06 	sts	0x06F8, r25
    3928:	80 93 f7 06 	sts	0x06F7, r24
	gpio_control.ddr_mapping[10] = &GPIO10_DDR;
    392c:	30 93 fa 06 	sts	0x06FA, r19
    3930:	20 93 f9 06 	sts	0x06F9, r18
	gpio_control.ddr_mapping[11] = &GPIO11_DDR;
    3934:	90 93 fc 06 	sts	0x06FC, r25
    3938:	80 93 fb 06 	sts	0x06FB, r24
	
	
	gpio_control.bit_mapping[0] = GPIO0_BIT;
    393c:	85 e0       	ldi	r24, 0x05	; 5
    393e:	80 93 fd 06 	sts	0x06FD, r24
	gpio_control.bit_mapping[1] = GPIO1_BIT;
    3942:	24 e0       	ldi	r18, 0x04	; 4
    3944:	20 93 fe 06 	sts	0x06FE, r18
	gpio_control.bit_mapping[2] = GPIO2_BIT;
    3948:	37 e0       	ldi	r19, 0x07	; 7
    394a:	30 93 ff 06 	sts	0x06FF, r19
	gpio_control.bit_mapping[3] = GPIO3_BIT;
    394e:	96 e0       	ldi	r25, 0x06	; 6
    3950:	90 93 00 07 	sts	0x0700, r25
	
	gpio_control.bit_mapping[4] = GPIO4_BIT;
    3954:	80 93 01 07 	sts	0x0701, r24
	gpio_control.bit_mapping[5] = GPIO5_BIT;
    3958:	90 93 02 07 	sts	0x0702, r25
	gpio_control.bit_mapping[6] = GPIO6_BIT;
    395c:	83 e0       	ldi	r24, 0x03	; 3
    395e:	80 93 03 07 	sts	0x0703, r24
	gpio_control.bit_mapping[7] = GPIO7_BIT;
    3962:	82 e0       	ldi	r24, 0x02	; 2
    3964:	80 93 04 07 	sts	0x0704, r24
	
	gpio_control.bit_mapping[8] = GPIO8_BIT;
    3968:	20 93 05 07 	sts	0x0705, r18
	gpio_control.bit_mapping[9] = GPIO9_BIT;
    396c:	81 e0       	ldi	r24, 0x01	; 1
    396e:	80 93 06 07 	sts	0x0706, r24
	gpio_control.bit_mapping[10] = GPIO10_BIT;
    3972:	30 93 07 07 	sts	0x0707, r19
	gpio_control.bit_mapping[11] = GPIO11_BIT;
    3976:	90 93 08 07 	sts	0x0708, r25
	
	gpio_control.p_buffer_mapping[0] = &gpio_control.group2_buffer[0];
    397a:	89 e1       	ldi	r24, 0x19	; 25
    397c:	97 e0       	ldi	r25, 0x07	; 7
    397e:	90 93 23 07 	sts	0x0723, r25
    3982:	80 93 22 07 	sts	0x0722, r24
	gpio_control.p_buffer_mapping[1] = &gpio_control.group2_buffer[0];
    3986:	90 93 25 07 	sts	0x0725, r25
    398a:	80 93 24 07 	sts	0x0724, r24
	gpio_control.p_buffer_mapping[2] = &gpio_control.group2_buffer[0];
    398e:	90 93 27 07 	sts	0x0727, r25
    3992:	80 93 26 07 	sts	0x0726, r24
	gpio_control.p_buffer_mapping[3] = &gpio_control.group2_buffer[0];
    3996:	90 93 29 07 	sts	0x0729, r25
    399a:	80 93 28 07 	sts	0x0728, r24
	
	gpio_control.p_buffer_mapping[4] = &gpio_control.group0_buffer[0];
    399e:	29 e0       	ldi	r18, 0x09	; 9
    39a0:	37 e0       	ldi	r19, 0x07	; 7
    39a2:	30 93 2b 07 	sts	0x072B, r19
    39a6:	20 93 2a 07 	sts	0x072A, r18
	gpio_control.p_buffer_mapping[5] = &gpio_control.group0_buffer[0];
    39aa:	30 93 2d 07 	sts	0x072D, r19
    39ae:	20 93 2c 07 	sts	0x072C, r18
	gpio_control.p_buffer_mapping[6] = &gpio_control.group2_buffer[0];
    39b2:	90 93 2f 07 	sts	0x072F, r25
    39b6:	80 93 2e 07 	sts	0x072E, r24
	gpio_control.p_buffer_mapping[7] = &gpio_control.group2_buffer[0];
    39ba:	90 93 31 07 	sts	0x0731, r25
    39be:	80 93 30 07 	sts	0x0730, r24
	
	gpio_control.p_buffer_mapping[8] = &gpio_control.group1_buffer[0];
    39c2:	81 e1       	ldi	r24, 0x11	; 17
    39c4:	97 e0       	ldi	r25, 0x07	; 7
    39c6:	90 93 33 07 	sts	0x0733, r25
    39ca:	80 93 32 07 	sts	0x0732, r24
	gpio_control.p_buffer_mapping[9] = &gpio_control.group1_buffer[0];
    39ce:	90 93 35 07 	sts	0x0735, r25
    39d2:	80 93 34 07 	sts	0x0734, r24
	gpio_control.p_buffer_mapping[10] = &gpio_control.group0_buffer[0];
    39d6:	30 93 37 07 	sts	0x0737, r19
    39da:	20 93 36 07 	sts	0x0736, r18
	gpio_control.p_buffer_mapping[11] = &gpio_control.group1_buffer[0];
    39de:	90 93 39 07 	sts	0x0739, r25
    39e2:	80 93 38 07 	sts	0x0738, r24
	
	SetGpioDdr(0x0000);
    39e6:	80 e0       	ldi	r24, 0x00	; 0
    39e8:	90 e0       	ldi	r25, 0x00	; 0
    39ea:	0e 94 97 19 	call	0x332e	; 0x332e <SetGpioDdr>
	SetGpioPort(0x0000);											// 初始化方向、输出电平
    39ee:	80 e0       	ldi	r24, 0x00	; 0
    39f0:	90 e0       	ldi	r25, 0x00	; 0
    39f2:	0e 94 03 1a 	call	0x3406	; 0x3406 <SetGpioPort>
	
	gpio_control.buffer_count = 0;									// 初始化缓冲区位置计数器
    39f6:	10 92 21 07 	sts	0x0721, r1

	gpio_control.pSetGpioDdr = SetGpioDdr;							// 初始化函数指针
    39fa:	87 e9       	ldi	r24, 0x97	; 151
    39fc:	99 e1       	ldi	r25, 0x19	; 25
    39fe:	90 93 3d 07 	sts	0x073D, r25
    3a02:	80 93 3c 07 	sts	0x073C, r24
	gpio_control.pSetGpioPort = SetGpioPort;
    3a06:	83 e0       	ldi	r24, 0x03	; 3
    3a08:	9a e1       	ldi	r25, 0x1A	; 26
    3a0a:	90 93 3f 07 	sts	0x073F, r25
    3a0e:	80 93 3e 07 	sts	0x073E, r24
	gpio_control.pSetOutputPort = SetOutputPort;
    3a12:	8e e3       	ldi	r24, 0x3E	; 62
    3a14:	9a e1       	ldi	r25, 0x1A	; 26
    3a16:	90 93 41 07 	sts	0x0741, r25
    3a1a:	80 93 40 07 	sts	0x0740, r24
	gpio_control.pSetOutputBit = SetOutputBit;
    3a1e:	87 e4       	ldi	r24, 0x47	; 71
    3a20:	9a e1       	ldi	r25, 0x1A	; 26
    3a22:	90 93 43 07 	sts	0x0743, r25
    3a26:	80 93 42 07 	sts	0x0742, r24
	gpio_control.pGetGpioPort = GetGpioPort;
    3a2a:	89 e8       	ldi	r24, 0x89	; 137
    3a2c:	9a e1       	ldi	r25, 0x1A	; 26
    3a2e:	90 93 45 07 	sts	0x0745, r25
    3a32:	80 93 44 07 	sts	0x0744, r24
	gpio_control.pGetInputPort = GetInputPort;
    3a36:	88 ec       	ldi	r24, 0xC8	; 200
    3a38:	9a e1       	ldi	r25, 0x1A	; 26
    3a3a:	90 93 47 07 	sts	0x0747, r25
    3a3e:	80 93 46 07 	sts	0x0746, r24
	gpio_control.pGetInputBit = GetInputBit;
    3a42:	8a ee       	ldi	r24, 0xEA	; 234
    3a44:	9a e1       	ldi	r25, 0x1A	; 26
    3a46:	90 93 49 07 	sts	0x0749, r25
    3a4a:	80 93 48 07 	sts	0x0748, r24
	gpio_control.pGetInputFilteBit = GetInputFilteBit;
    3a4e:	8e eb       	ldi	r24, 0xBE	; 190
    3a50:	9b e1       	ldi	r25, 0x1B	; 27
    3a52:	90 93 4b 07 	sts	0x074B, r25
    3a56:	80 93 4a 07 	sts	0x074A, r24
	gpio_control.pGetInputFilte = GetInputFilte;
    3a5a:	8b e3       	ldi	r24, 0x3B	; 59
    3a5c:	9b e1       	ldi	r25, 0x1B	; 27
    3a5e:	90 93 4d 07 	sts	0x074D, r25
    3a62:	80 93 4c 07 	sts	0x074C, r24
	
	SetRegBit(gpio_control.state , INIT_COMPLETE);					// 置位初始化完成标志
    3a66:	80 91 b4 06 	lds	r24, 0x06B4
    3a6a:	80 68       	ori	r24, 0x80	; 128
    3a6c:	80 93 b4 06 	sts	0x06B4, r24
}
    3a70:	08 95       	ret

00003a72 <__vector_16>:
** 修订人:
** 修订日期:
**------------------------------------------------------------------------------------------------------------------------
*************************************************************************************************************************/
ISR(TIMER0_OVF_vect, ISR_NOBLOCK)
{
    3a72:	78 94       	sei
    3a74:	1f 92       	push	r1
    3a76:	0f 92       	push	r0
    3a78:	0f b6       	in	r0, 0x3f	; 63
    3a7a:	0f 92       	push	r0
    3a7c:	0b b6       	in	r0, 0x3b	; 59
    3a7e:	0f 92       	push	r0
    3a80:	11 24       	eor	r1, r1
    3a82:	2f 93       	push	r18
    3a84:	3f 93       	push	r19
    3a86:	4f 93       	push	r20
    3a88:	5f 93       	push	r21
    3a8a:	6f 93       	push	r22
    3a8c:	7f 93       	push	r23
    3a8e:	8f 93       	push	r24
    3a90:	9f 93       	push	r25
    3a92:	af 93       	push	r26
    3a94:	bf 93       	push	r27
    3a96:	ef 93       	push	r30
    3a98:	ff 93       	push	r31
	static uint8 t = 0;

	timer0_control.pSetPrescaler(TIMER0_PRESCALE_STOP);
    3a9a:	e0 91 ce 07 	lds	r30, 0x07CE
    3a9e:	f0 91 cf 07 	lds	r31, 0x07CF
    3aa2:	80 e0       	ldi	r24, 0x00	; 0
    3aa4:	09 95       	icall

//	timer0_control.pDisableInterrupt(TIMER8_IMR_OI);

	timer0_control.pSetCounterRegister(TIMER0_RELOAD_VAL);
    3aa6:	e0 91 c8 07 	lds	r30, 0x07C8
    3aaa:	f0 91 c9 07 	lds	r31, 0x07C9
    3aae:	83 e8       	ldi	r24, 0x83	; 131
    3ab0:	09 95       	icall

	t ++;
    3ab2:	80 91 67 0c 	lds	r24, 0x0C67
    3ab6:	8f 5f       	subi	r24, 0xFF	; 255
    3ab8:	80 93 67 0c 	sts	0x0C67, r24
	if (t > 20)
    3abc:	85 31       	cpi	r24, 0x15	; 21
    3abe:	40 f0       	brcs	.+16     	; 0x3ad0 <__vector_16+0x5e>
	{
		t = 0;
    3ac0:	10 92 67 0c 	sts	0x0C67, r1
		led_control.pChangeLedBit(1);
    3ac4:	e0 91 59 07 	lds	r30, 0x0759
    3ac8:	f0 91 5a 07 	lds	r31, 0x075A
    3acc:	81 e0       	ldi	r24, 0x01	; 1
    3ace:	09 95       	icall
	}

	SystemClockTick();
    3ad0:	0e 94 8e 3f 	call	0x7f1c	; 0x7f1c <SystemClockTick>

//	timer0_control.pEnableInterrupt(TIMER8_IMR_OI);
	timer0_control.pSetPrescaler(TIMER0_PRESCALE_256);
    3ad4:	e0 91 ce 07 	lds	r30, 0x07CE
    3ad8:	f0 91 cf 07 	lds	r31, 0x07CF
    3adc:	86 e0       	ldi	r24, 0x06	; 6
    3ade:	09 95       	icall
}
    3ae0:	ff 91       	pop	r31
    3ae2:	ef 91       	pop	r30
    3ae4:	bf 91       	pop	r27
    3ae6:	af 91       	pop	r26
    3ae8:	9f 91       	pop	r25
    3aea:	8f 91       	pop	r24
    3aec:	7f 91       	pop	r23
    3aee:	6f 91       	pop	r22
    3af0:	5f 91       	pop	r21
    3af2:	4f 91       	pop	r20
    3af4:	3f 91       	pop	r19
    3af6:	2f 91       	pop	r18
    3af8:	0f 90       	pop	r0
    3afa:	0b be       	out	0x3b, r0	; 59
    3afc:	0f 90       	pop	r0
    3afe:	0f be       	out	0x3f, r0	; 63
    3b00:	0f 90       	pop	r0
    3b02:	1f 90       	pop	r1
    3b04:	18 95       	reti

00003b06 <__vector_1>:
** 修订人:
** 修订日期:
**------------------------------------------------------------------------------------------------------------------------
*************************************************************************************************************************/
ISR(SPI_SLAVE_INT, ISR_BLOCK)
{
    3b06:	1f 92       	push	r1
    3b08:	0f 92       	push	r0
    3b0a:	0f b6       	in	r0, 0x3f	; 63
    3b0c:	0f 92       	push	r0
    3b0e:	0b b6       	in	r0, 0x3b	; 59
    3b10:	0f 92       	push	r0
    3b12:	11 24       	eor	r1, r1
    3b14:	2f 93       	push	r18
    3b16:	3f 93       	push	r19
    3b18:	4f 93       	push	r20
    3b1a:	5f 93       	push	r21
    3b1c:	6f 93       	push	r22
    3b1e:	7f 93       	push	r23
    3b20:	8f 93       	push	r24
    3b22:	9f 93       	push	r25
    3b24:	af 93       	push	r26
    3b26:	bf 93       	push	r27
    3b28:	ef 93       	push	r30
    3b2a:	ff 93       	push	r31
	led_control.pChangeLedBit(0);
    3b2c:	e0 91 59 07 	lds	r30, 0x0759
    3b30:	f0 91 5a 07 	lds	r31, 0x075A
    3b34:	80 e0       	ldi	r24, 0x00	; 0
    3b36:	09 95       	icall
	IsrSpiProcessExtInt();
    3b38:	0e 94 90 24 	call	0x4920	; 0x4920 <IsrSpiProcessExtInt>
}
    3b3c:	ff 91       	pop	r31
    3b3e:	ef 91       	pop	r30
    3b40:	bf 91       	pop	r27
    3b42:	af 91       	pop	r26
    3b44:	9f 91       	pop	r25
    3b46:	8f 91       	pop	r24
    3b48:	7f 91       	pop	r23
    3b4a:	6f 91       	pop	r22
    3b4c:	5f 91       	pop	r21
    3b4e:	4f 91       	pop	r20
    3b50:	3f 91       	pop	r19
    3b52:	2f 91       	pop	r18
    3b54:	0f 90       	pop	r0
    3b56:	0b be       	out	0x3b, r0	; 59
    3b58:	0f 90       	pop	r0
    3b5a:	0f be       	out	0x3f, r0	; 63
    3b5c:	0f 90       	pop	r0
    3b5e:	1f 90       	pop	r1
    3b60:	18 95       	reti

00003b62 <__vector_29>:
** 修订人:
** 修订日期:
**------------------------------------------------------------------------------------------------------------------------
*************************************************************************************************************************/
ISR(SYSTEM_TIMER_INT, ISR_NOBLOCK)
{
    3b62:	78 94       	sei
    3b64:	1f 92       	push	r1
    3b66:	0f 92       	push	r0
    3b68:	0f b6       	in	r0, 0x3f	; 63
    3b6a:	0f 92       	push	r0
    3b6c:	0b b6       	in	r0, 0x3b	; 59
    3b6e:	0f 92       	push	r0
    3b70:	11 24       	eor	r1, r1
    3b72:	2f 93       	push	r18
    3b74:	3f 93       	push	r19
    3b76:	4f 93       	push	r20
    3b78:	5f 93       	push	r21
    3b7a:	6f 93       	push	r22
    3b7c:	7f 93       	push	r23
    3b7e:	8f 93       	push	r24
    3b80:	9f 93       	push	r25
    3b82:	af 93       	push	r26
    3b84:	bf 93       	push	r27
    3b86:	ef 93       	push	r30
    3b88:	ff 93       	push	r31
	timer0_control.pDisableInterrupt(TIMER8_IMR_OI);
    3b8a:	e0 91 d4 07 	lds	r30, 0x07D4
    3b8e:	f0 91 d5 07 	lds	r31, 0x07D5
    3b92:	80 e0       	ldi	r24, 0x00	; 0
    3b94:	09 95       	icall

	IsrAdcSampling();
    3b96:	0e 94 ce 18 	call	0x319c	; 0x319c <IsrAdcSampling>
	IsrPpmOverFlow();
    3b9a:	0e 94 56 22 	call	0x44ac	; 0x44ac <IsrPpmOverFlow>
	IsrGpioSampling();
    3b9e:	0e 94 22 1b 	call	0x3644	; 0x3644 <IsrGpioSampling>
	IsrSpiProcessTimerInt();
    3ba2:	0e 94 a1 24 	call	0x4942	; 0x4942 <IsrSpiProcessTimerInt>

	timer0_control.pEnableInterrupt(TIMER8_IMR_OI);
    3ba6:	e0 91 d2 07 	lds	r30, 0x07D2
    3baa:	f0 91 d3 07 	lds	r31, 0x07D3
    3bae:	80 e0       	ldi	r24, 0x00	; 0
    3bb0:	09 95       	icall
}
    3bb2:	ff 91       	pop	r31
    3bb4:	ef 91       	pop	r30
    3bb6:	bf 91       	pop	r27
    3bb8:	af 91       	pop	r26
    3bba:	9f 91       	pop	r25
    3bbc:	8f 91       	pop	r24
    3bbe:	7f 91       	pop	r23
    3bc0:	6f 91       	pop	r22
    3bc2:	5f 91       	pop	r21
    3bc4:	4f 91       	pop	r20
    3bc6:	3f 91       	pop	r19
    3bc8:	2f 91       	pop	r18
    3bca:	0f 90       	pop	r0
    3bcc:	0b be       	out	0x3b, r0	; 59
    3bce:	0f 90       	pop	r0
    3bd0:	0f be       	out	0x3f, r0	; 63
    3bd2:	0f 90       	pop	r0
    3bd4:	1f 90       	pop	r1
    3bd6:	18 95       	reti

00003bd8 <SetLedBit>:
*************************************************************************************************************************/
static void SetLedBit(uint8 val)
{
	#if LED_PORT_ALONE	
	#else
		SetRegBit(LED_PORT, LED_BIT_BOTTOM + val);
    3bd8:	4b b3       	in	r20, 0x1b	; 27
    3bda:	90 e0       	ldi	r25, 0x00	; 0
    3bdc:	04 96       	adiw	r24, 0x04	; 4
    3bde:	21 e0       	ldi	r18, 0x01	; 1
    3be0:	30 e0       	ldi	r19, 0x00	; 0
    3be2:	02 c0       	rjmp	.+4      	; 0x3be8 <SetLedBit+0x10>
    3be4:	22 0f       	add	r18, r18
    3be6:	33 1f       	adc	r19, r19
    3be8:	8a 95       	dec	r24
    3bea:	e2 f7       	brpl	.-8      	; 0x3be4 <SetLedBit+0xc>
    3bec:	42 2b       	or	r20, r18
    3bee:	4b bb       	out	0x1b, r20	; 27
	#endif
}
    3bf0:	08 95       	ret

00003bf2 <ClrLedBit>:
*************************************************************************************************************************/
static void ClrLedBit(uint8 val)
{
	#if LED_PORT_ALONE	
	#else
		ClrRegBit(LED_PORT, LED_BIT_BOTTOM + val);
    3bf2:	4b b3       	in	r20, 0x1b	; 27
    3bf4:	90 e0       	ldi	r25, 0x00	; 0
    3bf6:	04 96       	adiw	r24, 0x04	; 4
    3bf8:	21 e0       	ldi	r18, 0x01	; 1
    3bfa:	30 e0       	ldi	r19, 0x00	; 0
    3bfc:	02 c0       	rjmp	.+4      	; 0x3c02 <ClrLedBit+0x10>
    3bfe:	22 0f       	add	r18, r18
    3c00:	33 1f       	adc	r19, r19
    3c02:	8a 95       	dec	r24
    3c04:	e2 f7       	brpl	.-8      	; 0x3bfe <ClrLedBit+0xc>
    3c06:	20 95       	com	r18
    3c08:	24 23       	and	r18, r20
    3c0a:	2b bb       	out	0x1b, r18	; 27
	#endif
}
    3c0c:	08 95       	ret

00003c0e <ChangeLedBit>:
static void ChangeLedBit(uint8 val)
{
	#if LED_PORT_ALONE
	#else

		ChangeRegBit(LED_PORT, LED_BIT_BOTTOM + val);
    3c0e:	4b b3       	in	r20, 0x1b	; 27
    3c10:	90 e0       	ldi	r25, 0x00	; 0
    3c12:	04 96       	adiw	r24, 0x04	; 4
    3c14:	21 e0       	ldi	r18, 0x01	; 1
    3c16:	30 e0       	ldi	r19, 0x00	; 0
    3c18:	02 c0       	rjmp	.+4      	; 0x3c1e <ChangeLedBit+0x10>
    3c1a:	22 0f       	add	r18, r18
    3c1c:	33 1f       	adc	r19, r19
    3c1e:	8a 95       	dec	r24
    3c20:	e2 f7       	brpl	.-8      	; 0x3c1a <ChangeLedBit+0xc>
    3c22:	42 27       	eor	r20, r18
    3c24:	4b bb       	out	0x1b, r20	; 27

	#endif
}
    3c26:	08 95       	ret

00003c28 <SetLedGroup>:
static void SetLedGroup(uint8 val)
{
	#if LED_PORT_ALONE
	#else

		SetReg(LED_PORT, (val << LED_BIT_BOTTOM) & LED_MASK);
    3c28:	90 e0       	ldi	r25, 0x00	; 0
    3c2a:	24 e0       	ldi	r18, 0x04	; 4
    3c2c:	88 0f       	add	r24, r24
    3c2e:	99 1f       	adc	r25, r25
    3c30:	2a 95       	dec	r18
    3c32:	e1 f7       	brne	.-8      	; 0x3c2c <SetLedGroup+0x4>
    3c34:	8b bb       	out	0x1b, r24	; 27
	
	#endif
	
}
    3c36:	08 95       	ret

00003c38 <InitLed>:
static void InitLed(void)
{
	#if LED_PORT_ALONE
	#else

		SetReg(led_control.state, 0);									// 初始化状态寄存器
    3c38:	10 92 50 07 	sts	0x0750, r1
		
		SetRegBits(LED_DDR, LED_MASK);
    3c3c:	8a b3       	in	r24, 0x1a	; 26
    3c3e:	80 6f       	ori	r24, 0xF0	; 240
    3c40:	8a bb       	out	0x1a, r24	; 26
		ClrRegBits(LED_PORT, LED_MASK);
    3c42:	8b b3       	in	r24, 0x1b	; 27
    3c44:	8f 70       	andi	r24, 0x0F	; 15
    3c46:	8b bb       	out	0x1b, r24	; 27
		led_control.pSetLedGroup = SetLedGroup;
    3c48:	84 e1       	ldi	r24, 0x14	; 20
    3c4a:	9e e1       	ldi	r25, 0x1E	; 30
    3c4c:	90 93 54 07 	sts	0x0754, r25
    3c50:	80 93 53 07 	sts	0x0753, r24
		led_control.pClrLedBit = ClrLedBit;
    3c54:	89 ef       	ldi	r24, 0xF9	; 249
    3c56:	9d e1       	ldi	r25, 0x1D	; 29
    3c58:	90 93 56 07 	sts	0x0756, r25
    3c5c:	80 93 55 07 	sts	0x0755, r24
		led_control.pSetLedBit = SetLedBit;
    3c60:	8c ee       	ldi	r24, 0xEC	; 236
    3c62:	9d e1       	ldi	r25, 0x1D	; 29
    3c64:	90 93 58 07 	sts	0x0758, r25
    3c68:	80 93 57 07 	sts	0x0757, r24
		led_control.pChangeLedBit = ChangeLedBit;
    3c6c:	87 e0       	ldi	r24, 0x07	; 7
    3c6e:	9e e1       	ldi	r25, 0x1E	; 30
    3c70:	90 93 5a 07 	sts	0x075A, r25
    3c74:	80 93 59 07 	sts	0x0759, r24
		
		SetRegBit(led_control.state, INIT_COMPLETE);					// 置位初始化完成标志
    3c78:	80 91 50 07 	lds	r24, 0x0750
    3c7c:	80 68       	ori	r24, 0x80	; 128
    3c7e:	80 93 50 07 	sts	0x0750, r24

	#endif
}
    3c82:	08 95       	ret

00003c84 <SetPpmPosition>:
** 修订人:
** 修订日期:
**------------------------------------------------------------------------------------------------------------------------
*************************************************************************************************************************/
static uint8 SetPpmPosition(uint8 channel, uint16 position, uint16 speed)
{
    3c84:	ef 92       	push	r14
    3c86:	ff 92       	push	r15
    3c88:	0f 93       	push	r16
    3c8a:	1f 93       	push	r17
    3c8c:	cf 93       	push	r28
    3c8e:	df 93       	push	r29
    3c90:	8b 01       	movw	r16, r22
    3c92:	7a 01       	movw	r14, r20
	uint8 count = 0;
	
	if(PPM_BROADCASTING == channel)
    3c94:	8e 31       	cpi	r24, 0x1E	; 30
    3c96:	09 f0       	breq	.+2      	; 0x3c9a <SetPpmPosition+0x16>
    3c98:	4e c0       	rjmp	.+156    	; 0x3d36 <SetPpmPosition+0xb2>
    3c9a:	c0 e0       	ldi	r28, 0x00	; 0
    3c9c:	d0 e0       	ldi	r29, 0x00	; 0
	{
		for(count = 0; count < 8; count++)
		{
			if(PPM_SERVO_MODE == ppm_buffer_state[count].mode)
    3c9e:	fe 01       	movw	r30, r28
    3ca0:	ee 0f       	add	r30, r30
    3ca2:	ff 1f       	adc	r31, r31
    3ca4:	ec 0f       	add	r30, r28
    3ca6:	fd 1f       	adc	r31, r29
    3ca8:	ee 0f       	add	r30, r30
    3caa:	ff 1f       	adc	r31, r31
    3cac:	ee 0f       	add	r30, r30
    3cae:	ff 1f       	adc	r31, r31
    3cb0:	e8 53       	subi	r30, 0x38	; 56
    3cb2:	f3 4f       	sbci	r31, 0xF3	; 243
    3cb4:	82 85       	ldd	r24, Z+10	; 0x0a
    3cb6:	8f 30       	cpi	r24, 0x0F	; 15
    3cb8:	09 f0       	breq	.+2      	; 0x3cbc <SetPpmPosition+0x38>
    3cba:	8d c0       	rjmp	.+282    	; 0x3dd6 <SetPpmPosition+0x152>
    3cbc:	84 e0       	ldi	r24, 0x04	; 4
    3cbe:	00 30       	cpi	r16, 0x00	; 0
    3cc0:	18 07       	cpc	r17, r24
    3cc2:	10 f0       	brcs	.+4      	; 0x3cc8 <SetPpmPosition+0x44>
    3cc4:	0f ef       	ldi	r16, 0xFF	; 255
    3cc6:	13 e0       	ldi	r17, 0x03	; 3
    3cc8:	80 e0       	ldi	r24, 0x00	; 0
    3cca:	e8 16       	cp	r14, r24
    3ccc:	84 e0       	ldi	r24, 0x04	; 4
    3cce:	f8 06       	cpc	r15, r24
    3cd0:	20 f0       	brcs	.+8      	; 0x3cda <SetPpmPosition+0x56>
    3cd2:	3f ef       	ldi	r19, 0xFF	; 255
    3cd4:	e3 2e       	mov	r14, r19
    3cd6:	33 e0       	ldi	r19, 0x03	; 3
    3cd8:	f3 2e       	mov	r15, r19
				if(speed > 0x03FF)
				{
					speed = 0x03FF;
				}
				
				PpmPositionConversion(ppm_buffer_state[count].target_position, position);
    3cda:	b8 01       	movw	r22, r16
    3cdc:	80 e0       	ldi	r24, 0x00	; 0
    3cde:	90 e0       	ldi	r25, 0x00	; 0
    3ce0:	24 ef       	ldi	r18, 0xF4	; 244
    3ce2:	31 e0       	ldi	r19, 0x01	; 1
    3ce4:	40 e0       	ldi	r20, 0x00	; 0
    3ce6:	50 e0       	ldi	r21, 0x00	; 0
    3ce8:	0e 94 e9 3f 	call	0x7fd2	; 0x7fd2 <__mulsi3>
    3cec:	24 e0       	ldi	r18, 0x04	; 4
    3cee:	96 95       	lsr	r25
    3cf0:	87 95       	ror	r24
    3cf2:	77 95       	ror	r23
    3cf4:	67 95       	ror	r22
    3cf6:	2a 95       	dec	r18
    3cf8:	d1 f7       	brne	.-12     	; 0x3cee <SetPpmPosition+0x6a>
    3cfa:	60 5c       	subi	r22, 0xC0	; 192
    3cfc:	70 4e       	sbci	r23, 0xE0	; 224
    3cfe:	fe 01       	movw	r30, r28
    3d00:	ee 0f       	add	r30, r30
    3d02:	ff 1f       	adc	r31, r31
    3d04:	ec 0f       	add	r30, r28
    3d06:	fd 1f       	adc	r31, r29
    3d08:	ee 0f       	add	r30, r30
    3d0a:	ff 1f       	adc	r31, r31
    3d0c:	ee 0f       	add	r30, r30
    3d0e:	ff 1f       	adc	r31, r31
    3d10:	df 01       	movw	r26, r30
    3d12:	a6 53       	subi	r26, 0x36	; 54
    3d14:	b3 4f       	sbci	r27, 0xF3	; 243
    3d16:	11 96       	adiw	r26, 0x01	; 1
    3d18:	7c 93       	st	X, r23
    3d1a:	6e 93       	st	-X, r22
				PpmSpeedConversion(ppm_buffer_state[count].speed, speed);
    3d1c:	c7 01       	movw	r24, r14
    3d1e:	88 0f       	add	r24, r24
    3d20:	99 1f       	adc	r25, r25
    3d22:	e8 53       	subi	r30, 0x38	; 56
    3d24:	f3 4f       	sbci	r31, 0xF3	; 243
    3d26:	91 83       	std	Z+1, r25	; 0x01
    3d28:	80 83       	st	Z, r24
    3d2a:	21 96       	adiw	r28, 0x01	; 1
{
	uint8 count = 0;
	
	if(PPM_BROADCASTING == channel)
	{
		for(count = 0; count < 8; count++)
    3d2c:	c8 30       	cpi	r28, 0x08	; 8
    3d2e:	d1 05       	cpc	r29, r1
    3d30:	09 f0       	breq	.+2      	; 0x3d34 <SetPpmPosition+0xb0>
    3d32:	b5 cf       	rjmp	.-150    	; 0x3c9e <SetPpmPosition+0x1a>
    3d34:	4e c0       	rjmp	.+156    	; 0x3dd2 <SetPpmPosition+0x14e>
			{
				return FALSE;
			}
		}
	}
	else if(channel <= 7)
    3d36:	88 30       	cpi	r24, 0x08	; 8
    3d38:	08 f0       	brcs	.+2      	; 0x3d3c <SetPpmPosition+0xb8>
    3d3a:	4d c0       	rjmp	.+154    	; 0x3dd6 <SetPpmPosition+0x152>
	{			
		if(PPM_SERVO_MODE == ppm_buffer_state[channel].mode)
    3d3c:	c8 2f       	mov	r28, r24
    3d3e:	d0 e0       	ldi	r29, 0x00	; 0
    3d40:	fe 01       	movw	r30, r28
    3d42:	ee 0f       	add	r30, r30
    3d44:	ff 1f       	adc	r31, r31
    3d46:	ec 0f       	add	r30, r28
    3d48:	fd 1f       	adc	r31, r29
    3d4a:	ee 0f       	add	r30, r30
    3d4c:	ff 1f       	adc	r31, r31
    3d4e:	ee 0f       	add	r30, r30
    3d50:	ff 1f       	adc	r31, r31
    3d52:	e8 53       	subi	r30, 0x38	; 56
    3d54:	f3 4f       	sbci	r31, 0xF3	; 243
    3d56:	82 85       	ldd	r24, Z+10	; 0x0a
    3d58:	8f 30       	cpi	r24, 0x0F	; 15
    3d5a:	e9 f5       	brne	.+122    	; 0x3dd6 <SetPpmPosition+0x152>
			if(speed > 0x03FF)
			{
				speed = 0x03FF;
			}
			
			PpmPositionConversion(ppm_buffer_state[channel].target_position, position);
    3d5c:	b8 01       	movw	r22, r16
    3d5e:	84 e0       	ldi	r24, 0x04	; 4
    3d60:	00 30       	cpi	r16, 0x00	; 0
    3d62:	18 07       	cpc	r17, r24
    3d64:	10 f0       	brcs	.+4      	; 0x3d6a <SetPpmPosition+0xe6>
    3d66:	6f ef       	ldi	r22, 0xFF	; 255
    3d68:	73 e0       	ldi	r23, 0x03	; 3
    3d6a:	80 e0       	ldi	r24, 0x00	; 0
    3d6c:	90 e0       	ldi	r25, 0x00	; 0
    3d6e:	24 ef       	ldi	r18, 0xF4	; 244
    3d70:	31 e0       	ldi	r19, 0x01	; 1
    3d72:	40 e0       	ldi	r20, 0x00	; 0
    3d74:	50 e0       	ldi	r21, 0x00	; 0
    3d76:	0e 94 e9 3f 	call	0x7fd2	; 0x7fd2 <__mulsi3>
    3d7a:	54 e0       	ldi	r21, 0x04	; 4
    3d7c:	96 95       	lsr	r25
    3d7e:	87 95       	ror	r24
    3d80:	77 95       	ror	r23
    3d82:	67 95       	ror	r22
    3d84:	5a 95       	dec	r21
    3d86:	d1 f7       	brne	.-12     	; 0x3d7c <SetPpmPosition+0xf8>
    3d88:	60 5c       	subi	r22, 0xC0	; 192
    3d8a:	70 4e       	sbci	r23, 0xE0	; 224
    3d8c:	fe 01       	movw	r30, r28
    3d8e:	ee 0f       	add	r30, r30
    3d90:	ff 1f       	adc	r31, r31
    3d92:	ec 0f       	add	r30, r28
    3d94:	fd 1f       	adc	r31, r29
    3d96:	ee 0f       	add	r30, r30
    3d98:	ff 1f       	adc	r31, r31
    3d9a:	ee 0f       	add	r30, r30
    3d9c:	ff 1f       	adc	r31, r31
    3d9e:	e6 53       	subi	r30, 0x36	; 54
    3da0:	f3 4f       	sbci	r31, 0xF3	; 243
    3da2:	71 83       	std	Z+1, r23	; 0x01
    3da4:	60 83       	st	Z, r22
			PpmSpeedConversion(ppm_buffer_state[channel].speed, speed);
    3da6:	a7 01       	movw	r20, r14
    3da8:	84 e0       	ldi	r24, 0x04	; 4
    3daa:	40 30       	cpi	r20, 0x00	; 0
    3dac:	58 07       	cpc	r21, r24
    3dae:	10 f0       	brcs	.+4      	; 0x3db4 <SetPpmPosition+0x130>
    3db0:	4f ef       	ldi	r20, 0xFF	; 255
    3db2:	53 e0       	ldi	r21, 0x03	; 3
    3db4:	44 0f       	add	r20, r20
    3db6:	55 1f       	adc	r21, r21
    3db8:	fe 01       	movw	r30, r28
    3dba:	ee 0f       	add	r30, r30
    3dbc:	ff 1f       	adc	r31, r31
    3dbe:	ec 0f       	add	r30, r28
    3dc0:	fd 1f       	adc	r31, r29
    3dc2:	ee 0f       	add	r30, r30
    3dc4:	ff 1f       	adc	r31, r31
    3dc6:	ee 0f       	add	r30, r30
    3dc8:	ff 1f       	adc	r31, r31
    3dca:	e8 53       	subi	r30, 0x38	; 56
    3dcc:	f3 4f       	sbci	r31, 0xF3	; 243
    3dce:	51 83       	std	Z+1, r21	; 0x01
    3dd0:	40 83       	st	Z, r20
    3dd2:	81 e0       	ldi	r24, 0x01	; 1
    3dd4:	01 c0       	rjmp	.+2      	; 0x3dd8 <SetPpmPosition+0x154>
    3dd6:	80 e0       	ldi	r24, 0x00	; 0
	else
	{
		return FALSE;
	}
	return TRUE;	
}
    3dd8:	df 91       	pop	r29
    3dda:	cf 91       	pop	r28
    3ddc:	1f 91       	pop	r17
    3dde:	0f 91       	pop	r16
    3de0:	ff 90       	pop	r15
    3de2:	ef 90       	pop	r14
    3de4:	08 95       	ret

00003de6 <SetPpmAcceleration>:
static uint8 SetPpmAcceleration(uint8 channel, uint16 acceleration)
{
	uint16 temp_acceleration = 0;
	uint8 count = 0;
	
	if(PPM_BROADCASTING == channel)
    3de6:	8e 31       	cpi	r24, 0x1E	; 30
    3de8:	09 f5       	brne	.+66     	; 0x3e2c <SetPpmAcceleration+0x46>
				}
				else
				{
					temp_acceleration = acceleration;
				}
				PpmSpeedConversion(ppm_buffer_state[count].speed, temp_acceleration);
    3dea:	9b 01       	movw	r18, r22
    3dec:	84 e0       	ldi	r24, 0x04	; 4
    3dee:	60 30       	cpi	r22, 0x00	; 0
    3df0:	78 07       	cpc	r23, r24
    3df2:	10 f0       	brcs	.+4      	; 0x3df8 <SetPpmAcceleration+0x12>
    3df4:	2f ef       	ldi	r18, 0xFF	; 255
    3df6:	33 e0       	ldi	r19, 0x03	; 3
    3df8:	22 0f       	add	r18, r18
    3dfa:	33 1f       	adc	r19, r19
    3dfc:	40 e0       	ldi	r20, 0x00	; 0
    3dfe:	50 e0       	ldi	r21, 0x00	; 0
	
	if(PPM_BROADCASTING == channel)
	{
		for(count = 0; count < 8; count++)
		{
			if(PPM_MOTO_MODE == ppm_buffer_state[count].mode)
    3e00:	fa 01       	movw	r30, r20
    3e02:	ee 0f       	add	r30, r30
    3e04:	ff 1f       	adc	r31, r31
    3e06:	e4 0f       	add	r30, r20
    3e08:	f5 1f       	adc	r31, r21
    3e0a:	ee 0f       	add	r30, r30
    3e0c:	ff 1f       	adc	r31, r31
    3e0e:	ee 0f       	add	r30, r30
    3e10:	ff 1f       	adc	r31, r31
    3e12:	e8 53       	subi	r30, 0x38	; 56
    3e14:	f3 4f       	sbci	r31, 0xF3	; 243
    3e16:	82 85       	ldd	r24, Z+10	; 0x0a
    3e18:	80 3f       	cpi	r24, 0xF0	; 240
    3e1a:	11 f4       	brne	.+4      	; 0x3e20 <SetPpmAcceleration+0x3a>
				}
				else
				{
					temp_acceleration = acceleration;
				}
				PpmSpeedConversion(ppm_buffer_state[count].speed, temp_acceleration);
    3e1c:	31 83       	std	Z+1, r19	; 0x01
    3e1e:	20 83       	st	Z, r18
    3e20:	4f 5f       	subi	r20, 0xFF	; 255
    3e22:	5f 4f       	sbci	r21, 0xFF	; 255
	uint16 temp_acceleration = 0;
	uint8 count = 0;
	
	if(PPM_BROADCASTING == channel)
	{
		for(count = 0; count < 8; count++)
    3e24:	48 30       	cpi	r20, 0x08	; 8
    3e26:	51 05       	cpc	r21, r1
    3e28:	59 f7       	brne	.-42     	; 0x3e00 <SetPpmAcceleration+0x1a>
    3e2a:	28 c0       	rjmp	.+80     	; 0x3e7c <SetPpmAcceleration+0x96>
				}
				PpmSpeedConversion(ppm_buffer_state[count].speed, temp_acceleration);
			}
		}
	}
	else if(channel <= 7)
    3e2c:	88 30       	cpi	r24, 0x08	; 8
    3e2e:	40 f5       	brcc	.+80     	; 0x3e80 <SetPpmAcceleration+0x9a>
	{
		if(PPM_MOTO_MODE == ppm_buffer_state[channel].mode)
    3e30:	48 2f       	mov	r20, r24
    3e32:	50 e0       	ldi	r21, 0x00	; 0
    3e34:	fa 01       	movw	r30, r20
    3e36:	ee 0f       	add	r30, r30
    3e38:	ff 1f       	adc	r31, r31
    3e3a:	e4 0f       	add	r30, r20
    3e3c:	f5 1f       	adc	r31, r21
    3e3e:	ee 0f       	add	r30, r30
    3e40:	ff 1f       	adc	r31, r31
    3e42:	ee 0f       	add	r30, r30
    3e44:	ff 1f       	adc	r31, r31
    3e46:	e8 53       	subi	r30, 0x38	; 56
    3e48:	f3 4f       	sbci	r31, 0xF3	; 243
    3e4a:	82 85       	ldd	r24, Z+10	; 0x0a
    3e4c:	80 3f       	cpi	r24, 0xF0	; 240
    3e4e:	c1 f4       	brne	.+48     	; 0x3e80 <SetPpmAcceleration+0x9a>
			else
			{
				temp_acceleration = acceleration;
			}
			
			PpmSpeedConversion(ppm_buffer_state[channel].speed, temp_acceleration);
    3e50:	9b 01       	movw	r18, r22
    3e52:	84 e0       	ldi	r24, 0x04	; 4
    3e54:	60 30       	cpi	r22, 0x00	; 0
    3e56:	78 07       	cpc	r23, r24
    3e58:	10 f0       	brcs	.+4      	; 0x3e5e <SetPpmAcceleration+0x78>
    3e5a:	2f ef       	ldi	r18, 0xFF	; 255
    3e5c:	33 e0       	ldi	r19, 0x03	; 3
    3e5e:	22 0f       	add	r18, r18
    3e60:	33 1f       	adc	r19, r19
    3e62:	fa 01       	movw	r30, r20
    3e64:	ee 0f       	add	r30, r30
    3e66:	ff 1f       	adc	r31, r31
    3e68:	e4 0f       	add	r30, r20
    3e6a:	f5 1f       	adc	r31, r21
    3e6c:	ee 0f       	add	r30, r30
    3e6e:	ff 1f       	adc	r31, r31
    3e70:	ee 0f       	add	r30, r30
    3e72:	ff 1f       	adc	r31, r31
    3e74:	e8 53       	subi	r30, 0x38	; 56
    3e76:	f3 4f       	sbci	r31, 0xF3	; 243
    3e78:	31 83       	std	Z+1, r19	; 0x01
    3e7a:	20 83       	st	Z, r18
    3e7c:	81 e0       	ldi	r24, 0x01	; 1
    3e7e:	08 95       	ret
    3e80:	80 e0       	ldi	r24, 0x00	; 0
	{
		return FALSE;
	}
	
	return TRUE;
}
    3e82:	08 95       	ret

00003e84 <SetPpmVelocity>:
** 修订人:
** 修订日期:
**------------------------------------------------------------------------------------------------------------------------
*************************************************************************************************************************/
static uint8 SetPpmVelocity(uint8 channel, uint8 direction, uint16 velocity)
{
    3e84:	ff 92       	push	r15
    3e86:	0f 93       	push	r16
    3e88:	1f 93       	push	r17
    3e8a:	cf 93       	push	r28
    3e8c:	df 93       	push	r29
    3e8e:	f6 2e       	mov	r15, r22
	uint16 temp_velocity = 0;
	uint8 count = 0;
	
	if(PPM_BROADCASTING == channel)
    3e90:	8e 31       	cpi	r24, 0x1E	; 30
    3e92:	09 f0       	breq	.+2      	; 0x3e96 <SetPpmVelocity+0x12>
    3e94:	5c c0       	rjmp	.+184    	; 0x3f4e <SetPpmVelocity+0xca>
				{
					PpmPositionConversion(ppm_buffer_state[count].target_position, (0x200 - (temp_velocity >> 1)));
				}
				else									// 逆时针
				{
					PpmPositionConversion(ppm_buffer_state[count].target_position, (0x200 + (temp_velocity >> 1)));
    3e96:	9a 01       	movw	r18, r20
    3e98:	84 e0       	ldi	r24, 0x04	; 4
    3e9a:	40 30       	cpi	r20, 0x00	; 0
    3e9c:	58 07       	cpc	r21, r24
    3e9e:	10 f0       	brcs	.+4      	; 0x3ea4 <SetPpmVelocity+0x20>
    3ea0:	2f ef       	ldi	r18, 0xFF	; 255
    3ea2:	33 e0       	ldi	r19, 0x03	; 3
    3ea4:	89 01       	movw	r16, r18
    3ea6:	16 95       	lsr	r17
    3ea8:	07 95       	ror	r16
    3eaa:	00 50       	subi	r16, 0x00	; 0
    3eac:	1e 4f       	sbci	r17, 0xFE	; 254
    3eae:	b8 01       	movw	r22, r16
    3eb0:	80 e0       	ldi	r24, 0x00	; 0
    3eb2:	90 e0       	ldi	r25, 0x00	; 0
    3eb4:	00 50       	subi	r16, 0x00	; 0
    3eb6:	12 40       	sbci	r17, 0x02	; 2
    3eb8:	24 ef       	ldi	r18, 0xF4	; 244
    3eba:	31 e0       	ldi	r19, 0x01	; 1
    3ebc:	40 e0       	ldi	r20, 0x00	; 0
    3ebe:	50 e0       	ldi	r21, 0x00	; 0
    3ec0:	0e 94 e9 3f 	call	0x7fd2	; 0x7fd2 <__mulsi3>
    3ec4:	e4 e0       	ldi	r30, 0x04	; 4
    3ec6:	96 95       	lsr	r25
    3ec8:	87 95       	ror	r24
    3eca:	77 95       	ror	r23
    3ecc:	67 95       	ror	r22
    3ece:	ea 95       	dec	r30
    3ed0:	d1 f7       	brne	.-12     	; 0x3ec6 <SetPpmVelocity+0x42>
    3ed2:	eb 01       	movw	r28, r22
    3ed4:	c0 5c       	subi	r28, 0xC0	; 192
    3ed6:	d0 4e       	sbci	r29, 0xE0	; 224
					temp_velocity = velocity;
				}
				
				if(0 == direction)						// 顺时针
				{
					PpmPositionConversion(ppm_buffer_state[count].target_position, (0x200 - (temp_velocity >> 1)));
    3ed8:	60 e0       	ldi	r22, 0x00	; 0
    3eda:	72 e0       	ldi	r23, 0x02	; 2
    3edc:	60 1b       	sub	r22, r16
    3ede:	71 0b       	sbc	r23, r17
    3ee0:	80 e0       	ldi	r24, 0x00	; 0
    3ee2:	90 e0       	ldi	r25, 0x00	; 0
    3ee4:	0e 94 e9 3f 	call	0x7fd2	; 0x7fd2 <__mulsi3>
    3ee8:	14 e0       	ldi	r17, 0x04	; 4
    3eea:	96 95       	lsr	r25
    3eec:	87 95       	ror	r24
    3eee:	77 95       	ror	r23
    3ef0:	67 95       	ror	r22
    3ef2:	1a 95       	dec	r17
    3ef4:	d1 f7       	brne	.-12     	; 0x3eea <SetPpmVelocity+0x66>
    3ef6:	60 5c       	subi	r22, 0xC0	; 192
    3ef8:	70 4e       	sbci	r23, 0xE0	; 224
    3efa:	40 e0       	ldi	r20, 0x00	; 0
    3efc:	50 e0       	ldi	r21, 0x00	; 0
	
	if(PPM_BROADCASTING == channel)
	{
		for(count = 0; count < 8; count++)
		{
			if(PPM_MOTO_MODE == ppm_buffer_state[count].mode)
    3efe:	9a 01       	movw	r18, r20
    3f00:	22 0f       	add	r18, r18
    3f02:	33 1f       	adc	r19, r19
    3f04:	24 0f       	add	r18, r20
    3f06:	35 1f       	adc	r19, r21
    3f08:	f9 01       	movw	r30, r18
    3f0a:	ee 0f       	add	r30, r30
    3f0c:	ff 1f       	adc	r31, r31
    3f0e:	ee 0f       	add	r30, r30
    3f10:	ff 1f       	adc	r31, r31
    3f12:	e8 53       	subi	r30, 0x38	; 56
    3f14:	f3 4f       	sbci	r31, 0xF3	; 243
    3f16:	82 85       	ldd	r24, Z+10	; 0x0a
    3f18:	80 3f       	cpi	r24, 0xF0	; 240
    3f1a:	09 f0       	breq	.+2      	; 0x3f1e <SetPpmVelocity+0x9a>
    3f1c:	5e c0       	rjmp	.+188    	; 0x3fda <SetPpmVelocity+0x156>
    3f1e:	f9 01       	movw	r30, r18
    3f20:	ee 0f       	add	r30, r30
    3f22:	ff 1f       	adc	r31, r31
				else
				{
					temp_velocity = velocity;
				}
				
				if(0 == direction)						// 顺时针
    3f24:	ff 20       	and	r15, r15
    3f26:	39 f4       	brne	.+14     	; 0x3f36 <SetPpmVelocity+0xb2>
				{
					PpmPositionConversion(ppm_buffer_state[count].target_position, (0x200 - (temp_velocity >> 1)));
    3f28:	ee 0f       	add	r30, r30
    3f2a:	ff 1f       	adc	r31, r31
    3f2c:	e6 53       	subi	r30, 0x36	; 54
    3f2e:	f3 4f       	sbci	r31, 0xF3	; 243
    3f30:	71 83       	std	Z+1, r23	; 0x01
    3f32:	60 83       	st	Z, r22
    3f34:	06 c0       	rjmp	.+12     	; 0x3f42 <SetPpmVelocity+0xbe>
				}
				else									// 逆时针
				{
					PpmPositionConversion(ppm_buffer_state[count].target_position, (0x200 + (temp_velocity >> 1)));
    3f36:	ee 0f       	add	r30, r30
    3f38:	ff 1f       	adc	r31, r31
    3f3a:	e6 53       	subi	r30, 0x36	; 54
    3f3c:	f3 4f       	sbci	r31, 0xF3	; 243
    3f3e:	d1 83       	std	Z+1, r29	; 0x01
    3f40:	c0 83       	st	Z, r28
    3f42:	4f 5f       	subi	r20, 0xFF	; 255
    3f44:	5f 4f       	sbci	r21, 0xFF	; 255
	uint16 temp_velocity = 0;
	uint8 count = 0;
	
	if(PPM_BROADCASTING == channel)
	{
		for(count = 0; count < 8; count++)
    3f46:	48 30       	cpi	r20, 0x08	; 8
    3f48:	51 05       	cpc	r21, r1
    3f4a:	c9 f6       	brne	.-78     	; 0x3efe <SetPpmVelocity+0x7a>
    3f4c:	40 c0       	rjmp	.+128    	; 0x3fce <SetPpmVelocity+0x14a>
			{
				return FALSE;
			}
		}
	}
	else if(channel <= 7)
    3f4e:	88 30       	cpi	r24, 0x08	; 8
    3f50:	08 f0       	brcs	.+2      	; 0x3f54 <SetPpmVelocity+0xd0>
    3f52:	43 c0       	rjmp	.+134    	; 0x3fda <SetPpmVelocity+0x156>
	{
		if(PPM_MOTO_MODE == ppm_buffer_state[channel].mode)
    3f54:	08 2f       	mov	r16, r24
    3f56:	10 e0       	ldi	r17, 0x00	; 0
    3f58:	f8 01       	movw	r30, r16
    3f5a:	ee 0f       	add	r30, r30
    3f5c:	ff 1f       	adc	r31, r31
    3f5e:	e0 0f       	add	r30, r16
    3f60:	f1 1f       	adc	r31, r17
    3f62:	ee 0f       	add	r30, r30
    3f64:	ff 1f       	adc	r31, r31
    3f66:	ee 0f       	add	r30, r30
    3f68:	ff 1f       	adc	r31, r31
    3f6a:	e8 53       	subi	r30, 0x38	; 56
    3f6c:	f3 4f       	sbci	r31, 0xF3	; 243
    3f6e:	82 85       	ldd	r24, Z+10	; 0x0a
    3f70:	80 3f       	cpi	r24, 0xF0	; 240
    3f72:	99 f5       	brne	.+102    	; 0x3fda <SetPpmVelocity+0x156>
    3f74:	9a 01       	movw	r18, r20
    3f76:	84 e0       	ldi	r24, 0x04	; 4
    3f78:	40 30       	cpi	r20, 0x00	; 0
    3f7a:	58 07       	cpc	r21, r24
    3f7c:	10 f0       	brcs	.+4      	; 0x3f82 <SetPpmVelocity+0xfe>
    3f7e:	2f ef       	ldi	r18, 0xFF	; 255
    3f80:	33 e0       	ldi	r19, 0x03	; 3
    3f82:	e8 01       	movw	r28, r16
    3f84:	cc 0f       	add	r28, r28
    3f86:	dd 1f       	adc	r29, r29
    3f88:	36 95       	lsr	r19
    3f8a:	27 95       	ror	r18
			else
			{
				temp_velocity = velocity;
			}
			
			if(0 == direction)						// 顺时针
    3f8c:	ff 20       	and	r15, r15
    3f8e:	09 f5       	brne	.+66     	; 0x3fd2 <SetPpmVelocity+0x14e>
			{
				PpmPositionConversion(ppm_buffer_state[channel].target_position, (0x200 - (temp_velocity >> 1)));
    3f90:	60 e0       	ldi	r22, 0x00	; 0
    3f92:	72 e0       	ldi	r23, 0x02	; 2
    3f94:	62 1b       	sub	r22, r18
    3f96:	73 0b       	sbc	r23, r19
    3f98:	80 e0       	ldi	r24, 0x00	; 0
    3f9a:	90 e0       	ldi	r25, 0x00	; 0
    3f9c:	24 ef       	ldi	r18, 0xF4	; 244
    3f9e:	31 e0       	ldi	r19, 0x01	; 1
    3fa0:	40 e0       	ldi	r20, 0x00	; 0
    3fa2:	50 e0       	ldi	r21, 0x00	; 0
    3fa4:	0e 94 e9 3f 	call	0x7fd2	; 0x7fd2 <__mulsi3>
    3fa8:	e4 e0       	ldi	r30, 0x04	; 4
    3faa:	96 95       	lsr	r25
    3fac:	87 95       	ror	r24
    3fae:	77 95       	ror	r23
    3fb0:	67 95       	ror	r22
    3fb2:	ea 95       	dec	r30
    3fb4:	d1 f7       	brne	.-12     	; 0x3faa <SetPpmVelocity+0x126>
    3fb6:	60 5c       	subi	r22, 0xC0	; 192
    3fb8:	70 4e       	sbci	r23, 0xE0	; 224
    3fba:	c0 0f       	add	r28, r16
    3fbc:	d1 1f       	adc	r29, r17
    3fbe:	cc 0f       	add	r28, r28
    3fc0:	dd 1f       	adc	r29, r29
    3fc2:	cc 0f       	add	r28, r28
    3fc4:	dd 1f       	adc	r29, r29
    3fc6:	c6 53       	subi	r28, 0x36	; 54
    3fc8:	d3 4f       	sbci	r29, 0xF3	; 243
    3fca:	79 83       	std	Y+1, r23	; 0x01
    3fcc:	68 83       	st	Y, r22
    3fce:	81 e0       	ldi	r24, 0x01	; 1
    3fd0:	05 c0       	rjmp	.+10     	; 0x3fdc <SetPpmVelocity+0x158>
			}
			else									// 逆时针
			{
				PpmPositionConversion(ppm_buffer_state[channel].target_position, (0x200 + (temp_velocity >> 1)));
    3fd2:	20 50       	subi	r18, 0x00	; 0
    3fd4:	3e 4f       	sbci	r19, 0xFE	; 254
    3fd6:	b9 01       	movw	r22, r18
    3fd8:	df cf       	rjmp	.-66     	; 0x3f98 <SetPpmVelocity+0x114>
    3fda:	80 e0       	ldi	r24, 0x00	; 0
	{
		return FALSE;
	}
	
	return TRUE;
}
    3fdc:	df 91       	pop	r29
    3fde:	cf 91       	pop	r28
    3fe0:	1f 91       	pop	r17
    3fe2:	0f 91       	pop	r16
    3fe4:	ff 90       	pop	r15
    3fe6:	08 95       	ret

00003fe8 <SetPpmLimit>:
** 修订人:			律晔
** 修订日期:			2009-08-25
**------------------------------------------------------------------------------------------------------------------------
*************************************************************************************************************************/
static uint8 SetPpmLimit(uint8 channel, uint16 cw, uint16 ccw)
{
    3fe8:	ef 92       	push	r14
    3fea:	ff 92       	push	r15
    3fec:	0f 93       	push	r16
    3fee:	1f 93       	push	r17
    3ff0:	cf 93       	push	r28
    3ff2:	df 93       	push	r29
    3ff4:	e8 2f       	mov	r30, r24
    3ff6:	7b 01       	movw	r14, r22
    3ff8:	84 e0       	ldi	r24, 0x04	; 4
    3ffa:	60 30       	cpi	r22, 0x00	; 0
    3ffc:	78 07       	cpc	r23, r24
    3ffe:	20 f0       	brcs	.+8      	; 0x4008 <SetPpmLimit+0x20>
    4000:	ff ef       	ldi	r31, 0xFF	; 255
    4002:	ef 2e       	mov	r14, r31
    4004:	f3 e0       	ldi	r31, 0x03	; 3
    4006:	ff 2e       	mov	r15, r31
    4008:	ea 01       	movw	r28, r20
    400a:	f4 e0       	ldi	r31, 0x04	; 4
    400c:	40 30       	cpi	r20, 0x00	; 0
    400e:	5f 07       	cpc	r21, r31
    4010:	10 f0       	brcs	.+4      	; 0x4016 <SetPpmLimit+0x2e>
    4012:	cf ef       	ldi	r28, 0xFF	; 255
    4014:	d3 e0       	ldi	r29, 0x03	; 3
	else
	{
		temp_ccw = ccw;
	}
	
	if(temp_cw > temp_ccw)
    4016:	ce 15       	cp	r28, r14
    4018:	df 05       	cpc	r29, r15
    401a:	08 f4       	brcc	.+2      	; 0x401e <SetPpmLimit+0x36>
    401c:	af c0       	rjmp	.+350    	; 0x417c <SetPpmLimit+0x194>
	{
		return FALSE;
	}
	
	
	if (PPM_BROADCASTING == channel)
    401e:	ee 31       	cpi	r30, 0x1E	; 30
    4020:	09 f0       	breq	.+2      	; 0x4024 <SetPpmLimit+0x3c>
    4022:	54 c0       	rjmp	.+168    	; 0x40cc <SetPpmLimit+0xe4>
			}
			else
			{
				ppm_buffer_state[count].mode = PPM_SERVO_MODE;

				PpmPositionConversion(ppm_buffer_state[count].cw_limit, temp_cw);
    4024:	b7 01       	movw	r22, r14
    4026:	80 e0       	ldi	r24, 0x00	; 0
    4028:	90 e0       	ldi	r25, 0x00	; 0
    402a:	24 ef       	ldi	r18, 0xF4	; 244
    402c:	31 e0       	ldi	r19, 0x01	; 1
    402e:	40 e0       	ldi	r20, 0x00	; 0
    4030:	50 e0       	ldi	r21, 0x00	; 0
    4032:	0e 94 e9 3f 	call	0x7fd2	; 0x7fd2 <__mulsi3>
    4036:	e4 e0       	ldi	r30, 0x04	; 4
    4038:	96 95       	lsr	r25
    403a:	87 95       	ror	r24
    403c:	77 95       	ror	r23
    403e:	67 95       	ror	r22
    4040:	ea 95       	dec	r30
    4042:	d1 f7       	brne	.-12     	; 0x4038 <SetPpmLimit+0x50>
    4044:	8b 01       	movw	r16, r22
    4046:	00 5c       	subi	r16, 0xC0	; 192
    4048:	10 4e       	sbci	r17, 0xE0	; 224
				PpmPositionConversion(ppm_buffer_state[count].ccw_limit, temp_ccw);
    404a:	be 01       	movw	r22, r28
    404c:	80 e0       	ldi	r24, 0x00	; 0
    404e:	90 e0       	ldi	r25, 0x00	; 0
    4050:	0e 94 e9 3f 	call	0x7fd2	; 0x7fd2 <__mulsi3>
    4054:	24 e0       	ldi	r18, 0x04	; 4
    4056:	96 95       	lsr	r25
    4058:	87 95       	ror	r24
    405a:	77 95       	ror	r23
    405c:	67 95       	ror	r22
    405e:	2a 95       	dec	r18
    4060:	d1 f7       	brne	.-12     	; 0x4056 <SetPpmLimit+0x6e>
    4062:	60 5c       	subi	r22, 0xC0	; 192
    4064:	70 4e       	sbci	r23, 0xE0	; 224
    4066:	80 e0       	ldi	r24, 0x00	; 0
    4068:	90 e0       	ldi	r25, 0x00	; 0
				PpmPositionConversion(ppm_buffer_state[count].cw_limit, 0x0000);
				PpmPositionConversion(ppm_buffer_state[count].ccw_limit, 0x03FF);
			}
			else
			{
				ppm_buffer_state[count].mode = PPM_SERVO_MODE;
    406a:	bf e0       	ldi	r27, 0x0F	; 15
	{
		for(count = 0; count < 8; count++)
		{
			if((0 == temp_cw) && (0 == temp_ccw))
			{
				ppm_buffer_state[count].mode = PPM_MOTO_MODE;
    406c:	a0 ef       	ldi	r26, 0xF0	; 240

				PpmPositionConversion(ppm_buffer_state[count].cw_limit, 0x0000);
    406e:	40 e4       	ldi	r20, 0x40	; 64
    4070:	5f e1       	ldi	r21, 0x1F	; 31
				PpmPositionConversion(ppm_buffer_state[count].ccw_limit, 0x03FF);
    4072:	20 e2       	ldi	r18, 0x20	; 32
    4074:	3c e9       	ldi	r19, 0x9C	; 156
	
	if (PPM_BROADCASTING == channel)
	{
		for(count = 0; count < 8; count++)
		{
			if((0 == temp_cw) && (0 == temp_ccw))
    4076:	e1 14       	cp	r14, r1
    4078:	f1 04       	cpc	r15, r1
    407a:	99 f4       	brne	.+38     	; 0x40a2 <SetPpmLimit+0xba>
    407c:	20 97       	sbiw	r28, 0x00	; 0
    407e:	89 f4       	brne	.+34     	; 0x40a2 <SetPpmLimit+0xba>
			{
				ppm_buffer_state[count].mode = PPM_MOTO_MODE;
    4080:	fc 01       	movw	r30, r24
    4082:	ee 0f       	add	r30, r30
    4084:	ff 1f       	adc	r31, r31
    4086:	e8 0f       	add	r30, r24
    4088:	f9 1f       	adc	r31, r25
    408a:	ee 0f       	add	r30, r30
    408c:	ff 1f       	adc	r31, r31
    408e:	ee 0f       	add	r30, r30
    4090:	ff 1f       	adc	r31, r31
    4092:	e8 53       	subi	r30, 0x38	; 56
    4094:	f3 4f       	sbci	r31, 0xF3	; 243
    4096:	a2 87       	std	Z+10, r26	; 0x0a

				PpmPositionConversion(ppm_buffer_state[count].cw_limit, 0x0000);
    4098:	57 83       	std	Z+7, r21	; 0x07
    409a:	46 83       	std	Z+6, r20	; 0x06
				PpmPositionConversion(ppm_buffer_state[count].ccw_limit, 0x03FF);
    409c:	31 87       	std	Z+9, r19	; 0x09
    409e:	20 87       	std	Z+8, r18	; 0x08
    40a0:	10 c0       	rjmp	.+32     	; 0x40c2 <SetPpmLimit+0xda>
			}
			else
			{
				ppm_buffer_state[count].mode = PPM_SERVO_MODE;
    40a2:	fc 01       	movw	r30, r24
    40a4:	ee 0f       	add	r30, r30
    40a6:	ff 1f       	adc	r31, r31
    40a8:	e8 0f       	add	r30, r24
    40aa:	f9 1f       	adc	r31, r25
    40ac:	ee 0f       	add	r30, r30
    40ae:	ff 1f       	adc	r31, r31
    40b0:	ee 0f       	add	r30, r30
    40b2:	ff 1f       	adc	r31, r31
    40b4:	e8 53       	subi	r30, 0x38	; 56
    40b6:	f3 4f       	sbci	r31, 0xF3	; 243
    40b8:	b2 87       	std	Z+10, r27	; 0x0a

				PpmPositionConversion(ppm_buffer_state[count].cw_limit, temp_cw);
    40ba:	17 83       	std	Z+7, r17	; 0x07
    40bc:	06 83       	std	Z+6, r16	; 0x06
				PpmPositionConversion(ppm_buffer_state[count].ccw_limit, temp_ccw);
    40be:	71 87       	std	Z+9, r23	; 0x09
    40c0:	60 87       	std	Z+8, r22	; 0x08
    40c2:	01 96       	adiw	r24, 0x01	; 1
	}
	
	
	if (PPM_BROADCASTING == channel)
	{
		for(count = 0; count < 8; count++)
    40c4:	88 30       	cpi	r24, 0x08	; 8
    40c6:	91 05       	cpc	r25, r1
    40c8:	b1 f6       	brne	.-84     	; 0x4076 <SetPpmLimit+0x8e>
    40ca:	56 c0       	rjmp	.+172    	; 0x4178 <SetPpmLimit+0x190>
				PpmPositionConversion(ppm_buffer_state[count].ccw_limit, temp_ccw);
			}
		}
		return TRUE;
	}
	else if(channel <= 7)
    40cc:	e8 30       	cpi	r30, 0x08	; 8
    40ce:	08 f0       	brcs	.+2      	; 0x40d2 <SetPpmLimit+0xea>
    40d0:	55 c0       	rjmp	.+170    	; 0x417c <SetPpmLimit+0x194>
	{
		if((0 == temp_cw) && (0 == temp_ccw))
    40d2:	e1 14       	cp	r14, r1
    40d4:	f1 04       	cpc	r15, r1
    40d6:	d1 f4       	brne	.+52     	; 0x410c <SetPpmLimit+0x124>
    40d8:	20 97       	sbiw	r28, 0x00	; 0
    40da:	c1 f4       	brne	.+48     	; 0x410c <SetPpmLimit+0x124>
		{
			ppm_buffer_state[channel].mode = PPM_MOTO_MODE;
    40dc:	8e 2f       	mov	r24, r30
    40de:	90 e0       	ldi	r25, 0x00	; 0
    40e0:	fc 01       	movw	r30, r24
    40e2:	ee 0f       	add	r30, r30
    40e4:	ff 1f       	adc	r31, r31
    40e6:	e8 0f       	add	r30, r24
    40e8:	f9 1f       	adc	r31, r25
    40ea:	ee 0f       	add	r30, r30
    40ec:	ff 1f       	adc	r31, r31
    40ee:	ee 0f       	add	r30, r30
    40f0:	ff 1f       	adc	r31, r31
    40f2:	e8 53       	subi	r30, 0x38	; 56
    40f4:	f3 4f       	sbci	r31, 0xF3	; 243
    40f6:	80 ef       	ldi	r24, 0xF0	; 240
    40f8:	82 87       	std	Z+10, r24	; 0x0a
			PpmPositionConversion(ppm_buffer_state[channel].cw_limit, 0x0000);			// 去掉角度限制
    40fa:	80 e4       	ldi	r24, 0x40	; 64
    40fc:	9f e1       	ldi	r25, 0x1F	; 31
    40fe:	97 83       	std	Z+7, r25	; 0x07
    4100:	86 83       	std	Z+6, r24	; 0x06
			PpmPositionConversion(ppm_buffer_state[channel].ccw_limit, 0x03FF);
    4102:	80 e2       	ldi	r24, 0x20	; 32
    4104:	9c e9       	ldi	r25, 0x9C	; 156
    4106:	91 87       	std	Z+9, r25	; 0x09
    4108:	80 87       	std	Z+8, r24	; 0x08
    410a:	36 c0       	rjmp	.+108    	; 0x4178 <SetPpmLimit+0x190>
		}
		else
		{
			ppm_buffer_state[channel].mode = PPM_SERVO_MODE;
    410c:	8e 2f       	mov	r24, r30
    410e:	90 e0       	ldi	r25, 0x00	; 0
    4110:	8c 01       	movw	r16, r24
    4112:	00 0f       	add	r16, r16
    4114:	11 1f       	adc	r17, r17
    4116:	08 0f       	add	r16, r24
    4118:	19 1f       	adc	r17, r25
    411a:	00 0f       	add	r16, r16
    411c:	11 1f       	adc	r17, r17
    411e:	00 0f       	add	r16, r16
    4120:	11 1f       	adc	r17, r17
    4122:	08 53       	subi	r16, 0x38	; 56
    4124:	13 4f       	sbci	r17, 0xF3	; 243
    4126:	8f e0       	ldi	r24, 0x0F	; 15
    4128:	f8 01       	movw	r30, r16
    412a:	82 87       	std	Z+10, r24	; 0x0a

			PpmPositionConversion(ppm_buffer_state[channel].cw_limit, temp_cw);
    412c:	b7 01       	movw	r22, r14
    412e:	80 e0       	ldi	r24, 0x00	; 0
    4130:	90 e0       	ldi	r25, 0x00	; 0
    4132:	24 ef       	ldi	r18, 0xF4	; 244
    4134:	31 e0       	ldi	r19, 0x01	; 1
    4136:	40 e0       	ldi	r20, 0x00	; 0
    4138:	50 e0       	ldi	r21, 0x00	; 0
    413a:	0e 94 e9 3f 	call	0x7fd2	; 0x7fd2 <__mulsi3>
    413e:	b4 e0       	ldi	r27, 0x04	; 4
    4140:	96 95       	lsr	r25
    4142:	87 95       	ror	r24
    4144:	77 95       	ror	r23
    4146:	67 95       	ror	r22
    4148:	ba 95       	dec	r27
    414a:	d1 f7       	brne	.-12     	; 0x4140 <SetPpmLimit+0x158>
    414c:	60 5c       	subi	r22, 0xC0	; 192
    414e:	70 4e       	sbci	r23, 0xE0	; 224
    4150:	f8 01       	movw	r30, r16
    4152:	77 83       	std	Z+7, r23	; 0x07
    4154:	66 83       	std	Z+6, r22	; 0x06
			PpmPositionConversion(ppm_buffer_state[channel].ccw_limit, temp_ccw);
    4156:	be 01       	movw	r22, r28
    4158:	80 e0       	ldi	r24, 0x00	; 0
    415a:	90 e0       	ldi	r25, 0x00	; 0
    415c:	0e 94 e9 3f 	call	0x7fd2	; 0x7fd2 <__mulsi3>
    4160:	a4 e0       	ldi	r26, 0x04	; 4
    4162:	96 95       	lsr	r25
    4164:	87 95       	ror	r24
    4166:	77 95       	ror	r23
    4168:	67 95       	ror	r22
    416a:	aa 95       	dec	r26
    416c:	d1 f7       	brne	.-12     	; 0x4162 <SetPpmLimit+0x17a>
    416e:	60 5c       	subi	r22, 0xC0	; 192
    4170:	70 4e       	sbci	r23, 0xE0	; 224
    4172:	f8 01       	movw	r30, r16
    4174:	71 87       	std	Z+9, r23	; 0x09
    4176:	60 87       	std	Z+8, r22	; 0x08
    4178:	81 e0       	ldi	r24, 0x01	; 1
    417a:	01 c0       	rjmp	.+2      	; 0x417e <SetPpmLimit+0x196>
    417c:	80 e0       	ldi	r24, 0x00	; 0
	else
	{
		return FALSE;
	}

}
    417e:	df 91       	pop	r29
    4180:	cf 91       	pop	r28
    4182:	1f 91       	pop	r17
    4184:	0f 91       	pop	r16
    4186:	ff 90       	pop	r15
    4188:	ef 90       	pop	r14
    418a:	08 95       	ret

0000418c <GetPpmLimit>:
** 修订人:
** 修订日期:
**------------------------------------------------------------------------------------------------------------------------
*************************************************************************************************************************/
static uint8 GetPpmLimit(uint8 channel, uint16* cw, uint16* ccw)
{
    418c:	ef 92       	push	r14
    418e:	ff 92       	push	r15
    4190:	0f 93       	push	r16
    4192:	1f 93       	push	r17
    4194:	cf 93       	push	r28
    4196:	df 93       	push	r29
    4198:	7b 01       	movw	r14, r22
    419a:	8a 01       	movw	r16, r20
	if(channel < 8)
    419c:	88 30       	cpi	r24, 0x08	; 8
    419e:	10 f0       	brcs	.+4      	; 0x41a4 <GetPpmLimit+0x18>
    41a0:	80 e0       	ldi	r24, 0x00	; 0
    41a2:	3f c0       	rjmp	.+126    	; 0x4222 <GetPpmLimit+0x96>
	{			
		if (PPM_MOTO_MODE == ppm_buffer_state[channel].mode)
    41a4:	90 e0       	ldi	r25, 0x00	; 0
    41a6:	ec 01       	movw	r28, r24
    41a8:	cc 0f       	add	r28, r28
    41aa:	dd 1f       	adc	r29, r29
    41ac:	c8 0f       	add	r28, r24
    41ae:	d9 1f       	adc	r29, r25
    41b0:	cc 0f       	add	r28, r28
    41b2:	dd 1f       	adc	r29, r29
    41b4:	cc 0f       	add	r28, r28
    41b6:	dd 1f       	adc	r29, r29
    41b8:	c8 53       	subi	r28, 0x38	; 56
    41ba:	d3 4f       	sbci	r29, 0xF3	; 243
    41bc:	8a 85       	ldd	r24, Y+10	; 0x0a
    41be:	80 3f       	cpi	r24, 0xF0	; 240
    41c0:	39 f4       	brne	.+14     	; 0x41d0 <GetPpmLimit+0x44>
		{
			*ccw = 0;
    41c2:	fa 01       	movw	r30, r20
    41c4:	11 82       	std	Z+1, r1	; 0x01
    41c6:	10 82       	st	Z, r1
			*cw = 0;
    41c8:	fb 01       	movw	r30, r22
    41ca:	11 82       	std	Z+1, r1	; 0x01
    41cc:	10 82       	st	Z, r1
    41ce:	28 c0       	rjmp	.+80     	; 0x4220 <GetPpmLimit+0x94>
			return TRUE;
		}
		PpmOutvalueConversion(*ccw, ppm_buffer_state[channel].ccw_limit);
    41d0:	68 85       	ldd	r22, Y+8	; 0x08
    41d2:	79 85       	ldd	r23, Y+9	; 0x09
    41d4:	60 54       	subi	r22, 0x40	; 64
    41d6:	7f 41       	sbci	r23, 0x1F	; 31
    41d8:	80 e0       	ldi	r24, 0x00	; 0
    41da:	90 e0       	ldi	r25, 0x00	; 0
    41dc:	22 e8       	ldi	r18, 0x82	; 130
    41de:	30 e0       	ldi	r19, 0x00	; 0
    41e0:	40 e0       	ldi	r20, 0x00	; 0
    41e2:	50 e0       	ldi	r21, 0x00	; 0
    41e4:	0e 94 e9 3f 	call	0x7fd2	; 0x7fd2 <__mulsi3>
    41e8:	bc e0       	ldi	r27, 0x0C	; 12
    41ea:	96 95       	lsr	r25
    41ec:	87 95       	ror	r24
    41ee:	77 95       	ror	r23
    41f0:	67 95       	ror	r22
    41f2:	ba 95       	dec	r27
    41f4:	d1 f7       	brne	.-12     	; 0x41ea <GetPpmLimit+0x5e>
    41f6:	f8 01       	movw	r30, r16
    41f8:	71 83       	std	Z+1, r23	; 0x01
    41fa:	60 83       	st	Z, r22
		PpmOutvalueConversion(*cw, ppm_buffer_state[channel].cw_limit);
    41fc:	6e 81       	ldd	r22, Y+6	; 0x06
    41fe:	7f 81       	ldd	r23, Y+7	; 0x07
    4200:	60 54       	subi	r22, 0x40	; 64
    4202:	7f 41       	sbci	r23, 0x1F	; 31
    4204:	80 e0       	ldi	r24, 0x00	; 0
    4206:	90 e0       	ldi	r25, 0x00	; 0
    4208:	0e 94 e9 3f 	call	0x7fd2	; 0x7fd2 <__mulsi3>
    420c:	ac e0       	ldi	r26, 0x0C	; 12
    420e:	96 95       	lsr	r25
    4210:	87 95       	ror	r24
    4212:	77 95       	ror	r23
    4214:	67 95       	ror	r22
    4216:	aa 95       	dec	r26
    4218:	d1 f7       	brne	.-12     	; 0x420e <GetPpmLimit+0x82>
    421a:	f7 01       	movw	r30, r14
    421c:	71 83       	std	Z+1, r23	; 0x01
    421e:	60 83       	st	Z, r22
    4220:	81 e0       	ldi	r24, 0x01	; 1
	else
	{
		return FALSE;
	}

}
    4222:	df 91       	pop	r29
    4224:	cf 91       	pop	r28
    4226:	1f 91       	pop	r17
    4228:	0f 91       	pop	r16
    422a:	ff 90       	pop	r15
    422c:	ef 90       	pop	r14
    422e:	08 95       	ret

00004230 <GetPpmPosition>:
** 修订人:
** 修订日期:
**------------------------------------------------------------------------------------------------------------------------
*************************************************************************************************************************/
static uint8 GetPpmPosition(uint8 channel, uint16* position)
{
    4230:	cf 93       	push	r28
    4232:	df 93       	push	r29
    4234:	eb 01       	movw	r28, r22
	uint16 temp_value;

	if(channel <= 7)
    4236:	88 30       	cpi	r24, 0x08	; 8
    4238:	10 f0       	brcs	.+4      	; 0x423e <GetPpmPosition+0xe>
    423a:	80 e0       	ldi	r24, 0x00	; 0
    423c:	22 c0       	rjmp	.+68     	; 0x4282 <GetPpmPosition+0x52>
	{				
		PpmOutvalueConversion(temp_value, ppm_buffer_state[channel].current_position);
    423e:	90 e0       	ldi	r25, 0x00	; 0
    4240:	fc 01       	movw	r30, r24
    4242:	ee 0f       	add	r30, r30
    4244:	ff 1f       	adc	r31, r31
    4246:	e8 0f       	add	r30, r24
    4248:	f9 1f       	adc	r31, r25
    424a:	ee 0f       	add	r30, r30
    424c:	ff 1f       	adc	r31, r31
    424e:	ee 0f       	add	r30, r30
    4250:	ff 1f       	adc	r31, r31
    4252:	e4 53       	subi	r30, 0x34	; 52
    4254:	f3 4f       	sbci	r31, 0xF3	; 243
    4256:	60 81       	ld	r22, Z
    4258:	71 81       	ldd	r23, Z+1	; 0x01
		
		*position = temp_value;
    425a:	60 54       	subi	r22, 0x40	; 64
    425c:	7f 41       	sbci	r23, 0x1F	; 31
    425e:	80 e0       	ldi	r24, 0x00	; 0
    4260:	90 e0       	ldi	r25, 0x00	; 0
    4262:	22 e8       	ldi	r18, 0x82	; 130
    4264:	30 e0       	ldi	r19, 0x00	; 0
    4266:	40 e0       	ldi	r20, 0x00	; 0
    4268:	50 e0       	ldi	r21, 0x00	; 0
    426a:	0e 94 e9 3f 	call	0x7fd2	; 0x7fd2 <__mulsi3>
    426e:	3c e0       	ldi	r19, 0x0C	; 12
    4270:	96 95       	lsr	r25
    4272:	87 95       	ror	r24
    4274:	77 95       	ror	r23
    4276:	67 95       	ror	r22
    4278:	3a 95       	dec	r19
    427a:	d1 f7       	brne	.-12     	; 0x4270 <GetPpmPosition+0x40>
    427c:	79 83       	std	Y+1, r23	; 0x01
    427e:	68 83       	st	Y, r22
    4280:	81 e0       	ldi	r24, 0x01	; 1
	}
	else
	{
		return FALSE;
	}
}
    4282:	df 91       	pop	r29
    4284:	cf 91       	pop	r28
    4286:	08 95       	ret

00004288 <RunPpm>:
** 修订人:
** 修订日期:
**------------------------------------------------------------------------------------------------------------------------
*************************************************************************************************************************/
static uint8 RunPpm(uint8 channel)
{
    4288:	cf 93       	push	r28
    428a:	df 93       	push	r29
	uint8 count = 0;
	
	if(PPM_BROADCASTING == channel)
    428c:	8e 31       	cpi	r24, 0x1E	; 30
    428e:	09 f0       	breq	.+2      	; 0x4292 <RunPpm+0xa>
    4290:	6d c0       	rjmp	.+218    	; 0x436c <RunPpm+0xe4>
    4292:	40 e0       	ldi	r20, 0x00	; 0
    4294:	50 e0       	ldi	r21, 0x00	; 0
			}
			
			ppm_state[count].speed = ppm_buffer_state[count].speed;
			ppm_state[count].target_position = ppm_buffer_state[count].target_position;
				
			ppm_buffer_state[count].enable_torque = TRUE;						// 扭矩输出使能
    4296:	61 e0       	ldi	r22, 0x01	; 1
	
	if(PPM_BROADCASTING == channel)
	{
		for(count = 0; count < 8; count++)
		{
			if(ppm_buffer_state[count].target_position > ppm_buffer_state[count].ccw_limit)
    4298:	ca 01       	movw	r24, r20
    429a:	88 0f       	add	r24, r24
    429c:	99 1f       	adc	r25, r25
    429e:	84 0f       	add	r24, r20
    42a0:	95 1f       	adc	r25, r21
    42a2:	88 0f       	add	r24, r24
    42a4:	99 1f       	adc	r25, r25
    42a6:	88 0f       	add	r24, r24
    42a8:	99 1f       	adc	r25, r25
    42aa:	dc 01       	movw	r26, r24
    42ac:	12 96       	adiw	r26, 0x02	; 2
    42ae:	fd 01       	movw	r30, r26
    42b0:	e8 53       	subi	r30, 0x38	; 56
    42b2:	f3 4f       	sbci	r31, 0xF3	; 243
    42b4:	20 81       	ld	r18, Z
    42b6:	31 81       	ldd	r19, Z+1	; 0x01
    42b8:	fc 01       	movw	r30, r24
    42ba:	e8 53       	subi	r30, 0x38	; 56
    42bc:	f3 4f       	sbci	r31, 0xF3	; 243
    42be:	80 85       	ldd	r24, Z+8	; 0x08
    42c0:	91 85       	ldd	r25, Z+9	; 0x09
    42c2:	82 17       	cp	r24, r18
    42c4:	93 07       	cpc	r25, r19
    42c6:	38 f4       	brcc	.+14     	; 0x42d6 <RunPpm+0x4e>
			{
				ppm_state[count].target_position = ppm_buffer_state[count].ccw_limit;
    42c8:	80 85       	ldd	r24, Z+8	; 0x08
    42ca:	91 85       	ldd	r25, Z+9	; 0x09
    42cc:	a8 59       	subi	r26, 0x98	; 152
    42ce:	b3 4f       	sbci	r27, 0xF3	; 243
    42d0:	11 96       	adiw	r26, 0x01	; 1
    42d2:	9c 93       	st	X, r25
    42d4:	8e 93       	st	-X, r24
			}
			
			if(ppm_buffer_state[count].target_position < ppm_buffer_state[count].cw_limit)
    42d6:	ca 01       	movw	r24, r20
    42d8:	88 0f       	add	r24, r24
    42da:	99 1f       	adc	r25, r25
    42dc:	84 0f       	add	r24, r20
    42de:	95 1f       	adc	r25, r21
    42e0:	88 0f       	add	r24, r24
    42e2:	99 1f       	adc	r25, r25
    42e4:	88 0f       	add	r24, r24
    42e6:	99 1f       	adc	r25, r25
    42e8:	dc 01       	movw	r26, r24
    42ea:	12 96       	adiw	r26, 0x02	; 2
    42ec:	fd 01       	movw	r30, r26
    42ee:	e8 53       	subi	r30, 0x38	; 56
    42f0:	f3 4f       	sbci	r31, 0xF3	; 243
    42f2:	20 81       	ld	r18, Z
    42f4:	31 81       	ldd	r19, Z+1	; 0x01
    42f6:	fc 01       	movw	r30, r24
    42f8:	e8 53       	subi	r30, 0x38	; 56
    42fa:	f3 4f       	sbci	r31, 0xF3	; 243
    42fc:	86 81       	ldd	r24, Z+6	; 0x06
    42fe:	97 81       	ldd	r25, Z+7	; 0x07
    4300:	28 17       	cp	r18, r24
    4302:	39 07       	cpc	r19, r25
    4304:	38 f4       	brcc	.+14     	; 0x4314 <RunPpm+0x8c>
			{
				ppm_state[count].target_position = ppm_buffer_state[count].cw_limit;
    4306:	86 81       	ldd	r24, Z+6	; 0x06
    4308:	97 81       	ldd	r25, Z+7	; 0x07
    430a:	a8 59       	subi	r26, 0x98	; 152
    430c:	b3 4f       	sbci	r27, 0xF3	; 243
    430e:	11 96       	adiw	r26, 0x01	; 1
    4310:	9c 93       	st	X, r25
    4312:	8e 93       	st	-X, r24
			}
			
			ppm_state[count].speed = ppm_buffer_state[count].speed;
    4314:	fa 01       	movw	r30, r20
    4316:	ee 0f       	add	r30, r30
    4318:	ff 1f       	adc	r31, r31
    431a:	e4 0f       	add	r30, r20
    431c:	f5 1f       	adc	r31, r21
    431e:	df 01       	movw	r26, r30
    4320:	aa 0f       	add	r26, r26
    4322:	bb 1f       	adc	r27, r27
    4324:	aa 0f       	add	r26, r26
    4326:	bb 1f       	adc	r27, r27
    4328:	9d 01       	movw	r18, r26
    432a:	28 53       	subi	r18, 0x38	; 56
    432c:	33 4f       	sbci	r19, 0xF3	; 243
    432e:	e9 01       	movw	r28, r18
    4330:	88 81       	ld	r24, Y
    4332:	99 81       	ldd	r25, Y+1	; 0x01
    4334:	a8 59       	subi	r26, 0x98	; 152
    4336:	b3 4f       	sbci	r27, 0xF3	; 243
    4338:	11 96       	adiw	r26, 0x01	; 1
    433a:	9c 93       	st	X, r25
    433c:	8e 93       	st	-X, r24
			ppm_state[count].target_position = ppm_buffer_state[count].target_position;
    433e:	ee 0f       	add	r30, r30
    4340:	ff 1f       	adc	r31, r31
    4342:	ee 0f       	add	r30, r30
    4344:	ff 1f       	adc	r31, r31
    4346:	32 96       	adiw	r30, 0x02	; 2
    4348:	df 01       	movw	r26, r30
    434a:	a8 53       	subi	r26, 0x38	; 56
    434c:	b3 4f       	sbci	r27, 0xF3	; 243
    434e:	8d 91       	ld	r24, X+
    4350:	9c 91       	ld	r25, X
    4352:	e8 59       	subi	r30, 0x98	; 152
    4354:	f3 4f       	sbci	r31, 0xF3	; 243
    4356:	91 83       	std	Z+1, r25	; 0x01
    4358:	80 83       	st	Z, r24
				
			ppm_buffer_state[count].enable_torque = TRUE;						// 扭矩输出使能
    435a:	6b 87       	std	Y+11, r22	; 0x0b
    435c:	4f 5f       	subi	r20, 0xFF	; 255
    435e:	5f 4f       	sbci	r21, 0xFF	; 255
{
	uint8 count = 0;
	
	if(PPM_BROADCASTING == channel)
	{
		for(count = 0; count < 8; count++)
    4360:	48 30       	cpi	r20, 0x08	; 8
    4362:	51 05       	cpc	r21, r1
    4364:	09 f0       	breq	.+2      	; 0x4368 <RunPpm+0xe0>
    4366:	98 cf       	rjmp	.-208    	; 0x4298 <RunPpm+0x10>
    4368:	81 e0       	ldi	r24, 0x01	; 1
    436a:	69 c0       	rjmp	.+210    	; 0x443e <RunPpm+0x1b6>
			ppm_state[count].target_position = ppm_buffer_state[count].target_position;
				
			ppm_buffer_state[count].enable_torque = TRUE;						// 扭矩输出使能
		}
	}
	else if(channel <= 7)
    436c:	88 30       	cpi	r24, 0x08	; 8
    436e:	10 f0       	brcs	.+4      	; 0x4374 <RunPpm+0xec>
    4370:	80 e0       	ldi	r24, 0x00	; 0
    4372:	65 c0       	rjmp	.+202    	; 0x443e <RunPpm+0x1b6>
	{
		if(ppm_buffer_state[channel].target_position > ppm_buffer_state[channel].ccw_limit)
    4374:	48 2f       	mov	r20, r24
    4376:	50 e0       	ldi	r21, 0x00	; 0
    4378:	ca 01       	movw	r24, r20
    437a:	88 0f       	add	r24, r24
    437c:	99 1f       	adc	r25, r25
    437e:	84 0f       	add	r24, r20
    4380:	95 1f       	adc	r25, r21
    4382:	88 0f       	add	r24, r24
    4384:	99 1f       	adc	r25, r25
    4386:	88 0f       	add	r24, r24
    4388:	99 1f       	adc	r25, r25
    438a:	dc 01       	movw	r26, r24
    438c:	12 96       	adiw	r26, 0x02	; 2
    438e:	fd 01       	movw	r30, r26
    4390:	e8 53       	subi	r30, 0x38	; 56
    4392:	f3 4f       	sbci	r31, 0xF3	; 243
    4394:	20 81       	ld	r18, Z
    4396:	31 81       	ldd	r19, Z+1	; 0x01
    4398:	fc 01       	movw	r30, r24
    439a:	e8 53       	subi	r30, 0x38	; 56
    439c:	f3 4f       	sbci	r31, 0xF3	; 243
    439e:	80 85       	ldd	r24, Z+8	; 0x08
    43a0:	91 85       	ldd	r25, Z+9	; 0x09
    43a2:	82 17       	cp	r24, r18
    43a4:	93 07       	cpc	r25, r19
    43a6:	38 f4       	brcc	.+14     	; 0x43b6 <RunPpm+0x12e>
		{
			ppm_state[channel].target_position = ppm_buffer_state[channel].ccw_limit;
    43a8:	80 85       	ldd	r24, Z+8	; 0x08
    43aa:	91 85       	ldd	r25, Z+9	; 0x09
    43ac:	a8 59       	subi	r26, 0x98	; 152
    43ae:	b3 4f       	sbci	r27, 0xF3	; 243
    43b0:	11 96       	adiw	r26, 0x01	; 1
    43b2:	9c 93       	st	X, r25
    43b4:	8e 93       	st	-X, r24
		}
		
		if(ppm_buffer_state[channel].target_position < ppm_buffer_state[channel].cw_limit)
    43b6:	ca 01       	movw	r24, r20
    43b8:	88 0f       	add	r24, r24
    43ba:	99 1f       	adc	r25, r25
    43bc:	84 0f       	add	r24, r20
    43be:	95 1f       	adc	r25, r21
    43c0:	88 0f       	add	r24, r24
    43c2:	99 1f       	adc	r25, r25
    43c4:	88 0f       	add	r24, r24
    43c6:	99 1f       	adc	r25, r25
    43c8:	dc 01       	movw	r26, r24
    43ca:	12 96       	adiw	r26, 0x02	; 2
    43cc:	fd 01       	movw	r30, r26
    43ce:	e8 53       	subi	r30, 0x38	; 56
    43d0:	f3 4f       	sbci	r31, 0xF3	; 243
    43d2:	20 81       	ld	r18, Z
    43d4:	31 81       	ldd	r19, Z+1	; 0x01
    43d6:	fc 01       	movw	r30, r24
    43d8:	e8 53       	subi	r30, 0x38	; 56
    43da:	f3 4f       	sbci	r31, 0xF3	; 243
    43dc:	86 81       	ldd	r24, Z+6	; 0x06
    43de:	97 81       	ldd	r25, Z+7	; 0x07
    43e0:	28 17       	cp	r18, r24
    43e2:	39 07       	cpc	r19, r25
    43e4:	38 f4       	brcc	.+14     	; 0x43f4 <RunPpm+0x16c>
		{
			ppm_state[channel].target_position = ppm_buffer_state[channel].cw_limit;
    43e6:	86 81       	ldd	r24, Z+6	; 0x06
    43e8:	97 81       	ldd	r25, Z+7	; 0x07
    43ea:	a8 59       	subi	r26, 0x98	; 152
    43ec:	b3 4f       	sbci	r27, 0xF3	; 243
    43ee:	11 96       	adiw	r26, 0x01	; 1
    43f0:	9c 93       	st	X, r25
    43f2:	8e 93       	st	-X, r24
		}
		
		ppm_state[channel].speed = ppm_buffer_state[channel].speed;
    43f4:	fa 01       	movw	r30, r20
    43f6:	ee 0f       	add	r30, r30
    43f8:	ff 1f       	adc	r31, r31
    43fa:	e4 0f       	add	r30, r20
    43fc:	f5 1f       	adc	r31, r21
    43fe:	df 01       	movw	r26, r30
    4400:	aa 0f       	add	r26, r26
    4402:	bb 1f       	adc	r27, r27
    4404:	aa 0f       	add	r26, r26
    4406:	bb 1f       	adc	r27, r27
    4408:	9d 01       	movw	r18, r26
    440a:	28 53       	subi	r18, 0x38	; 56
    440c:	33 4f       	sbci	r19, 0xF3	; 243
    440e:	e9 01       	movw	r28, r18
    4410:	88 81       	ld	r24, Y
    4412:	99 81       	ldd	r25, Y+1	; 0x01
    4414:	a8 59       	subi	r26, 0x98	; 152
    4416:	b3 4f       	sbci	r27, 0xF3	; 243
    4418:	11 96       	adiw	r26, 0x01	; 1
    441a:	9c 93       	st	X, r25
    441c:	8e 93       	st	-X, r24
		ppm_state[channel].target_position = ppm_buffer_state[channel].target_position;
    441e:	ee 0f       	add	r30, r30
    4420:	ff 1f       	adc	r31, r31
    4422:	ee 0f       	add	r30, r30
    4424:	ff 1f       	adc	r31, r31
    4426:	32 96       	adiw	r30, 0x02	; 2
    4428:	df 01       	movw	r26, r30
    442a:	a8 53       	subi	r26, 0x38	; 56
    442c:	b3 4f       	sbci	r27, 0xF3	; 243
    442e:	8d 91       	ld	r24, X+
    4430:	9c 91       	ld	r25, X
    4432:	e8 59       	subi	r30, 0x98	; 152
    4434:	f3 4f       	sbci	r31, 0xF3	; 243
    4436:	91 83       	std	Z+1, r25	; 0x01
    4438:	80 83       	st	Z, r24
		
		ppm_buffer_state[channel].enable_torque = TRUE;							// 使能扭矩
    443a:	81 e0       	ldi	r24, 0x01	; 1
    443c:	8b 87       	std	Y+11, r24	; 0x0b
	else
	{
		return FALSE;
	}
	return TRUE;
}
    443e:	df 91       	pop	r29
    4440:	cf 91       	pop	r28
    4442:	08 95       	ret

00004444 <StopPpm>:
*************************************************************************************************************************/
static uint8 StopPpm(uint8 channel)
{
	uint8 count = 0;
	
	if(PPM_BROADCASTING == channel)
    4444:	8e 31       	cpi	r24, 0x1E	; 30
    4446:	a1 f4       	brne	.+40     	; 0x4470 <StopPpm+0x2c>
    4448:	80 e0       	ldi	r24, 0x00	; 0
    444a:	90 e0       	ldi	r25, 0x00	; 0
	{
		for(count = 0; count < 8; count++)
		{
			ppm_buffer_state[count].enable_torque = FALSE;						// 扭矩输出不使能
    444c:	fc 01       	movw	r30, r24
    444e:	ee 0f       	add	r30, r30
    4450:	ff 1f       	adc	r31, r31
    4452:	e8 0f       	add	r30, r24
    4454:	f9 1f       	adc	r31, r25
    4456:	ee 0f       	add	r30, r30
    4458:	ff 1f       	adc	r31, r31
    445a:	ee 0f       	add	r30, r30
    445c:	ff 1f       	adc	r31, r31
    445e:	e8 53       	subi	r30, 0x38	; 56
    4460:	f3 4f       	sbci	r31, 0xF3	; 243
    4462:	13 86       	std	Z+11, r1	; 0x0b
    4464:	01 96       	adiw	r24, 0x01	; 1
{
	uint8 count = 0;
	
	if(PPM_BROADCASTING == channel)
	{
		for(count = 0; count < 8; count++)
    4466:	88 30       	cpi	r24, 0x08	; 8
    4468:	91 05       	cpc	r25, r1
    446a:	81 f7       	brne	.-32     	; 0x444c <StopPpm+0x8>
    446c:	81 e0       	ldi	r24, 0x01	; 1
    446e:	08 95       	ret
		{
			ppm_buffer_state[count].enable_torque = FALSE;						// 扭矩输出不使能
		}
		return TRUE;
	}
	else if(channel <= 7)
    4470:	88 30       	cpi	r24, 0x08	; 8
    4472:	10 f0       	brcs	.+4      	; 0x4478 <StopPpm+0x34>
    4474:	80 e0       	ldi	r24, 0x00	; 0
    4476:	08 95       	ret
	{
		ppm_buffer_state[channel].enable_torque = FALSE;						// 不使能扭矩
    4478:	90 e0       	ldi	r25, 0x00	; 0
    447a:	fc 01       	movw	r30, r24
    447c:	ee 0f       	add	r30, r30
    447e:	ff 1f       	adc	r31, r31
    4480:	e8 0f       	add	r30, r24
    4482:	f9 1f       	adc	r31, r25
    4484:	ee 0f       	add	r30, r30
    4486:	ff 1f       	adc	r31, r31
    4488:	ee 0f       	add	r30, r30
    448a:	ff 1f       	adc	r31, r31
    448c:	e8 53       	subi	r30, 0x38	; 56
    448e:	f3 4f       	sbci	r31, 0xF3	; 243
    4490:	13 86       	std	Z+11, r1	; 0x0b
    4492:	81 e0       	ldi	r24, 0x01	; 1
	}
	else
	{
		return FALSE;
	}
}
    4494:	08 95       	ret

00004496 <__vector_26>:
** 修订人:			律晔
** 修订日期:			2009-03-18
**------------------------------------------------------------------------------------------------------------------------
*************************************************************************************************************************/
SIGNAL(PPM_COMPARE_INT)
{
    4496:	1f 92       	push	r1
    4498:	0f 92       	push	r0
    449a:	0f b6       	in	r0, 0x3f	; 63
    449c:	0f 92       	push	r0
    449e:	11 24       	eor	r1, r1
				break;
		}
		
	#else
	
		SetReg(PPM_PORT, 0x00);													// 将全部通道的输出置0
    44a0:	15 ba       	out	0x15, r1	; 21
		
	#endif
}
    44a2:	0f 90       	pop	r0
    44a4:	0f be       	out	0x3f, r0	; 63
    44a6:	0f 90       	pop	r0
    44a8:	1f 90       	pop	r1
    44aa:	18 95       	reti

000044ac <IsrPpmOverFlow>:
** 修订人:
** 修订日期:
**------------------------------------------------------------------------------------------------------------------------
*************************************************************************************************************************/
void IsrPpmOverFlow(void)
{
    44ac:	1f 93       	push	r17
    44ae:	cf 93       	push	r28
    44b0:	df 93       	push	r29
	int16 calc_difference;

	uint8 temp_channel = 0;
	
	temp_channel = ppm_control.channel;
    44b2:	10 91 5c 07 	lds	r17, 0x075C
	
	temp_channel++;																			// 变更PPM通道
    44b6:	1f 5f       	subi	r17, 0xFF	; 255
	
	if(temp_channel > 7)
    44b8:	18 30       	cpi	r17, 0x08	; 8
    44ba:	08 f0       	brcs	.+2      	; 0x44be <IsrPpmOverFlow+0x12>
    44bc:	10 e0       	ldi	r17, 0x00	; 0
			default:
				break;
		}
	#else

		SetReg(PPM_PORT, 0x00);																// 拉低全部通道，增加可靠性
    44be:	15 ba       	out	0x15, r1	; 21
		
		if(TRUE == ppm_buffer_state[temp_channel].enable_torque)
    44c0:	61 2f       	mov	r22, r17
    44c2:	70 e0       	ldi	r23, 0x00	; 0
    44c4:	fb 01       	movw	r30, r22
    44c6:	ee 0f       	add	r30, r30
    44c8:	ff 1f       	adc	r31, r31
    44ca:	e6 0f       	add	r30, r22
    44cc:	f7 1f       	adc	r31, r23
    44ce:	ee 0f       	add	r30, r30
    44d0:	ff 1f       	adc	r31, r31
    44d2:	ee 0f       	add	r30, r30
    44d4:	ff 1f       	adc	r31, r31
    44d6:	e8 53       	subi	r30, 0x38	; 56
    44d8:	f3 4f       	sbci	r31, 0xF3	; 243
    44da:	83 85       	ldd	r24, Z+11	; 0x0b
    44dc:	81 30       	cpi	r24, 0x01	; 1
    44de:	71 f4       	brne	.+28     	; 0x44fc <IsrPpmOverFlow+0x50>
		{
			SetRegBit(PPM_PORT, ppm_control.channel_Mapping[temp_channel]);
    44e0:	25 b3       	in	r18, 0x15	; 21
    44e2:	fb 01       	movw	r30, r22
    44e4:	e5 5a       	subi	r30, 0xA5	; 165
    44e6:	f8 4f       	sbci	r31, 0xF8	; 248
    44e8:	32 81       	ldd	r19, Z+2	; 0x02
    44ea:	81 e0       	ldi	r24, 0x01	; 1
    44ec:	90 e0       	ldi	r25, 0x00	; 0
    44ee:	02 c0       	rjmp	.+4      	; 0x44f4 <IsrPpmOverFlow+0x48>
    44f0:	88 0f       	add	r24, r24
    44f2:	99 1f       	adc	r25, r25
    44f4:	3a 95       	dec	r19
    44f6:	e2 f7       	brpl	.-8      	; 0x44f0 <IsrPpmOverFlow+0x44>
    44f8:	28 2b       	or	r18, r24
    44fa:	25 bb       	out	0x15, r18	; 21
		}
		
	#endif

	calc_difference = ppm_state[temp_channel].target_position
    44fc:	9b 01       	movw	r18, r22
    44fe:	22 0f       	add	r18, r18
    4500:	33 1f       	adc	r19, r19
    4502:	26 0f       	add	r18, r22
    4504:	37 1f       	adc	r19, r23
    4506:	e9 01       	movw	r28, r18
    4508:	cc 0f       	add	r28, r28
    450a:	dd 1f       	adc	r29, r29
    450c:	cc 0f       	add	r28, r28
    450e:	dd 1f       	adc	r29, r29
    4510:	c6 59       	subi	r28, 0x96	; 150
    4512:	d3 4f       	sbci	r29, 0xF3	; 243
    4514:	48 81       	ld	r20, Y
    4516:	59 81       	ldd	r21, Y+1	; 0x01
    4518:	d9 01       	movw	r26, r18
    451a:	aa 0f       	add	r26, r26
    451c:	bb 1f       	adc	r27, r27
    451e:	aa 0f       	add	r26, r26
    4520:	bb 1f       	adc	r27, r27
    4522:	a4 59       	subi	r26, 0x94	; 148
    4524:	b3 4f       	sbci	r27, 0xF3	; 243
    4526:	8d 91       	ld	r24, X+
    4528:	9c 91       	ld	r25, X
    452a:	11 97       	sbiw	r26, 0x01	; 1
    452c:	48 1b       	sub	r20, r24
    452e:	59 0b       	sbc	r21, r25
	- ppm_state[temp_channel].current_position;												// 目标位置值与当前位置值相减
	
	
	if(0 < calc_difference)																	// 如果小于目标位置
    4530:	14 16       	cp	r1, r20
    4532:	15 06       	cpc	r1, r21
    4534:	a4 f4       	brge	.+40     	; 0x455e <IsrPpmOverFlow+0xb2>
	{
		if(calc_difference <= ppm_state[temp_channel].speed)
    4536:	f9 01       	movw	r30, r18
    4538:	ee 0f       	add	r30, r30
    453a:	ff 1f       	adc	r31, r31
    453c:	ee 0f       	add	r30, r30
    453e:	ff 1f       	adc	r31, r31
    4540:	e8 59       	subi	r30, 0x98	; 152
    4542:	f3 4f       	sbci	r31, 0xF3	; 243
    4544:	80 81       	ld	r24, Z
    4546:	91 81       	ldd	r25, Z+1	; 0x01
    4548:	84 17       	cp	r24, r20
    454a:	95 07       	cpc	r25, r21
    454c:	d8 f4       	brcc	.+54     	; 0x4584 <IsrPpmOverFlow+0xd8>
		{
			ppm_state[temp_channel].current_position = ppm_state[temp_channel].target_position;
		}
		else
		{
			ppm_state[temp_channel].current_position += ppm_state[temp_channel].speed;
    454e:	2d 91       	ld	r18, X+
    4550:	3c 91       	ld	r19, X
    4552:	11 97       	sbiw	r26, 0x01	; 1
    4554:	80 81       	ld	r24, Z
    4556:	91 81       	ldd	r25, Z+1	; 0x01
    4558:	82 0f       	add	r24, r18
    455a:	93 1f       	adc	r25, r19
    455c:	1d c0       	rjmp	.+58     	; 0x4598 <IsrPpmOverFlow+0xec>
		}
	}
	else if(0 > calc_difference)															// 如果大于目标位置
    455e:	41 15       	cp	r20, r1
    4560:	51 05       	cpc	r21, r1
    4562:	e9 f0       	breq	.+58     	; 0x459e <IsrPpmOverFlow+0xf2>
	{
		calc_difference = 0 - calc_difference;												// 取差值的绝对值
		if(calc_difference <= ppm_state[temp_channel].speed)
    4564:	f9 01       	movw	r30, r18
    4566:	ee 0f       	add	r30, r30
    4568:	ff 1f       	adc	r31, r31
    456a:	ee 0f       	add	r30, r30
    456c:	ff 1f       	adc	r31, r31
    456e:	e8 59       	subi	r30, 0x98	; 152
    4570:	f3 4f       	sbci	r31, 0xF3	; 243
    4572:	20 81       	ld	r18, Z
    4574:	31 81       	ldd	r19, Z+1	; 0x01
    4576:	88 27       	eor	r24, r24
    4578:	99 27       	eor	r25, r25
    457a:	84 1b       	sub	r24, r20
    457c:	95 0b       	sbc	r25, r21
    457e:	28 17       	cp	r18, r24
    4580:	39 07       	cpc	r19, r25
    4582:	18 f0       	brcs	.+6      	; 0x458a <IsrPpmOverFlow+0xde>
		{
			ppm_state[temp_channel].current_position = ppm_state[temp_channel].target_position;
    4584:	88 81       	ld	r24, Y
    4586:	99 81       	ldd	r25, Y+1	; 0x01
    4588:	07 c0       	rjmp	.+14     	; 0x4598 <IsrPpmOverFlow+0xec>
		}
		else
		{
			ppm_state[temp_channel].current_position -= ppm_state[temp_channel].speed;
    458a:	8d 91       	ld	r24, X+
    458c:	9c 91       	ld	r25, X
    458e:	11 97       	sbiw	r26, 0x01	; 1
    4590:	20 81       	ld	r18, Z
    4592:	31 81       	ldd	r19, Z+1	; 0x01
    4594:	82 1b       	sub	r24, r18
    4596:	93 0b       	sbc	r25, r19
    4598:	11 96       	adiw	r26, 0x01	; 1
    459a:	9c 93       	st	X, r25
    459c:	8e 93       	st	-X, r24
		}
	}
	
	ppm_buffer_state[temp_channel].current_position = ppm_state[temp_channel].current_position;
    459e:	fb 01       	movw	r30, r22
    45a0:	ee 0f       	add	r30, r30
    45a2:	ff 1f       	adc	r31, r31
    45a4:	e6 0f       	add	r30, r22
    45a6:	f7 1f       	adc	r31, r23
    45a8:	31 96       	adiw	r30, 0x01	; 1
    45aa:	ee 0f       	add	r30, r30
    45ac:	ff 1f       	adc	r31, r31
    45ae:	ee 0f       	add	r30, r30
    45b0:	ff 1f       	adc	r31, r31
    45b2:	df 01       	movw	r26, r30
    45b4:	a8 59       	subi	r26, 0x98	; 152
    45b6:	b3 4f       	sbci	r27, 0xF3	; 243
    45b8:	8d 91       	ld	r24, X+
    45ba:	9c 91       	ld	r25, X
    45bc:	11 97       	sbiw	r26, 0x01	; 1
    45be:	e8 53       	subi	r30, 0x38	; 56
    45c0:	f3 4f       	sbci	r31, 0xF3	; 243
    45c2:	91 83       	std	Z+1, r25	; 0x01
    45c4:	80 83       	st	Z, r24
	SetTimerPosition(ppm_state[temp_channel].current_position);
    45c6:	8d 91       	ld	r24, X+
    45c8:	9c 91       	ld	r25, X
    45ca:	e0 91 af 07 	lds	r30, 0x07AF
    45ce:	f0 91 b0 07 	lds	r31, 0x07B0
    45d2:	09 95       	icall

	ppm_control.channel = temp_channel;
    45d4:	10 93 5c 07 	sts	0x075C, r17
}
    45d8:	df 91       	pop	r29
    45da:	cf 91       	pop	r28
    45dc:	1f 91       	pop	r17
    45de:	08 95       	ret

000045e0 <InitPpm>:
** 修订人:
** 修订日期:
**------------------------------------------------------------------------------------------------------------------------
*************************************************************************************************************************/
static void InitPpm(void)
{
    45e0:	df 92       	push	r13
    45e2:	ef 92       	push	r14
    45e4:	ff 92       	push	r15
    45e6:	0f 93       	push	r16
    45e8:	1f 93       	push	r17
    45ea:	cf 93       	push	r28
    45ec:	df 93       	push	r29
	SetReg(ppm_control.state, 0);											// 初始化状态寄存器
    45ee:	10 92 5b 07 	sts	0x075B, r1
	
	if(!GetRegBit(PPM_TIMER_STATE, INIT_COMPLETE))
    45f2:	80 91 aa 07 	lds	r24, 0x07AA
    45f6:	87 fd       	sbrc	r24, 7
    45f8:	09 c0       	rjmp	.+18     	; 0x460c <InitPpm+0x2c>
	{
		ClrRegBits(ppm_control.state, ERR_MASK);
    45fa:	80 91 5b 07 	lds	r24, 0x075B
    45fe:	80 7c       	andi	r24, 0xC0	; 192
    4600:	80 93 5b 07 	sts	0x075B, r24
		SetRegBits(ppm_control.state, ERR_DEPENDENCE);						// 置错误类型标志位
    4604:	80 91 5b 07 	lds	r24, 0x075B
    4608:	8b 61       	ori	r24, 0x1B	; 27
    460a:	99 c0       	rjmp	.+306    	; 0x473e <InitPpm+0x15e>
		return;
    460c:	40 e0       	ldi	r20, 0x00	; 0
    460e:	50 e0       	ldi	r21, 0x00	; 0
	
	uint8 count = 0;
	
	for(count = 0; count < 8; count++)
	{
		ppm_state[count].speed = PPM_MAX_SPEED;
    4610:	c4 e5       	ldi	r28, 0x54	; 84
    4612:	d8 e0       	ldi	r29, 0x08	; 8
		ppm_state[count].target_position = PPM_MIDDLE_VAL;
    4614:	60 ec       	ldi	r22, 0xC0	; 192
    4616:	7d e5       	ldi	r23, 0x5D	; 93
		ppm_state[count].current_position = PPM_MIDDLE_VAL;
		
		ppm_buffer_state[count].cw_limit = PPM_MIN_VAL;
    4618:	20 e4       	ldi	r18, 0x40	; 64
    461a:	e2 2e       	mov	r14, r18
    461c:	2f e1       	ldi	r18, 0x1F	; 31
    461e:	f2 2e       	mov	r15, r18
		ppm_buffer_state[count].ccw_limit = PPM_MAX_VAL;
    4620:	06 e3       	ldi	r16, 0x36	; 54
    4622:	1c e9       	ldi	r17, 0x9C	; 156
		ppm_buffer_state[count].speed = PPM_MAX_SPEED;
		ppm_buffer_state[count].target_position = PPM_MIDDLE_VAL;
		ppm_buffer_state[count].current_position = PPM_MIDDLE_VAL;
		ppm_buffer_state[count].enable_torque = FALSE;						// 扭矩输出不使能
		ppm_buffer_state[count].mode = PPM_SERVO_MODE;
    4624:	9f e0       	ldi	r25, 0x0F	; 15
    4626:	d9 2e       	mov	r13, r25
	
	uint8 count = 0;
	
	for(count = 0; count < 8; count++)
	{
		ppm_state[count].speed = PPM_MAX_SPEED;
    4628:	da 01       	movw	r26, r20
    462a:	aa 0f       	add	r26, r26
    462c:	bb 1f       	adc	r27, r27
    462e:	a4 0f       	add	r26, r20
    4630:	b5 1f       	adc	r27, r21
    4632:	cd 01       	movw	r24, r26
    4634:	88 0f       	add	r24, r24
    4636:	99 1f       	adc	r25, r25
    4638:	88 0f       	add	r24, r24
    463a:	99 1f       	adc	r25, r25
    463c:	fc 01       	movw	r30, r24
    463e:	e8 59       	subi	r30, 0x98	; 152
    4640:	f3 4f       	sbci	r31, 0xF3	; 243
    4642:	d1 83       	std	Z+1, r29	; 0x01
    4644:	c0 83       	st	Z, r28
		ppm_state[count].target_position = PPM_MIDDLE_VAL;
    4646:	9c 01       	movw	r18, r24
    4648:	2e 5f       	subi	r18, 0xFE	; 254
    464a:	3f 4f       	sbci	r19, 0xFF	; 255
    464c:	f9 01       	movw	r30, r18
    464e:	e8 59       	subi	r30, 0x98	; 152
    4650:	f3 4f       	sbci	r31, 0xF3	; 243
    4652:	71 83       	std	Z+1, r23	; 0x01
    4654:	60 83       	st	Z, r22
		ppm_state[count].current_position = PPM_MIDDLE_VAL;
    4656:	11 96       	adiw	r26, 0x01	; 1
    4658:	aa 0f       	add	r26, r26
    465a:	bb 1f       	adc	r27, r27
    465c:	aa 0f       	add	r26, r26
    465e:	bb 1f       	adc	r27, r27
    4660:	fd 01       	movw	r30, r26
    4662:	e8 59       	subi	r30, 0x98	; 152
    4664:	f3 4f       	sbci	r31, 0xF3	; 243
    4666:	71 83       	std	Z+1, r23	; 0x01
    4668:	60 83       	st	Z, r22
		
		ppm_buffer_state[count].cw_limit = PPM_MIN_VAL;
    466a:	88 53       	subi	r24, 0x38	; 56
    466c:	93 4f       	sbci	r25, 0xF3	; 243
    466e:	fc 01       	movw	r30, r24
    4670:	f7 82       	std	Z+7, r15	; 0x07
    4672:	e6 82       	std	Z+6, r14	; 0x06
		ppm_buffer_state[count].ccw_limit = PPM_MAX_VAL;
    4674:	11 87       	std	Z+9, r17	; 0x09
    4676:	00 87       	std	Z+8, r16	; 0x08
		ppm_buffer_state[count].speed = PPM_MAX_SPEED;
    4678:	d1 83       	std	Z+1, r29	; 0x01
    467a:	c0 83       	st	Z, r28
		ppm_buffer_state[count].target_position = PPM_MIDDLE_VAL;
    467c:	28 53       	subi	r18, 0x38	; 56
    467e:	33 4f       	sbci	r19, 0xF3	; 243
    4680:	f9 01       	movw	r30, r18
    4682:	71 83       	std	Z+1, r23	; 0x01
    4684:	60 83       	st	Z, r22
		ppm_buffer_state[count].current_position = PPM_MIDDLE_VAL;
    4686:	a8 53       	subi	r26, 0x38	; 56
    4688:	b3 4f       	sbci	r27, 0xF3	; 243
    468a:	11 96       	adiw	r26, 0x01	; 1
    468c:	7c 93       	st	X, r23
    468e:	6e 93       	st	-X, r22
		ppm_buffer_state[count].enable_torque = FALSE;						// 扭矩输出不使能
    4690:	fc 01       	movw	r30, r24
    4692:	13 86       	std	Z+11, r1	; 0x0b
		ppm_buffer_state[count].mode = PPM_SERVO_MODE;
    4694:	d2 86       	std	Z+10, r13	; 0x0a
    4696:	4f 5f       	subi	r20, 0xFF	; 255
    4698:	5f 4f       	sbci	r21, 0xFF	; 255
		return;
	}
	
	uint8 count = 0;
	
	for(count = 0; count < 8; count++)
    469a:	48 30       	cpi	r20, 0x08	; 8
    469c:	51 05       	cpc	r21, r1
    469e:	21 f6       	brne	.-120    	; 0x4628 <InitPpm+0x48>
	
	#if PPM_PORT_ALONE
		
	#else

		ppm_control.channel_Mapping[0] = 1;									// 初始化通道映射表
    46a0:	81 e0       	ldi	r24, 0x01	; 1
    46a2:	80 93 5d 07 	sts	0x075D, r24
		ppm_control.channel_Mapping[1] = 0;
    46a6:	10 92 5e 07 	sts	0x075E, r1
		ppm_control.channel_Mapping[2] = 3;
    46aa:	83 e0       	ldi	r24, 0x03	; 3
    46ac:	80 93 5f 07 	sts	0x075F, r24
		ppm_control.channel_Mapping[3] = 2;
    46b0:	82 e0       	ldi	r24, 0x02	; 2
    46b2:	80 93 60 07 	sts	0x0760, r24
		ppm_control.channel_Mapping[4] = 5;
    46b6:	85 e0       	ldi	r24, 0x05	; 5
    46b8:	80 93 61 07 	sts	0x0761, r24
		ppm_control.channel_Mapping[5] = 4;
    46bc:	84 e0       	ldi	r24, 0x04	; 4
    46be:	80 93 62 07 	sts	0x0762, r24
		ppm_control.channel_Mapping[6] = 7;
    46c2:	87 e0       	ldi	r24, 0x07	; 7
    46c4:	80 93 63 07 	sts	0x0763, r24
		ppm_control.channel_Mapping[7] = 6;
    46c8:	86 e0       	ldi	r24, 0x06	; 6
    46ca:	80 93 64 07 	sts	0x0764, r24

	#endif
	
	ppm_control.channel = 0;												// 通道编号初始化
    46ce:	10 92 5c 07 	sts	0x075C, r1
		ClrRegBit(PPM7_PORT, PPM7_PORT_BIT);
		SetRegBit(PPM7_DDR,PPM7_DDR_BIT);
		
	#else
	
		SetReg(PPM_DDR, 0xFF);
    46d2:	8f ef       	ldi	r24, 0xFF	; 255
    46d4:	84 bb       	out	0x14, r24	; 20
		SetReg(PPM_PORT, 0x00);
    46d6:	15 ba       	out	0x15, r1	; 21
	
	#endif
	

	ppm_control.pSetPpmPosition = SetPpmPosition;							// 位置设置函数指针
    46d8:	82 e4       	ldi	r24, 0x42	; 66
    46da:	9e e1       	ldi	r25, 0x1E	; 30
    46dc:	90 93 72 07 	sts	0x0772, r25
    46e0:	80 93 71 07 	sts	0x0771, r24
	ppm_control.pRunPpm = RunPpm;											// 位置变更执行函数指针
    46e4:	84 e4       	ldi	r24, 0x44	; 68
    46e6:	91 e2       	ldi	r25, 0x21	; 33
    46e8:	90 93 74 07 	sts	0x0774, r25
    46ec:	80 93 73 07 	sts	0x0773, r24
	
	ppm_control.pSetPpmLimit = SetPpmLimit;
    46f0:	84 ef       	ldi	r24, 0xF4	; 244
    46f2:	9f e1       	ldi	r25, 0x1F	; 31
    46f4:	90 93 66 07 	sts	0x0766, r25
    46f8:	80 93 65 07 	sts	0x0765, r24
	ppm_control.pGetPpmLimit = GetPpmLimit;
    46fc:	86 ec       	ldi	r24, 0xC6	; 198
    46fe:	90 e2       	ldi	r25, 0x20	; 32
    4700:	90 93 68 07 	sts	0x0768, r25
    4704:	80 93 67 07 	sts	0x0767, r24
	ppm_control.pGetPpmPosition = GetPpmPosition;
    4708:	88 e1       	ldi	r24, 0x18	; 24
    470a:	91 e2       	ldi	r25, 0x21	; 33
    470c:	90 93 6a 07 	sts	0x076A, r25
    4710:	80 93 69 07 	sts	0x0769, r24
	ppm_control.pStopPpm = StopPpm;
    4714:	82 e2       	ldi	r24, 0x22	; 34
    4716:	92 e2       	ldi	r25, 0x22	; 34
    4718:	90 93 6c 07 	sts	0x076C, r25
    471c:	80 93 6b 07 	sts	0x076B, r24
	ppm_control.pSetPpmAcceleration = SetPpmAcceleration;
    4720:	83 ef       	ldi	r24, 0xF3	; 243
    4722:	9e e1       	ldi	r25, 0x1E	; 30
    4724:	90 93 6e 07 	sts	0x076E, r25
    4728:	80 93 6d 07 	sts	0x076D, r24
	ppm_control.pSetPpmVelocity = SetPpmVelocity;
    472c:	82 e4       	ldi	r24, 0x42	; 66
    472e:	9f e1       	ldi	r25, 0x1F	; 31
    4730:	90 93 70 07 	sts	0x0770, r25
    4734:	80 93 6f 07 	sts	0x076F, r24

	SetRegBit(ppm_control.state, INIT_COMPLETE);							// 置位初始化完成标志
    4738:	80 91 5b 07 	lds	r24, 0x075B
    473c:	80 68       	ori	r24, 0x80	; 128
    473e:	80 93 5b 07 	sts	0x075B, r24
}
    4742:	df 91       	pop	r29
    4744:	cf 91       	pop	r28
    4746:	1f 91       	pop	r17
    4748:	0f 91       	pop	r16
    474a:	ff 90       	pop	r15
    474c:	ef 90       	pop	r14
    474e:	df 90       	pop	r13
    4750:	08 95       	ret

00004752 <EnableExtRam>:
** 修订日期:
**------------------------------------------------------------------------------------------------------------------------
*************************************************************************************************************************/
static void EnableExtRam(void)
{
	SetReg(SIM_XMCRA, 0x00);
    4752:	10 92 6d 00 	sts	0x006D, r1
	SetReg(SIM_XMCRB, 0x00);
    4756:	10 92 6c 00 	sts	0x006C, r1
	SetReg(EXT_RAM_DDR, 0xFF);
    475a:	8f ef       	ldi	r24, 0xFF	; 255
    475c:	84 bb       	out	0x14, r24	; 20
	SetReg(EXT_RAM_PORT, 0x00);
    475e:	15 ba       	out	0x15, r1	; 21
	SetRegBit(SIM_MCUCR, SRE);
    4760:	85 b7       	in	r24, 0x35	; 53
    4762:	80 68       	ori	r24, 0x80	; 128
    4764:	85 bf       	out	0x35, r24	; 53
}
    4766:	08 95       	ret

00004768 <DisableExtRam>:
** 修订日期:
**------------------------------------------------------------------------------------------------------------------------
*************************************************************************************************************************/
static void DisableExtRam(void)
{
	ClrRegBit(SIM_MCUCR, SRE);
    4768:	85 b7       	in	r24, 0x35	; 53
    476a:	8f 77       	andi	r24, 0x7F	; 127
    476c:	85 bf       	out	0x35, r24	; 53
}
    476e:	08 95       	ret

00004770 <SetXtalDivide>:
** 修订日期:
**------------------------------------------------------------------------------------------------------------------------
*************************************************************************************************************************/
static void SetXtalDivide(uint8 val)
{
	SetReg(SIM_XDIV, val & 0x7F);								// 取低七位
    4770:	8f 77       	andi	r24, 0x7F	; 127
    4772:	8c bf       	out	0x3c, r24	; 60
}
    4774:	08 95       	ret

00004776 <EnableXtalDivide>:
** 修订日期:
**------------------------------------------------------------------------------------------------------------------------
*************************************************************************************************************************/
static void EnableXtalDivide(void)
{
	SetRegBit(SIM_XDIV, XDIVEN);
    4776:	8c b7       	in	r24, 0x3c	; 60
    4778:	80 68       	ori	r24, 0x80	; 128
    477a:	8c bf       	out	0x3c, r24	; 60
}
    477c:	08 95       	ret

0000477e <DisableXtalDivide>:
** 修订日期:
**------------------------------------------------------------------------------------------------------------------------
*************************************************************************************************************************/
static void DisableXtalDivide(void)
{
	ClrRegBit(SIM_XDIV, XDIVEN);
    477e:	8c b7       	in	r24, 0x3c	; 60
    4780:	8f 77       	andi	r24, 0x7F	; 127
    4782:	8c bf       	out	0x3c, r24	; 60
}
    4784:	08 95       	ret

00004786 <ResetSoft>:
** 修订日期:
**------------------------------------------------------------------------------------------------------------------------
*************************************************************************************************************************/
static void ResetSoft(void)
{
	wdt_enable(WDTO_15MS);
    4786:	28 e0       	ldi	r18, 0x08	; 8
    4788:	88 e1       	ldi	r24, 0x18	; 24
    478a:	90 e0       	ldi	r25, 0x00	; 0
    478c:	0f b6       	in	r0, 0x3f	; 63
    478e:	f8 94       	cli
    4790:	a8 95       	wdr
    4792:	81 bd       	out	0x21, r24	; 33
    4794:	0f be       	out	0x3f, r0	; 63
    4796:	21 bd       	out	0x21, r18	; 33
    can be achieved.
*/
void
_delay_loop_1(uint8_t __count)
{
	__asm__ volatile (
    4798:	94 e6       	ldi	r25, 0x64	; 100
    479a:	89 2f       	mov	r24, r25
    479c:	8a 95       	dec	r24
    479e:	f1 f7       	brne	.-4      	; 0x479c <ResetSoft+0x16>
    47a0:	fc cf       	rjmp	.-8      	; 0x479a <ResetSoft+0x14>

000047a2 <InitSim>:
*************************************************************************************************************************/
static void InitSim(void)
{
	SetReg(sim_control.state , 0x00);								// 初始化状态寄存器

	SetReg(SIM_MCUSR, 0x00);
    47a2:	14 be       	out	0x34, r1	; 52
	wdt_disable();													// 初始化看门狗
    47a4:	88 e1       	ldi	r24, 0x18	; 24
    47a6:	0f b6       	in	r0, 0x3f	; 63
    47a8:	f8 94       	cli
    47aa:	81 bd       	out	0x21, r24	; 33
    47ac:	11 bc       	out	0x21, r1	; 33
    47ae:	0f be       	out	0x3f, r0	; 63
** 修订日期:
**------------------------------------------------------------------------------------------------------------------------
*************************************************************************************************************************/
static void DisableExtRam(void)
{
	ClrRegBit(SIM_MCUCR, SRE);
    47b0:	85 b7       	in	r24, 0x35	; 53
    47b2:	8f 77       	andi	r24, 0x7F	; 127
    47b4:	85 bf       	out	0x35, r24	; 53
** 修订日期:
**------------------------------------------------------------------------------------------------------------------------
*************************************************************************************************************************/
static void DisableXtalDivide(void)
{
	ClrRegBit(SIM_XDIV, XDIVEN);
    47b6:	8c b7       	in	r24, 0x3c	; 60
    47b8:	8f 77       	andi	r24, 0x7F	; 127
    47ba:	8c bf       	out	0x3c, r24	; 60
	wdt_disable();													// 初始化看门狗

	DisableExtRam();
	DisableXtalDivide();

	sim_control.pEnableExtRam = EnableExtRam;
    47bc:	89 ea       	ldi	r24, 0xA9	; 169
    47be:	93 e2       	ldi	r25, 0x23	; 35
    47c0:	90 93 7b 07 	sts	0x077B, r25
    47c4:	80 93 7a 07 	sts	0x077A, r24
	sim_control.pDisableExtRam = DisableExtRam;
    47c8:	84 eb       	ldi	r24, 0xB4	; 180
    47ca:	93 e2       	ldi	r25, 0x23	; 35
    47cc:	90 93 7d 07 	sts	0x077D, r25
    47d0:	80 93 7c 07 	sts	0x077C, r24
	sim_control.pEnableXtalDivide = EnableXtalDivide;
    47d4:	8b eb       	ldi	r24, 0xBB	; 187
    47d6:	93 e2       	ldi	r25, 0x23	; 35
    47d8:	90 93 81 07 	sts	0x0781, r25
    47dc:	80 93 80 07 	sts	0x0780, r24
	sim_control.pDisableXtalDivide = DisableXtalDivide;
    47e0:	8f eb       	ldi	r24, 0xBF	; 191
    47e2:	93 e2       	ldi	r25, 0x23	; 35
    47e4:	90 93 83 07 	sts	0x0783, r25
    47e8:	80 93 82 07 	sts	0x0782, r24
	sim_control.pSetXtalDivide = SetXtalDivide;
    47ec:	88 eb       	ldi	r24, 0xB8	; 184
    47ee:	93 e2       	ldi	r25, 0x23	; 35
    47f0:	90 93 7f 07 	sts	0x077F, r25
    47f4:	80 93 7e 07 	sts	0x077E, r24
	sim_control.pReset = ResetSoft;
    47f8:	83 ec       	ldi	r24, 0xC3	; 195
    47fa:	93 e2       	ldi	r25, 0x23	; 35
    47fc:	90 93 85 07 	sts	0x0785, r25
    4800:	80 93 84 07 	sts	0x0784, r24

	SetRegBit(sim_control.state, INIT_COMPLETE);					// 置位初始化完成标志
    4804:	80 e8       	ldi	r24, 0x80	; 128
    4806:	80 93 77 07 	sts	0x0777, r24
}
    480a:	08 95       	ret

0000480c <EnableSpiInterrupt>:
** 修订日期:
**------------------------------------------------------------------------------------------------------------------------
*************************************************************************************************************************/
static void EnableSpiInterrupt(void)
{
	SetRegBit(SPI_SPCR, SPIE);
    480c:	6f 9a       	sbi	0x0d, 7	; 13
}
    480e:	08 95       	ret

00004810 <DisableSpiInterrupt>:
** 修订日期:
**------------------------------------------------------------------------------------------------------------------------
*************************************************************************************************************************/
static void DisableSpiInterrupt(void)
{
	ClrRegBit(SPI_SPCR, SPIE);
    4810:	6f 98       	cbi	0x0d, 7	; 13
}
    4812:	08 95       	ret

00004814 <SetSpiClockRate>:
** 修订人:
** 修订日期:
**------------------------------------------------------------------------------------------------------------------------
*************************************************************************************************************************/
static void SetSpiClockRate(uint8 clock_rate)
{
    4814:	98 2f       	mov	r25, r24
	uint8 temp_value = 0;

	temp_value = (clock_rate >> 2) & 0x01;				// 取 Bit2;

	if (TRUE == temp_value)
    4816:	82 ff       	sbrs	r24, 2
    4818:	02 c0       	rjmp	.+4      	; 0x481e <SetSpiClockRate+0xa>
	{
		SetRegBit(SPI_SPSR, SPI2X);
    481a:	70 9a       	sbi	0x0e, 0	; 14
    481c:	01 c0       	rjmp	.+2      	; 0x4820 <SetSpiClockRate+0xc>
	}
	else
	{
		ClrRegBit(SPI_SPSR, SPI2X);
    481e:	70 98       	cbi	0x0e, 0	; 14
	}

	temp_value = clock_rate & 0x03;						// 取Bit0、Bit1;

	SetRegMask(SPI_SPCR, SPI_SPCR_SPR_MASK, temp_value << SPI_SPCR_SPR_OFFSET);
    4820:	8d b1       	in	r24, 0x0d	; 13
    4822:	93 70       	andi	r25, 0x03	; 3
    4824:	8c 7f       	andi	r24, 0xFC	; 252
    4826:	89 2b       	or	r24, r25
    4828:	8d b9       	out	0x0d, r24	; 13
}
    482a:	08 95       	ret

0000482c <SetSpiClockMode>:
{
	uint8 temp_value = 0;

	temp_value = (phase + (polarity << 1)) & 0x03;				// 取低两位

	SetRegMask(SPI_SPCR, SPI_SPCR_CLOCKMODE_MASK, temp_value << SPI_SPCR_CLOCKMODE_OFFSET);
    482c:	9d b1       	in	r25, 0x0d	; 13
    482e:	88 0f       	add	r24, r24
    4830:	68 0f       	add	r22, r24
    4832:	63 70       	andi	r22, 0x03	; 3
    4834:	66 0f       	add	r22, r22
    4836:	66 0f       	add	r22, r22
    4838:	93 7f       	andi	r25, 0xF3	; 243
    483a:	96 2b       	or	r25, r22
    483c:	9d b9       	out	0x0d, r25	; 13
}
    483e:	08 95       	ret

00004840 <SetSpiMode>:
** 修订日期:
**------------------------------------------------------------------------------------------------------------------------
*************************************************************************************************************************/
static void SetSpiMode(uint8 mode)
{
	if (SPI_MODE_MASTER == mode)
    4840:	81 30       	cpi	r24, 0x01	; 1
    4842:	51 f4       	brne	.+20     	; 0x4858 <SetSpiMode+0x18>
	{
		ClrRegBit(SPI_PORT, SPI_MOSI_BIT);
    4844:	c2 98       	cbi	0x18, 2	; 24
		SetRegBit(SPI_PORT, SPI_MISO_BIT);
    4846:	c3 9a       	sbi	0x18, 3	; 24
		ClrRegBit(SPI_PORT, SPI_SCK_BIT);
    4848:	c1 98       	cbi	0x18, 1	; 24
		SetRegBit(SPI_PORT, SPI_SS_BIT);
    484a:	c0 9a       	sbi	0x18, 0	; 24

		SetRegBit(SPI_DDR, SPI_MOSI_BIT);
    484c:	ba 9a       	sbi	0x17, 2	; 23
		ClrRegBit(SPI_DDR, SPI_MISO_BIT);
    484e:	bb 98       	cbi	0x17, 3	; 23
		SetRegBit(SPI_DDR, SPI_SCK_BIT);
    4850:	b9 9a       	sbi	0x17, 1	; 23
		SetRegBit(SPI_DDR, SPI_SS_BIT);
    4852:	b8 9a       	sbi	0x17, 0	; 23

		SetRegBit(SPI_SPCR, MSTR);
    4854:	6c 9a       	sbi	0x0d, 4	; 13
    4856:	08 95       	ret
	}
	else
	{
		ClrRegBit(SPI_PORT, SPI_MOSI_BIT);										// 初始化端口
    4858:	c2 98       	cbi	0x18, 2	; 24
		SetRegBit(SPI_PORT, SPI_MISO_BIT);
    485a:	c3 9a       	sbi	0x18, 3	; 24
		ClrRegBit(SPI_PORT, SPI_SCK_BIT);
    485c:	c1 98       	cbi	0x18, 1	; 24
		SetRegBit(SPI_PORT, SPI_SS_BIT);
    485e:	c0 9a       	sbi	0x18, 0	; 24

		ClrRegBit(SPI_DDR, SPI_MOSI_BIT);
    4860:	ba 98       	cbi	0x17, 2	; 23
		SetRegBit(SPI_DDR, SPI_MISO_BIT);
    4862:	bb 9a       	sbi	0x17, 3	; 23
		ClrRegBit(SPI_DDR, SPI_SCK_BIT);
    4864:	b9 98       	cbi	0x17, 1	; 23
		ClrRegBit(SPI_DDR, SPI_SS_BIT);
    4866:	b8 98       	cbi	0x17, 0	; 23

		ClrRegBit(SPI_SPCR, MSTR);
    4868:	6c 98       	cbi	0x0d, 4	; 13
    486a:	08 95       	ret

0000486c <StartTransport>:
** 修订日期:
**------------------------------------------------------------------------------------------------------------------------
*************************************************************************************************************************/
static void StartTransport(uint8 val)
{
	SetReg(SPI_SPDR, val);
    486c:	8f b9       	out	0x0f, r24	; 15
}
    486e:	08 95       	ret

00004870 <WriteSpiSendBuffer>:
** 修订人:
** 修订日期:
**------------------------------------------------------------------------------------------------------------------------
*************************************************************************************************************************/
static void WriteSpiSendBuffer(uint8 val)
{
    4870:	68 2f       	mov	r22, r24
	buffer_queue_control.pAdd(&spi_control.str_send_queue, val);
    4872:	e0 91 77 06 	lds	r30, 0x0677
    4876:	f0 91 78 06 	lds	r31, 0x0678
    487a:	87 e8       	ldi	r24, 0x87	; 135
    487c:	97 e0       	ldi	r25, 0x07	; 7
    487e:	09 95       	icall
}
    4880:	08 95       	ret

00004882 <ProcessSendMsg>:
** 修订人:
** 修订日期:
**------------------------------------------------------------------------------------------------------------------------
*************************************************************************************************************************/
static void ProcessSendMsg(void)
{
    4882:	df 93       	push	r29
    4884:	cf 93       	push	r28
    4886:	0f 92       	push	r0
    4888:	cd b7       	in	r28, 0x3d	; 61
    488a:	de b7       	in	r29, 0x3e	; 62
	uint8 temp_value = 0;
    488c:	19 82       	std	Y+1, r1	; 0x01
	uint8 temp_state = 0;

	if (SPI_SEND_STATE_WAITSEND == spi_control.send_state)
    488e:	80 91 91 07 	lds	r24, 0x0791
    4892:	88 23       	and	r24, r24
    4894:	a1 f4       	brne	.+40     	; 0x48be <ProcessSendMsg+0x3c>
	{
		spi_control.send_state = SPI_SEND_STATE_SENDING;
    4896:	81 e0       	ldi	r24, 0x01	; 1
    4898:	80 93 91 07 	sts	0x0791, r24
		spi_control.send_length = buffer_queue_control.pCheckLength(&spi_control.str_send_queue);
    489c:	e0 91 7b 06 	lds	r30, 0x067B
    48a0:	f0 91 7c 06 	lds	r31, 0x067C
    48a4:	87 e8       	ldi	r24, 0x87	; 135
    48a6:	97 e0       	ldi	r25, 0x07	; 7
    48a8:	09 95       	icall
    48aa:	80 93 90 07 	sts	0x0790, r24

		temp_value = (spi_control.send_length << SPI_DATA_LENGTH_OFFSET & SPI_DATA_LENGTH_MASK)
    48ae:	8f 70       	andi	r24, 0x0F	; 15
    48b0:	90 91 8f 07 	lds	r25, 0x078F
    48b4:	92 95       	swap	r25
    48b6:	90 7f       	andi	r25, 0xF0	; 240
    48b8:	98 2b       	or	r25, r24
    48ba:	99 83       	std	Y+1, r25	; 0x01
    48bc:	28 c0       	rjmp	.+80     	; 0x490e <ProcessSendMsg+0x8c>
					| ((spi_control.send_device << SPI_DATA_DEVICE_OFFSET) & SPI_DATA_DEVICE_MASK);
	}
	else if (SPI_SEND_STATE_SENDING == spi_control.send_state)
    48be:	81 30       	cpi	r24, 0x01	; 1
    48c0:	01 f5       	brne	.+64     	; 0x4902 <ProcessSendMsg+0x80>
	{
		temp_state = buffer_queue_control.pOut(&spi_control.str_send_queue, &temp_value);
    48c2:	e0 91 79 06 	lds	r30, 0x0679
    48c6:	f0 91 7a 06 	lds	r31, 0x067A
    48ca:	87 e8       	ldi	r24, 0x87	; 135
    48cc:	97 e0       	ldi	r25, 0x07	; 7
    48ce:	be 01       	movw	r22, r28
    48d0:	6f 5f       	subi	r22, 0xFF	; 255
    48d2:	7f 4f       	sbci	r23, 0xFF	; 255
    48d4:	09 95       	icall

		if(FALSE == temp_state)
    48d6:	88 23       	and	r24, r24
    48d8:	39 f4       	brne	.+14     	; 0x48e8 <ProcessSendMsg+0x66>
		{
			SetRegMask(spi_control.state, ERR_MASK, ERR_UNDERRUN);						// 置错误类型标志位
    48da:	80 91 86 07 	lds	r24, 0x0786
    48de:	80 7c       	andi	r24, 0xC0	; 192
    48e0:	88 61       	ori	r24, 0x18	; 24
    48e2:	80 93 86 07 	sts	0x0786, r24
    48e6:	18 c0       	rjmp	.+48     	; 0x4918 <ProcessSendMsg+0x96>
			return;
		}

		temp_state = buffer_queue_control.pTestEmpty(&spi_control.str_send_queue);		// 测试队列是否为空
    48e8:	e0 91 75 06 	lds	r30, 0x0675
    48ec:	f0 91 76 06 	lds	r31, 0x0676
    48f0:	87 e8       	ldi	r24, 0x87	; 135
    48f2:	97 e0       	ldi	r25, 0x07	; 7
    48f4:	09 95       	icall

		if (TRUE == temp_state)
    48f6:	81 30       	cpi	r24, 0x01	; 1
    48f8:	51 f4       	brne	.+20     	; 0x490e <ProcessSendMsg+0x8c>
		{
			spi_control.send_state = SPI_SEND_STATE_WAITUPDATE;
    48fa:	82 e0       	ldi	r24, 0x02	; 2
    48fc:	80 93 91 07 	sts	0x0791, r24
    4900:	06 c0       	rjmp	.+12     	; 0x490e <ProcessSendMsg+0x8c>
		}
	}
	else if (SPI_RECEIVE_STATE_RECEIVING == spi_control.receive_state)
    4902:	80 91 92 07 	lds	r24, 0x0792
    4906:	81 30       	cpi	r24, 0x01	; 1
    4908:	39 f4       	brne	.+14     	; 0x4918 <ProcessSendMsg+0x96>
	{
		temp_value = SPI_SEND_FILLER;
    490a:	80 ef       	ldi	r24, 0xF0	; 240
    490c:	89 83       	std	Y+1, r24	; 0x01
	else
	{
		return;
	}

	ClrRegBit(SPI_PORT, SPI_SS_BIT);													// 主机SS拉低从机SS
    490e:	c0 98       	cbi	0x18, 0	; 24
	while (FALSE != GetRegBit(SPI_PIN, SPI_SS_BIT));									// 检查PIN寄存器的值，如果没有拉低则等待
    4910:	b0 99       	sbic	0x16, 0	; 22
    4912:	fe cf       	rjmp	.-4      	; 0x4910 <ProcessSendMsg+0x8e>

	SetReg(SPI_SPDR, temp_value);														// 开始传输，返回等待数据传输完成中断发生
    4914:	89 81       	ldd	r24, Y+1	; 0x01
    4916:	8f b9       	out	0x0f, r24	; 15
}
    4918:	0f 90       	pop	r0
    491a:	cf 91       	pop	r28
    491c:	df 91       	pop	r29
    491e:	08 95       	ret

00004920 <IsrSpiProcessExtInt>:
** 修订日期:
**------------------------------------------------------------------------------------------------------------------------
*************************************************************************************************************************/
void IsrSpiProcessExtInt(void)
{
	if (spi_control.receive_state == SPI_RECEIVE_STATE_WAITRECEIVE)
    4920:	80 91 92 07 	lds	r24, 0x0792
    4924:	88 23       	and	r24, r24
    4926:	51 f4       	brne	.+20     	; 0x493c <IsrSpiProcessExtInt+0x1c>
	{
		if (spi_control.send_state == SPI_SEND_STATE_SENDING)
    4928:	80 91 91 07 	lds	r24, 0x0791
    492c:	81 30       	cpi	r24, 0x01	; 1
    492e:	19 f4       	brne	.+6      	; 0x4936 <IsrSpiProcessExtInt+0x16>
		{
			spi_control.switch_asynchronous = TRUE;
    4930:	80 93 97 07 	sts	0x0797, r24
    4934:	08 95       	ret
			return;
		}
		else
		{
			spi_control.receive_state = SPI_RECEIVE_STATE_RECEIVING;
    4936:	81 e0       	ldi	r24, 0x01	; 1
    4938:	80 93 92 07 	sts	0x0792, r24
		}
	}

	ProcessSendMsg();
    493c:	0e 94 41 24 	call	0x4882	; 0x4882 <ProcessSendMsg>
    4940:	08 95       	ret

00004942 <IsrSpiProcessTimerInt>:
*************************************************************************************************************************/
void IsrSpiProcessTimerInt(void)
{
	uint8 temp_value = 0;

	if (SPI_SEND_STATE_WAITSEND == spi_control.send_state)
    4942:	80 91 91 07 	lds	r24, 0x0791
    4946:	88 23       	and	r24, r24
    4948:	89 f4       	brne	.+34     	; 0x496c <IsrSpiProcessTimerInt+0x2a>
	{
		if (SPI_RECEIVE_STATE_WAITRECEIVE == spi_control.receive_state)
    494a:	80 91 92 07 	lds	r24, 0x0792
    494e:	88 23       	and	r24, r24
    4950:	69 f4       	brne	.+26     	; 0x496c <IsrSpiProcessTimerInt+0x2a>
		{
			spi_control.send_state = SPI_SEND_STATE_SENDING;
    4952:	81 e0       	ldi	r24, 0x01	; 1
    4954:	80 93 91 07 	sts	0x0791, r24
			temp_value = ((spi_control.send_length << SPI_DATA_LENGTH_OFFSET) & SPI_DATA_LENGTH_MASK)
    4958:	90 91 8f 07 	lds	r25, 0x078F
    495c:	92 95       	swap	r25
    495e:	90 7f       	andi	r25, 0xF0	; 240
    4960:	80 91 90 07 	lds	r24, 0x0790
    4964:	8f 70       	andi	r24, 0x0F	; 15
    4966:	98 2b       	or	r25, r24
						| ((spi_control.send_device << SPI_DATA_DEVICE_OFFSET) & SPI_DATA_DEVICE_MASK);

			ClrRegBit(SPI_PORT, SPI_SS_BIT);										// 主机SS拉低从机SS
    4968:	c0 98       	cbi	0x18, 0	; 24
			SetReg(SPI_SPDR, temp_value);											// 开始传输，返回等待数据传输完成中断发生
    496a:	9f b9       	out	0x0f, r25	; 15
    496c:	08 95       	ret

0000496e <__vector_17>:
** 修订人:
** 修订日期:
**------------------------------------------------------------------------------------------------------------------------
*************************************************************************************************************************/
ISR(SPI_STC_vect, ISR_BLOCK)
{
    496e:	1f 92       	push	r1
    4970:	0f 92       	push	r0
    4972:	0f b6       	in	r0, 0x3f	; 63
    4974:	0f 92       	push	r0
    4976:	0b b6       	in	r0, 0x3b	; 59
    4978:	0f 92       	push	r0
    497a:	11 24       	eor	r1, r1
    497c:	2f 93       	push	r18
    497e:	3f 93       	push	r19
    4980:	4f 93       	push	r20
    4982:	5f 93       	push	r21
    4984:	6f 93       	push	r22
    4986:	7f 93       	push	r23
    4988:	8f 93       	push	r24
    498a:	9f 93       	push	r25
    498c:	af 93       	push	r26
    498e:	bf 93       	push	r27
    4990:	ef 93       	push	r30
    4992:	ff 93       	push	r31
*************************************************************************************************************************/
static void ProcessReceiveMsg(void)
{
	uint8 temp_value = 0;

	temp_value = GetReg(SPI_SPDR);
    4994:	6f b1       	in	r22, 0x0f	; 15

	if (SPI_RECEIVE_STATE_RECEIVING == spi_control.receive_state)
    4996:	90 91 92 07 	lds	r25, 0x0792
    499a:	91 30       	cpi	r25, 0x01	; 1
    499c:	59 f5       	brne	.+86     	; 0x49f4 <__vector_17+0x86>
	{
		if (SPI_RECEIVE_CONTROL_WORD == spi_control.receive_index)
    499e:	80 91 93 07 	lds	r24, 0x0793
    49a2:	88 23       	and	r24, r24
    49a4:	59 f4       	brne	.+22     	; 0x49bc <__vector_17+0x4e>
		{
			spi_control.receive_length = temp_value & SPI_DATA_LENGTH_MASK;
    49a6:	86 2f       	mov	r24, r22
    49a8:	8f 70       	andi	r24, 0x0F	; 15
    49aa:	80 93 94 07 	sts	0x0794, r24
			spi_control.receive_device = (temp_value & SPI_DATA_DEVICE_MASK) >> SPI_DATA_DEVICE_OFFSET;
    49ae:	62 95       	swap	r22
    49b0:	6f 70       	andi	r22, 0x0F	; 15
    49b2:	60 93 95 07 	sts	0x0795, r22

			spi_control.receive_index = SPI_RECEIVE_PACKET;
    49b6:	90 93 93 07 	sts	0x0793, r25
    49ba:	1c c0       	rjmp	.+56     	; 0x49f4 <__vector_17+0x86>
		}
		else
		{
			switch (spi_control.receive_device)
    49bc:	80 91 95 07 	lds	r24, 0x0795
    49c0:	81 30       	cpi	r24, 0x01	; 1
    49c2:	39 f4       	brne	.+14     	; 0x49d2 <__vector_17+0x64>
			{
				// 根据目标模块不同存储数据，存在三种目标：Uart3的接收缓冲、SystemUnit的系统电压、SystemUnit过流标志
				case SPI_DEVICE_UART_RECEIVE:
				{
					buffer_queue_control.pAdd(&uart2_control.str_rx_buffer, temp_value);
    49c4:	e0 91 77 06 	lds	r30, 0x0677
    49c8:	f0 91 78 06 	lds	r31, 0x0678
    49cc:	86 e7       	ldi	r24, 0x76	; 118
    49ce:	98 e0       	ldi	r25, 0x08	; 8
    49d0:	09 95       	icall
		//		case

		//		default
			}

			spi_control.receive_counter++;
    49d2:	80 91 96 07 	lds	r24, 0x0796
    49d6:	8f 5f       	subi	r24, 0xFF	; 255
    49d8:	80 93 96 07 	sts	0x0796, r24

			if(spi_control.receive_counter >= spi_control.receive_length)
    49dc:	90 91 94 07 	lds	r25, 0x0794
    49e0:	89 17       	cp	r24, r25
    49e2:	40 f0       	brcs	.+16     	; 0x49f4 <__vector_17+0x86>
			{
				spi_control.receive_counter = 0;
    49e4:	10 92 96 07 	sts	0x0796, r1
				spi_control.receive_length = 0;
    49e8:	10 92 94 07 	sts	0x0794, r1

				spi_control.receive_index = SPI_RECEIVE_CONTROL_WORD;
    49ec:	10 92 93 07 	sts	0x0793, r1
				spi_control.receive_state = SPI_RECEIVE_STATE_WAITRECEIVE;
    49f0:	10 92 92 07 	sts	0x0792, r1
			}
		}
	}

	SetRegBit(SPI_PORT, SPI_SS_BIT);												// 主机SS拉高从机SS
    49f4:	c0 9a       	sbi	0x18, 0	; 24
*************************************************************************************************************************/
ISR(SPI_STC_vect, ISR_BLOCK)
{
	ProcessReceiveMsg();

	if (spi_control.switch_asynchronous == TRUE)
    49f6:	80 91 97 07 	lds	r24, 0x0797
    49fa:	81 30       	cpi	r24, 0x01	; 1
    49fc:	21 f4       	brne	.+8      	; 0x4a06 <__vector_17+0x98>
	{
		spi_control.receive_state = SPI_RECEIVE_STATE_RECEIVING;	// 切换模式
    49fe:	80 93 92 07 	sts	0x0792, r24
		spi_control.switch_asynchronous = FALSE;					// 解除异步模式切换标志
    4a02:	10 92 97 07 	sts	0x0797, r1
	}

	if (SPI_RECEIVE_STATE_WAITRECEIVE == spi_control.receive_state)
    4a06:	80 91 92 07 	lds	r24, 0x0792
    4a0a:	88 23       	and	r24, r24
    4a0c:	11 f4       	brne	.+4      	; 0x4a12 <__vector_17+0xa4>
	{
		ProcessSendMsg();
    4a0e:	0e 94 41 24 	call	0x4882	; 0x4882 <ProcessSendMsg>
	}
}
    4a12:	ff 91       	pop	r31
    4a14:	ef 91       	pop	r30
    4a16:	bf 91       	pop	r27
    4a18:	af 91       	pop	r26
    4a1a:	9f 91       	pop	r25
    4a1c:	8f 91       	pop	r24
    4a1e:	7f 91       	pop	r23
    4a20:	6f 91       	pop	r22
    4a22:	5f 91       	pop	r21
    4a24:	4f 91       	pop	r20
    4a26:	3f 91       	pop	r19
    4a28:	2f 91       	pop	r18
    4a2a:	0f 90       	pop	r0
    4a2c:	0b be       	out	0x3b, r0	; 59
    4a2e:	0f 90       	pop	r0
    4a30:	0f be       	out	0x3f, r0	; 63
    4a32:	0f 90       	pop	r0
    4a34:	1f 90       	pop	r1
    4a36:	18 95       	reti

00004a38 <TransportByte>:
** 修订人:
** 修订日期:
**------------------------------------------------------------------------------------------------------------------------
*************************************************************************************************************************/
static uint8 TransportByte(uint8 val, uint8* back_val)
{
    4a38:	fb 01       	movw	r30, r22
	
	uint16 count = 0;
	
	count = 0;

	ClrRegBit(SPI_PORT, SPI_SS_BIT);							// 主机SS拉低从机SS
    4a3a:	c0 98       	cbi	0x18, 0	; 24

	SetReg(SPI_SPDR, val);										// 开始传输
    4a3c:	8f b9       	out	0x0f, r24	; 15
    4a3e:	80 e0       	ldi	r24, 0x00	; 0
    4a40:	90 e0       	ldi	r25, 0x00	; 0
    4a42:	08 c0       	rjmp	.+16     	; 0x4a54 <TransportByte+0x1c>
	
	while(!GetRegBit(SPI_SPSR, SPIF))							// 等待传输结束
	{
		count++;
    4a44:	01 96       	adiw	r24, 0x01	; 1
		if (count > SPI_TIMEOUT_COUNT)
    4a46:	22 e0       	ldi	r18, 0x02	; 2
    4a48:	8d 3b       	cpi	r24, 0xBD	; 189
    4a4a:	92 07       	cpc	r25, r18
    4a4c:	19 f4       	brne	.+6      	; 0x4a54 <TransportByte+0x1c>
		{
			SetRegBit(SPI_PORT, SPI_SS_BIT);
    4a4e:	c0 9a       	sbi	0x18, 0	; 24
    4a50:	84 e0       	ldi	r24, 0x04	; 4
    4a52:	08 95       	ret

	ClrRegBit(SPI_PORT, SPI_SS_BIT);							// 主机SS拉低从机SS

	SetReg(SPI_SPDR, val);										// 开始传输
	
	while(!GetRegBit(SPI_SPSR, SPIF))							// 等待传输结束
    4a54:	77 9b       	sbis	0x0e, 7	; 14
    4a56:	f6 cf       	rjmp	.-20     	; 0x4a44 <TransportByte+0xc>
			
			return ERR_OVERFLOW;								// 等待超过SPI_TIMEOUT_COUNT个查询周期后，超时退出，报告错误
		}
	}
	
	*back_val = GetReg(SPI_SPDR);
    4a58:	8f b1       	in	r24, 0x0f	; 15
    4a5a:	80 83       	st	Z, r24
	
	SetRegBit(SPI_PORT, SPI_SS_BIT);							// 传输完成后，拉高从机SS，使SPI从机立即复位接收和发送逻辑，不再接收数据
    4a5c:	c0 9a       	sbi	0x18, 0	; 24
    4a5e:	80 e0       	ldi	r24, 0x00	; 0

	return ERR_OK;
}
    4a60:	08 95       	ret

00004a62 <InitSpi>:
** 修订日期:
**------------------------------------------------------------------------------------------------------------------------
*************************************************************************************************************************/
static void InitSpi(void)
{
	SetReg(spi_control.state, ERR_OK);								// 初始化状态寄存器
    4a62:	10 92 86 07 	sts	0x0786, r1

	buffer_queue_control.pInit(&spi_control.str_send_queue, 32);	// 初始化缓冲区
    4a66:	e0 91 73 06 	lds	r30, 0x0673
    4a6a:	f0 91 74 06 	lds	r31, 0x0674
    4a6e:	87 e8       	ldi	r24, 0x87	; 135
    4a70:	97 e0       	ldi	r25, 0x07	; 7
    4a72:	60 e2       	ldi	r22, 0x20	; 32
    4a74:	09 95       	icall

	if (!GetRegBit(spi_control.str_send_queue.state, INIT_COMPLETE))// 检查队列空间是否分配成功
    4a76:	80 91 87 07 	lds	r24, 0x0787
    4a7a:	87 fd       	sbrc	r24, 7
    4a7c:	05 c0       	rjmp	.+10     	; 0x4a88 <InitSpi+0x26>
	{
		SetRegMask(spi_control.state, ERR_MASK, ERR_NOTAVAIL);		// 置错误类型标志位
    4a7e:	80 91 86 07 	lds	r24, 0x0786
    4a82:	80 7c       	andi	r24, 0xC0	; 192
    4a84:	89 60       	ori	r24, 0x09	; 9
    4a86:	4e c0       	rjmp	.+156    	; 0x4b24 <InitSpi+0xc2>
		return;
	}

	SetSpiMode(SPI_MODE_MASTER);
    4a88:	81 e0       	ldi	r24, 0x01	; 1
    4a8a:	0e 94 20 24 	call	0x4840	; 0x4840 <SetSpiMode>
	SetSpiClockRate(SPI_PERSCALE_4);
    4a8e:	80 e0       	ldi	r24, 0x00	; 0
    4a90:	0e 94 0a 24 	call	0x4814	; 0x4814 <SetSpiClockRate>
** 修订日期:
**------------------------------------------------------------------------------------------------------------------------
*************************************************************************************************************************/
static void EnableSpiInterrupt(void)
{
	SetRegBit(SPI_SPCR, SPIE);
    4a94:	6f 9a       	sbi	0x0d, 7	; 13

	SetSpiMode(SPI_MODE_MASTER);
	SetSpiClockRate(SPI_PERSCALE_4);
	EnableSpiInterrupt();

	spi_control.send_device = 0x00;									// 设备类型编号
    4a96:	10 92 8f 07 	sts	0x078F, r1
	spi_control.send_length = 0x00;									// 缓冲队列长度
    4a9a:	10 92 90 07 	sts	0x0790, r1
	spi_control.send_state = SPI_SEND_STATE_WAITUPDATE;				// 状态
    4a9e:	82 e0       	ldi	r24, 0x02	; 2
    4aa0:	80 93 91 07 	sts	0x0791, r24

	spi_control.receive_state = SPI_RECEIVE_STATE_WAITRECEIVE;		// 接收状态
    4aa4:	10 92 92 07 	sts	0x0792, r1
	spi_control.receive_index = SPI_RECEIVE_CONTROL_WORD;			// 接收索引
    4aa8:	10 92 93 07 	sts	0x0793, r1
	spi_control.receive_length = 0x00;								// 接收数据长度
    4aac:	10 92 94 07 	sts	0x0794, r1
	spi_control.receive_device = 0x00;								// 接收数据来源
    4ab0:	10 92 95 07 	sts	0x0795, r1
	spi_control.receive_counter = 0x00;								// 接收计数器
    4ab4:	10 92 96 07 	sts	0x0796, r1

	spi_control.switch_asynchronous = FALSE;						// 异步状态切换状态解除
    4ab8:	10 92 97 07 	sts	0x0797, r1

	SetRegBit(SPI_SPCR, SPE);										// 使能SPI模块
    4abc:	6e 9a       	sbi	0x0d, 6	; 13

	spi_control.pEnableInterrupt = EnableSpiInterrupt;
    4abe:	86 e0       	ldi	r24, 0x06	; 6
    4ac0:	94 e2       	ldi	r25, 0x24	; 36
    4ac2:	90 93 9b 07 	sts	0x079B, r25
    4ac6:	80 93 9a 07 	sts	0x079A, r24
	spi_control.pDisableInterrupt = DisableSpiInterrupt;
    4aca:	88 e0       	ldi	r24, 0x08	; 8
    4acc:	94 e2       	ldi	r25, 0x24	; 36
    4ace:	90 93 9d 07 	sts	0x079D, r25
    4ad2:	80 93 9c 07 	sts	0x079C, r24
	spi_control.pSetClockRate = SetSpiClockRate;
    4ad6:	8a e0       	ldi	r24, 0x0A	; 10
    4ad8:	94 e2       	ldi	r25, 0x24	; 36
    4ada:	90 93 9f 07 	sts	0x079F, r25
    4ade:	80 93 9e 07 	sts	0x079E, r24
	spi_control.pSetClockMode = SetSpiClockMode;
    4ae2:	86 e1       	ldi	r24, 0x16	; 22
    4ae4:	94 e2       	ldi	r25, 0x24	; 36
    4ae6:	90 93 a1 07 	sts	0x07A1, r25
    4aea:	80 93 a0 07 	sts	0x07A0, r24
	spi_control.pSetMode = SetSpiMode;
    4aee:	80 e2       	ldi	r24, 0x20	; 32
    4af0:	94 e2       	ldi	r25, 0x24	; 36
    4af2:	90 93 a3 07 	sts	0x07A3, r25
    4af6:	80 93 a2 07 	sts	0x07A2, r24
	spi_control.pStartTransport = StartTransport;
    4afa:	86 e3       	ldi	r24, 0x36	; 54
    4afc:	94 e2       	ldi	r25, 0x24	; 36
    4afe:	90 93 a5 07 	sts	0x07A5, r25
    4b02:	80 93 a4 07 	sts	0x07A4, r24
	spi_control.pTransportByte = TransportByte;
    4b06:	8c e1       	ldi	r24, 0x1C	; 28
    4b08:	95 e2       	ldi	r25, 0x25	; 37
    4b0a:	90 93 a7 07 	sts	0x07A7, r25
    4b0e:	80 93 a6 07 	sts	0x07A6, r24
	spi_control.pWriteSendBuffer = WriteSpiSendBuffer;
    4b12:	88 e3       	ldi	r24, 0x38	; 56
    4b14:	94 e2       	ldi	r25, 0x24	; 36
    4b16:	90 93 a9 07 	sts	0x07A9, r25
    4b1a:	80 93 a8 07 	sts	0x07A8, r24

	SetRegBit(spi_control.state, INIT_COMPLETE);					// 置位初始化完成标志
    4b1e:	80 91 86 07 	lds	r24, 0x0786
    4b22:	80 68       	ori	r24, 0x80	; 128
    4b24:	80 93 86 07 	sts	0x0786, r24
    4b28:	08 95       	ret

00004b2a <SetTimer0Mode>:
	uint8 temp_wgm0 = 0, temp_wgm1 = 0;

	temp_wgm0 = (mode & 0x01) << TIMER8_WGM0_OFFSET;						// 取出bit0；移动到bit6
	temp_wgm1 = (mode & 0x02) << TIMER8_WGM1_OFFSET;						// 取出bit1，移动到bit3

	SetRegMask(TIMER0_TCCR, TIMER8_WGM_MASK, (temp_wgm0 | temp_wgm1));		// 设置模式寄存器低位
    4b2a:	23 b7       	in	r18, 0x33	; 51
    4b2c:	98 2f       	mov	r25, r24
    4b2e:	92 70       	andi	r25, 0x02	; 2
    4b30:	99 0f       	add	r25, r25
    4b32:	99 0f       	add	r25, r25
    4b34:	99 0f       	add	r25, r25
    4b36:	81 70       	andi	r24, 0x01	; 1
    4b38:	82 95       	swap	r24
    4b3a:	88 0f       	add	r24, r24
    4b3c:	88 0f       	add	r24, r24
    4b3e:	80 7c       	andi	r24, 0xC0	; 192
    4b40:	98 2b       	or	r25, r24
    4b42:	27 7b       	andi	r18, 0xB7	; 183
    4b44:	92 2b       	or	r25, r18
    4b46:	93 bf       	out	0x33, r25	; 51
}
    4b48:	08 95       	ret

00004b4a <SetTimer1Mode>:
	uint8 temp_wgm32 = 0, temp_wgm10 = 0;

	temp_wgm32 = (mode & 0x0C) << 1;										// 取出bit3，bit2；移动到bit4，bit3
	temp_wgm10 = (mode & TIMER16_WGM10_MASK);								// 取出bit1，bit0

	SetRegMask(TIMER1_TCCRA, TIMER16_WGM10_MASK, temp_wgm10);				// 设置模式寄存器低位
    4b4a:	9f b5       	in	r25, 0x2f	; 47
    4b4c:	28 2f       	mov	r18, r24
    4b4e:	23 70       	andi	r18, 0x03	; 3
    4b50:	9c 7f       	andi	r25, 0xFC	; 252
    4b52:	29 2b       	or	r18, r25
    4b54:	2f bd       	out	0x2f, r18	; 47
	SetRegMask(TIMER1_TCCRB, TIMER16_WGM32_MASK, temp_wgm32);				// 设置模式寄存器高位
    4b56:	9e b5       	in	r25, 0x2e	; 46
    4b58:	8c 70       	andi	r24, 0x0C	; 12
    4b5a:	88 0f       	add	r24, r24
    4b5c:	97 7e       	andi	r25, 0xE7	; 231
    4b5e:	98 2b       	or	r25, r24
    4b60:	9e bd       	out	0x2e, r25	; 46
}
    4b62:	08 95       	ret

00004b64 <SetTimer3Mode>:
	uint8 temp_wgm32 = 0, temp_wgm10 = 0;

	temp_wgm32 = (mode & 0x0C) << 1;										// 取出bit3，bit2；移动到bit4，bit3
	temp_wgm10 = (mode & TIMER16_WGM10_MASK);								// 取出bit1，bit0

	SetRegMask(TIMER3_TCCRA, TIMER16_WGM10_MASK, temp_wgm10);				// 设置模式寄存器低位
    4b64:	eb e8       	ldi	r30, 0x8B	; 139
    4b66:	f0 e0       	ldi	r31, 0x00	; 0
    4b68:	90 81       	ld	r25, Z
    4b6a:	28 2f       	mov	r18, r24
    4b6c:	23 70       	andi	r18, 0x03	; 3
    4b6e:	9c 7f       	andi	r25, 0xFC	; 252
    4b70:	29 2b       	or	r18, r25
    4b72:	20 83       	st	Z, r18
	SetRegMask(TIMER3_TCCRB, TIMER16_WGM32_MASK, temp_wgm32);				// 设置模式寄存器高位
    4b74:	ea e8       	ldi	r30, 0x8A	; 138
    4b76:	f0 e0       	ldi	r31, 0x00	; 0
    4b78:	90 81       	ld	r25, Z
    4b7a:	8c 70       	andi	r24, 0x0C	; 12
    4b7c:	88 0f       	add	r24, r24
    4b7e:	97 7e       	andi	r25, 0xE7	; 231
    4b80:	98 2b       	or	r25, r24
    4b82:	90 83       	st	Z, r25
}
    4b84:	08 95       	ret

00004b86 <SetTimer1Prescale>:
{
	uint8 temp_cs = 0;

	temp_cs = prescale & 0x07;												// 提取有效位

	SetRegMask(TIMER1_TCCRB, TIMER_CS_MASK, temp_cs);						// 设置分频控制寄存器
    4b86:	9e b5       	in	r25, 0x2e	; 46
    4b88:	87 70       	andi	r24, 0x07	; 7
    4b8a:	98 7f       	andi	r25, 0xF8	; 248
    4b8c:	89 2b       	or	r24, r25
    4b8e:	8e bd       	out	0x2e, r24	; 46
}
    4b90:	08 95       	ret

00004b92 <SetTimer3Prescale>:
{
	uint8 temp_cs = 0;

	temp_cs = prescale & 0x07;												// 提取有效位

	SetRegMask(TIMER3_TCCRB, TIMER_CS_MASK, temp_cs);						// 设置分频控制寄存器
    4b92:	ea e8       	ldi	r30, 0x8A	; 138
    4b94:	f0 e0       	ldi	r31, 0x00	; 0
    4b96:	90 81       	ld	r25, Z
    4b98:	87 70       	andi	r24, 0x07	; 7
    4b9a:	98 7f       	andi	r25, 0xF8	; 248
    4b9c:	89 2b       	or	r24, r25
    4b9e:	80 83       	st	Z, r24
}
    4ba0:	08 95       	ret

00004ba2 <SetTimer1CounterRegister>:
** 修订日期:
**------------------------------------------------------------------------------------------------------------------------
*************************************************************************************************************************/
static void SetTimer1CounterRegister(uint16 val)
{
	Out16(TIMER1_TCNT_L, TIMER1_TCNT_H, val);
    4ba2:	9d bd       	out	0x2d, r25	; 45
    4ba4:	8c bd       	out	0x2c, r24	; 44
}
    4ba6:	08 95       	ret

00004ba8 <SetTimer3CounterRegister>:
** 修订日期:
**------------------------------------------------------------------------------------------------------------------------
*************************************************************************************************************************/
static void SetTimer3CounterRegister(uint16 val)
{
	Out16(TIMER3_TCNT_L, TIMER3_TCNT_H, val);
    4ba8:	90 93 89 00 	sts	0x0089, r25
    4bac:	80 93 88 00 	sts	0x0088, r24
}
    4bb0:	08 95       	ret

00004bb2 <EnableTimer1Interrupt>:
** 修订人:
** 修订日期:
**------------------------------------------------------------------------------------------------------------------------
*************************************************************************************************************************/
static void EnableTimer1Interrupt(uint8 number)
{
    4bb2:	38 2f       	mov	r19, r24
	if (number < 0x08)
    4bb4:	88 30       	cpi	r24, 0x08	; 8
    4bb6:	58 f4       	brcc	.+22     	; 0x4bce <EnableTimer1Interrupt+0x1c>
	{
		SetRegBit(TIMER_TIMSK, number);
    4bb8:	27 b7       	in	r18, 0x37	; 55
    4bba:	81 e0       	ldi	r24, 0x01	; 1
    4bbc:	90 e0       	ldi	r25, 0x00	; 0
    4bbe:	02 c0       	rjmp	.+4      	; 0x4bc4 <EnableTimer1Interrupt+0x12>
    4bc0:	88 0f       	add	r24, r24
    4bc2:	99 1f       	adc	r25, r25
    4bc4:	3a 95       	dec	r19
    4bc6:	e2 f7       	brpl	.-8      	; 0x4bc0 <EnableTimer1Interrupt+0xe>
    4bc8:	28 2b       	or	r18, r24
    4bca:	27 bf       	out	0x37, r18	; 55
    4bcc:	08 95       	ret
	}
	else
	{
		SetRegBit(TIMER_ETIMSK, OCIE1C);
    4bce:	80 91 7d 00 	lds	r24, 0x007D
    4bd2:	81 60       	ori	r24, 0x01	; 1
    4bd4:	80 93 7d 00 	sts	0x007D, r24
    4bd8:	08 95       	ret

00004bda <EnableTimer3Interrupt>:
** 修订人:
** 修订日期:
**------------------------------------------------------------------------------------------------------------------------
*************************************************************************************************************************/
static void EnableTimer3Interrupt(uint8 number)
{
    4bda:	38 2f       	mov	r19, r24
	if (number < 0x08)
    4bdc:	88 30       	cpi	r24, 0x08	; 8
    4bde:	68 f4       	brcc	.+26     	; 0x4bfa <EnableTimer3Interrupt+0x20>
	{
		SetRegBit(TIMER_ETIMSK, number);
    4be0:	20 91 7d 00 	lds	r18, 0x007D
    4be4:	81 e0       	ldi	r24, 0x01	; 1
    4be6:	90 e0       	ldi	r25, 0x00	; 0
    4be8:	02 c0       	rjmp	.+4      	; 0x4bee <EnableTimer3Interrupt+0x14>
    4bea:	88 0f       	add	r24, r24
    4bec:	99 1f       	adc	r25, r25
    4bee:	3a 95       	dec	r19
    4bf0:	e2 f7       	brpl	.-8      	; 0x4bea <EnableTimer3Interrupt+0x10>
    4bf2:	28 2b       	or	r18, r24
    4bf4:	20 93 7d 00 	sts	0x007D, r18
    4bf8:	08 95       	ret
	}
	else
	{
		SetRegBit(TIMER_ETIMSK, OCIE3C);
    4bfa:	80 91 7d 00 	lds	r24, 0x007D
    4bfe:	82 60       	ori	r24, 0x02	; 2
    4c00:	80 93 7d 00 	sts	0x007D, r24
    4c04:	08 95       	ret

00004c06 <DisableTimer1Interrupt>:
** 修订人:
** 修订日期:
**------------------------------------------------------------------------------------------------------------------------
*************************************************************************************************************************/
static void DisableTimer1Interrupt(uint8 number)
{
    4c06:	38 2f       	mov	r19, r24
	if (number < 0x08)
    4c08:	88 30       	cpi	r24, 0x08	; 8
    4c0a:	60 f4       	brcc	.+24     	; 0x4c24 <DisableTimer1Interrupt+0x1e>
	{
		ClrRegBit(TIMER_TIMSK, number);
    4c0c:	27 b7       	in	r18, 0x37	; 55
    4c0e:	81 e0       	ldi	r24, 0x01	; 1
    4c10:	90 e0       	ldi	r25, 0x00	; 0
    4c12:	02 c0       	rjmp	.+4      	; 0x4c18 <DisableTimer1Interrupt+0x12>
    4c14:	88 0f       	add	r24, r24
    4c16:	99 1f       	adc	r25, r25
    4c18:	3a 95       	dec	r19
    4c1a:	e2 f7       	brpl	.-8      	; 0x4c14 <DisableTimer1Interrupt+0xe>
    4c1c:	80 95       	com	r24
    4c1e:	82 23       	and	r24, r18
    4c20:	87 bf       	out	0x37, r24	; 55
    4c22:	08 95       	ret
	}
	else
	{
		ClrRegBit(TIMER_ETIMSK, OCIE1C);
    4c24:	80 91 7d 00 	lds	r24, 0x007D
    4c28:	8e 7f       	andi	r24, 0xFE	; 254
    4c2a:	80 93 7d 00 	sts	0x007D, r24
    4c2e:	08 95       	ret

00004c30 <DisableTimer3Interrupt>:
** 修订人:
** 修订日期:
**------------------------------------------------------------------------------------------------------------------------
*************************************************************************************************************************/
static void DisableTimer3Interrupt(uint8 number)
{
    4c30:	38 2f       	mov	r19, r24
	if (number < 0x08)
    4c32:	88 30       	cpi	r24, 0x08	; 8
    4c34:	60 f4       	brcc	.+24     	; 0x4c4e <DisableTimer3Interrupt+0x1e>
	{
		ClrRegBit(TIMER_ETIMSK, number);
    4c36:	20 91 7d 00 	lds	r18, 0x007D
    4c3a:	81 e0       	ldi	r24, 0x01	; 1
    4c3c:	90 e0       	ldi	r25, 0x00	; 0
    4c3e:	02 c0       	rjmp	.+4      	; 0x4c44 <DisableTimer3Interrupt+0x14>
    4c40:	88 0f       	add	r24, r24
    4c42:	99 1f       	adc	r25, r25
    4c44:	3a 95       	dec	r19
    4c46:	e2 f7       	brpl	.-8      	; 0x4c40 <DisableTimer3Interrupt+0x10>
    4c48:	80 95       	com	r24
    4c4a:	82 23       	and	r24, r18
    4c4c:	03 c0       	rjmp	.+6      	; 0x4c54 <DisableTimer3Interrupt+0x24>
	}
	else
	{
		ClrRegBit(TIMER_ETIMSK, OCIE3C);
    4c4e:	80 91 7d 00 	lds	r24, 0x007D
    4c52:	8d 7f       	andi	r24, 0xFD	; 253
    4c54:	80 93 7d 00 	sts	0x007D, r24
    4c58:	08 95       	ret

00004c5a <SetTimer1CompareOutputAMode>:
** 修订日期:
**------------------------------------------------------------------------------------------------------------------------
*************************************************************************************************************************/
static void SetTimer1CompareOutputAMode(uint8 mode)
{
	mode = (mode & 0x03) << 6;
    4c5a:	82 95       	swap	r24
    4c5c:	88 0f       	add	r24, r24
    4c5e:	88 0f       	add	r24, r24
    4c60:	80 7c       	andi	r24, 0xC0	; 192
	SetRegMask(TIMER1_TCCRA, TIMER16_COMA_MASK, mode);
    4c62:	9f b5       	in	r25, 0x2f	; 47
    4c64:	9f 73       	andi	r25, 0x3F	; 63
    4c66:	98 2b       	or	r25, r24
    4c68:	9f bd       	out	0x2f, r25	; 47
}
    4c6a:	08 95       	ret

00004c6c <SetTimer3CompareOutputAMode>:
** 修订日期:
**------------------------------------------------------------------------------------------------------------------------
*************************************************************************************************************************/
static void SetTimer3CompareOutputAMode(uint8 mode)
{
	mode = (mode & 0x03) << 6;
    4c6c:	82 95       	swap	r24
    4c6e:	88 0f       	add	r24, r24
    4c70:	88 0f       	add	r24, r24
    4c72:	80 7c       	andi	r24, 0xC0	; 192
	SetRegMask(TIMER3_TCCRA, TIMER16_COMA_MASK, mode);
    4c74:	eb e8       	ldi	r30, 0x8B	; 139
    4c76:	f0 e0       	ldi	r31, 0x00	; 0
    4c78:	90 81       	ld	r25, Z
    4c7a:	9f 73       	andi	r25, 0x3F	; 63
    4c7c:	98 2b       	or	r25, r24
    4c7e:	90 83       	st	Z, r25
}
    4c80:	08 95       	ret

00004c82 <SetTimer1CompareOutputBMode>:
** 修订日期:
**------------------------------------------------------------------------------------------------------------------------
*************************************************************************************************************************/
static void SetTimer1CompareOutputBMode(uint8 mode)
{
	mode = (mode & 0x03) << 4;
    4c82:	83 70       	andi	r24, 0x03	; 3
	SetRegMask(TIMER1_TCCRA, TIMER16_COMB_MASK, mode);
    4c84:	9f b5       	in	r25, 0x2f	; 47
    4c86:	82 95       	swap	r24
    4c88:	80 7f       	andi	r24, 0xF0	; 240
    4c8a:	9f 7c       	andi	r25, 0xCF	; 207
    4c8c:	89 2b       	or	r24, r25
    4c8e:	8f bd       	out	0x2f, r24	; 47
}
    4c90:	08 95       	ret

00004c92 <SetTimer3CompareOutputBMode>:
** 修订日期:
**------------------------------------------------------------------------------------------------------------------------
*************************************************************************************************************************/
static void SetTimer3CompareOutputBMode(uint8 mode)
{
	mode = (mode & 0x03) << 4;
    4c92:	83 70       	andi	r24, 0x03	; 3
	SetRegMask(TIMER3_TCCRA, TIMER16_COMB_MASK, mode);
    4c94:	eb e8       	ldi	r30, 0x8B	; 139
    4c96:	f0 e0       	ldi	r31, 0x00	; 0
    4c98:	90 81       	ld	r25, Z
    4c9a:	82 95       	swap	r24
    4c9c:	80 7f       	andi	r24, 0xF0	; 240
    4c9e:	9f 7c       	andi	r25, 0xCF	; 207
    4ca0:	89 2b       	or	r24, r25
    4ca2:	80 83       	st	Z, r24
}
    4ca4:	08 95       	ret

00004ca6 <SetTimer1CompareRegisterA>:
** 修订日期:
**------------------------------------------------------------------------------------------------------------------------
*************************************************************************************************************************/
static void SetTimer1CompareRegisterA(uint16 val)
{
	Out16(TIMER1_OCRA_L, TIMER1_OCRA_H, val);
    4ca6:	9b bd       	out	0x2b, r25	; 43
    4ca8:	8a bd       	out	0x2a, r24	; 42
}
    4caa:	08 95       	ret

00004cac <SetTimer3CompareRegisterA>:
** 修订日期:
**------------------------------------------------------------------------------------------------------------------------
*************************************************************************************************************************/
static void SetTimer3CompareRegisterA(uint16 val)
{
	Out16(TIMER3_OCRA_L, TIMER3_OCRA_H, val);
    4cac:	90 93 87 00 	sts	0x0087, r25
    4cb0:	80 93 86 00 	sts	0x0086, r24
}
    4cb4:	08 95       	ret

00004cb6 <SetTimer1CompareRegisterB>:
** 修订日期:
**------------------------------------------------------------------------------------------------------------------------
*************************************************************************************************************************/
static void SetTimer1CompareRegisterB(uint16 val)
{
	Out16(TIMER1_OCRB_L, TIMER1_OCRB_H, val);
    4cb6:	99 bd       	out	0x29, r25	; 41
    4cb8:	88 bd       	out	0x28, r24	; 40
}
    4cba:	08 95       	ret

00004cbc <SetTimer3CompareRegisterB>:
** 修订日期:
**------------------------------------------------------------------------------------------------------------------------
*************************************************************************************************************************/
static void SetTimer3CompareRegisterB(uint16 val)
{
	Out16(TIMER3_OCRB_L, TIMER3_OCRB_H, val);
    4cbc:	90 93 85 00 	sts	0x0085, r25
    4cc0:	80 93 84 00 	sts	0x0084, r24
}
    4cc4:	08 95       	ret

00004cc6 <SetTimer1CaptureRegister>:
** 修订日期:
**------------------------------------------------------------------------------------------------------------------------
*************************************************************************************************************************/
static void SetTimer1CaptureRegister(uint16 val)
{
	Out16(TIMER1_ICR_L, TIMER1_ICR_H, val);
    4cc6:	97 bd       	out	0x27, r25	; 39
    4cc8:	86 bd       	out	0x26, r24	; 38
}
    4cca:	08 95       	ret

00004ccc <SetTimer3CaptureRegister>:
** 修订日期:
**------------------------------------------------------------------------------------------------------------------------
*************************************************************************************************************************/
static void SetTimer3CaptureRegister(uint16 val)
{
	Out16(TIMER3_ICR_L, TIMER3_ICR_H, val);
    4ccc:	90 93 81 00 	sts	0x0081, r25
    4cd0:	80 93 80 00 	sts	0x0080, r24
}
    4cd4:	08 95       	ret

00004cd6 <InitTimer1>:
** 修订日期:
**------------------------------------------------------------------------------------------------------------------------
*************************************************************************************************************************/
static void InitTimer1(void)
{
	SetReg(timer1_control.state , 0);
    4cd6:	10 92 d6 07 	sts	0x07D6, r1
** 修订日期:
**------------------------------------------------------------------------------------------------------------------------
*************************************************************************************************************************/
static void SetTimer1CaptureRegister(uint16 val)
{
	Out16(TIMER1_ICR_L, TIMER1_ICR_H, val);
    4cda:	80 e2       	ldi	r24, 0x20	; 32
    4cdc:	87 bd       	out	0x27, r24	; 39
    4cde:	8f ef       	ldi	r24, 0xFF	; 255
    4ce0:	86 bd       	out	0x26, r24	; 38
** 修订日期:
**------------------------------------------------------------------------------------------------------------------------
*************************************************************************************************************************/
static void SetTimer1CompareRegisterA(uint16 val)
{
	Out16(TIMER1_OCRA_L, TIMER1_OCRA_H, val);
    4ce2:	84 e0       	ldi	r24, 0x04	; 4
    4ce4:	8b bd       	out	0x2b, r24	; 43
    4ce6:	1a bc       	out	0x2a, r1	; 42
	SetReg(timer1_control.state , 0);

	SetTimer1CaptureRegister(0x20FF);
	SetTimer1CompareRegisterA(0x0400);

	SetTimer1Mode(TIMER16_MODE_NORMAL);									// 默认为标准模式
    4ce8:	80 e0       	ldi	r24, 0x00	; 0
    4cea:	0e 94 a5 25 	call	0x4b4a	; 0x4b4a <SetTimer1Mode>
{
	uint8 temp_cs = 0;

	temp_cs = prescale & 0x07;												// 提取有效位

	SetRegMask(TIMER1_TCCRB, TIMER_CS_MASK, temp_cs);						// 设置分频控制寄存器
    4cee:	8e b5       	in	r24, 0x2e	; 46
    4cf0:	88 7f       	andi	r24, 0xF8	; 248
    4cf2:	8e bd       	out	0x2e, r24	; 46

	SetTimer1Mode(TIMER16_MODE_NORMAL);									// 默认为标准模式

	SetTimer1Prescale(TIMER16_PRESCALE_STOP);							// 计数停止

	timer1_control.pSetCompareRegisterA = SetTimer1CompareRegisterA;
    4cf4:	83 e5       	ldi	r24, 0x53	; 83
    4cf6:	96 e2       	ldi	r25, 0x26	; 38
    4cf8:	90 93 dc 07 	sts	0x07DC, r25
    4cfc:	80 93 db 07 	sts	0x07DB, r24
	timer1_control.pSetCompareRegisterB = SetTimer1CompareRegisterB;
    4d00:	8b e5       	ldi	r24, 0x5B	; 91
    4d02:	96 e2       	ldi	r25, 0x26	; 38
    4d04:	90 93 de 07 	sts	0x07DE, r25
    4d08:	80 93 dd 07 	sts	0x07DD, r24
	timer1_control.pSetCaptureRegister = SetTimer1CaptureRegister;
    4d0c:	83 e6       	ldi	r24, 0x63	; 99
    4d0e:	96 e2       	ldi	r25, 0x26	; 38
    4d10:	90 93 e2 07 	sts	0x07E2, r25
    4d14:	80 93 e1 07 	sts	0x07E1, r24
	timer1_control.pSetMode = SetTimer1Mode;
    4d18:	85 ea       	ldi	r24, 0xA5	; 165
    4d1a:	95 e2       	ldi	r25, 0x25	; 37
    4d1c:	90 93 e4 07 	sts	0x07E4, r25
    4d20:	80 93 e3 07 	sts	0x07E3, r24
	timer1_control.pSetPrescaler = SetTimer1Prescale;
    4d24:	83 ec       	ldi	r24, 0xC3	; 195
    4d26:	95 e2       	ldi	r25, 0x25	; 37
    4d28:	90 93 e6 07 	sts	0x07E6, r25
    4d2c:	80 93 e5 07 	sts	0x07E5, r24
	timer1_control.pSetCounterRegister = SetTimer1CounterRegister;
    4d30:	81 ed       	ldi	r24, 0xD1	; 209
    4d32:	95 e2       	ldi	r25, 0x25	; 37
    4d34:	90 93 da 07 	sts	0x07DA, r25
    4d38:	80 93 d9 07 	sts	0x07D9, r24
	timer1_control.pSetCompareOutputAMode = SetTimer1CompareOutputAMode;
    4d3c:	8d e2       	ldi	r24, 0x2D	; 45
    4d3e:	96 e2       	ldi	r25, 0x26	; 38
    4d40:	90 93 e8 07 	sts	0x07E8, r25
    4d44:	80 93 e7 07 	sts	0x07E7, r24
	timer1_control.pSetCompareOutputBMode = SetTimer1CompareOutputBMode;
    4d48:	81 e4       	ldi	r24, 0x41	; 65
    4d4a:	96 e2       	ldi	r25, 0x26	; 38
    4d4c:	90 93 ea 07 	sts	0x07EA, r25
    4d50:	80 93 e9 07 	sts	0x07E9, r24
	timer1_control.pEnableInterrupt = EnableTimer1Interrupt;
    4d54:	89 ed       	ldi	r24, 0xD9	; 217
    4d56:	95 e2       	ldi	r25, 0x25	; 37
    4d58:	90 93 ee 07 	sts	0x07EE, r25
    4d5c:	80 93 ed 07 	sts	0x07ED, r24
	timer1_control.pDisableInterrupt = DisableTimer1Interrupt;
    4d60:	83 e0       	ldi	r24, 0x03	; 3
    4d62:	96 e2       	ldi	r25, 0x26	; 38
    4d64:	90 93 f0 07 	sts	0x07F0, r25
    4d68:	80 93 ef 07 	sts	0x07EF, r24

	SetRegBit(timer1_control.state , INIT_COMPLETE);
    4d6c:	80 91 d6 07 	lds	r24, 0x07D6
    4d70:	80 68       	ori	r24, 0x80	; 128
    4d72:	80 93 d6 07 	sts	0x07D6, r24
}
    4d76:	08 95       	ret

00004d78 <SetTimer0Prescale>:
{
	uint8 temp_cs = 0;

	temp_cs = prescale & 0x07;												// 提取有效位

	SetRegMask(TIMER0_TCCR, TIMER_CS_MASK, temp_cs);						// 设置分频控制寄存器
    4d78:	93 b7       	in	r25, 0x33	; 51
    4d7a:	87 70       	andi	r24, 0x07	; 7
    4d7c:	98 7f       	andi	r25, 0xF8	; 248
    4d7e:	89 2b       	or	r24, r25
    4d80:	83 bf       	out	0x33, r24	; 51
}
    4d82:	08 95       	ret

00004d84 <SetTimer0CounterRegister>:
** 修订日期:
**------------------------------------------------------------------------------------------------------------------------
*************************************************************************************************************************/
static void SetTimer0CounterRegister(uint8 val)
{
	SetReg(TIMER0_TCNT, val);
    4d84:	82 bf       	out	0x32, r24	; 50
}
    4d86:	08 95       	ret

00004d88 <EnableTimer0Interrupt>:
** 修订日期:
**------------------------------------------------------------------------------------------------------------------------
*************************************************************************************************************************/
static void EnableTimer0Interrupt(uint8 number)
{
	SetRegBit(TIMER_TIMSK, number);
    4d88:	97 b7       	in	r25, 0x37	; 55
    4d8a:	21 e0       	ldi	r18, 0x01	; 1
    4d8c:	30 e0       	ldi	r19, 0x00	; 0
    4d8e:	02 c0       	rjmp	.+4      	; 0x4d94 <EnableTimer0Interrupt+0xc>
    4d90:	22 0f       	add	r18, r18
    4d92:	33 1f       	adc	r19, r19
    4d94:	8a 95       	dec	r24
    4d96:	e2 f7       	brpl	.-8      	; 0x4d90 <EnableTimer0Interrupt+0x8>
    4d98:	92 2b       	or	r25, r18
    4d9a:	97 bf       	out	0x37, r25	; 55
}
    4d9c:	08 95       	ret

00004d9e <DisableTimer0Interrupt>:
** 修订日期:
**------------------------------------------------------------------------------------------------------------------------
*************************************************************************************************************************/
static void DisableTimer0Interrupt(uint8 number)
{
	ClrRegBit(TIMER_TIMSK, number);
    4d9e:	97 b7       	in	r25, 0x37	; 55
    4da0:	21 e0       	ldi	r18, 0x01	; 1
    4da2:	30 e0       	ldi	r19, 0x00	; 0
    4da4:	02 c0       	rjmp	.+4      	; 0x4daa <DisableTimer0Interrupt+0xc>
    4da6:	22 0f       	add	r18, r18
    4da8:	33 1f       	adc	r19, r19
    4daa:	8a 95       	dec	r24
    4dac:	e2 f7       	brpl	.-8      	; 0x4da6 <DisableTimer0Interrupt+0x8>
    4dae:	20 95       	com	r18
    4db0:	29 23       	and	r18, r25
    4db2:	27 bf       	out	0x37, r18	; 55
}
    4db4:	08 95       	ret

00004db6 <InitTimer0>:
** 修订日期:
**------------------------------------------------------------------------------------------------------------------------
*************************************************************************************************************************/
static void InitTimer0(void)
{
	SetReg(timer0_control.state , 0);
    4db6:	10 92 c5 07 	sts	0x07C5, r1
{
	uint8 temp_cs = 0;

	temp_cs = prescale & 0x07;												// 提取有效位

	SetRegMask(TIMER0_TCCR, TIMER_CS_MASK, temp_cs);						// 设置分频控制寄存器
    4dba:	83 b7       	in	r24, 0x33	; 51
    4dbc:	88 7f       	andi	r24, 0xF8	; 248
    4dbe:	83 bf       	out	0x33, r24	; 51
static void InitTimer0(void)
{
	SetReg(timer0_control.state , 0);

	SetTimer0Prescale(TIMER0_PRESCALE_STOP);
	SetTimer0Mode(TIMER8_MODE_NORMAL);
    4dc0:	80 e0       	ldi	r24, 0x00	; 0
    4dc2:	0e 94 95 25 	call	0x4b2a	; 0x4b2a <SetTimer0Mode>
** 修订日期:
**------------------------------------------------------------------------------------------------------------------------
*************************************************************************************************************************/
static void SetTimer0CounterRegister(uint8 val)
{
	SetReg(TIMER0_TCNT, val);
    4dc6:	83 e8       	ldi	r24, 0x83	; 131
    4dc8:	82 bf       	out	0x32, r24	; 50
{
	uint8 temp_cs = 0;

	temp_cs = prescale & 0x07;												// 提取有效位

	SetRegMask(TIMER0_TCCR, TIMER_CS_MASK, temp_cs);						// 设置分频控制寄存器
    4dca:	83 b7       	in	r24, 0x33	; 51
    4dcc:	88 7f       	andi	r24, 0xF8	; 248
    4dce:	86 60       	ori	r24, 0x06	; 6
    4dd0:	83 bf       	out	0x33, r24	; 51
** 修订日期:
**------------------------------------------------------------------------------------------------------------------------
*************************************************************************************************************************/
static void EnableTimer0Interrupt(uint8 number)
{
	SetRegBit(TIMER_TIMSK, number);
    4dd2:	87 b7       	in	r24, 0x37	; 55
    4dd4:	81 60       	ori	r24, 0x01	; 1
    4dd6:	87 bf       	out	0x37, r24	; 55
	SetTimer0CounterRegister(TIMER0_RELOAD_VAL);
	SetTimer0Prescale(TIMER0_PRESCALE_INIT);

	EnableTimer0Interrupt(TIMER8_IMR_OI);

	timer0_control.pSetMode = SetTimer0Mode;
    4dd8:	85 e9       	ldi	r24, 0x95	; 149
    4dda:	95 e2       	ldi	r25, 0x25	; 37
    4ddc:	90 93 cd 07 	sts	0x07CD, r25
    4de0:	80 93 cc 07 	sts	0x07CC, r24
	timer0_control.pSetPrescaler = SetTimer0Prescale;
    4de4:	8c eb       	ldi	r24, 0xBC	; 188
    4de6:	96 e2       	ldi	r25, 0x26	; 38
    4de8:	90 93 cf 07 	sts	0x07CF, r25
    4dec:	80 93 ce 07 	sts	0x07CE, r24
	timer0_control.pSetCounterRegister = SetTimer0CounterRegister;
    4df0:	82 ec       	ldi	r24, 0xC2	; 194
    4df2:	96 e2       	ldi	r25, 0x26	; 38
    4df4:	90 93 c9 07 	sts	0x07C9, r25
    4df8:	80 93 c8 07 	sts	0x07C8, r24
	timer0_control.pEnableInterrupt = EnableTimer0Interrupt;
    4dfc:	84 ec       	ldi	r24, 0xC4	; 196
    4dfe:	96 e2       	ldi	r25, 0x26	; 38
    4e00:	90 93 d3 07 	sts	0x07D3, r25
    4e04:	80 93 d2 07 	sts	0x07D2, r24
	timer0_control.pDisableInterrupt = DisableTimer0Interrupt;
    4e08:	8f ec       	ldi	r24, 0xCF	; 207
    4e0a:	96 e2       	ldi	r25, 0x26	; 38
    4e0c:	90 93 d5 07 	sts	0x07D5, r25
    4e10:	80 93 d4 07 	sts	0x07D4, r24

	SetRegBit(timer0_control.state , INIT_COMPLETE);
    4e14:	80 91 c5 07 	lds	r24, 0x07C5
    4e18:	80 68       	ori	r24, 0x80	; 128
    4e1a:	80 93 c5 07 	sts	0x07C5, r24
}
    4e1e:	08 95       	ret

00004e20 <InitTimer3>:
** 修订日期:            
**------------------------------------------------------------------------------------------------------------------------
*************************************************************************************************************************/
static void InitTimer3(void)
{
	SetReg(timer3_control.state , 0);	
    4e20:	10 92 aa 07 	sts	0x07AA, r1
** 修订日期:
**------------------------------------------------------------------------------------------------------------------------
*************************************************************************************************************************/
static void SetTimer1CaptureRegister(uint16 val)
{
	Out16(TIMER1_ICR_L, TIMER1_ICR_H, val);
    4e24:	8c e9       	ldi	r24, 0x9C	; 156
    4e26:	87 bd       	out	0x27, r24	; 39
    4e28:	90 e4       	ldi	r25, 0x40	; 64
    4e2a:	96 bd       	out	0x26, r25	; 38
** 修订日期:
**------------------------------------------------------------------------------------------------------------------------
*************************************************************************************************************************/
static void SetTimer1CompareRegisterA(uint16 val)
{
	Out16(TIMER1_OCRA_L, TIMER1_OCRA_H, val);
    4e2c:	8f e1       	ldi	r24, 0x1F	; 31
    4e2e:	8b bd       	out	0x2b, r24	; 43
    4e30:	9a bd       	out	0x2a, r25	; 42
	SetReg(timer3_control.state , 0);	

	SetTimer1CaptureRegister(TIMER3_TOP_VAL);
	SetTimer1CompareRegisterA(TIMER3_INIT_COM_VAL);

	SetTimer3Mode(TIMER16_MODE_NORMAL);									// 默认为标准模式
    4e32:	80 e0       	ldi	r24, 0x00	; 0
    4e34:	0e 94 b2 25 	call	0x4b64	; 0x4b64 <SetTimer3Mode>
{
	uint8 temp_cs = 0;

	temp_cs = prescale & 0x07;												// 提取有效位

	SetRegMask(TIMER3_TCCRB, TIMER_CS_MASK, temp_cs);						// 设置分频控制寄存器
    4e38:	ea e8       	ldi	r30, 0x8A	; 138
    4e3a:	f0 e0       	ldi	r31, 0x00	; 0
    4e3c:	80 81       	ld	r24, Z
    4e3e:	88 7f       	andi	r24, 0xF8	; 248
    4e40:	80 83       	st	Z, r24

	SetTimer3Mode(TIMER16_MODE_NORMAL);									// 默认为标准模式

	SetTimer3Prescale(TIMER16_PRESCALE_STOP);							// 计数停止

	timer3_control.pSetCompareRegisterA = SetTimer3CompareRegisterA;
    4e42:	86 e5       	ldi	r24, 0x56	; 86
    4e44:	96 e2       	ldi	r25, 0x26	; 38
    4e46:	90 93 b0 07 	sts	0x07B0, r25
    4e4a:	80 93 af 07 	sts	0x07AF, r24
	timer3_control.pSetCompareRegisterB = SetTimer3CompareRegisterB;
    4e4e:	8e e5       	ldi	r24, 0x5E	; 94
    4e50:	96 e2       	ldi	r25, 0x26	; 38
    4e52:	90 93 b2 07 	sts	0x07B2, r25
    4e56:	80 93 b1 07 	sts	0x07B1, r24
	timer3_control.pSetCaptureRegister = SetTimer3CaptureRegister;
    4e5a:	86 e6       	ldi	r24, 0x66	; 102
    4e5c:	96 e2       	ldi	r25, 0x26	; 38
    4e5e:	90 93 b6 07 	sts	0x07B6, r25
    4e62:	80 93 b5 07 	sts	0x07B5, r24
	timer3_control.pSetMode = SetTimer3Mode;
    4e66:	82 eb       	ldi	r24, 0xB2	; 178
    4e68:	95 e2       	ldi	r25, 0x25	; 37
    4e6a:	90 93 b8 07 	sts	0x07B8, r25
    4e6e:	80 93 b7 07 	sts	0x07B7, r24
	timer3_control.pSetPrescaler = SetTimer3Prescale;
    4e72:	89 ec       	ldi	r24, 0xC9	; 201
    4e74:	95 e2       	ldi	r25, 0x25	; 37
    4e76:	90 93 ba 07 	sts	0x07BA, r25
    4e7a:	80 93 b9 07 	sts	0x07B9, r24
	timer3_control.pSetCounterRegister = SetTimer3CounterRegister;
    4e7e:	84 ed       	ldi	r24, 0xD4	; 212
    4e80:	95 e2       	ldi	r25, 0x25	; 37
    4e82:	90 93 ae 07 	sts	0x07AE, r25
    4e86:	80 93 ad 07 	sts	0x07AD, r24
	timer3_control.pSetCompareOutputAMode = SetTimer3CompareOutputAMode;
    4e8a:	86 e3       	ldi	r24, 0x36	; 54
    4e8c:	96 e2       	ldi	r25, 0x26	; 38
    4e8e:	90 93 bc 07 	sts	0x07BC, r25
    4e92:	80 93 bb 07 	sts	0x07BB, r24
	timer3_control.pSetCompareOutputBMode = SetTimer3CompareOutputBMode;
    4e96:	89 e4       	ldi	r24, 0x49	; 73
    4e98:	96 e2       	ldi	r25, 0x26	; 38
    4e9a:	90 93 be 07 	sts	0x07BE, r25
    4e9e:	80 93 bd 07 	sts	0x07BD, r24
	timer3_control.pEnableInterrupt = EnableTimer3Interrupt;
    4ea2:	8d ee       	ldi	r24, 0xED	; 237
    4ea4:	95 e2       	ldi	r25, 0x25	; 37
    4ea6:	90 93 c2 07 	sts	0x07C2, r25
    4eaa:	80 93 c1 07 	sts	0x07C1, r24
	timer3_control.pDisableInterrupt = DisableTimer3Interrupt;
    4eae:	88 e1       	ldi	r24, 0x18	; 24
    4eb0:	96 e2       	ldi	r25, 0x26	; 38
    4eb2:	90 93 c4 07 	sts	0x07C4, r25
    4eb6:	80 93 c3 07 	sts	0x07C3, r24
{
	uint8 temp_cs = 0;

	temp_cs = prescale & 0x07;												// 提取有效位

	SetRegMask(TIMER3_TCCRB, TIMER_CS_MASK, temp_cs);						// 设置分频控制寄存器
    4eba:	80 81       	ld	r24, Z
    4ebc:	88 7f       	andi	r24, 0xF8	; 248
    4ebe:	81 60       	ori	r24, 0x01	; 1
    4ec0:	80 83       	st	Z, r24
	timer3_control.pEnableInterrupt = EnableTimer3Interrupt;
	timer3_control.pDisableInterrupt = DisableTimer3Interrupt;
	
	SetTimer3Prescale(TIMER16_PRESCALE_1);								// 1分配

	EnableTimer3Interrupt(TIMER16_IMR_OCIA);
    4ec2:	84 e0       	ldi	r24, 0x04	; 4
    4ec4:	0e 94 ed 25 	call	0x4bda	; 0x4bda <EnableTimer3Interrupt>
	EnableTimer3Interrupt(TIMER16_IMR_OI);								// 开中断
    4ec8:	82 e0       	ldi	r24, 0x02	; 2
    4eca:	0e 94 ed 25 	call	0x4bda	; 0x4bda <EnableTimer3Interrupt>

	SetRegBit(timer3_control.state , INIT_COMPLETE);
    4ece:	80 91 aa 07 	lds	r24, 0x07AA
    4ed2:	80 68       	ori	r24, 0x80	; 128
    4ed4:	80 93 aa 07 	sts	0x07AA, r24
	
}
    4ed8:	08 95       	ret

00004eda <SetUart0BaudRate>:
** 修订人:
** 修订日期:
**------------------------------------------------------------------------------------------------------------------------
*************************************************************************************************************************/
static void SetUart0BaudRate(uint8 mode, uint32 baud)
{
    4eda:	9a 01       	movw	r18, r20
    4edc:	ab 01       	movw	r20, r22
	if(UART_BAUDRATE_1X == mode)
    4ede:	88 23       	and	r24, r24
    4ee0:	49 f4       	brne	.+18     	; 0x4ef4 <SetUart0BaudRate+0x1a>
	{
		ClrRegBit(UART0_UCSRA, UART_U2X_BIT);
    4ee2:	59 98       	cbi	0x0b, 1	; 11
		Out16(UART0_UBRR_L, UART0_UBRR_H, CalcBaudRate1X(baud));					// 设定波特率
    4ee4:	94 e0       	ldi	r25, 0x04	; 4
    4ee6:	22 0f       	add	r18, r18
    4ee8:	33 1f       	adc	r19, r19
    4eea:	44 1f       	adc	r20, r20
    4eec:	55 1f       	adc	r21, r21
    4eee:	9a 95       	dec	r25
    4ef0:	d1 f7       	brne	.-12     	; 0x4ee6 <SetUart0BaudRate+0xc>
    4ef2:	08 c0       	rjmp	.+16     	; 0x4f04 <SetUart0BaudRate+0x2a>
	}
	else
	{
		SetRegBit(UART0_UCSRA, UART_U2X_BIT);
    4ef4:	59 9a       	sbi	0x0b, 1	; 11
		Out16(UART0_UBRR_L, UART0_UBRR_H, CalcBaudRate2X(baud));					// 设定波特率
    4ef6:	83 e0       	ldi	r24, 0x03	; 3
    4ef8:	22 0f       	add	r18, r18
    4efa:	33 1f       	adc	r19, r19
    4efc:	44 1f       	adc	r20, r20
    4efe:	55 1f       	adc	r21, r21
    4f00:	8a 95       	dec	r24
    4f02:	d1 f7       	brne	.-12     	; 0x4ef8 <SetUart0BaudRate+0x1e>
    4f04:	60 e0       	ldi	r22, 0x00	; 0
    4f06:	74 e2       	ldi	r23, 0x24	; 36
    4f08:	84 ef       	ldi	r24, 0xF4	; 244
    4f0a:	90 e0       	ldi	r25, 0x00	; 0
    4f0c:	0e 94 27 40 	call	0x804e	; 0x804e <__udivmodsi4>
    4f10:	c9 01       	movw	r24, r18
    4f12:	21 50       	subi	r18, 0x01	; 1
    4f14:	30 40       	sbci	r19, 0x00	; 0
    4f16:	30 93 90 00 	sts	0x0090, r19
    4f1a:	81 50       	subi	r24, 0x01	; 1
    4f1c:	89 b9       	out	0x09, r24	; 9
    4f1e:	08 95       	ret

00004f20 <SetUart1BaudRate>:
** 修订人:
** 修订日期:
**------------------------------------------------------------------------------------------------------------------------
*************************************************************************************************************************/
static void SetUart1BaudRate(uint8 mode, uint32 baud)
{
    4f20:	9a 01       	movw	r18, r20
    4f22:	ab 01       	movw	r20, r22
	if(UART_BAUDRATE_1X == mode)
    4f24:	88 23       	and	r24, r24
    4f26:	69 f4       	brne	.+26     	; 0x4f42 <SetUart1BaudRate+0x22>
	{
		ClrRegBit(UART1_UCSRA, UART_U2X_BIT);
    4f28:	80 91 9b 00 	lds	r24, 0x009B
    4f2c:	8d 7f       	andi	r24, 0xFD	; 253
    4f2e:	80 93 9b 00 	sts	0x009B, r24
		Out16(UART1_UBRR_L, UART1_UBRR_H, CalcBaudRate1X(baud));					// 设定波特率
    4f32:	74 e0       	ldi	r23, 0x04	; 4
    4f34:	22 0f       	add	r18, r18
    4f36:	33 1f       	adc	r19, r19
    4f38:	44 1f       	adc	r20, r20
    4f3a:	55 1f       	adc	r21, r21
    4f3c:	7a 95       	dec	r23
    4f3e:	d1 f7       	brne	.-12     	; 0x4f34 <SetUart1BaudRate+0x14>
    4f40:	0c c0       	rjmp	.+24     	; 0x4f5a <SetUart1BaudRate+0x3a>
	}
	else
	{
		SetRegBit(UART1_UCSRA, UART_U2X_BIT);
    4f42:	80 91 9b 00 	lds	r24, 0x009B
    4f46:	82 60       	ori	r24, 0x02	; 2
    4f48:	80 93 9b 00 	sts	0x009B, r24
		Out16(UART1_UBRR_L, UART1_UBRR_H, CalcBaudRate2X(baud));					// 设定波特率
    4f4c:	63 e0       	ldi	r22, 0x03	; 3
    4f4e:	22 0f       	add	r18, r18
    4f50:	33 1f       	adc	r19, r19
    4f52:	44 1f       	adc	r20, r20
    4f54:	55 1f       	adc	r21, r21
    4f56:	6a 95       	dec	r22
    4f58:	d1 f7       	brne	.-12     	; 0x4f4e <SetUart1BaudRate+0x2e>
    4f5a:	60 e0       	ldi	r22, 0x00	; 0
    4f5c:	74 e2       	ldi	r23, 0x24	; 36
    4f5e:	84 ef       	ldi	r24, 0xF4	; 244
    4f60:	90 e0       	ldi	r25, 0x00	; 0
    4f62:	0e 94 27 40 	call	0x804e	; 0x804e <__udivmodsi4>
    4f66:	c9 01       	movw	r24, r18
    4f68:	21 50       	subi	r18, 0x01	; 1
    4f6a:	30 40       	sbci	r19, 0x00	; 0
    4f6c:	30 93 98 00 	sts	0x0098, r19
    4f70:	81 50       	subi	r24, 0x01	; 1
    4f72:	80 93 99 00 	sts	0x0099, r24
    4f76:	08 95       	ret

00004f78 <SendUart0Byte>:
**------------------------------------------------------------------------------------------------------------------------
*************************************************************************************************************************/
static void SendUart0Byte(uint8 val)
{
	#if UART0_BSU_EN
		Uart0TxEn();
    4f78:	d9 98       	cbi	0x1b, 1	; 27
    4f7a:	d8 9a       	sbi	0x1b, 0	; 27
	
	#if UART0_ISR_MODE
		while (!GetRegBit(UART0_UCSRA, UDRE0));
		SetReg(UART0_UDR, val);
	#else
		SetRegBit(UCSR0A, TXC0);						// 清除UART0写完成标志
    4f7c:	5e 9a       	sbi	0x0b, 6	; 11

		while (!GetRegBit(UART0_UCSRA, UDRE0));
    4f7e:	5d 9b       	sbis	0x0b, 5	; 11
    4f80:	fe cf       	rjmp	.-4      	; 0x4f7e <SendUart0Byte+0x6>
		SetReg(UART0_UDR, val);
    4f82:	8c b9       	out	0x0c, r24	; 12

		while (!GetRegBit(UCSR0A, TXC0));				// 等待发送完成
    4f84:	5e 9b       	sbis	0x0b, 6	; 11
    4f86:	fe cf       	rjmp	.-4      	; 0x4f84 <SendUart0Byte+0xc>

		Uart0RxEn();
    4f88:	d8 98       	cbi	0x1b, 0	; 27
    4f8a:	d9 9a       	sbi	0x1b, 1	; 27
	#endif


}
    4f8c:	08 95       	ret

00004f8e <SendUart1Byte>:
** 修订人:
** 修订日期:
**------------------------------------------------------------------------------------------------------------------------
*************************************************************************************************************************/
static void SendUart1Byte(uint8 val)
{
    4f8e:	1f 93       	push	r17
    4f90:	18 2f       	mov	r17, r24
	if(buffer_queue_control.pTestEmpty(&uart1_control.str_tx_buffer))
    4f92:	e0 91 75 06 	lds	r30, 0x0675
    4f96:	f0 91 76 06 	lds	r31, 0x0676
    4f9a:	8b e1       	ldi	r24, 0x1B	; 27
    4f9c:	98 e0       	ldi	r25, 0x08	; 8
    4f9e:	09 95       	icall
    4fa0:	88 23       	and	r24, r24
    4fa2:	71 f0       	breq	.+28     	; 0x4fc0 <SendUart1Byte+0x32>
	{
		buffer_queue_control.pAdd(&uart1_control.str_tx_buffer, val);
    4fa4:	e0 91 77 06 	lds	r30, 0x0677
    4fa8:	f0 91 78 06 	lds	r31, 0x0678
    4fac:	8b e1       	ldi	r24, 0x1B	; 27
    4fae:	98 e0       	ldi	r25, 0x08	; 8
    4fb0:	61 2f       	mov	r22, r17
    4fb2:	09 95       	icall
		SeiUart1Tx();
    4fb4:	80 91 9a 00 	lds	r24, 0x009A
    4fb8:	80 62       	ori	r24, 0x20	; 32
    4fba:	80 93 9a 00 	sts	0x009A, r24
    4fbe:	08 c0       	rjmp	.+16     	; 0x4fd0 <SendUart1Byte+0x42>
	}
	else
	{	
		buffer_queue_control.pAdd(&uart1_control.str_tx_buffer, val);
    4fc0:	e0 91 77 06 	lds	r30, 0x0677
    4fc4:	f0 91 78 06 	lds	r31, 0x0678
    4fc8:	8b e1       	ldi	r24, 0x1B	; 27
    4fca:	98 e0       	ldi	r25, 0x08	; 8
    4fcc:	61 2f       	mov	r22, r17
    4fce:	09 95       	icall
	}
}
    4fd0:	1f 91       	pop	r17
    4fd2:	08 95       	ret

00004fd4 <WriteUart0TxBuffer>:
** 修订人:
** 修订日期:
**------------------------------------------------------------------------------------------------------------------------
*************************************************************************************************************************/
static void WriteUart0TxBuffer(uint8 val)
{
    4fd4:	68 2f       	mov	r22, r24
	buffer_queue_control.pAdd(&uart0_control.str_tx_buffer, val);
    4fd6:	e0 91 77 06 	lds	r30, 0x0677
    4fda:	f0 91 78 06 	lds	r31, 0x0678
    4fde:	8a ef       	ldi	r24, 0xFA	; 250
    4fe0:	97 e0       	ldi	r25, 0x07	; 7
    4fe2:	09 95       	icall
}
    4fe4:	08 95       	ret

00004fe6 <WriteUart1TxBuffer>:
** 修订人:
** 修订日期:
**------------------------------------------------------------------------------------------------------------------------
*************************************************************************************************************************/
static void WriteUart1TxBuffer(uint8 val)
{
    4fe6:	68 2f       	mov	r22, r24
	buffer_queue_control.pAdd(&uart1_control.str_tx_buffer, val);
    4fe8:	e0 91 77 06 	lds	r30, 0x0677
    4fec:	f0 91 78 06 	lds	r31, 0x0678
    4ff0:	8b e1       	ldi	r24, 0x1B	; 27
    4ff2:	98 e0       	ldi	r25, 0x08	; 8
    4ff4:	09 95       	icall
}
    4ff6:	08 95       	ret

00004ff8 <SendUart0TxBuffer>:
** 修订人:
** 修订日期:
**------------------------------------------------------------------------------------------------------------------------
*************************************************************************************************************************/
static void SendUart0TxBuffer(void)
{
    4ff8:	0f 93       	push	r16
    4ffa:	1f 93       	push	r17
    4ffc:	df 93       	push	r29
    4ffe:	cf 93       	push	r28
    5000:	0f 92       	push	r0
    5002:	cd b7       	in	r28, 0x3d	; 61
    5004:	de b7       	in	r29, 0x3e	; 62
	#if !UART0_ISR_MODE
		uint8 temp_val = 0;
    5006:	19 82       	std	Y+1, r1	; 0x01
	#endif

	
	#if UART0_BSU_EN
		Uart0TxEn();
    5008:	d9 98       	cbi	0x1b, 1	; 27
    500a:	d8 9a       	sbi	0x1b, 0	; 27
	#if UART0_ISR_MODE
		SeiUart0Tx();
	#else
		// 非中断方式，关全局中断很重要，否则总线方向可能提前被切换为接收

		while(buffer_queue_control.pOut(&uart0_control.str_tx_buffer, &temp_val))
    500c:	8e 01       	movw	r16, r28
    500e:	0f 5f       	subi	r16, 0xFF	; 255
    5010:	1f 4f       	sbci	r17, 0xFF	; 255
    5012:	05 c0       	rjmp	.+10     	; 0x501e <SendUart0TxBuffer+0x26>
		{
			while (!GetRegBit(UART0_UCSRA, UDRE0));
    5014:	5d 9b       	sbis	0x0b, 5	; 11
    5016:	fe cf       	rjmp	.-4      	; 0x5014 <SendUart0TxBuffer+0x1c>
			SetRegBit(UCSR0A, TXC0);						// 清除UART0写完成标志
    5018:	5e 9a       	sbi	0x0b, 6	; 11
			SetReg(UART0_UDR, temp_val);
    501a:	89 81       	ldd	r24, Y+1	; 0x01
    501c:	8c b9       	out	0x0c, r24	; 12
	#if UART0_ISR_MODE
		SeiUart0Tx();
	#else
		// 非中断方式，关全局中断很重要，否则总线方向可能提前被切换为接收

		while(buffer_queue_control.pOut(&uart0_control.str_tx_buffer, &temp_val))
    501e:	e0 91 79 06 	lds	r30, 0x0679
    5022:	f0 91 7a 06 	lds	r31, 0x067A
    5026:	8a ef       	ldi	r24, 0xFA	; 250
    5028:	97 e0       	ldi	r25, 0x07	; 7
    502a:	b8 01       	movw	r22, r16
    502c:	09 95       	icall
    502e:	88 23       	and	r24, r24
    5030:	89 f7       	brne	.-30     	; 0x5014 <SendUart0TxBuffer+0x1c>
			while (!GetRegBit(UART0_UCSRA, UDRE0));
			SetRegBit(UCSR0A, TXC0);						// 清除UART0写完成标志
			SetReg(UART0_UDR, temp_val);
		}

		while (!GetRegBit(UCSR0A, TXC0));				// 等待发送完成
    5032:	5e 9b       	sbis	0x0b, 6	; 11
    5034:	fe cf       	rjmp	.-4      	; 0x5032 <SendUart0TxBuffer+0x3a>

		Uart0RxEn();
    5036:	d8 98       	cbi	0x1b, 0	; 27
    5038:	d9 9a       	sbi	0x1b, 1	; 27

	#endif

}
    503a:	0f 90       	pop	r0
    503c:	cf 91       	pop	r28
    503e:	df 91       	pop	r29
    5040:	1f 91       	pop	r17
    5042:	0f 91       	pop	r16
    5044:	08 95       	ret

00005046 <SendUart1TxBuffer>:
** 修订日期:
**------------------------------------------------------------------------------------------------------------------------
*************************************************************************************************************************/
static void SendUart1TxBuffer(void)
{
	SeiUart1Tx();
    5046:	ea e9       	ldi	r30, 0x9A	; 154
    5048:	f0 e0       	ldi	r31, 0x00	; 0
    504a:	80 81       	ld	r24, Z
    504c:	80 62       	ori	r24, 0x20	; 32
    504e:	80 83       	st	Z, r24
}
    5050:	08 95       	ret

00005052 <ClearUart1ReceiveBuffer>:
** 修订日期:
**------------------------------------------------------------------------------------------------------------------------
*************************************************************************************************************************/
static void ClearUart1ReceiveBuffer(void)
{
	buffer_queue_control.pClear(&uart1_control.str_rx_buffer);
    5052:	e0 91 7f 06 	lds	r30, 0x067F
    5056:	f0 91 80 06 	lds	r31, 0x0680
    505a:	83 e1       	ldi	r24, 0x13	; 19
    505c:	98 e0       	ldi	r25, 0x08	; 8
    505e:	09 95       	icall
}
    5060:	08 95       	ret

00005062 <ClearUart0ReceiveBuffer>:
** 修订日期:
**------------------------------------------------------------------------------------------------------------------------
*************************************************************************************************************************/
static void ClearUart0ReceiveBuffer(void)
{
	buffer_queue_control.pClear(&uart0_control.str_rx_buffer);
    5062:	e0 91 7f 06 	lds	r30, 0x067F
    5066:	f0 91 80 06 	lds	r31, 0x0680
    506a:	82 ef       	ldi	r24, 0xF2	; 242
    506c:	97 e0       	ldi	r25, 0x07	; 7
    506e:	09 95       	icall
}
    5070:	08 95       	ret

00005072 <ReceiveUart0Byte>:
** 修订人:
** 修订日期:
**------------------------------------------------------------------------------------------------------------------------
*************************************************************************************************************************/
static uint8 ReceiveUart0Byte(uint8 *val)
{
    5072:	bc 01       	movw	r22, r24
	if(buffer_queue_control.pOut(&uart0_control.str_rx_buffer, val))
    5074:	e0 91 79 06 	lds	r30, 0x0679
    5078:	f0 91 7a 06 	lds	r31, 0x067A
    507c:	82 ef       	ldi	r24, 0xF2	; 242
    507e:	97 e0       	ldi	r25, 0x07	; 7
    5080:	09 95       	icall
    5082:	81 11       	cpse	r24, r1
    5084:	81 e0       	ldi	r24, 0x01	; 1
	}
	else
	{
		return FALSE;
	}
}
    5086:	08 95       	ret

00005088 <ReceiveUart1Byte>:
** 修订人:
** 修订日期:
**------------------------------------------------------------------------------------------------------------------------
*************************************************************************************************************************/
static uint8 ReceiveUart1Byte(uint8 *val)
{
    5088:	bc 01       	movw	r22, r24
	if(buffer_queue_control.pOut(&uart1_control.str_rx_buffer, val))
    508a:	e0 91 79 06 	lds	r30, 0x0679
    508e:	f0 91 7a 06 	lds	r31, 0x067A
    5092:	83 e1       	ldi	r24, 0x13	; 19
    5094:	98 e0       	ldi	r25, 0x08	; 8
    5096:	09 95       	icall
    5098:	81 11       	cpse	r24, r1
    509a:	81 e0       	ldi	r24, 0x01	; 1
	}
	else
	{
		return FALSE;
	}
}
    509c:	08 95       	ret

0000509e <TestUart0ReceiveBuffer>:
** 修订日期:
**------------------------------------------------------------------------------------------------------------------------
*************************************************************************************************************************/
static uint8 TestUart0ReceiveBuffer(void)
{
	if(buffer_queue_control.pTestEmpty(&uart0_control.str_rx_buffer))
    509e:	e0 91 75 06 	lds	r30, 0x0675
    50a2:	f0 91 76 06 	lds	r31, 0x0676
    50a6:	82 ef       	ldi	r24, 0xF2	; 242
    50a8:	97 e0       	ldi	r25, 0x07	; 7
    50aa:	09 95       	icall
    50ac:	90 e0       	ldi	r25, 0x00	; 0
    50ae:	88 23       	and	r24, r24
    50b0:	09 f4       	brne	.+2      	; 0x50b4 <TestUart0ReceiveBuffer+0x16>
    50b2:	91 e0       	ldi	r25, 0x01	; 1
	}
	else
	{
		return TRUE;
	}
}
    50b4:	89 2f       	mov	r24, r25
    50b6:	08 95       	ret

000050b8 <TestUart1ReceiveBuffer>:
** 修订日期:
**------------------------------------------------------------------------------------------------------------------------
*************************************************************************************************************************/
static uint8 TestUart1ReceiveBuffer(void)
{
	if(buffer_queue_control.pTestEmpty(&uart1_control.str_rx_buffer))
    50b8:	e0 91 75 06 	lds	r30, 0x0675
    50bc:	f0 91 76 06 	lds	r31, 0x0676
    50c0:	83 e1       	ldi	r24, 0x13	; 19
    50c2:	98 e0       	ldi	r25, 0x08	; 8
    50c4:	09 95       	icall
    50c6:	90 e0       	ldi	r25, 0x00	; 0
    50c8:	88 23       	and	r24, r24
    50ca:	09 f4       	brne	.+2      	; 0x50ce <TestUart1ReceiveBuffer+0x16>
    50cc:	91 e0       	ldi	r25, 0x01	; 1
	}
	else
	{
		return TRUE;
	}
}
    50ce:	89 2f       	mov	r24, r25
    50d0:	08 95       	ret

000050d2 <InitUart0>:
** 修订日期:
**------------------------------------------------------------------------------------------------------------------------
*************************************************************************************************************************/
static void InitUart0(void)
{
	SetReg(uart0_control.state , 0);
    50d2:	10 92 f1 07 	sts	0x07F1, r1
	
	buffer_queue_control.pInit(&uart0_control.str_rx_buffer, 64);						// 初始化缓冲区
    50d6:	e0 91 73 06 	lds	r30, 0x0673
    50da:	f0 91 74 06 	lds	r31, 0x0674
    50de:	82 ef       	ldi	r24, 0xF2	; 242
    50e0:	97 e0       	ldi	r25, 0x07	; 7
    50e2:	60 e4       	ldi	r22, 0x40	; 64
    50e4:	09 95       	icall
	buffer_queue_control.pInit(&uart0_control.str_tx_buffer, 192);
    50e6:	e0 91 73 06 	lds	r30, 0x0673
    50ea:	f0 91 74 06 	lds	r31, 0x0674
    50ee:	8a ef       	ldi	r24, 0xFA	; 250
    50f0:	97 e0       	ldi	r25, 0x07	; 7
    50f2:	60 ec       	ldi	r22, 0xC0	; 192
    50f4:	09 95       	icall
	
	if (!GetRegBit(uart0_control.str_rx_buffer.state, INIT_COMPLETE)
    50f6:	80 91 f2 07 	lds	r24, 0x07F2
    50fa:	87 fd       	sbrc	r24, 7
    50fc:	05 c0       	rjmp	.+10     	; 0x5108 <InitUart0+0x36>
		|| !GetRegBit(uart0_control.str_rx_buffer.state, INIT_COMPLETE))				// 检查队列空间是否分配成功
	{
		SetRegMask(uart0_control.state, ERR_MASK, ERR_NOTAVAIL);						// 置错误类型标志位
    50fe:	80 91 f1 07 	lds	r24, 0x07F1
    5102:	80 7c       	andi	r24, 0xC0	; 192
    5104:	89 60       	ori	r24, 0x09	; 9
    5106:	4c c0       	rjmp	.+152    	; 0x51a0 <InitUart0+0xce>
		return;
	}

	ClrRegBit(UART0_DDR, UART0_RX_DDR_BIT);
    5108:	10 98       	cbi	0x02, 0	; 2
	ClrRegBit(UART0_DDR, UART0_TX_DDR_BIT);
    510a:	11 98       	cbi	0x02, 1	; 2
	
	ClrRegBit(UART0_PORT, UART0_RX_PORT_BIT);
    510c:	18 98       	cbi	0x03, 0	; 3
	ClrRegBit(UART0_PORT, UART0_TX_PORT_BIT);
    510e:	19 98       	cbi	0x03, 1	; 3
	
	#if UART0_BSU_EN
		InitUart0En();
    5110:	d1 9a       	sbi	0x1a, 1	; 26
    5112:	d0 9a       	sbi	0x1a, 0	; 26
    5114:	d9 9a       	sbi	0x1b, 1	; 27
    5116:	d8 98       	cbi	0x1b, 0	; 27
	#endif
	
	
	Out16(UART0_UBRR_L, UART0_UBRR_H, CalcBaudRate2X(UART0_BAUDRATE));      				// 设定波特率
    5118:	10 92 90 00 	sts	0x0090, r1
    511c:	81 e0       	ldi	r24, 0x01	; 1
    511e:	89 b9       	out	0x09, r24	; 9
	SetRegBit(UART0_UCSRA, U2X0);
    5120:	59 9a       	sbi	0x0b, 1	; 11

	ClrRegBit(UART0_UCSRA, MPCM0);															// 普通模式
    5122:	58 98       	cbi	0x0b, 0	; 11
	
	SetRegBit(UART0_UCSRB, RXEN0);
    5124:	54 9a       	sbi	0x0a, 4	; 10
	SetRegBit(UART0_UCSRB, TXEN0);															// 接收器与发送器使能
    5126:	53 9a       	sbi	0x0a, 3	; 10
							
	ClrRegBit(UART0_UCSRB, UCSZ02);	
    5128:	52 98       	cbi	0x0a, 2	; 10
																							// 设置帧格式: 8 个数据位,无奇偶效验位,1个停止位
	SetRegBit(UART0_UCSRC, UCSZ01);
    512a:	80 91 95 00 	lds	r24, 0x0095
    512e:	84 60       	ori	r24, 0x04	; 4
    5130:	80 93 95 00 	sts	0x0095, r24
	SetRegBit(UART0_UCSRC, UCSZ00);
    5134:	80 91 95 00 	lds	r24, 0x0095
    5138:	82 60       	ori	r24, 0x02	; 2
    513a:	80 93 95 00 	sts	0x0095, r24
	
	ClrRegBit(UART0_UCSRB, RXCIE0);															// 接收与发送中断禁止
    513e:	57 98       	cbi	0x0a, 7	; 10
	ClrRegBit(UART0_UCSRB, UDRE0);
    5140:	55 98       	cbi	0x0a, 5	; 10

		SetRegBit(UART0_UCSRB, TXCIE0);														// 开发送完成中断

	#else
	
		ClrRegBit(UART0_UCSRB, TXCIE0);
    5142:	56 98       	cbi	0x0a, 6	; 10
	
	#endif
				
	uart0_control.pSetBaudRate = SetUart0BaudRate;											// 初始化波特率设置函数
    5144:	8d e6       	ldi	r24, 0x6D	; 109
    5146:	97 e2       	ldi	r25, 0x27	; 39
    5148:	90 93 05 08 	sts	0x0805, r25
    514c:	80 93 04 08 	sts	0x0804, r24
	uart0_control.pSendByte = SendUart0Byte;												// 初始化发送函数
    5150:	8c eb       	ldi	r24, 0xBC	; 188
    5152:	97 e2       	ldi	r25, 0x27	; 39
    5154:	90 93 07 08 	sts	0x0807, r25
    5158:	80 93 06 08 	sts	0x0806, r24
	uart0_control.pReceiveByte = ReceiveUart0Byte;											// 初始化接收函数
    515c:	89 e3       	ldi	r24, 0x39	; 57
    515e:	98 e2       	ldi	r25, 0x28	; 40
    5160:	90 93 09 08 	sts	0x0809, r25
    5164:	80 93 08 08 	sts	0x0808, r24
	uart0_control.pWriteTxBuffer = WriteUart0TxBuffer;										// 初始化入缓冲队列函数
    5168:	8a ee       	ldi	r24, 0xEA	; 234
    516a:	97 e2       	ldi	r25, 0x27	; 39
    516c:	90 93 0b 08 	sts	0x080B, r25
    5170:	80 93 0a 08 	sts	0x080A, r24
	uart0_control.pSendTxBuffer = SendUart0TxBuffer;										// 初始化发送缓冲队列函数
    5174:	8c ef       	ldi	r24, 0xFC	; 252
    5176:	97 e2       	ldi	r25, 0x27	; 39
    5178:	90 93 0d 08 	sts	0x080D, r25
    517c:	80 93 0c 08 	sts	0x080C, r24
	uart0_control.pTestReceiveBuffer = TestUart0ReceiveBuffer;								// 初始化测试接收缓冲函数
    5180:	8f e4       	ldi	r24, 0x4F	; 79
    5182:	98 e2       	ldi	r25, 0x28	; 40
    5184:	90 93 0f 08 	sts	0x080F, r25
    5188:	80 93 0e 08 	sts	0x080E, r24
	uart0_control.pClearReceiveBuffer = ClearUart0ReceiveBuffer;
    518c:	81 e3       	ldi	r24, 0x31	; 49
    518e:	98 e2       	ldi	r25, 0x28	; 40
    5190:	90 93 11 08 	sts	0x0811, r25
    5194:	80 93 10 08 	sts	0x0810, r24

	SeiUart0Rx();
    5198:	57 9a       	sbi	0x0a, 7	; 10
	
	SetRegBit(uart0_control.state, INIT_COMPLETE);											// 置位初始化完成标志
    519a:	80 91 f1 07 	lds	r24, 0x07F1
    519e:	80 68       	ori	r24, 0x80	; 128
    51a0:	80 93 f1 07 	sts	0x07F1, r24
    51a4:	08 95       	ret

000051a6 <InitUart1>:
** 修订日期:
**------------------------------------------------------------------------------------------------------------------------
*************************************************************************************************************************/
static void InitUart1(void)
{
	SetReg(uart1_control.state , 0);
    51a6:	10 92 12 08 	sts	0x0812, r1
	
	buffer_queue_control.pInit(&uart1_control.str_rx_buffer, 255);							// 初始化缓冲区
    51aa:	e0 91 73 06 	lds	r30, 0x0673
    51ae:	f0 91 74 06 	lds	r31, 0x0674
    51b2:	83 e1       	ldi	r24, 0x13	; 19
    51b4:	98 e0       	ldi	r25, 0x08	; 8
    51b6:	6f ef       	ldi	r22, 0xFF	; 255
    51b8:	09 95       	icall
	buffer_queue_control.pInit(&uart1_control.str_tx_buffer, 128);
    51ba:	e0 91 73 06 	lds	r30, 0x0673
    51be:	f0 91 74 06 	lds	r31, 0x0674
    51c2:	8b e1       	ldi	r24, 0x1B	; 27
    51c4:	98 e0       	ldi	r25, 0x08	; 8
    51c6:	60 e8       	ldi	r22, 0x80	; 128
    51c8:	09 95       	icall
	 
	if (!GetRegBit(uart1_control.str_rx_buffer.state, INIT_COMPLETE)
    51ca:	80 91 13 08 	lds	r24, 0x0813
    51ce:	87 fd       	sbrc	r24, 7
    51d0:	05 c0       	rjmp	.+10     	; 0x51dc <InitUart1+0x36>
		|| !GetRegBit(uart1_control.str_rx_buffer.state, INIT_COMPLETE))					// 检查队列空间是否分配成功
	{
		SetRegMask(uart1_control.state, ERR_MASK, ERR_NOTAVAIL);							// 置错误类型标志位
    51d2:	80 91 12 08 	lds	r24, 0x0812
    51d6:	80 7c       	andi	r24, 0xC0	; 192
    51d8:	89 60       	ori	r24, 0x09	; 9
    51da:	6d c0       	rjmp	.+218    	; 0x52b6 <InitUart1+0x110>
		return;
	}

	ClrRegBit(UART1_DDR, UART1_RX_DDR_BIT);
    51dc:	8a 98       	cbi	0x11, 2	; 17
	ClrRegBit(UART1_DDR, UART1_TX_DDR_BIT);
    51de:	8b 98       	cbi	0x11, 3	; 17
	
	ClrRegBit(UART1_PORT, UART1_RX_PORT_BIT);
    51e0:	92 98       	cbi	0x12, 2	; 18
	ClrRegBit(UART1_PORT, UART1_TX_PORT_BIT);
    51e2:	93 98       	cbi	0x12, 3	; 18

	Out16(UART1_UBRR_L, UART1_UBRR_H, CalcBaudRate2X(UART1_BAUDRATE));      				// 设定波特率
    51e4:	10 92 98 00 	sts	0x0098, r1
    51e8:	80 e1       	ldi	r24, 0x10	; 16
    51ea:	80 93 99 00 	sts	0x0099, r24
			
	SetRegBit(UART1_UCSRA, U2X1);
    51ee:	80 91 9b 00 	lds	r24, 0x009B
    51f2:	82 60       	ori	r24, 0x02	; 2
    51f4:	80 93 9b 00 	sts	0x009B, r24
	ClrRegBit(UART1_UCSRA, MPCM1);								     						// 2X模式
    51f8:	80 91 9b 00 	lds	r24, 0x009B
    51fc:	8e 7f       	andi	r24, 0xFE	; 254
    51fe:	80 93 9b 00 	sts	0x009B, r24
	
	SetRegBit(UART1_UCSRB, RXEN1);
    5202:	80 91 9a 00 	lds	r24, 0x009A
    5206:	80 61       	ori	r24, 0x10	; 16
    5208:	80 93 9a 00 	sts	0x009A, r24
	SetRegBit(UART1_UCSRB, TXEN1);								     						// 接收器与发送器使能
    520c:	80 91 9a 00 	lds	r24, 0x009A
    5210:	88 60       	ori	r24, 0x08	; 8
    5212:	80 93 9a 00 	sts	0x009A, r24
	
	ClrRegBit(UART1_UCSRB, UCSZ12);								     						// 设置帧格式: 8 个数据位,无奇偶效验位,1个停止位
    5216:	80 91 9a 00 	lds	r24, 0x009A
    521a:	8b 7f       	andi	r24, 0xFB	; 251
    521c:	80 93 9a 00 	sts	0x009A, r24
	SetRegBit(UART1_UCSRC, UCSZ11);
    5220:	80 91 9d 00 	lds	r24, 0x009D
    5224:	84 60       	ori	r24, 0x04	; 4
    5226:	80 93 9d 00 	sts	0x009D, r24
	SetRegBit(UART1_UCSRC, UCSZ10);
    522a:	80 91 9d 00 	lds	r24, 0x009D
    522e:	82 60       	ori	r24, 0x02	; 2
    5230:	80 93 9d 00 	sts	0x009D, r24
	
	ClrRegBit(UART1_UCSRB, RXCIE1);								     						// 接收与发送中断禁止
    5234:	80 91 9a 00 	lds	r24, 0x009A
    5238:	8f 77       	andi	r24, 0x7F	; 127
    523a:	80 93 9a 00 	sts	0x009A, r24
	ClrRegBit(UART1_UCSRB, TXCIE1);
    523e:	80 91 9a 00 	lds	r24, 0x009A
    5242:	8f 7b       	andi	r24, 0xBF	; 191
    5244:	80 93 9a 00 	sts	0x009A, r24
	ClrRegBit(UART1_UCSRB, UDRE1);
    5248:	80 91 9a 00 	lds	r24, 0x009A
    524c:	8f 7d       	andi	r24, 0xDF	; 223
    524e:	80 93 9a 00 	sts	0x009A, r24
		
	uart1_control.pSetBaudRate = SetUart1BaudRate;					
    5252:	80 e9       	ldi	r24, 0x90	; 144
    5254:	97 e2       	ldi	r25, 0x27	; 39
    5256:	90 93 26 08 	sts	0x0826, r25
    525a:	80 93 25 08 	sts	0x0825, r24
	uart1_control.pSendByte = SendUart1Byte;					     						// 初始化发送函数
    525e:	87 ec       	ldi	r24, 0xC7	; 199
    5260:	97 e2       	ldi	r25, 0x27	; 39
    5262:	90 93 28 08 	sts	0x0828, r25
    5266:	80 93 27 08 	sts	0x0827, r24
	uart1_control.pReceiveByte = ReceiveUart1Byte;
    526a:	84 e4       	ldi	r24, 0x44	; 68
    526c:	98 e2       	ldi	r25, 0x28	; 40
    526e:	90 93 2a 08 	sts	0x082A, r25
    5272:	80 93 29 08 	sts	0x0829, r24
	uart1_control.pWriteTxBuffer = WriteUart1TxBuffer;			     						// 初始化入缓冲队列函数
    5276:	83 ef       	ldi	r24, 0xF3	; 243
    5278:	97 e2       	ldi	r25, 0x27	; 39
    527a:	90 93 2c 08 	sts	0x082C, r25
    527e:	80 93 2b 08 	sts	0x082B, r24
	uart1_control.pSendTxBuffer = SendUart1TxBuffer;			     						// 初始化发送缓冲队列函数
    5282:	83 e2       	ldi	r24, 0x23	; 35
    5284:	98 e2       	ldi	r25, 0x28	; 40
    5286:	90 93 2e 08 	sts	0x082E, r25
    528a:	80 93 2d 08 	sts	0x082D, r24
	uart1_control.pTestReceiveBuffer = TestUart1ReceiveBuffer;								// 初始化测试接收缓冲函数
    528e:	8c e5       	ldi	r24, 0x5C	; 92
    5290:	98 e2       	ldi	r25, 0x28	; 40
    5292:	90 93 30 08 	sts	0x0830, r25
    5296:	80 93 2f 08 	sts	0x082F, r24
	uart1_control.pClearReceiveBuffer = ClearUart1ReceiveBuffer;
    529a:	89 e2       	ldi	r24, 0x29	; 41
    529c:	98 e2       	ldi	r25, 0x28	; 40
    529e:	90 93 32 08 	sts	0x0832, r25
    52a2:	80 93 31 08 	sts	0x0831, r24
	
	SeiUart1Rx();
    52a6:	80 91 9a 00 	lds	r24, 0x009A
    52aa:	80 68       	ori	r24, 0x80	; 128
    52ac:	80 93 9a 00 	sts	0x009A, r24

	SetRegBit(uart1_control.state , INIT_COMPLETE);											// 置位初始化完成标志
    52b0:	80 91 12 08 	lds	r24, 0x0812
    52b4:	80 68       	ori	r24, 0x80	; 128
    52b6:	80 93 12 08 	sts	0x0812, r24
    52ba:	08 95       	ret

000052bc <__vector_20>:
** 修订人:
** 修订日期:
**------------------------------------------------------------------------------------------------------------------------
*************************************************************************************************************************/
ISR(USART0_TX_vect, ISR_BLOCK)
{
    52bc:	1f 92       	push	r1
    52be:	0f 92       	push	r0
    52c0:	0f b6       	in	r0, 0x3f	; 63
    52c2:	0f 92       	push	r0
    52c4:	0b b6       	in	r0, 0x3b	; 59
    52c6:	0f 92       	push	r0
    52c8:	11 24       	eor	r1, r1
    52ca:	2f 93       	push	r18
    52cc:	3f 93       	push	r19
    52ce:	4f 93       	push	r20
    52d0:	5f 93       	push	r21
    52d2:	6f 93       	push	r22
    52d4:	7f 93       	push	r23
    52d6:	8f 93       	push	r24
    52d8:	9f 93       	push	r25
    52da:	af 93       	push	r26
    52dc:	bf 93       	push	r27
    52de:	ef 93       	push	r30
    52e0:	ff 93       	push	r31
	if(buffer_queue_control.pTestEmpty(&uart0_control.str_tx_buffer))
    52e2:	e0 91 75 06 	lds	r30, 0x0675
    52e6:	f0 91 76 06 	lds	r31, 0x0676
    52ea:	8a ef       	ldi	r24, 0xFA	; 250
    52ec:	97 e0       	ldi	r25, 0x07	; 7
    52ee:	09 95       	icall
    52f0:	88 23       	and	r24, r24
    52f2:	11 f0       	breq	.+4      	; 0x52f8 <__vector_20+0x3c>
	{
		Uart0RxEn();
    52f4:	d8 98       	cbi	0x1b, 0	; 27
    52f6:	d9 9a       	sbi	0x1b, 1	; 27
	}
}
    52f8:	ff 91       	pop	r31
    52fa:	ef 91       	pop	r30
    52fc:	bf 91       	pop	r27
    52fe:	af 91       	pop	r26
    5300:	9f 91       	pop	r25
    5302:	8f 91       	pop	r24
    5304:	7f 91       	pop	r23
    5306:	6f 91       	pop	r22
    5308:	5f 91       	pop	r21
    530a:	4f 91       	pop	r20
    530c:	3f 91       	pop	r19
    530e:	2f 91       	pop	r18
    5310:	0f 90       	pop	r0
    5312:	0b be       	out	0x3b, r0	; 59
    5314:	0f 90       	pop	r0
    5316:	0f be       	out	0x3f, r0	; 63
    5318:	0f 90       	pop	r0
    531a:	1f 90       	pop	r1
    531c:	18 95       	reti

0000531e <__vector_18>:
** 修订人:
** 修订日期:
**------------------------------------------------------------------------------------------------------------------------
*************************************************************************************************************************/
ISR(USART0_RX_vect, ISR_BLOCK)
{
    531e:	1f 92       	push	r1
    5320:	0f 92       	push	r0
    5322:	0f b6       	in	r0, 0x3f	; 63
    5324:	0f 92       	push	r0
    5326:	0b b6       	in	r0, 0x3b	; 59
    5328:	0f 92       	push	r0
    532a:	11 24       	eor	r1, r1
    532c:	2f 93       	push	r18
    532e:	3f 93       	push	r19
    5330:	4f 93       	push	r20
    5332:	5f 93       	push	r21
    5334:	6f 93       	push	r22
    5336:	7f 93       	push	r23
    5338:	8f 93       	push	r24
    533a:	9f 93       	push	r25
    533c:	af 93       	push	r26
    533e:	bf 93       	push	r27
    5340:	ef 93       	push	r30
    5342:	ff 93       	push	r31
	buffer_queue_control.pAdd(&uart0_control.str_rx_buffer, UART0_UDR);
    5344:	6c b1       	in	r22, 0x0c	; 12
    5346:	e0 91 77 06 	lds	r30, 0x0677
    534a:	f0 91 78 06 	lds	r31, 0x0678
    534e:	82 ef       	ldi	r24, 0xF2	; 242
    5350:	97 e0       	ldi	r25, 0x07	; 7
    5352:	09 95       	icall
}
    5354:	ff 91       	pop	r31
    5356:	ef 91       	pop	r30
    5358:	bf 91       	pop	r27
    535a:	af 91       	pop	r26
    535c:	9f 91       	pop	r25
    535e:	8f 91       	pop	r24
    5360:	7f 91       	pop	r23
    5362:	6f 91       	pop	r22
    5364:	5f 91       	pop	r21
    5366:	4f 91       	pop	r20
    5368:	3f 91       	pop	r19
    536a:	2f 91       	pop	r18
    536c:	0f 90       	pop	r0
    536e:	0b be       	out	0x3b, r0	; 59
    5370:	0f 90       	pop	r0
    5372:	0f be       	out	0x3f, r0	; 63
    5374:	0f 90       	pop	r0
    5376:	1f 90       	pop	r1
    5378:	18 95       	reti

0000537a <__vector_30>:
** 修订人:
** 修订日期:
**------------------------------------------------------------------------------------------------------------------------
*************************************************************************************************************************/
ISR(USART1_RX_vect, ISR_BLOCK)
{
    537a:	1f 92       	push	r1
    537c:	0f 92       	push	r0
    537e:	0f b6       	in	r0, 0x3f	; 63
    5380:	0f 92       	push	r0
    5382:	0b b6       	in	r0, 0x3b	; 59
    5384:	0f 92       	push	r0
    5386:	11 24       	eor	r1, r1
    5388:	2f 93       	push	r18
    538a:	3f 93       	push	r19
    538c:	4f 93       	push	r20
    538e:	5f 93       	push	r21
    5390:	6f 93       	push	r22
    5392:	7f 93       	push	r23
    5394:	8f 93       	push	r24
    5396:	9f 93       	push	r25
    5398:	af 93       	push	r26
    539a:	bf 93       	push	r27
    539c:	ef 93       	push	r30
    539e:	ff 93       	push	r31
	buffer_queue_control.pAdd(&uart1_control.str_rx_buffer, UART1_UDR);
    53a0:	60 91 9c 00 	lds	r22, 0x009C
    53a4:	e0 91 77 06 	lds	r30, 0x0677
    53a8:	f0 91 78 06 	lds	r31, 0x0678
    53ac:	83 e1       	ldi	r24, 0x13	; 19
    53ae:	98 e0       	ldi	r25, 0x08	; 8
    53b0:	09 95       	icall
}
    53b2:	ff 91       	pop	r31
    53b4:	ef 91       	pop	r30
    53b6:	bf 91       	pop	r27
    53b8:	af 91       	pop	r26
    53ba:	9f 91       	pop	r25
    53bc:	8f 91       	pop	r24
    53be:	7f 91       	pop	r23
    53c0:	6f 91       	pop	r22
    53c2:	5f 91       	pop	r21
    53c4:	4f 91       	pop	r20
    53c6:	3f 91       	pop	r19
    53c8:	2f 91       	pop	r18
    53ca:	0f 90       	pop	r0
    53cc:	0b be       	out	0x3b, r0	; 59
    53ce:	0f 90       	pop	r0
    53d0:	0f be       	out	0x3f, r0	; 63
    53d2:	0f 90       	pop	r0
    53d4:	1f 90       	pop	r1
    53d6:	18 95       	reti

000053d8 <__vector_19>:
** 修订人:
** 修订日期:
**------------------------------------------------------------------------------------------------------------------------
*************************************************************************************************************************/
ISR(USART0_UDRE_vect, ISR_BLOCK)
{
    53d8:	1f 92       	push	r1
    53da:	0f 92       	push	r0
    53dc:	0f b6       	in	r0, 0x3f	; 63
    53de:	0f 92       	push	r0
    53e0:	0b b6       	in	r0, 0x3b	; 59
    53e2:	0f 92       	push	r0
    53e4:	11 24       	eor	r1, r1
    53e6:	2f 93       	push	r18
    53e8:	3f 93       	push	r19
    53ea:	4f 93       	push	r20
    53ec:	5f 93       	push	r21
    53ee:	6f 93       	push	r22
    53f0:	7f 93       	push	r23
    53f2:	8f 93       	push	r24
    53f4:	9f 93       	push	r25
    53f6:	af 93       	push	r26
    53f8:	bf 93       	push	r27
    53fa:	ef 93       	push	r30
    53fc:	ff 93       	push	r31
    53fe:	df 93       	push	r29
    5400:	cf 93       	push	r28
    5402:	0f 92       	push	r0
    5404:	cd b7       	in	r28, 0x3d	; 61
    5406:	de b7       	in	r29, 0x3e	; 62
	uint8 temp_val = 0;
    5408:	19 82       	std	Y+1, r1	; 0x01

	if(buffer_queue_control.pOut(&uart0_control.str_tx_buffer, &temp_val))
    540a:	e0 91 79 06 	lds	r30, 0x0679
    540e:	f0 91 7a 06 	lds	r31, 0x067A
    5412:	8a ef       	ldi	r24, 0xFA	; 250
    5414:	97 e0       	ldi	r25, 0x07	; 7
    5416:	be 01       	movw	r22, r28
    5418:	6f 5f       	subi	r22, 0xFF	; 255
    541a:	7f 4f       	sbci	r23, 0xFF	; 255
    541c:	09 95       	icall
    541e:	88 23       	and	r24, r24
    5420:	19 f0       	breq	.+6      	; 0x5428 <__vector_19+0x50>
	{
		SetReg(UART0_UDR, temp_val);
    5422:	89 81       	ldd	r24, Y+1	; 0x01
    5424:	8c b9       	out	0x0c, r24	; 12
    5426:	01 c0       	rjmp	.+2      	; 0x542a <__vector_19+0x52>
	}
	else
	{
		CliUart0Tx();
    5428:	55 98       	cbi	0x0a, 5	; 10
	}
}
    542a:	0f 90       	pop	r0
    542c:	cf 91       	pop	r28
    542e:	df 91       	pop	r29
    5430:	ff 91       	pop	r31
    5432:	ef 91       	pop	r30
    5434:	bf 91       	pop	r27
    5436:	af 91       	pop	r26
    5438:	9f 91       	pop	r25
    543a:	8f 91       	pop	r24
    543c:	7f 91       	pop	r23
    543e:	6f 91       	pop	r22
    5440:	5f 91       	pop	r21
    5442:	4f 91       	pop	r20
    5444:	3f 91       	pop	r19
    5446:	2f 91       	pop	r18
    5448:	0f 90       	pop	r0
    544a:	0b be       	out	0x3b, r0	; 59
    544c:	0f 90       	pop	r0
    544e:	0f be       	out	0x3f, r0	; 63
    5450:	0f 90       	pop	r0
    5452:	1f 90       	pop	r1
    5454:	18 95       	reti

00005456 <__vector_31>:
** 修订人:
** 修订日期:
**------------------------------------------------------------------------------------------------------------------------
*************************************************************************************************************************/
ISR(USART1_UDRE_vect, ISR_BLOCK)
{
    5456:	1f 92       	push	r1
    5458:	0f 92       	push	r0
    545a:	0f b6       	in	r0, 0x3f	; 63
    545c:	0f 92       	push	r0
    545e:	0b b6       	in	r0, 0x3b	; 59
    5460:	0f 92       	push	r0
    5462:	11 24       	eor	r1, r1
    5464:	2f 93       	push	r18
    5466:	3f 93       	push	r19
    5468:	4f 93       	push	r20
    546a:	5f 93       	push	r21
    546c:	6f 93       	push	r22
    546e:	7f 93       	push	r23
    5470:	8f 93       	push	r24
    5472:	9f 93       	push	r25
    5474:	af 93       	push	r26
    5476:	bf 93       	push	r27
    5478:	ef 93       	push	r30
    547a:	ff 93       	push	r31
    547c:	df 93       	push	r29
    547e:	cf 93       	push	r28
    5480:	0f 92       	push	r0
    5482:	cd b7       	in	r28, 0x3d	; 61
    5484:	de b7       	in	r29, 0x3e	; 62
	uint8 temp_val = 0;
    5486:	19 82       	std	Y+1, r1	; 0x01

	if(buffer_queue_control.pOut(&uart1_control.str_tx_buffer, &temp_val))
    5488:	e0 91 79 06 	lds	r30, 0x0679
    548c:	f0 91 7a 06 	lds	r31, 0x067A
    5490:	8b e1       	ldi	r24, 0x1B	; 27
    5492:	98 e0       	ldi	r25, 0x08	; 8
    5494:	be 01       	movw	r22, r28
    5496:	6f 5f       	subi	r22, 0xFF	; 255
    5498:	7f 4f       	sbci	r23, 0xFF	; 255
    549a:	09 95       	icall
    549c:	88 23       	and	r24, r24
    549e:	21 f0       	breq	.+8      	; 0x54a8 <__vector_31+0x52>
	{
		SetReg(UART1_UDR, temp_val);
    54a0:	89 81       	ldd	r24, Y+1	; 0x01
    54a2:	80 93 9c 00 	sts	0x009C, r24
    54a6:	05 c0       	rjmp	.+10     	; 0x54b2 <__vector_31+0x5c>
	}
	else
	{
		CliUart1Tx();
    54a8:	80 91 9a 00 	lds	r24, 0x009A
    54ac:	8f 7d       	andi	r24, 0xDF	; 223
    54ae:	80 93 9a 00 	sts	0x009A, r24
	}
}
    54b2:	0f 90       	pop	r0
    54b4:	cf 91       	pop	r28
    54b6:	df 91       	pop	r29
    54b8:	ff 91       	pop	r31
    54ba:	ef 91       	pop	r30
    54bc:	bf 91       	pop	r27
    54be:	af 91       	pop	r26
    54c0:	9f 91       	pop	r25
    54c2:	8f 91       	pop	r24
    54c4:	7f 91       	pop	r23
    54c6:	6f 91       	pop	r22
    54c8:	5f 91       	pop	r21
    54ca:	4f 91       	pop	r20
    54cc:	3f 91       	pop	r19
    54ce:	2f 91       	pop	r18
    54d0:	0f 90       	pop	r0
    54d2:	0b be       	out	0x3b, r0	; 59
    54d4:	0f 90       	pop	r0
    54d6:	0f be       	out	0x3f, r0	; 63
    54d8:	0f 90       	pop	r0
    54da:	1f 90       	pop	r1
    54dc:	18 95       	reti

000054de <SetUart2BaudRate>:
** 修订人:
** 修订日期:
**------------------------------------------------------------------------------------------------------------------------
*************************************************************************************************************************/
static void SetUart2BaudRate(uint8 mode, uint32 baud)
{
    54de:	ef 92       	push	r14
    54e0:	ff 92       	push	r15
    54e2:	0f 93       	push	r16
    54e4:	1f 93       	push	r17
    54e6:	28 2f       	mov	r18, r24
    54e8:	7a 01       	movw	r14, r20
    54ea:	8b 01       	movw	r16, r22

	uint8 temp_value = 0;

	count = 0;

	while (SPI_SEND_STATE_WAITUPDATE != spi_control.send_state)			// 等待传输结束
    54ec:	90 91 91 07 	lds	r25, 0x0791
    54f0:	92 30       	cpi	r25, 0x02	; 2
    54f2:	71 f0       	breq	.+28     	; 0x5510 <SetUart2BaudRate+0x32>
    54f4:	80 e0       	ldi	r24, 0x00	; 0
    54f6:	90 e0       	ldi	r25, 0x00	; 0
	{
		count++;
    54f8:	01 96       	adiw	r24, 0x01	; 1
		if (count > VIRTUALUART_TIMEOUT_COUNT)
    54fa:	27 e0       	ldi	r18, 0x07	; 7
    54fc:	89 30       	cpi	r24, 0x09	; 9
    54fe:	92 07       	cpc	r25, r18
    5500:	d9 f7       	brne	.-10     	; 0x54f8 <SetUart2BaudRate+0x1a>
		{
			SetRegMask(uart2_control.state, ERR_MASK, ERR_OVERFLOW);
    5502:	80 91 75 08 	lds	r24, 0x0875
    5506:	80 7c       	andi	r24, 0xC0	; 192
    5508:	84 60       	ori	r24, 0x04	; 4
    550a:	80 93 75 08 	sts	0x0875, r24
    550e:	3a c0       	rjmp	.+116    	; 0x5584 <SetUart2BaudRate+0xa6>
			return;														// 等待超过VIRTUALUART_TIMEOUT_COUNT个查询周期后，超时退
																		// 出，报告错误
		}
	}

	spi_control.send_state = SPI_SEND_STATE_UPDATING;
    5510:	83 e0       	ldi	r24, 0x03	; 3
    5512:	80 93 91 07 	sts	0x0791, r24

	spi_control.send_device = SPI_DEVICE_UART_BAUD;
    5516:	90 93 8f 07 	sts	0x078F, r25

//	temp_length = 5;

//	spi_control.send_length = temp_length;

	buffer_queue_control.pAdd(&spi_control.str_send_queue, mode);
    551a:	e0 91 77 06 	lds	r30, 0x0677
    551e:	f0 91 78 06 	lds	r31, 0x0678
    5522:	87 e8       	ldi	r24, 0x87	; 135
    5524:	97 e0       	ldi	r25, 0x07	; 7
    5526:	62 2f       	mov	r22, r18
    5528:	09 95       	icall

	temp_baud = baud;

	temp_value = (uint8)(temp_baud & 0x000000FF);						// baud的低8位
	buffer_queue_control.pAdd(&spi_control.str_send_queue, temp_value);
    552a:	e0 91 77 06 	lds	r30, 0x0677
    552e:	f0 91 78 06 	lds	r31, 0x0678
    5532:	87 e8       	ldi	r24, 0x87	; 135
    5534:	97 e0       	ldi	r25, 0x07	; 7
    5536:	6e 2d       	mov	r22, r14
    5538:	09 95       	icall

	temp_baud = temp_baud >> 8;
    553a:	55 27       	eor	r21, r21
    553c:	41 2f       	mov	r20, r17
    553e:	30 2f       	mov	r19, r16
    5540:	2f 2d       	mov	r18, r15
	temp_value = (uint8)(temp_baud & 0x000000FF);						// baud的中低8位
	buffer_queue_control.pAdd(&spi_control.str_send_queue, temp_value);
    5542:	e0 91 77 06 	lds	r30, 0x0677
    5546:	f0 91 78 06 	lds	r31, 0x0678
    554a:	87 e8       	ldi	r24, 0x87	; 135
    554c:	97 e0       	ldi	r25, 0x07	; 7
    554e:	62 2f       	mov	r22, r18
    5550:	09 95       	icall

	temp_baud = temp_baud >> 8;
    5552:	98 01       	movw	r18, r16
    5554:	44 27       	eor	r20, r20
    5556:	55 27       	eor	r21, r21
	temp_value = (uint8)(temp_baud & 0x000000FF);						// baud的中高8位
	buffer_queue_control.pAdd(&spi_control.str_send_queue, temp_value);
    5558:	e0 91 77 06 	lds	r30, 0x0677
    555c:	f0 91 78 06 	lds	r31, 0x0678
    5560:	87 e8       	ldi	r24, 0x87	; 135
    5562:	97 e0       	ldi	r25, 0x07	; 7
    5564:	62 2f       	mov	r22, r18
    5566:	09 95       	icall

	temp_baud = temp_baud >> 8;
	temp_value = (uint8)(temp_baud & 0x000000FF);						// baud的高8位
	buffer_queue_control.pAdd(&spi_control.str_send_queue, temp_value);
    5568:	21 2f       	mov	r18, r17
    556a:	33 27       	eor	r19, r19
    556c:	44 27       	eor	r20, r20
    556e:	55 27       	eor	r21, r21
    5570:	e0 91 77 06 	lds	r30, 0x0677
    5574:	f0 91 78 06 	lds	r31, 0x0678
    5578:	87 e8       	ldi	r24, 0x87	; 135
    557a:	97 e0       	ldi	r25, 0x07	; 7
    557c:	62 2f       	mov	r22, r18
    557e:	09 95       	icall

	spi_control.send_state = SPI_SEND_STATE_WAITSEND;					// 发送队列准备完成，准备发送
    5580:	10 92 91 07 	sts	0x0791, r1
}
    5584:	1f 91       	pop	r17
    5586:	0f 91       	pop	r16
    5588:	ff 90       	pop	r15
    558a:	ef 90       	pop	r14
    558c:	08 95       	ret

0000558e <SendUart2Byte>:
** 修订人:
** 修订日期:
**------------------------------------------------------------------------------------------------------------------------
*************************************************************************************************************************/
static void SendUart2Byte(uint8 val)
{
    558e:	68 2f       	mov	r22, r24
	uint16 count = 0;
//	uint8 temp_length = 0;

	count = 0;

	while (SPI_SEND_STATE_WAITUPDATE != spi_control.send_state)			// 等待传输结束
    5590:	80 91 91 07 	lds	r24, 0x0791
    5594:	82 30       	cpi	r24, 0x02	; 2
    5596:	71 f0       	breq	.+28     	; 0x55b4 <SendUart2Byte+0x26>
    5598:	80 e0       	ldi	r24, 0x00	; 0
    559a:	90 e0       	ldi	r25, 0x00	; 0
	{
		count++;
    559c:	01 96       	adiw	r24, 0x01	; 1
		if (count > VIRTUALUART_TIMEOUT_COUNT)
    559e:	27 e0       	ldi	r18, 0x07	; 7
    55a0:	89 30       	cpi	r24, 0x09	; 9
    55a2:	92 07       	cpc	r25, r18
    55a4:	d9 f7       	brne	.-10     	; 0x559c <SendUart2Byte+0xe>
		{
			SetRegMask(uart2_control.state, ERR_MASK, ERR_OVERFLOW);
    55a6:	80 91 75 08 	lds	r24, 0x0875
    55aa:	80 7c       	andi	r24, 0xC0	; 192
    55ac:	84 60       	ori	r24, 0x04	; 4
    55ae:	80 93 75 08 	sts	0x0875, r24
    55b2:	08 95       	ret
			return;														// 等待超过VIRTUALUART_TIMEOUT_COUNT个查询周期后，超时退
																		// 出，报告错误
		}
	}

	spi_control.send_state = SPI_SEND_STATE_UPDATING;
    55b4:	83 e0       	ldi	r24, 0x03	; 3
    55b6:	80 93 91 07 	sts	0x0791, r24

	spi_control.send_device = SPI_DEVICE_UART_SEND;
    55ba:	80 93 8f 07 	sts	0x078F, r24

//	temp_length = 1;

//	spi_control.send_length = temp_length;

	buffer_queue_control.pAdd(&spi_control.str_send_queue, val);
    55be:	e0 91 77 06 	lds	r30, 0x0677
    55c2:	f0 91 78 06 	lds	r31, 0x0678
    55c6:	87 e8       	ldi	r24, 0x87	; 135
    55c8:	97 e0       	ldi	r25, 0x07	; 7
    55ca:	09 95       	icall

	spi_control.send_state = SPI_SEND_STATE_WAITSEND;					// 发送队列准备完成，准备发送
    55cc:	10 92 91 07 	sts	0x0791, r1
    55d0:	08 95       	ret

000055d2 <WriteUart2TxBuffer>:
** 修订人:
** 修订日期:
**------------------------------------------------------------------------------------------------------------------------
*************************************************************************************************************************/
static void WriteUart2TxBuffer(uint8 val)
{
    55d2:	68 2f       	mov	r22, r24
	buffer_queue_control.pAdd(&uart2_control.str_tx_buffer, val);
    55d4:	e0 91 77 06 	lds	r30, 0x0677
    55d8:	f0 91 78 06 	lds	r31, 0x0678
    55dc:	8e e7       	ldi	r24, 0x7E	; 126
    55de:	98 e0       	ldi	r25, 0x08	; 8
    55e0:	09 95       	icall
}
    55e2:	08 95       	ret

000055e4 <SendUart2TxBuffer>:
** 修订人:
** 修订日期:
**------------------------------------------------------------------------------------------------------------------------
*************************************************************************************************************************/
static void SendUart2TxBuffer(void)
{
    55e4:	0f 93       	push	r16
    55e6:	1f 93       	push	r17
    55e8:	df 93       	push	r29
    55ea:	cf 93       	push	r28
    55ec:	0f 92       	push	r0
    55ee:	cd b7       	in	r28, 0x3d	; 61
    55f0:	de b7       	in	r29, 0x3e	; 62
	uint8 temp_value = 0;
//	uint8 temp_length = 0;

	count = 0;

	while (SPI_SEND_STATE_WAITUPDATE != spi_control.send_state)			// 等待传输结束
    55f2:	80 91 91 07 	lds	r24, 0x0791
    55f6:	82 30       	cpi	r24, 0x02	; 2
    55f8:	71 f0       	breq	.+28     	; 0x5616 <SendUart2TxBuffer+0x32>
    55fa:	80 e0       	ldi	r24, 0x00	; 0
    55fc:	90 e0       	ldi	r25, 0x00	; 0
	{
		count++;
    55fe:	01 96       	adiw	r24, 0x01	; 1
		if (count > VIRTUALUART_TIMEOUT_COUNT)
    5600:	27 e0       	ldi	r18, 0x07	; 7
    5602:	89 30       	cpi	r24, 0x09	; 9
    5604:	92 07       	cpc	r25, r18
    5606:	d9 f7       	brne	.-10     	; 0x55fe <SendUart2TxBuffer+0x1a>
		{
			SetRegMask(uart2_control.state, ERR_MASK, ERR_OVERFLOW);
    5608:	80 91 75 08 	lds	r24, 0x0875
    560c:	80 7c       	andi	r24, 0xC0	; 192
    560e:	84 60       	ori	r24, 0x04	; 4
    5610:	80 93 75 08 	sts	0x0875, r24
    5614:	1a c0       	rjmp	.+52     	; 0x564a <SendUart2TxBuffer+0x66>
{
	#define VIRTUALUART_TIMEOUT_COUNT			1800					// 约2.5ms

	uint16 count = 0;
//	uint8 short_count = 0;
	uint8 temp_value = 0;
    5616:	19 82       	std	Y+1, r1	; 0x01
			return;														// 等待超过VIRTUALUART_TIMEOUT_COUNT个查询周期后，超时退
																		// 出，报告错误
		}
	}

	spi_control.send_state = SPI_SEND_STATE_UPDATING;
    5618:	83 e0       	ldi	r24, 0x03	; 3
    561a:	80 93 91 07 	sts	0x0791, r24

	spi_control.send_device = SPI_DEVICE_UART_SEND;
    561e:	80 93 8f 07 	sts	0x078F, r24
//	{
//		buffer_queue_control.pOut(&uart2_control.str_tx_buffer, &temp_value);
//		buffer_queue_control.pAdd(&spi_control.str_send_queue, temp_value);
//	}

	while (uart2_control.pReceiveByte(&temp_value))
    5622:	8e 01       	movw	r16, r28
    5624:	0f 5f       	subi	r16, 0xFF	; 255
    5626:	1f 4f       	sbci	r17, 0xFF	; 255
    5628:	06 c0       	rjmp	.+12     	; 0x5636 <SendUart2TxBuffer+0x52>
	{
		spi_control.pWriteSendBuffer(temp_value);
    562a:	e0 91 a8 07 	lds	r30, 0x07A8
    562e:	f0 91 a9 07 	lds	r31, 0x07A9
    5632:	89 81       	ldd	r24, Y+1	; 0x01
    5634:	09 95       	icall
//	{
//		buffer_queue_control.pOut(&uart2_control.str_tx_buffer, &temp_value);
//		buffer_queue_control.pAdd(&spi_control.str_send_queue, temp_value);
//	}

	while (uart2_control.pReceiveByte(&temp_value))
    5636:	e0 91 8c 08 	lds	r30, 0x088C
    563a:	f0 91 8d 08 	lds	r31, 0x088D
    563e:	c8 01       	movw	r24, r16
    5640:	09 95       	icall
    5642:	88 23       	and	r24, r24
    5644:	91 f7       	brne	.-28     	; 0x562a <SendUart2TxBuffer+0x46>
	{
		spi_control.pWriteSendBuffer(temp_value);
	}

	spi_control.send_state = SPI_SEND_STATE_WAITSEND;					// 发送队列准备完成，准备发送
    5646:	10 92 91 07 	sts	0x0791, r1
}
    564a:	0f 90       	pop	r0
    564c:	cf 91       	pop	r28
    564e:	df 91       	pop	r29
    5650:	1f 91       	pop	r17
    5652:	0f 91       	pop	r16
    5654:	08 95       	ret

00005656 <ReceiveUart2Byte>:
** 修订人:
** 修订日期:
**------------------------------------------------------------------------------------------------------------------------
*************************************************************************************************************************/
static uint8 ReceiveUart2Byte(uint8 *val)
{
    5656:	bc 01       	movw	r22, r24
	if((buffer_queue_control.pOut)(&uart2_control.str_rx_buffer, val))
    5658:	e0 91 79 06 	lds	r30, 0x0679
    565c:	f0 91 7a 06 	lds	r31, 0x067A
    5660:	86 e7       	ldi	r24, 0x76	; 118
    5662:	98 e0       	ldi	r25, 0x08	; 8
    5664:	09 95       	icall
    5666:	81 11       	cpse	r24, r1
    5668:	81 e0       	ldi	r24, 0x01	; 1
	}
	else
	{
		return FALSE;
	}
}
    566a:	08 95       	ret

0000566c <TestReceiveUart2>:
** 修订日期:
**------------------------------------------------------------------------------------------------------------------------
*************************************************************************************************************************/
static uint8 TestReceiveUart2(void)
{
	if((buffer_queue_control.pTestEmpty)(&uart2_control.str_rx_buffer))
    566c:	e0 91 75 06 	lds	r30, 0x0675
    5670:	f0 91 76 06 	lds	r31, 0x0676
    5674:	86 e7       	ldi	r24, 0x76	; 118
    5676:	98 e0       	ldi	r25, 0x08	; 8
    5678:	09 95       	icall
    567a:	90 e0       	ldi	r25, 0x00	; 0
    567c:	88 23       	and	r24, r24
    567e:	09 f4       	brne	.+2      	; 0x5682 <TestReceiveUart2+0x16>
    5680:	91 e0       	ldi	r25, 0x01	; 1
	}
	else
	{
		return TRUE;
	}
}
    5682:	89 2f       	mov	r24, r25
    5684:	08 95       	ret

00005686 <InitUart2>:
** 修订日期:
**------------------------------------------------------------------------------------------------------------------------
*************************************************************************************************************************/
static void InitUart2(void)
{
	SetReg(uart2_control.state , 0);
    5686:	10 92 75 08 	sts	0x0875, r1
	
	if (!GetRegBit(spi_control.state, INIT_COMPLETE))
    568a:	80 91 86 07 	lds	r24, 0x0786
    568e:	87 fd       	sbrc	r24, 7
    5690:	05 c0       	rjmp	.+10     	; 0x569c <InitUart2+0x16>
	{
		SetRegMask(uart2_control.state, ERR_MASK, ERR_DEPENDENCE);							// 置错误类型标志位
    5692:	80 91 75 08 	lds	r24, 0x0875
    5696:	80 7c       	andi	r24, 0xC0	; 192
    5698:	8b 61       	ori	r24, 0x1B	; 27
    569a:	40 c0       	rjmp	.+128    	; 0x571c <InitUart2+0x96>
		return;
	}

	buffer_queue_control.pInit(&uart2_control.str_rx_buffer, 64);							// 初始化缓冲区
    569c:	e0 91 73 06 	lds	r30, 0x0673
    56a0:	f0 91 74 06 	lds	r31, 0x0674
    56a4:	86 e7       	ldi	r24, 0x76	; 118
    56a6:	98 e0       	ldi	r25, 0x08	; 8
    56a8:	60 e4       	ldi	r22, 0x40	; 64
    56aa:	09 95       	icall
	buffer_queue_control.pInit(&uart2_control.str_tx_buffer, 64);
    56ac:	e0 91 73 06 	lds	r30, 0x0673
    56b0:	f0 91 74 06 	lds	r31, 0x0674
    56b4:	8e e7       	ldi	r24, 0x7E	; 126
    56b6:	98 e0       	ldi	r25, 0x08	; 8
    56b8:	60 e4       	ldi	r22, 0x40	; 64
    56ba:	09 95       	icall
	
	if (!GetRegBit(uart2_control.str_rx_buffer.state, INIT_COMPLETE)
    56bc:	80 91 76 08 	lds	r24, 0x0876
    56c0:	87 fd       	sbrc	r24, 7
    56c2:	05 c0       	rjmp	.+10     	; 0x56ce <InitUart2+0x48>
		|| !GetRegBit(uart2_control.str_rx_buffer.state, INIT_COMPLETE))					// 检查队列空间是否分配成功
	{
		SetRegMask(uart2_control.state, ERR_MASK, ERR_NOTAVAIL);							// 置错误类型标志位
    56c4:	80 91 75 08 	lds	r24, 0x0875
    56c8:	80 7c       	andi	r24, 0xC0	; 192
    56ca:	89 60       	ori	r24, 0x09	; 9
    56cc:	27 c0       	rjmp	.+78     	; 0x571c <InitUart2+0x96>
		return;
	}
	
	// 代码

	uart2_control.pSetBaudRate = SetUart2BaudRate;											// 初始化波特率设置函数
    56ce:	8f e6       	ldi	r24, 0x6F	; 111
    56d0:	9a e2       	ldi	r25, 0x2A	; 42
    56d2:	90 93 89 08 	sts	0x0889, r25
    56d6:	80 93 88 08 	sts	0x0888, r24
	uart2_control.pSendByte = SendUart2Byte;												// 初始化发送函数
    56da:	87 ec       	ldi	r24, 0xC7	; 199
    56dc:	9a e2       	ldi	r25, 0x2A	; 42
    56de:	90 93 8b 08 	sts	0x088B, r25
    56e2:	80 93 8a 08 	sts	0x088A, r24
	uart2_control.pReceiveByte = ReceiveUart2Byte;											// 初始化接收函数
    56e6:	8b e2       	ldi	r24, 0x2B	; 43
    56e8:	9b e2       	ldi	r25, 0x2B	; 43
    56ea:	90 93 8d 08 	sts	0x088D, r25
    56ee:	80 93 8c 08 	sts	0x088C, r24
	uart2_control.pWriteTxBuffer = WriteUart2TxBuffer;										// 初始化入缓冲队列函数
    56f2:	89 ee       	ldi	r24, 0xE9	; 233
    56f4:	9a e2       	ldi	r25, 0x2A	; 42
    56f6:	90 93 8f 08 	sts	0x088F, r25
    56fa:	80 93 8e 08 	sts	0x088E, r24
	uart2_control.pSendTxBuffer = SendUart2TxBuffer;										// 初始化发送缓冲队列函数
    56fe:	82 ef       	ldi	r24, 0xF2	; 242
    5700:	9a e2       	ldi	r25, 0x2A	; 42
    5702:	90 93 91 08 	sts	0x0891, r25
    5706:	80 93 90 08 	sts	0x0890, r24
	uart2_control.pTestReceiveBuffer = TestReceiveUart2;									// 初始化测试接收缓冲函数
    570a:	86 e3       	ldi	r24, 0x36	; 54
    570c:	9b e2       	ldi	r25, 0x2B	; 43
    570e:	90 93 93 08 	sts	0x0893, r25
    5712:	80 93 92 08 	sts	0x0892, r24

	SetRegBit(uart2_control.state, INIT_COMPLETE);											// 置位初始化完成标志
    5716:	80 91 75 08 	lds	r24, 0x0875
    571a:	80 68       	ori	r24, 0x80	; 128
    571c:	80 93 75 08 	sts	0x0875, r24
    5720:	08 95       	ret

00005722 <max>:
	pre=AD0;
	DelayMS(100);
	now=AD0;
	return now-pre;
}
int max(int a,int b,int c){
    5722:	9c 01       	movw	r18, r24
  int max;
  max=a>b?a:b;
    5724:	cb 01       	movw	r24, r22
    5726:	f6 2f       	mov	r31, r22
    5728:	e9 2f       	mov	r30, r25
    572a:	62 17       	cp	r22, r18
    572c:	73 07       	cpc	r23, r19
    572e:	1c f4       	brge	.+6      	; 0x5736 <max+0x14>
    5730:	c9 01       	movw	r24, r18
    5732:	f2 2f       	mov	r31, r18
    5734:	e9 2f       	mov	r30, r25
  max=max>c?max:c;
    5736:	8f 2f       	mov	r24, r31
    5738:	9e 2f       	mov	r25, r30
    573a:	84 17       	cp	r24, r20
    573c:	95 07       	cpc	r25, r21
    573e:	0c f4       	brge	.+2      	; 0x5742 <max+0x20>
    5740:	ca 01       	movw	r24, r20
  if(max==a){
    5742:	82 17       	cp	r24, r18
    5744:	93 07       	cpc	r25, r19
    5746:	19 f4       	brne	.+6      	; 0x574e <max+0x2c>
    5748:	21 e0       	ldi	r18, 0x01	; 1
    574a:	30 e0       	ldi	r19, 0x00	; 0
    574c:	08 c0       	rjmp	.+16     	; 0x575e <max+0x3c>
	  return 1;
  }else if(max==b){
    574e:	86 17       	cp	r24, r22
    5750:	97 07       	cpc	r25, r23
    5752:	19 f0       	breq	.+6      	; 0x575a <max+0x38>
    5754:	23 e0       	ldi	r18, 0x03	; 3
    5756:	30 e0       	ldi	r19, 0x00	; 0
    5758:	02 c0       	rjmp	.+4      	; 0x575e <max+0x3c>
    575a:	22 e0       	ldi	r18, 0x02	; 2
    575c:	30 e0       	ldi	r19, 0x00	; 0
	  return 2;
  }else{
	  return 3;
  }
}
    575e:	c9 01       	movw	r24, r18
    5760:	08 95       	ret

00005762 <min>:
int min(int a,int b,int c){
    5762:	9c 01       	movw	r18, r24
  int min;
  min=a<b?a:b;
    5764:	cb 01       	movw	r24, r22
    5766:	f6 2f       	mov	r31, r22
    5768:	e9 2f       	mov	r30, r25
    576a:	26 17       	cp	r18, r22
    576c:	37 07       	cpc	r19, r23
    576e:	1c f4       	brge	.+6      	; 0x5776 <min+0x14>
    5770:	c9 01       	movw	r24, r18
    5772:	f2 2f       	mov	r31, r18
    5774:	e9 2f       	mov	r30, r25
  min=min<c?min:c;
    5776:	8f 2f       	mov	r24, r31
    5778:	9e 2f       	mov	r25, r30
    577a:	48 17       	cp	r20, r24
    577c:	59 07       	cpc	r21, r25
    577e:	0c f4       	brge	.+2      	; 0x5782 <min+0x20>
    5780:	ca 01       	movw	r24, r20
  if(min==a){
    5782:	82 17       	cp	r24, r18
    5784:	93 07       	cpc	r25, r19
    5786:	19 f4       	brne	.+6      	; 0x578e <min+0x2c>
    5788:	21 e0       	ldi	r18, 0x01	; 1
    578a:	30 e0       	ldi	r19, 0x00	; 0
    578c:	08 c0       	rjmp	.+16     	; 0x579e <min+0x3c>
	  return 1;
  }else if(min==b){
    578e:	86 17       	cp	r24, r22
    5790:	97 07       	cpc	r25, r23
    5792:	19 f0       	breq	.+6      	; 0x579a <min+0x38>
    5794:	23 e0       	ldi	r18, 0x03	; 3
    5796:	30 e0       	ldi	r19, 0x00	; 0
    5798:	02 c0       	rjmp	.+4      	; 0x579e <min+0x3c>
    579a:	22 e0       	ldi	r18, 0x02	; 2
    579c:	30 e0       	ldi	r19, 0x00	; 0
	  return 2;
  }else{
	  return 3;
  }
}
    579e:	c9 01       	movw	r24, r18
    57a0:	08 95       	ret

000057a2 <zhili>:
  shou_yubei();
  DelayMS(1000);
//  MFSetServoPos(3,563,512);
//  MFSetServoPos(6,401,512);
}
void zhili(){
    57a2:	ef 92       	push	r14
    57a4:	ff 92       	push	r15
    57a6:	0f 93       	push	r16
    57a8:	1f 93       	push	r17
	  MFSetServoPos(4,512,300);
    57aa:	64 e0       	ldi	r22, 0x04	; 4
    57ac:	70 e0       	ldi	r23, 0x00	; 0
    57ae:	80 e0       	ldi	r24, 0x00	; 0
    57b0:	90 e0       	ldi	r25, 0x00	; 0
    57b2:	20 e0       	ldi	r18, 0x00	; 0
    57b4:	32 e0       	ldi	r19, 0x02	; 2
    57b6:	40 e0       	ldi	r20, 0x00	; 0
    57b8:	50 e0       	ldi	r21, 0x00	; 0
    57ba:	ec e2       	ldi	r30, 0x2C	; 44
    57bc:	ee 2e       	mov	r14, r30
    57be:	e1 e0       	ldi	r30, 0x01	; 1
    57c0:	fe 2e       	mov	r15, r30
    57c2:	01 2d       	mov	r16, r1
    57c4:	11 2d       	mov	r17, r1
    57c6:	0e 94 05 01 	call	0x20a	; 0x20a <MFSetServoPos>
	  MFSetServoPos(5,552,300);
    57ca:	65 e0       	ldi	r22, 0x05	; 5
    57cc:	70 e0       	ldi	r23, 0x00	; 0
    57ce:	80 e0       	ldi	r24, 0x00	; 0
    57d0:	90 e0       	ldi	r25, 0x00	; 0
    57d2:	28 e2       	ldi	r18, 0x28	; 40
    57d4:	32 e0       	ldi	r19, 0x02	; 2
    57d6:	40 e0       	ldi	r20, 0x00	; 0
    57d8:	50 e0       	ldi	r21, 0x00	; 0
    57da:	0e 94 05 01 	call	0x20a	; 0x20a <MFSetServoPos>
	  MFServoAction();
    57de:	0e 94 d2 00 	call	0x1a4	; 0x1a4 <MFServoAction>
}
    57e2:	1f 91       	pop	r17
    57e4:	0f 91       	pop	r16
    57e6:	ff 90       	pop	r15
    57e8:	ef 90       	pop	r14
    57ea:	08 95       	ret

000057ec <shou_yubei>:
		nowspeed-=(nowspeed/level);
		DelayMS(10);
	}
	move(0,0);
}
void shou_yubei(){
    57ec:	ef 92       	push	r14
    57ee:	ff 92       	push	r15
    57f0:	0f 93       	push	r16
    57f2:	1f 93       	push	r17
	MFSetServoPos(1,762,300);
    57f4:	61 e0       	ldi	r22, 0x01	; 1
    57f6:	70 e0       	ldi	r23, 0x00	; 0
    57f8:	80 e0       	ldi	r24, 0x00	; 0
    57fa:	90 e0       	ldi	r25, 0x00	; 0
    57fc:	2a ef       	ldi	r18, 0xFA	; 250
    57fe:	32 e0       	ldi	r19, 0x02	; 2
    5800:	40 e0       	ldi	r20, 0x00	; 0
    5802:	50 e0       	ldi	r21, 0x00	; 0
    5804:	fc e2       	ldi	r31, 0x2C	; 44
    5806:	ef 2e       	mov	r14, r31
    5808:	f1 e0       	ldi	r31, 0x01	; 1
    580a:	ff 2e       	mov	r15, r31
    580c:	01 2d       	mov	r16, r1
    580e:	11 2d       	mov	r17, r1
    5810:	0e 94 05 01 	call	0x20a	; 0x20a <MFSetServoPos>
	MFSetServoPos(2,96,300);
    5814:	62 e0       	ldi	r22, 0x02	; 2
    5816:	70 e0       	ldi	r23, 0x00	; 0
    5818:	80 e0       	ldi	r24, 0x00	; 0
    581a:	90 e0       	ldi	r25, 0x00	; 0
    581c:	20 e6       	ldi	r18, 0x60	; 96
    581e:	30 e0       	ldi	r19, 0x00	; 0
    5820:	40 e0       	ldi	r20, 0x00	; 0
    5822:	50 e0       	ldi	r21, 0x00	; 0
    5824:	0e 94 05 01 	call	0x20a	; 0x20a <MFSetServoPos>

	MFSetServoPos(7,75,300);
    5828:	67 e0       	ldi	r22, 0x07	; 7
    582a:	70 e0       	ldi	r23, 0x00	; 0
    582c:	80 e0       	ldi	r24, 0x00	; 0
    582e:	90 e0       	ldi	r25, 0x00	; 0
    5830:	2b e4       	ldi	r18, 0x4B	; 75
    5832:	30 e0       	ldi	r19, 0x00	; 0
    5834:	40 e0       	ldi	r20, 0x00	; 0
    5836:	50 e0       	ldi	r21, 0x00	; 0
    5838:	0e 94 05 01 	call	0x20a	; 0x20a <MFSetServoPos>
	MFSetServoPos(8,311,300);
    583c:	68 e0       	ldi	r22, 0x08	; 8
    583e:	70 e0       	ldi	r23, 0x00	; 0
    5840:	80 e0       	ldi	r24, 0x00	; 0
    5842:	90 e0       	ldi	r25, 0x00	; 0
    5844:	27 e3       	ldi	r18, 0x37	; 55
    5846:	31 e0       	ldi	r19, 0x01	; 1
    5848:	40 e0       	ldi	r20, 0x00	; 0
    584a:	50 e0       	ldi	r21, 0x00	; 0
    584c:	0e 94 05 01 	call	0x20a	; 0x20a <MFSetServoPos>
	MFServoAction();
    5850:	0e 94 d2 00 	call	0x1a4	; 0x1a4 <MFServoAction>
	DelayMS(300);
    5854:	6c e2       	ldi	r22, 0x2C	; 44
    5856:	71 e0       	ldi	r23, 0x01	; 1
    5858:	80 e0       	ldi	r24, 0x00	; 0
    585a:	90 e0       	ldi	r25, 0x00	; 0
    585c:	0e 94 67 00 	call	0xce	; 0xce <DelayMS>
	MFSetServoPos(6,512,300);
    5860:	66 e0       	ldi	r22, 0x06	; 6
    5862:	70 e0       	ldi	r23, 0x00	; 0
    5864:	80 e0       	ldi	r24, 0x00	; 0
    5866:	90 e0       	ldi	r25, 0x00	; 0
    5868:	20 e0       	ldi	r18, 0x00	; 0
    586a:	32 e0       	ldi	r19, 0x02	; 2
    586c:	40 e0       	ldi	r20, 0x00	; 0
    586e:	50 e0       	ldi	r21, 0x00	; 0
    5870:	0e 94 05 01 	call	0x20a	; 0x20a <MFSetServoPos>
	MFSetServoPos(3,512,300);
    5874:	63 e0       	ldi	r22, 0x03	; 3
    5876:	70 e0       	ldi	r23, 0x00	; 0
    5878:	80 e0       	ldi	r24, 0x00	; 0
    587a:	90 e0       	ldi	r25, 0x00	; 0
    587c:	20 e0       	ldi	r18, 0x00	; 0
    587e:	32 e0       	ldi	r19, 0x02	; 2
    5880:	40 e0       	ldi	r20, 0x00	; 0
    5882:	50 e0       	ldi	r21, 0x00	; 0
    5884:	0e 94 05 01 	call	0x20a	; 0x20a <MFSetServoPos>
	MFServoAction();
    5888:	0e 94 d2 00 	call	0x1a4	; 0x1a4 <MFServoAction>
}
    588c:	1f 91       	pop	r17
    588e:	0f 91       	pop	r16
    5890:	ff 90       	pop	r15
    5892:	ef 90       	pop	r14
    5894:	08 95       	ret

00005896 <standup>:
	  return 2;
  }else{
	  return 3;
  }
}
void standup(){
    5896:	ef 92       	push	r14
    5898:	ff 92       	push	r15
    589a:	0f 93       	push	r16
    589c:	1f 93       	push	r17
  MFSetServoPos(4,512,512);
    589e:	64 e0       	ldi	r22, 0x04	; 4
    58a0:	70 e0       	ldi	r23, 0x00	; 0
    58a2:	80 e0       	ldi	r24, 0x00	; 0
    58a4:	90 e0       	ldi	r25, 0x00	; 0
    58a6:	20 e0       	ldi	r18, 0x00	; 0
    58a8:	32 e0       	ldi	r19, 0x02	; 2
    58aa:	40 e0       	ldi	r20, 0x00	; 0
    58ac:	50 e0       	ldi	r21, 0x00	; 0
    58ae:	e1 2c       	mov	r14, r1
    58b0:	a2 e0       	ldi	r26, 0x02	; 2
    58b2:	fa 2e       	mov	r15, r26
    58b4:	01 2d       	mov	r16, r1
    58b6:	11 2d       	mov	r17, r1
    58b8:	0e 94 05 01 	call	0x20a	; 0x20a <MFSetServoPos>
  MFSetServoPos(5,512,512);
    58bc:	65 e0       	ldi	r22, 0x05	; 5
    58be:	70 e0       	ldi	r23, 0x00	; 0
    58c0:	80 e0       	ldi	r24, 0x00	; 0
    58c2:	90 e0       	ldi	r25, 0x00	; 0
    58c4:	20 e0       	ldi	r18, 0x00	; 0
    58c6:	32 e0       	ldi	r19, 0x02	; 2
    58c8:	40 e0       	ldi	r20, 0x00	; 0
    58ca:	50 e0       	ldi	r21, 0x00	; 0
    58cc:	0e 94 05 01 	call	0x20a	; 0x20a <MFSetServoPos>
//  MFSetServoPos(7,397,512);
//  MFSetServoPos(8,470,512);
//  MFServoAction();
//  DelayMS(1000);

  MFSetServoPos(1,825,512);
    58d0:	61 e0       	ldi	r22, 0x01	; 1
    58d2:	70 e0       	ldi	r23, 0x00	; 0
    58d4:	80 e0       	ldi	r24, 0x00	; 0
    58d6:	90 e0       	ldi	r25, 0x00	; 0
    58d8:	29 e3       	ldi	r18, 0x39	; 57
    58da:	33 e0       	ldi	r19, 0x03	; 3
    58dc:	40 e0       	ldi	r20, 0x00	; 0
    58de:	50 e0       	ldi	r21, 0x00	; 0
    58e0:	0e 94 05 01 	call	0x20a	; 0x20a <MFSetServoPos>
  MFSetServoPos(2,233,512);
    58e4:	62 e0       	ldi	r22, 0x02	; 2
    58e6:	70 e0       	ldi	r23, 0x00	; 0
    58e8:	80 e0       	ldi	r24, 0x00	; 0
    58ea:	90 e0       	ldi	r25, 0x00	; 0
    58ec:	29 ee       	ldi	r18, 0xE9	; 233
    58ee:	30 e0       	ldi	r19, 0x00	; 0
    58f0:	40 e0       	ldi	r20, 0x00	; 0
    58f2:	50 e0       	ldi	r21, 0x00	; 0
    58f4:	0e 94 05 01 	call	0x20a	; 0x20a <MFSetServoPos>
  MFSetServoPos(3,517,512);
    58f8:	63 e0       	ldi	r22, 0x03	; 3
    58fa:	70 e0       	ldi	r23, 0x00	; 0
    58fc:	80 e0       	ldi	r24, 0x00	; 0
    58fe:	90 e0       	ldi	r25, 0x00	; 0
    5900:	25 e0       	ldi	r18, 0x05	; 5
    5902:	32 e0       	ldi	r19, 0x02	; 2
    5904:	40 e0       	ldi	r20, 0x00	; 0
    5906:	50 e0       	ldi	r21, 0x00	; 0
    5908:	0e 94 05 01 	call	0x20a	; 0x20a <MFSetServoPos>
  MFSetServoPos(6,409,512);
    590c:	66 e0       	ldi	r22, 0x06	; 6
    590e:	70 e0       	ldi	r23, 0x00	; 0
    5910:	80 e0       	ldi	r24, 0x00	; 0
    5912:	90 e0       	ldi	r25, 0x00	; 0
    5914:	29 e9       	ldi	r18, 0x99	; 153
    5916:	31 e0       	ldi	r19, 0x01	; 1
    5918:	40 e0       	ldi	r20, 0x00	; 0
    591a:	50 e0       	ldi	r21, 0x00	; 0
    591c:	0e 94 05 01 	call	0x20a	; 0x20a <MFSetServoPos>
  MFSetServoPos(7,198,512);
    5920:	67 e0       	ldi	r22, 0x07	; 7
    5922:	70 e0       	ldi	r23, 0x00	; 0
    5924:	80 e0       	ldi	r24, 0x00	; 0
    5926:	90 e0       	ldi	r25, 0x00	; 0
    5928:	26 ec       	ldi	r18, 0xC6	; 198
    592a:	30 e0       	ldi	r19, 0x00	; 0
    592c:	40 e0       	ldi	r20, 0x00	; 0
    592e:	50 e0       	ldi	r21, 0x00	; 0
    5930:	0e 94 05 01 	call	0x20a	; 0x20a <MFSetServoPos>
  MFSetServoPos(8,243,512);
    5934:	68 e0       	ldi	r22, 0x08	; 8
    5936:	70 e0       	ldi	r23, 0x00	; 0
    5938:	80 e0       	ldi	r24, 0x00	; 0
    593a:	90 e0       	ldi	r25, 0x00	; 0
    593c:	23 ef       	ldi	r18, 0xF3	; 243
    593e:	30 e0       	ldi	r19, 0x00	; 0
    5940:	40 e0       	ldi	r20, 0x00	; 0
    5942:	50 e0       	ldi	r21, 0x00	; 0
    5944:	0e 94 05 01 	call	0x20a	; 0x20a <MFSetServoPos>
  MFServoAction();
    5948:	0e 94 d2 00 	call	0x1a4	; 0x1a4 <MFServoAction>
  DelayMS(1000);
    594c:	68 ee       	ldi	r22, 0xE8	; 232
    594e:	73 e0       	ldi	r23, 0x03	; 3
    5950:	80 e0       	ldi	r24, 0x00	; 0
    5952:	90 e0       	ldi	r25, 0x00	; 0
    5954:	0e 94 67 00 	call	0xce	; 0xce <DelayMS>

  MFSetServoPos(3,874,512);
    5958:	63 e0       	ldi	r22, 0x03	; 3
    595a:	70 e0       	ldi	r23, 0x00	; 0
    595c:	80 e0       	ldi	r24, 0x00	; 0
    595e:	90 e0       	ldi	r25, 0x00	; 0
    5960:	2a e6       	ldi	r18, 0x6A	; 106
    5962:	33 e0       	ldi	r19, 0x03	; 3
    5964:	40 e0       	ldi	r20, 0x00	; 0
    5966:	50 e0       	ldi	r21, 0x00	; 0
    5968:	0e 94 05 01 	call	0x20a	; 0x20a <MFSetServoPos>
  MFSetServoPos(6,87,512);
    596c:	66 e0       	ldi	r22, 0x06	; 6
    596e:	70 e0       	ldi	r23, 0x00	; 0
    5970:	80 e0       	ldi	r24, 0x00	; 0
    5972:	90 e0       	ldi	r25, 0x00	; 0
    5974:	27 e5       	ldi	r18, 0x57	; 87
    5976:	30 e0       	ldi	r19, 0x00	; 0
    5978:	40 e0       	ldi	r20, 0x00	; 0
    597a:	50 e0       	ldi	r21, 0x00	; 0
    597c:	0e 94 05 01 	call	0x20a	; 0x20a <MFSetServoPos>
  MFServoAction();
    5980:	0e 94 d2 00 	call	0x1a4	; 0x1a4 <MFServoAction>
  DelayMS(1000);
    5984:	68 ee       	ldi	r22, 0xE8	; 232
    5986:	73 e0       	ldi	r23, 0x03	; 3
    5988:	80 e0       	ldi	r24, 0x00	; 0
    598a:	90 e0       	ldi	r25, 0x00	; 0
    598c:	0e 94 67 00 	call	0xce	; 0xce <DelayMS>

  MFSetServoPos(1,523,512);
    5990:	61 e0       	ldi	r22, 0x01	; 1
    5992:	70 e0       	ldi	r23, 0x00	; 0
    5994:	80 e0       	ldi	r24, 0x00	; 0
    5996:	90 e0       	ldi	r25, 0x00	; 0
    5998:	2b e0       	ldi	r18, 0x0B	; 11
    599a:	32 e0       	ldi	r19, 0x02	; 2
    599c:	40 e0       	ldi	r20, 0x00	; 0
    599e:	50 e0       	ldi	r21, 0x00	; 0
    59a0:	0e 94 05 01 	call	0x20a	; 0x20a <MFSetServoPos>
  MFSetServoPos(2,485,512);
    59a4:	62 e0       	ldi	r22, 0x02	; 2
    59a6:	70 e0       	ldi	r23, 0x00	; 0
    59a8:	80 e0       	ldi	r24, 0x00	; 0
    59aa:	90 e0       	ldi	r25, 0x00	; 0
    59ac:	25 ee       	ldi	r18, 0xE5	; 229
    59ae:	31 e0       	ldi	r19, 0x01	; 1
    59b0:	40 e0       	ldi	r20, 0x00	; 0
    59b2:	50 e0       	ldi	r21, 0x00	; 0
    59b4:	0e 94 05 01 	call	0x20a	; 0x20a <MFSetServoPos>
  MFSetServoPos(7,479,512);
    59b8:	67 e0       	ldi	r22, 0x07	; 7
    59ba:	70 e0       	ldi	r23, 0x00	; 0
    59bc:	80 e0       	ldi	r24, 0x00	; 0
    59be:	90 e0       	ldi	r25, 0x00	; 0
    59c0:	2f ed       	ldi	r18, 0xDF	; 223
    59c2:	31 e0       	ldi	r19, 0x01	; 1
    59c4:	40 e0       	ldi	r20, 0x00	; 0
    59c6:	50 e0       	ldi	r21, 0x00	; 0
    59c8:	0e 94 05 01 	call	0x20a	; 0x20a <MFSetServoPos>
  MFSetServoPos(8,513,512);
    59cc:	68 e0       	ldi	r22, 0x08	; 8
    59ce:	70 e0       	ldi	r23, 0x00	; 0
    59d0:	80 e0       	ldi	r24, 0x00	; 0
    59d2:	90 e0       	ldi	r25, 0x00	; 0
    59d4:	21 e0       	ldi	r18, 0x01	; 1
    59d6:	32 e0       	ldi	r19, 0x02	; 2
    59d8:	40 e0       	ldi	r20, 0x00	; 0
    59da:	50 e0       	ldi	r21, 0x00	; 0
    59dc:	0e 94 05 01 	call	0x20a	; 0x20a <MFSetServoPos>
  MFServoAction();
    59e0:	0e 94 d2 00 	call	0x1a4	; 0x1a4 <MFServoAction>
  DelayMS(1000);
    59e4:	68 ee       	ldi	r22, 0xE8	; 232
    59e6:	73 e0       	ldi	r23, 0x03	; 3
    59e8:	80 e0       	ldi	r24, 0x00	; 0
    59ea:	90 e0       	ldi	r25, 0x00	; 0
    59ec:	0e 94 67 00 	call	0xce	; 0xce <DelayMS>

  MFSetServoPos(4,742,512);//吧弯腰
    59f0:	64 e0       	ldi	r22, 0x04	; 4
    59f2:	70 e0       	ldi	r23, 0x00	; 0
    59f4:	80 e0       	ldi	r24, 0x00	; 0
    59f6:	90 e0       	ldi	r25, 0x00	; 0
    59f8:	26 ee       	ldi	r18, 0xE6	; 230
    59fa:	32 e0       	ldi	r19, 0x02	; 2
    59fc:	40 e0       	ldi	r20, 0x00	; 0
    59fe:	50 e0       	ldi	r21, 0x00	; 0
    5a00:	0e 94 05 01 	call	0x20a	; 0x20a <MFSetServoPos>
  MFSetServoPos(5,320,512);
    5a04:	65 e0       	ldi	r22, 0x05	; 5
    5a06:	70 e0       	ldi	r23, 0x00	; 0
    5a08:	80 e0       	ldi	r24, 0x00	; 0
    5a0a:	90 e0       	ldi	r25, 0x00	; 0
    5a0c:	20 e4       	ldi	r18, 0x40	; 64
    5a0e:	31 e0       	ldi	r19, 0x01	; 1
    5a10:	40 e0       	ldi	r20, 0x00	; 0
    5a12:	50 e0       	ldi	r21, 0x00	; 0
    5a14:	0e 94 05 01 	call	0x20a	; 0x20a <MFSetServoPos>
  MFServoAction();
    5a18:	0e 94 d2 00 	call	0x1a4	; 0x1a4 <MFServoAction>
  DelayMS(1000);
    5a1c:	68 ee       	ldi	r22, 0xE8	; 232
    5a1e:	73 e0       	ldi	r23, 0x03	; 3
    5a20:	80 e0       	ldi	r24, 0x00	; 0
    5a22:	90 e0       	ldi	r25, 0x00	; 0
    5a24:	0e 94 67 00 	call	0xce	; 0xce <DelayMS>
  zhili();
    5a28:	0e 94 d1 2b 	call	0x57a2	; 0x57a2 <zhili>
  shou_yubei();
    5a2c:	0e 94 f6 2b 	call	0x57ec	; 0x57ec <shou_yubei>
  DelayMS(1000);
    5a30:	68 ee       	ldi	r22, 0xE8	; 232
    5a32:	73 e0       	ldi	r23, 0x03	; 3
    5a34:	80 e0       	ldi	r24, 0x00	; 0
    5a36:	90 e0       	ldi	r25, 0x00	; 0
    5a38:	0e 94 67 00 	call	0xce	; 0xce <DelayMS>
//  MFSetServoPos(3,563,512);
//  MFSetServoPos(6,401,512);
}
    5a3c:	1f 91       	pop	r17
    5a3e:	0f 91       	pop	r16
    5a40:	ff 90       	pop	r15
    5a42:	ef 90       	pop	r14
    5a44:	08 95       	ret

00005a46 <RelativeMove>:
}
int danger(){
	if(AD0<dangerInt)
		return 1;
}
int RelativeMove(void) {//运动的趋势
    5a46:	ef 92       	push	r14
    5a48:	ff 92       	push	r15
    5a4a:	0f 93       	push	r16
    5a4c:	1f 93       	push	r17
	int pre,now;
	pre=AD0;
    5a4e:	60 e0       	ldi	r22, 0x00	; 0
    5a50:	70 e0       	ldi	r23, 0x00	; 0
    5a52:	80 e0       	ldi	r24, 0x00	; 0
    5a54:	90 e0       	ldi	r25, 0x00	; 0
    5a56:	0e 94 96 00 	call	0x12c	; 0x12c <MFGetAD>
    5a5a:	7b 01       	movw	r14, r22
    5a5c:	8c 01       	movw	r16, r24
	DelayMS(100);
    5a5e:	64 e6       	ldi	r22, 0x64	; 100
    5a60:	70 e0       	ldi	r23, 0x00	; 0
    5a62:	80 e0       	ldi	r24, 0x00	; 0
    5a64:	90 e0       	ldi	r25, 0x00	; 0
    5a66:	0e 94 67 00 	call	0xce	; 0xce <DelayMS>
	now=AD0;
    5a6a:	60 e0       	ldi	r22, 0x00	; 0
    5a6c:	70 e0       	ldi	r23, 0x00	; 0
    5a6e:	80 e0       	ldi	r24, 0x00	; 0
    5a70:	90 e0       	ldi	r25, 0x00	; 0
    5a72:	0e 94 96 00 	call	0x12c	; 0x12c <MFGetAD>
    5a76:	9b 01       	movw	r18, r22
    5a78:	ac 01       	movw	r20, r24
    5a7a:	2e 19       	sub	r18, r14
    5a7c:	3f 09       	sbc	r19, r15
	return now-pre;
}
    5a7e:	c9 01       	movw	r24, r18
    5a80:	1f 91       	pop	r17
    5a82:	0f 91       	pop	r16
    5a84:	ff 90       	pop	r15
    5a86:	ef 90       	pop	r14
    5a88:	08 95       	ret

00005a8a <danger>:
	MFSetServoPos(6,512,300);
	MFSetServoPos(3,512,300);
	MFServoAction();
}
int danger(){
	if(AD0<dangerInt)
    5a8a:	60 e0       	ldi	r22, 0x00	; 0
    5a8c:	70 e0       	ldi	r23, 0x00	; 0
    5a8e:	80 e0       	ldi	r24, 0x00	; 0
    5a90:	90 e0       	ldi	r25, 0x00	; 0
    5a92:	0e 94 96 00 	call	0x12c	; 0x12c <MFGetAD>
    5a96:	20 91 a0 08 	lds	r18, 0x08A0
    5a9a:	30 91 a1 08 	lds	r19, 0x08A1
    5a9e:	44 27       	eor	r20, r20
    5aa0:	37 fd       	sbrc	r19, 7
    5aa2:	40 95       	com	r20
    5aa4:	54 2f       	mov	r21, r20
    5aa6:	62 17       	cp	r22, r18
    5aa8:	73 07       	cpc	r23, r19
    5aaa:	84 07       	cpc	r24, r20
    5aac:	95 07       	cpc	r25, r21
    5aae:	1c f4       	brge	.+6      	; 0x5ab6 <danger+0x2c>
		return 1;
}
    5ab0:	81 e0       	ldi	r24, 0x01	; 1
    5ab2:	90 e0       	ldi	r25, 0x00	; 0
    5ab4:	08 95       	ret
    5ab6:	08 95       	ret

00005ab8 <move>:
		  DelayMS(400);
	}

}
void move(int x,int y )
{
    5ab8:	ef 92       	push	r14
    5aba:	ff 92       	push	r15
    5abc:	0f 93       	push	r16
    5abe:	1f 93       	push	r17
    5ac0:	7b 01       	movw	r14, r22
//  gd2 = MFGetDigiInput(2);
  MFSetServoRotaSpd(9,x);
    5ac2:	9c 01       	movw	r18, r24
    5ac4:	44 27       	eor	r20, r20
    5ac6:	37 fd       	sbrc	r19, 7
    5ac8:	40 95       	com	r20
    5aca:	54 2f       	mov	r21, r20
    5acc:	69 e0       	ldi	r22, 0x09	; 9
    5ace:	70 e0       	ldi	r23, 0x00	; 0
    5ad0:	80 e0       	ldi	r24, 0x00	; 0
    5ad2:	90 e0       	ldi	r25, 0x00	; 0
    5ad4:	0e 94 da 00 	call	0x1b4	; 0x1b4 <MFSetServoRotaSpd>
  MFSetServoRotaSpd(10,-y);
    5ad8:	f0 94       	com	r15
    5ada:	e1 94       	neg	r14
    5adc:	f1 08       	sbc	r15, r1
    5ade:	f3 94       	inc	r15
    5ae0:	00 27       	eor	r16, r16
    5ae2:	f7 fc       	sbrc	r15, 7
    5ae4:	00 95       	com	r16
    5ae6:	10 2f       	mov	r17, r16
    5ae8:	6a e0       	ldi	r22, 0x0A	; 10
    5aea:	70 e0       	ldi	r23, 0x00	; 0
    5aec:	80 e0       	ldi	r24, 0x00	; 0
    5aee:	90 e0       	ldi	r25, 0x00	; 0
    5af0:	a8 01       	movw	r20, r16
    5af2:	97 01       	movw	r18, r14
    5af4:	0e 94 da 00 	call	0x1b4	; 0x1b4 <MFSetServoRotaSpd>
  MFServoAction();
    5af8:	0e 94 d2 00 	call	0x1a4	; 0x1a4 <MFServoAction>
}
    5afc:	1f 91       	pop	r17
    5afe:	0f 91       	pop	r16
    5b00:	ff 90       	pop	r15
    5b02:	ef 90       	pop	r14
    5b04:	08 95       	ret

00005b06 <huanchong>:

void huanchong(int nowspeed,int level){
    5b06:	ef 92       	push	r14
    5b08:	ff 92       	push	r15
    5b0a:	0f 93       	push	r16
    5b0c:	1f 93       	push	r17
    5b0e:	cf 93       	push	r28
    5b10:	df 93       	push	r29
    5b12:	ec 01       	movw	r28, r24
    5b14:	7b 01       	movw	r14, r22
    5b16:	00 e0       	ldi	r16, 0x00	; 0
    5b18:	10 e0       	ldi	r17, 0x00	; 0
    5b1a:	12 c0       	rjmp	.+36     	; 0x5b40 <huanchong+0x3a>
	for(int i=0;i<level;i++){
		move(nowspeed-(nowspeed/level),nowspeed-(nowspeed/level));
    5b1c:	ce 01       	movw	r24, r28
    5b1e:	b7 01       	movw	r22, r14
    5b20:	0e 94 14 40 	call	0x8028	; 0x8028 <__divmodhi4>
    5b24:	c6 1b       	sub	r28, r22
    5b26:	d7 0b       	sbc	r29, r23
    5b28:	ce 01       	movw	r24, r28
    5b2a:	be 01       	movw	r22, r28
    5b2c:	0e 94 5c 2d 	call	0x5ab8	; 0x5ab8 <move>
		nowspeed-=(nowspeed/level);
		DelayMS(10);
    5b30:	6a e0       	ldi	r22, 0x0A	; 10
    5b32:	70 e0       	ldi	r23, 0x00	; 0
    5b34:	80 e0       	ldi	r24, 0x00	; 0
    5b36:	90 e0       	ldi	r25, 0x00	; 0
    5b38:	0e 94 67 00 	call	0xce	; 0xce <DelayMS>
  MFSetServoRotaSpd(10,-y);
  MFServoAction();
}

void huanchong(int nowspeed,int level){
	for(int i=0;i<level;i++){
    5b3c:	0f 5f       	subi	r16, 0xFF	; 255
    5b3e:	1f 4f       	sbci	r17, 0xFF	; 255
    5b40:	0e 15       	cp	r16, r14
    5b42:	1f 05       	cpc	r17, r15
    5b44:	5c f3       	brlt	.-42     	; 0x5b1c <huanchong+0x16>
		move(nowspeed-(nowspeed/level),nowspeed-(nowspeed/level));
		nowspeed-=(nowspeed/level);
		DelayMS(10);
	}
	move(0,0);
    5b46:	80 e0       	ldi	r24, 0x00	; 0
    5b48:	90 e0       	ldi	r25, 0x00	; 0
    5b4a:	60 e0       	ldi	r22, 0x00	; 0
    5b4c:	70 e0       	ldi	r23, 0x00	; 0
    5b4e:	0e 94 5c 2d 	call	0x5ab8	; 0x5ab8 <move>
}
    5b52:	df 91       	pop	r29
    5b54:	cf 91       	pop	r28
    5b56:	1f 91       	pop	r17
    5b58:	0f 91       	pop	r16
    5b5a:	ff 90       	pop	r15
    5b5c:	ef 90       	pop	r14
    5b5e:	08 95       	ret

00005b60 <gongji>:
  // flag2 = 1 + 0;
  // flag1 = 1 + 1;
}

void gongji()
{
    5b60:	ef 92       	push	r14
    5b62:	ff 92       	push	r15
    5b64:	0f 93       	push	r16
    5b66:	1f 93       	push	r17
	if(AD0>dangerInt){
    5b68:	60 e0       	ldi	r22, 0x00	; 0
    5b6a:	70 e0       	ldi	r23, 0x00	; 0
    5b6c:	80 e0       	ldi	r24, 0x00	; 0
    5b6e:	90 e0       	ldi	r25, 0x00	; 0
    5b70:	0e 94 96 00 	call	0x12c	; 0x12c <MFGetAD>
    5b74:	20 91 a0 08 	lds	r18, 0x08A0
    5b78:	30 91 a1 08 	lds	r19, 0x08A1
    5b7c:	44 27       	eor	r20, r20
    5b7e:	37 fd       	sbrc	r19, 7
    5b80:	40 95       	com	r20
    5b82:	54 2f       	mov	r21, r20
    5b84:	26 17       	cp	r18, r22
    5b86:	37 07       	cpc	r19, r23
    5b88:	48 07       	cpc	r20, r24
    5b8a:	59 07       	cpc	r21, r25
    5b8c:	0c f0       	brlt	.+2      	; 0x5b90 <gongji+0x30>
    5b8e:	98 c0       	rjmp	.+304    	; 0x5cc0 <gongji+0x160>
		  move(300,300);
    5b90:	8c e2       	ldi	r24, 0x2C	; 44
    5b92:	91 e0       	ldi	r25, 0x01	; 1
    5b94:	6c e2       	ldi	r22, 0x2C	; 44
    5b96:	71 e0       	ldi	r23, 0x01	; 1
    5b98:	0e 94 5c 2d 	call	0x5ab8	; 0x5ab8 <move>
		  zhili();
    5b9c:	0e 94 d1 2b 	call	0x57a2	; 0x57a2 <zhili>
		  MFSetServoPos(3,190,500);
    5ba0:	63 e0       	ldi	r22, 0x03	; 3
    5ba2:	70 e0       	ldi	r23, 0x00	; 0
    5ba4:	80 e0       	ldi	r24, 0x00	; 0
    5ba6:	90 e0       	ldi	r25, 0x00	; 0
    5ba8:	2e eb       	ldi	r18, 0xBE	; 190
    5baa:	30 e0       	ldi	r19, 0x00	; 0
    5bac:	40 e0       	ldi	r20, 0x00	; 0
    5bae:	50 e0       	ldi	r21, 0x00	; 0
    5bb0:	e4 ef       	ldi	r30, 0xF4	; 244
    5bb2:	ee 2e       	mov	r14, r30
    5bb4:	e1 e0       	ldi	r30, 0x01	; 1
    5bb6:	fe 2e       	mov	r15, r30
    5bb8:	01 2d       	mov	r16, r1
    5bba:	11 2d       	mov	r17, r1
    5bbc:	0e 94 05 01 	call	0x20a	; 0x20a <MFSetServoPos>
		  MFSetServoPos(6,760,500);
    5bc0:	66 e0       	ldi	r22, 0x06	; 6
    5bc2:	70 e0       	ldi	r23, 0x00	; 0
    5bc4:	80 e0       	ldi	r24, 0x00	; 0
    5bc6:	90 e0       	ldi	r25, 0x00	; 0
    5bc8:	28 ef       	ldi	r18, 0xF8	; 248
    5bca:	32 e0       	ldi	r19, 0x02	; 2
    5bcc:	40 e0       	ldi	r20, 0x00	; 0
    5bce:	50 e0       	ldi	r21, 0x00	; 0
    5bd0:	0e 94 05 01 	call	0x20a	; 0x20a <MFSetServoPos>

		  //准备
		  MFSetServoPos(1,873,1023);
    5bd4:	61 e0       	ldi	r22, 0x01	; 1
    5bd6:	70 e0       	ldi	r23, 0x00	; 0
    5bd8:	80 e0       	ldi	r24, 0x00	; 0
    5bda:	90 e0       	ldi	r25, 0x00	; 0
    5bdc:	29 e6       	ldi	r18, 0x69	; 105
    5bde:	33 e0       	ldi	r19, 0x03	; 3
    5be0:	40 e0       	ldi	r20, 0x00	; 0
    5be2:	50 e0       	ldi	r21, 0x00	; 0
    5be4:	bf ef       	ldi	r27, 0xFF	; 255
    5be6:	eb 2e       	mov	r14, r27
    5be8:	b3 e0       	ldi	r27, 0x03	; 3
    5bea:	fb 2e       	mov	r15, r27
    5bec:	01 2d       	mov	r16, r1
    5bee:	11 2d       	mov	r17, r1
    5bf0:	0e 94 05 01 	call	0x20a	; 0x20a <MFSetServoPos>
		  MFSetServoPos(8,248,1023);
    5bf4:	68 e0       	ldi	r22, 0x08	; 8
    5bf6:	70 e0       	ldi	r23, 0x00	; 0
    5bf8:	80 e0       	ldi	r24, 0x00	; 0
    5bfa:	90 e0       	ldi	r25, 0x00	; 0
    5bfc:	28 ef       	ldi	r18, 0xF8	; 248
    5bfe:	30 e0       	ldi	r19, 0x00	; 0
    5c00:	40 e0       	ldi	r20, 0x00	; 0
    5c02:	50 e0       	ldi	r21, 0x00	; 0
    5c04:	0e 94 05 01 	call	0x20a	; 0x20a <MFSetServoPos>
		  MFServoAction();
    5c08:	0e 94 d2 00 	call	0x1a4	; 0x1a4 <MFServoAction>
		  DelayMS(100);
    5c0c:	64 e6       	ldi	r22, 0x64	; 100
    5c0e:	70 e0       	ldi	r23, 0x00	; 0
    5c10:	80 e0       	ldi	r24, 0x00	; 0
    5c12:	90 e0       	ldi	r25, 0x00	; 0
    5c14:	0e 94 67 00 	call	0xce	; 0xce <DelayMS>

		  MFSetServoPos(2,859,1023);
    5c18:	62 e0       	ldi	r22, 0x02	; 2
    5c1a:	70 e0       	ldi	r23, 0x00	; 0
    5c1c:	80 e0       	ldi	r24, 0x00	; 0
    5c1e:	90 e0       	ldi	r25, 0x00	; 0
    5c20:	2b e5       	ldi	r18, 0x5B	; 91
    5c22:	33 e0       	ldi	r19, 0x03	; 3
    5c24:	40 e0       	ldi	r20, 0x00	; 0
    5c26:	50 e0       	ldi	r21, 0x00	; 0
    5c28:	0e 94 05 01 	call	0x20a	; 0x20a <MFSetServoPos>
		  MFSetServoPos(7,846,1023);
    5c2c:	67 e0       	ldi	r22, 0x07	; 7
    5c2e:	70 e0       	ldi	r23, 0x00	; 0
    5c30:	80 e0       	ldi	r24, 0x00	; 0
    5c32:	90 e0       	ldi	r25, 0x00	; 0
    5c34:	2e e4       	ldi	r18, 0x4E	; 78
    5c36:	33 e0       	ldi	r19, 0x03	; 3
    5c38:	40 e0       	ldi	r20, 0x00	; 0
    5c3a:	50 e0       	ldi	r21, 0x00	; 0
    5c3c:	0e 94 05 01 	call	0x20a	; 0x20a <MFSetServoPos>
		  MFServoAction();
    5c40:	0e 94 d2 00 	call	0x1a4	; 0x1a4 <MFServoAction>
		  //move(400,400);
		  DelayMS(400);
    5c44:	60 e9       	ldi	r22, 0x90	; 144
    5c46:	71 e0       	ldi	r23, 0x01	; 1
    5c48:	80 e0       	ldi	r24, 0x00	; 0
    5c4a:	90 e0       	ldi	r25, 0x00	; 0
    5c4c:	0e 94 67 00 	call	0xce	; 0xce <DelayMS>

		//  MFSetServoPos(3,190,190);

		//  MFSetServoPos(6,760,500);、
		  //戳
		  MFSetServoPos(1,473,1023);
    5c50:	61 e0       	ldi	r22, 0x01	; 1
    5c52:	70 e0       	ldi	r23, 0x00	; 0
    5c54:	80 e0       	ldi	r24, 0x00	; 0
    5c56:	90 e0       	ldi	r25, 0x00	; 0
    5c58:	29 ed       	ldi	r18, 0xD9	; 217
    5c5a:	31 e0       	ldi	r19, 0x01	; 1
    5c5c:	40 e0       	ldi	r20, 0x00	; 0
    5c5e:	50 e0       	ldi	r21, 0x00	; 0
    5c60:	0e 94 05 01 	call	0x20a	; 0x20a <MFSetServoPos>
		  MFSetServoPos(8,574,1023);
    5c64:	68 e0       	ldi	r22, 0x08	; 8
    5c66:	70 e0       	ldi	r23, 0x00	; 0
    5c68:	80 e0       	ldi	r24, 0x00	; 0
    5c6a:	90 e0       	ldi	r25, 0x00	; 0
    5c6c:	2e e3       	ldi	r18, 0x3E	; 62
    5c6e:	32 e0       	ldi	r19, 0x02	; 2
    5c70:	40 e0       	ldi	r20, 0x00	; 0
    5c72:	50 e0       	ldi	r21, 0x00	; 0
    5c74:	0e 94 05 01 	call	0x20a	; 0x20a <MFSetServoPos>
		  MFServoAction();
    5c78:	0e 94 d2 00 	call	0x1a4	; 0x1a4 <MFServoAction>
		  DelayMS(100);
    5c7c:	64 e6       	ldi	r22, 0x64	; 100
    5c7e:	70 e0       	ldi	r23, 0x00	; 0
    5c80:	80 e0       	ldi	r24, 0x00	; 0
    5c82:	90 e0       	ldi	r25, 0x00	; 0
    5c84:	0e 94 67 00 	call	0xce	; 0xce <DelayMS>
		//  MFSetServoPos(4,508,500);
		//  MFSetServoPos(5,566,500);
		  MFSetServoPos(7,603,1023);
    5c88:	67 e0       	ldi	r22, 0x07	; 7
    5c8a:	70 e0       	ldi	r23, 0x00	; 0
    5c8c:	80 e0       	ldi	r24, 0x00	; 0
    5c8e:	90 e0       	ldi	r25, 0x00	; 0
    5c90:	2b e5       	ldi	r18, 0x5B	; 91
    5c92:	32 e0       	ldi	r19, 0x02	; 2
    5c94:	40 e0       	ldi	r20, 0x00	; 0
    5c96:	50 e0       	ldi	r21, 0x00	; 0
    5c98:	0e 94 05 01 	call	0x20a	; 0x20a <MFSetServoPos>
		  MFSetServoPos(2,574,1023);
    5c9c:	62 e0       	ldi	r22, 0x02	; 2
    5c9e:	70 e0       	ldi	r23, 0x00	; 0
    5ca0:	80 e0       	ldi	r24, 0x00	; 0
    5ca2:	90 e0       	ldi	r25, 0x00	; 0
    5ca4:	2e e3       	ldi	r18, 0x3E	; 62
    5ca6:	32 e0       	ldi	r19, 0x02	; 2
    5ca8:	40 e0       	ldi	r20, 0x00	; 0
    5caa:	50 e0       	ldi	r21, 0x00	; 0
    5cac:	0e 94 05 01 	call	0x20a	; 0x20a <MFSetServoPos>
		  MFServoAction();
    5cb0:	0e 94 d2 00 	call	0x1a4	; 0x1a4 <MFServoAction>
		  //move(400,400);
		  DelayMS(400);
    5cb4:	60 e9       	ldi	r22, 0x90	; 144
    5cb6:	71 e0       	ldi	r23, 0x01	; 1
    5cb8:	80 e0       	ldi	r24, 0x00	; 0
    5cba:	90 e0       	ldi	r25, 0x00	; 0
    5cbc:	0e 94 67 00 	call	0xce	; 0xce <DelayMS>
	}

}
    5cc0:	1f 91       	pop	r17
    5cc2:	0f 91       	pop	r16
    5cc4:	ff 90       	pop	r15
    5cc6:	ef 90       	pop	r14
    5cc8:	08 95       	ret

00005cca <shangtai>:
  	  standup();
    }
  }
}
void shangtai()
{
    5cca:	ef 92       	push	r14
    5ccc:	ff 92       	push	r15
    5cce:	0f 93       	push	r16
    5cd0:	1f 93       	push	r17
  MFSetServoPos(4,512,300);
    5cd2:	64 e0       	ldi	r22, 0x04	; 4
    5cd4:	70 e0       	ldi	r23, 0x00	; 0
    5cd6:	80 e0       	ldi	r24, 0x00	; 0
    5cd8:	90 e0       	ldi	r25, 0x00	; 0
    5cda:	20 e0       	ldi	r18, 0x00	; 0
    5cdc:	32 e0       	ldi	r19, 0x02	; 2
    5cde:	40 e0       	ldi	r20, 0x00	; 0
    5ce0:	50 e0       	ldi	r21, 0x00	; 0
    5ce2:	ac e2       	ldi	r26, 0x2C	; 44
    5ce4:	ea 2e       	mov	r14, r26
    5ce6:	a1 e0       	ldi	r26, 0x01	; 1
    5ce8:	fa 2e       	mov	r15, r26
    5cea:	01 2d       	mov	r16, r1
    5cec:	11 2d       	mov	r17, r1
    5cee:	0e 94 05 01 	call	0x20a	; 0x20a <MFSetServoPos>
  MFSetServoPos(5,552,300);
    5cf2:	65 e0       	ldi	r22, 0x05	; 5
    5cf4:	70 e0       	ldi	r23, 0x00	; 0
    5cf6:	80 e0       	ldi	r24, 0x00	; 0
    5cf8:	90 e0       	ldi	r25, 0x00	; 0
    5cfa:	28 e2       	ldi	r18, 0x28	; 40
    5cfc:	32 e0       	ldi	r19, 0x02	; 2
    5cfe:	40 e0       	ldi	r20, 0x00	; 0
    5d00:	50 e0       	ldi	r21, 0x00	; 0
    5d02:	0e 94 05 01 	call	0x20a	; 0x20a <MFSetServoPos>

  move(0,0);
    5d06:	80 e0       	ldi	r24, 0x00	; 0
    5d08:	90 e0       	ldi	r25, 0x00	; 0
    5d0a:	60 e0       	ldi	r22, 0x00	; 0
    5d0c:	70 e0       	ldi	r23, 0x00	; 0
    5d0e:	0e 94 5c 2d 	call	0x5ab8	; 0x5ab8 <move>
  DelayMS(1400);
    5d12:	68 e7       	ldi	r22, 0x78	; 120
    5d14:	75 e0       	ldi	r23, 0x05	; 5
    5d16:	80 e0       	ldi	r24, 0x00	; 0
    5d18:	90 e0       	ldi	r25, 0x00	; 0
    5d1a:	0e 94 67 00 	call	0xce	; 0xce <DelayMS>
  MFSetServoPos(1,762,300);
    5d1e:	61 e0       	ldi	r22, 0x01	; 1
    5d20:	70 e0       	ldi	r23, 0x00	; 0
    5d22:	80 e0       	ldi	r24, 0x00	; 0
    5d24:	90 e0       	ldi	r25, 0x00	; 0
    5d26:	2a ef       	ldi	r18, 0xFA	; 250
    5d28:	32 e0       	ldi	r19, 0x02	; 2
    5d2a:	40 e0       	ldi	r20, 0x00	; 0
    5d2c:	50 e0       	ldi	r21, 0x00	; 0
    5d2e:	0e 94 05 01 	call	0x20a	; 0x20a <MFSetServoPos>
  MFSetServoPos(2,96,300);
    5d32:	62 e0       	ldi	r22, 0x02	; 2
    5d34:	70 e0       	ldi	r23, 0x00	; 0
    5d36:	80 e0       	ldi	r24, 0x00	; 0
    5d38:	90 e0       	ldi	r25, 0x00	; 0
    5d3a:	20 e6       	ldi	r18, 0x60	; 96
    5d3c:	30 e0       	ldi	r19, 0x00	; 0
    5d3e:	40 e0       	ldi	r20, 0x00	; 0
    5d40:	50 e0       	ldi	r21, 0x00	; 0
    5d42:	0e 94 05 01 	call	0x20a	; 0x20a <MFSetServoPos>
  MFSetServoPos(3,73,300);
    5d46:	63 e0       	ldi	r22, 0x03	; 3
    5d48:	70 e0       	ldi	r23, 0x00	; 0
    5d4a:	80 e0       	ldi	r24, 0x00	; 0
    5d4c:	90 e0       	ldi	r25, 0x00	; 0
    5d4e:	29 e4       	ldi	r18, 0x49	; 73
    5d50:	30 e0       	ldi	r19, 0x00	; 0
    5d52:	40 e0       	ldi	r20, 0x00	; 0
    5d54:	50 e0       	ldi	r21, 0x00	; 0
    5d56:	0e 94 05 01 	call	0x20a	; 0x20a <MFSetServoPos>

  MFSetServoPos(6,950,300);
    5d5a:	66 e0       	ldi	r22, 0x06	; 6
    5d5c:	70 e0       	ldi	r23, 0x00	; 0
    5d5e:	80 e0       	ldi	r24, 0x00	; 0
    5d60:	90 e0       	ldi	r25, 0x00	; 0
    5d62:	26 eb       	ldi	r18, 0xB6	; 182
    5d64:	33 e0       	ldi	r19, 0x03	; 3
    5d66:	40 e0       	ldi	r20, 0x00	; 0
    5d68:	50 e0       	ldi	r21, 0x00	; 0
    5d6a:	0e 94 05 01 	call	0x20a	; 0x20a <MFSetServoPos>
  MFSetServoPos(7,75,300);
    5d6e:	67 e0       	ldi	r22, 0x07	; 7
    5d70:	70 e0       	ldi	r23, 0x00	; 0
    5d72:	80 e0       	ldi	r24, 0x00	; 0
    5d74:	90 e0       	ldi	r25, 0x00	; 0
    5d76:	2b e4       	ldi	r18, 0x4B	; 75
    5d78:	30 e0       	ldi	r19, 0x00	; 0
    5d7a:	40 e0       	ldi	r20, 0x00	; 0
    5d7c:	50 e0       	ldi	r21, 0x00	; 0
    5d7e:	0e 94 05 01 	call	0x20a	; 0x20a <MFSetServoPos>
  MFSetServoPos(8,311,300);
    5d82:	68 e0       	ldi	r22, 0x08	; 8
    5d84:	70 e0       	ldi	r23, 0x00	; 0
    5d86:	80 e0       	ldi	r24, 0x00	; 0
    5d88:	90 e0       	ldi	r25, 0x00	; 0
    5d8a:	27 e3       	ldi	r18, 0x37	; 55
    5d8c:	31 e0       	ldi	r19, 0x01	; 1
    5d8e:	40 e0       	ldi	r20, 0x00	; 0
    5d90:	50 e0       	ldi	r21, 0x00	; 0
    5d92:	0e 94 05 01 	call	0x20a	; 0x20a <MFSetServoPos>
  MFServoAction();
    5d96:	0e 94 d2 00 	call	0x1a4	; 0x1a4 <MFServoAction>
  DelayMS(1400);
    5d9a:	68 e7       	ldi	r22, 0x78	; 120
    5d9c:	75 e0       	ldi	r23, 0x05	; 5
    5d9e:	80 e0       	ldi	r24, 0x00	; 0
    5da0:	90 e0       	ldi	r25, 0x00	; 0
    5da2:	0e 94 67 00 	call	0xce	; 0xce <DelayMS>
  MFSetServoPos(4,174,300);
    5da6:	64 e0       	ldi	r22, 0x04	; 4
    5da8:	70 e0       	ldi	r23, 0x00	; 0
    5daa:	80 e0       	ldi	r24, 0x00	; 0
    5dac:	90 e0       	ldi	r25, 0x00	; 0
    5dae:	2e ea       	ldi	r18, 0xAE	; 174
    5db0:	30 e0       	ldi	r19, 0x00	; 0
    5db2:	40 e0       	ldi	r20, 0x00	; 0
    5db4:	50 e0       	ldi	r21, 0x00	; 0
    5db6:	0e 94 05 01 	call	0x20a	; 0x20a <MFSetServoPos>
  MFSetServoPos(5,894,300);
    5dba:	65 e0       	ldi	r22, 0x05	; 5
    5dbc:	70 e0       	ldi	r23, 0x00	; 0
    5dbe:	80 e0       	ldi	r24, 0x00	; 0
    5dc0:	90 e0       	ldi	r25, 0x00	; 0
    5dc2:	2e e7       	ldi	r18, 0x7E	; 126
    5dc4:	33 e0       	ldi	r19, 0x03	; 3
    5dc6:	40 e0       	ldi	r20, 0x00	; 0
    5dc8:	50 e0       	ldi	r21, 0x00	; 0
    5dca:	0e 94 05 01 	call	0x20a	; 0x20a <MFSetServoPos>


  DelayMS(1000);
    5dce:	68 ee       	ldi	r22, 0xE8	; 232
    5dd0:	73 e0       	ldi	r23, 0x03	; 3
    5dd2:	80 e0       	ldi	r24, 0x00	; 0
    5dd4:	90 e0       	ldi	r25, 0x00	; 0
    5dd6:	0e 94 67 00 	call	0xce	; 0xce <DelayMS>

  move(500,500);//加速上台
    5dda:	84 ef       	ldi	r24, 0xF4	; 244
    5ddc:	91 e0       	ldi	r25, 0x01	; 1
    5dde:	64 ef       	ldi	r22, 0xF4	; 244
    5de0:	71 e0       	ldi	r23, 0x01	; 1
    5de2:	0e 94 5c 2d 	call	0x5ab8	; 0x5ab8 <move>
  DelayMS(1500);
    5de6:	6c ed       	ldi	r22, 0xDC	; 220
    5de8:	75 e0       	ldi	r23, 0x05	; 5
    5dea:	80 e0       	ldi	r24, 0x00	; 0
    5dec:	90 e0       	ldi	r25, 0x00	; 0
    5dee:	0e 94 67 00 	call	0xce	; 0xce <DelayMS>

  MFSetServoPos(4,512,300);//直腰
    5df2:	64 e0       	ldi	r22, 0x04	; 4
    5df4:	70 e0       	ldi	r23, 0x00	; 0
    5df6:	80 e0       	ldi	r24, 0x00	; 0
    5df8:	90 e0       	ldi	r25, 0x00	; 0
    5dfa:	20 e0       	ldi	r18, 0x00	; 0
    5dfc:	32 e0       	ldi	r19, 0x02	; 2
    5dfe:	40 e0       	ldi	r20, 0x00	; 0
    5e00:	50 e0       	ldi	r21, 0x00	; 0
    5e02:	0e 94 05 01 	call	0x20a	; 0x20a <MFSetServoPos>
  MFSetServoPos(5,552,300);
    5e06:	65 e0       	ldi	r22, 0x05	; 5
    5e08:	70 e0       	ldi	r23, 0x00	; 0
    5e0a:	80 e0       	ldi	r24, 0x00	; 0
    5e0c:	90 e0       	ldi	r25, 0x00	; 0
    5e0e:	28 e2       	ldi	r18, 0x28	; 40
    5e10:	32 e0       	ldi	r19, 0x02	; 2
    5e12:	40 e0       	ldi	r20, 0x00	; 0
    5e14:	50 e0       	ldi	r21, 0x00	; 0
    5e16:	0e 94 05 01 	call	0x20a	; 0x20a <MFSetServoPos>

  MFSetServoPos(3,512,512);//肩部
    5e1a:	63 e0       	ldi	r22, 0x03	; 3
    5e1c:	70 e0       	ldi	r23, 0x00	; 0
    5e1e:	80 e0       	ldi	r24, 0x00	; 0
    5e20:	90 e0       	ldi	r25, 0x00	; 0
    5e22:	20 e0       	ldi	r18, 0x00	; 0
    5e24:	32 e0       	ldi	r19, 0x02	; 2
    5e26:	40 e0       	ldi	r20, 0x00	; 0
    5e28:	50 e0       	ldi	r21, 0x00	; 0
    5e2a:	e1 2c       	mov	r14, r1
    5e2c:	f2 e0       	ldi	r31, 0x02	; 2
    5e2e:	ff 2e       	mov	r15, r31
    5e30:	01 2d       	mov	r16, r1
    5e32:	11 2d       	mov	r17, r1
    5e34:	0e 94 05 01 	call	0x20a	; 0x20a <MFSetServoPos>
  MFSetServoPos(6,512,512);
    5e38:	66 e0       	ldi	r22, 0x06	; 6
    5e3a:	70 e0       	ldi	r23, 0x00	; 0
    5e3c:	80 e0       	ldi	r24, 0x00	; 0
    5e3e:	90 e0       	ldi	r25, 0x00	; 0
    5e40:	20 e0       	ldi	r18, 0x00	; 0
    5e42:	32 e0       	ldi	r19, 0x02	; 2
    5e44:	40 e0       	ldi	r20, 0x00	; 0
    5e46:	50 e0       	ldi	r21, 0x00	; 0
    5e48:	0e 94 05 01 	call	0x20a	; 0x20a <MFSetServoPos>

  move(400,100);//拐向台中央
    5e4c:	80 e9       	ldi	r24, 0x90	; 144
    5e4e:	91 e0       	ldi	r25, 0x01	; 1
    5e50:	64 e6       	ldi	r22, 0x64	; 100
    5e52:	70 e0       	ldi	r23, 0x00	; 0
    5e54:	0e 94 5c 2d 	call	0x5ab8	; 0x5ab8 <move>
  DelayMS(500);
    5e58:	64 ef       	ldi	r22, 0xF4	; 244
    5e5a:	71 e0       	ldi	r23, 0x01	; 1
    5e5c:	80 e0       	ldi	r24, 0x00	; 0
    5e5e:	90 e0       	ldi	r25, 0x00	; 0
    5e60:	0e 94 67 00 	call	0xce	; 0xce <DelayMS>

  // flag2 = 1 + 0;
  // flag1 = 1 + 1;
}
    5e64:	1f 91       	pop	r17
    5e66:	0f 91       	pop	r16
    5e68:	ff 90       	pop	r15
    5e6a:	ef 90       	pop	r14
    5e6c:	08 95       	ret

00005e6e <main>:
int min(int a,int b,int c);
void shangtai();
void standup();
void zhili();
int main()
{
    5e6e:	ef 92       	push	r14
    5e70:	ff 92       	push	r15
    5e72:	0f 93       	push	r16
    5e74:	1f 93       	push	r17
    5e76:	cf 93       	push	r28
    5e78:	df 93       	push	r29
  MFInit();
    5e7a:	0e 94 4d 01 	call	0x29a	; 0x29a <MFInit>
  MFInitServoMapping(&SERVO_MAPPING[0],10);
    5e7e:	86 e9       	ldi	r24, 0x96	; 150
    5e80:	98 e0       	ldi	r25, 0x08	; 8
    5e82:	6a e0       	ldi	r22, 0x0A	; 10
    5e84:	0e 94 25 01 	call	0x24a	; 0x24a <MFInitServoMapping>
  MFSetPortDirect(0x00000E00);
    5e88:	60 e0       	ldi	r22, 0x00	; 0
    5e8a:	7e e0       	ldi	r23, 0x0E	; 14
    5e8c:	80 e0       	ldi	r24, 0x00	; 0
    5e8e:	90 e0       	ldi	r25, 0x00	; 0
    5e90:	0e 94 6f 00 	call	0xde	; 0xde <MFSetPortDirect>
  MFSetServoMode(1,0);
    5e94:	61 e0       	ldi	r22, 0x01	; 1
    5e96:	70 e0       	ldi	r23, 0x00	; 0
    5e98:	80 e0       	ldi	r24, 0x00	; 0
    5e9a:	90 e0       	ldi	r25, 0x00	; 0
    5e9c:	20 e0       	ldi	r18, 0x00	; 0
    5e9e:	30 e0       	ldi	r19, 0x00	; 0
    5ea0:	40 e0       	ldi	r20, 0x00	; 0
    5ea2:	50 e0       	ldi	r21, 0x00	; 0
    5ea4:	0e 94 b0 00 	call	0x160	; 0x160 <MFSetServoMode>
  MFSetServoMode(2,0);
    5ea8:	62 e0       	ldi	r22, 0x02	; 2
    5eaa:	70 e0       	ldi	r23, 0x00	; 0
    5eac:	80 e0       	ldi	r24, 0x00	; 0
    5eae:	90 e0       	ldi	r25, 0x00	; 0
    5eb0:	20 e0       	ldi	r18, 0x00	; 0
    5eb2:	30 e0       	ldi	r19, 0x00	; 0
    5eb4:	40 e0       	ldi	r20, 0x00	; 0
    5eb6:	50 e0       	ldi	r21, 0x00	; 0
    5eb8:	0e 94 b0 00 	call	0x160	; 0x160 <MFSetServoMode>
  MFSetServoMode(3,0);
    5ebc:	63 e0       	ldi	r22, 0x03	; 3
    5ebe:	70 e0       	ldi	r23, 0x00	; 0
    5ec0:	80 e0       	ldi	r24, 0x00	; 0
    5ec2:	90 e0       	ldi	r25, 0x00	; 0
    5ec4:	20 e0       	ldi	r18, 0x00	; 0
    5ec6:	30 e0       	ldi	r19, 0x00	; 0
    5ec8:	40 e0       	ldi	r20, 0x00	; 0
    5eca:	50 e0       	ldi	r21, 0x00	; 0
    5ecc:	0e 94 b0 00 	call	0x160	; 0x160 <MFSetServoMode>
  MFSetServoMode(4,0);
    5ed0:	64 e0       	ldi	r22, 0x04	; 4
    5ed2:	70 e0       	ldi	r23, 0x00	; 0
    5ed4:	80 e0       	ldi	r24, 0x00	; 0
    5ed6:	90 e0       	ldi	r25, 0x00	; 0
    5ed8:	20 e0       	ldi	r18, 0x00	; 0
    5eda:	30 e0       	ldi	r19, 0x00	; 0
    5edc:	40 e0       	ldi	r20, 0x00	; 0
    5ede:	50 e0       	ldi	r21, 0x00	; 0
    5ee0:	0e 94 b0 00 	call	0x160	; 0x160 <MFSetServoMode>
  MFSetServoMode(5,0);
    5ee4:	65 e0       	ldi	r22, 0x05	; 5
    5ee6:	70 e0       	ldi	r23, 0x00	; 0
    5ee8:	80 e0       	ldi	r24, 0x00	; 0
    5eea:	90 e0       	ldi	r25, 0x00	; 0
    5eec:	20 e0       	ldi	r18, 0x00	; 0
    5eee:	30 e0       	ldi	r19, 0x00	; 0
    5ef0:	40 e0       	ldi	r20, 0x00	; 0
    5ef2:	50 e0       	ldi	r21, 0x00	; 0
    5ef4:	0e 94 b0 00 	call	0x160	; 0x160 <MFSetServoMode>
  MFSetServoMode(6,0);
    5ef8:	66 e0       	ldi	r22, 0x06	; 6
    5efa:	70 e0       	ldi	r23, 0x00	; 0
    5efc:	80 e0       	ldi	r24, 0x00	; 0
    5efe:	90 e0       	ldi	r25, 0x00	; 0
    5f00:	20 e0       	ldi	r18, 0x00	; 0
    5f02:	30 e0       	ldi	r19, 0x00	; 0
    5f04:	40 e0       	ldi	r20, 0x00	; 0
    5f06:	50 e0       	ldi	r21, 0x00	; 0
    5f08:	0e 94 b0 00 	call	0x160	; 0x160 <MFSetServoMode>
  MFSetServoMode(7,0);
    5f0c:	67 e0       	ldi	r22, 0x07	; 7
    5f0e:	70 e0       	ldi	r23, 0x00	; 0
    5f10:	80 e0       	ldi	r24, 0x00	; 0
    5f12:	90 e0       	ldi	r25, 0x00	; 0
    5f14:	20 e0       	ldi	r18, 0x00	; 0
    5f16:	30 e0       	ldi	r19, 0x00	; 0
    5f18:	40 e0       	ldi	r20, 0x00	; 0
    5f1a:	50 e0       	ldi	r21, 0x00	; 0
    5f1c:	0e 94 b0 00 	call	0x160	; 0x160 <MFSetServoMode>
  MFSetServoMode(9,1);
    5f20:	69 e0       	ldi	r22, 0x09	; 9
    5f22:	70 e0       	ldi	r23, 0x00	; 0
    5f24:	80 e0       	ldi	r24, 0x00	; 0
    5f26:	90 e0       	ldi	r25, 0x00	; 0
    5f28:	21 e0       	ldi	r18, 0x01	; 1
    5f2a:	30 e0       	ldi	r19, 0x00	; 0
    5f2c:	40 e0       	ldi	r20, 0x00	; 0
    5f2e:	50 e0       	ldi	r21, 0x00	; 0
    5f30:	0e 94 b0 00 	call	0x160	; 0x160 <MFSetServoMode>
  MFSetServoMode(10,1);
    5f34:	6a e0       	ldi	r22, 0x0A	; 10
    5f36:	70 e0       	ldi	r23, 0x00	; 0
    5f38:	80 e0       	ldi	r24, 0x00	; 0
    5f3a:	90 e0       	ldi	r25, 0x00	; 0
    5f3c:	21 e0       	ldi	r18, 0x01	; 1
    5f3e:	30 e0       	ldi	r19, 0x00	; 0
    5f40:	40 e0       	ldi	r20, 0x00	; 0
    5f42:	50 e0       	ldi	r21, 0x00	; 0
    5f44:	0e 94 b0 00 	call	0x160	; 0x160 <MFSetServoMode>
  while((AD3<300));//软启动
    5f48:	63 e0       	ldi	r22, 0x03	; 3
    5f4a:	70 e0       	ldi	r23, 0x00	; 0
    5f4c:	80 e0       	ldi	r24, 0x00	; 0
    5f4e:	90 e0       	ldi	r25, 0x00	; 0
    5f50:	0e 94 96 00 	call	0x12c	; 0x12c <MFGetAD>
    5f54:	6c 52       	subi	r22, 0x2C	; 44
    5f56:	71 40       	sbci	r23, 0x01	; 1
    5f58:	80 40       	sbci	r24, 0x00	; 0
    5f5a:	90 40       	sbci	r25, 0x00	; 0
    5f5c:	ac f3       	brlt	.-22     	; 0x5f48 <main+0xda>
  shangtai();
    5f5e:	0e 94 65 2e 	call	0x5cca	; 0x5cca <shangtai>
  while (1)
  {
    if(MFGetDigiInput(8)){//如果站立
    5f62:	68 e0       	ldi	r22, 0x08	; 8
    5f64:	70 e0       	ldi	r23, 0x00	; 0
    5f66:	80 e0       	ldi	r24, 0x00	; 0
    5f68:	90 e0       	ldi	r25, 0x00	; 0
    5f6a:	0e 94 77 00 	call	0xee	; 0xee <MFGetDigiInput>
    5f6e:	61 15       	cp	r22, r1
    5f70:	71 05       	cpc	r23, r1
    5f72:	81 05       	cpc	r24, r1
    5f74:	91 05       	cpc	r25, r1
    5f76:	09 f4       	brne	.+2      	; 0x5f7a <main+0x10c>
    5f78:	17 c1       	rjmp	.+558    	; 0x61a8 <main+0x33a>
      if(MFGetDigiInput(1)&&MFGetDigiInput(0)){
    5f7a:	61 e0       	ldi	r22, 0x01	; 1
    5f7c:	70 e0       	ldi	r23, 0x00	; 0
    5f7e:	80 e0       	ldi	r24, 0x00	; 0
    5f80:	90 e0       	ldi	r25, 0x00	; 0
    5f82:	0e 94 77 00 	call	0xee	; 0xee <MFGetDigiInput>
    5f86:	61 15       	cp	r22, r1
    5f88:	71 05       	cpc	r23, r1
    5f8a:	81 05       	cpc	r24, r1
    5f8c:	91 05       	cpc	r25, r1
    5f8e:	09 f4       	brne	.+2      	; 0x5f92 <main+0x124>
    5f90:	57 c0       	rjmp	.+174    	; 0x6040 <main+0x1d2>
    5f92:	60 e0       	ldi	r22, 0x00	; 0
    5f94:	70 e0       	ldi	r23, 0x00	; 0
    5f96:	80 e0       	ldi	r24, 0x00	; 0
    5f98:	90 e0       	ldi	r25, 0x00	; 0
    5f9a:	0e 94 77 00 	call	0xee	; 0xee <MFGetDigiInput>
    5f9e:	61 15       	cp	r22, r1
    5fa0:	71 05       	cpc	r23, r1
    5fa2:	81 05       	cpc	r24, r1
    5fa4:	91 05       	cpc	r25, r1
    5fa6:	09 f4       	brne	.+2      	; 0x5faa <main+0x13c>
    5fa8:	4b c0       	rjmp	.+150    	; 0x6040 <main+0x1d2>
        MFSetServoPos(3,190,500);
    5faa:	63 e0       	ldi	r22, 0x03	; 3
    5fac:	70 e0       	ldi	r23, 0x00	; 0
    5fae:	80 e0       	ldi	r24, 0x00	; 0
    5fb0:	90 e0       	ldi	r25, 0x00	; 0
    5fb2:	2e eb       	ldi	r18, 0xBE	; 190
    5fb4:	30 e0       	ldi	r19, 0x00	; 0
    5fb6:	40 e0       	ldi	r20, 0x00	; 0
    5fb8:	50 e0       	ldi	r21, 0x00	; 0
    5fba:	e4 ef       	ldi	r30, 0xF4	; 244
    5fbc:	ee 2e       	mov	r14, r30
    5fbe:	e1 e0       	ldi	r30, 0x01	; 1
    5fc0:	fe 2e       	mov	r15, r30
    5fc2:	01 2d       	mov	r16, r1
    5fc4:	11 2d       	mov	r17, r1
    5fc6:	0e 94 05 01 	call	0x20a	; 0x20a <MFSetServoPos>
        MFSetServoPos(6,760,500);
    5fca:	66 e0       	ldi	r22, 0x06	; 6
    5fcc:	70 e0       	ldi	r23, 0x00	; 0
    5fce:	80 e0       	ldi	r24, 0x00	; 0
    5fd0:	90 e0       	ldi	r25, 0x00	; 0
    5fd2:	28 ef       	ldi	r18, 0xF8	; 248
    5fd4:	32 e0       	ldi	r19, 0x02	; 2
    5fd6:	40 e0       	ldi	r20, 0x00	; 0
    5fd8:	50 e0       	ldi	r21, 0x00	; 0
    5fda:	0e 94 05 01 	call	0x20a	; 0x20a <MFSetServoPos>
        MFSetServoPos(1,873,1023);
    5fde:	61 e0       	ldi	r22, 0x01	; 1
    5fe0:	70 e0       	ldi	r23, 0x00	; 0
    5fe2:	80 e0       	ldi	r24, 0x00	; 0
    5fe4:	90 e0       	ldi	r25, 0x00	; 0
    5fe6:	29 e6       	ldi	r18, 0x69	; 105
    5fe8:	33 e0       	ldi	r19, 0x03	; 3
    5fea:	40 e0       	ldi	r20, 0x00	; 0
    5fec:	50 e0       	ldi	r21, 0x00	; 0
    5fee:	bf ef       	ldi	r27, 0xFF	; 255
    5ff0:	eb 2e       	mov	r14, r27
    5ff2:	b3 e0       	ldi	r27, 0x03	; 3
    5ff4:	fb 2e       	mov	r15, r27
    5ff6:	01 2d       	mov	r16, r1
    5ff8:	11 2d       	mov	r17, r1
    5ffa:	0e 94 05 01 	call	0x20a	; 0x20a <MFSetServoPos>
        MFSetServoPos(8,248,1023);
    5ffe:	68 e0       	ldi	r22, 0x08	; 8
    6000:	70 e0       	ldi	r23, 0x00	; 0
    6002:	80 e0       	ldi	r24, 0x00	; 0
    6004:	90 e0       	ldi	r25, 0x00	; 0
    6006:	28 ef       	ldi	r18, 0xF8	; 248
    6008:	30 e0       	ldi	r19, 0x00	; 0
    600a:	40 e0       	ldi	r20, 0x00	; 0
    600c:	50 e0       	ldi	r21, 0x00	; 0
    600e:	0e 94 05 01 	call	0x20a	; 0x20a <MFSetServoPos>
        MFSetServoPos(2,859,1023);
    6012:	62 e0       	ldi	r22, 0x02	; 2
    6014:	70 e0       	ldi	r23, 0x00	; 0
    6016:	80 e0       	ldi	r24, 0x00	; 0
    6018:	90 e0       	ldi	r25, 0x00	; 0
    601a:	2b e5       	ldi	r18, 0x5B	; 91
    601c:	33 e0       	ldi	r19, 0x03	; 3
    601e:	40 e0       	ldi	r20, 0x00	; 0
    6020:	50 e0       	ldi	r21, 0x00	; 0
    6022:	0e 94 05 01 	call	0x20a	; 0x20a <MFSetServoPos>
        MFSetServoPos(7,846,1023);
    6026:	67 e0       	ldi	r22, 0x07	; 7
    6028:	70 e0       	ldi	r23, 0x00	; 0
    602a:	80 e0       	ldi	r24, 0x00	; 0
    602c:	90 e0       	ldi	r25, 0x00	; 0
    602e:	2e e4       	ldi	r18, 0x4E	; 78
    6030:	33 e0       	ldi	r19, 0x03	; 3
    6032:	40 e0       	ldi	r20, 0x00	; 0
    6034:	50 e0       	ldi	r21, 0x00	; 0
    6036:	0e 94 05 01 	call	0x20a	; 0x20a <MFSetServoPos>
        MFServoAction();
    603a:	0e 94 d2 00 	call	0x1a4	; 0x1a4 <MFServoAction>
    603e:	04 c0       	rjmp	.+8      	; 0x6048 <main+0x1da>
      }else{
        gongji();
    6040:	0e 94 b0 2d 	call	0x5b60	; 0x5b60 <gongji>
        gongji();
    6044:	0e 94 b0 2d 	call	0x5b60	; 0x5b60 <gongji>
      }
      zhili();
    6048:	0e 94 d1 2b 	call	0x57a2	; 0x57a2 <zhili>
      if(AD3>160){//右边检测到敌人
    604c:	63 e0       	ldi	r22, 0x03	; 3
    604e:	70 e0       	ldi	r23, 0x00	; 0
    6050:	80 e0       	ldi	r24, 0x00	; 0
    6052:	90 e0       	ldi	r25, 0x00	; 0
    6054:	0e 94 96 00 	call	0x12c	; 0x12c <MFGetAD>
    6058:	61 3a       	cpi	r22, 0xA1	; 161
    605a:	71 05       	cpc	r23, r1
    605c:	81 05       	cpc	r24, r1
    605e:	91 05       	cpc	r25, r1
    6060:	2c f0       	brlt	.+10     	; 0x606c <main+0x1fe>
        move(300,-400);
    6062:	8c e2       	ldi	r24, 0x2C	; 44
    6064:	91 e0       	ldi	r25, 0x01	; 1
    6066:	60 e7       	ldi	r22, 0x70	; 112
    6068:	7e ef       	ldi	r23, 0xFE	; 254
    606a:	0f c0       	rjmp	.+30     	; 0x608a <main+0x21c>
        DelayMS(500);
        if(!MFGetDigiInput(1)){//前方检测到人
        	gongji();
        	gongji();
        }
      }else if(AD5>160){
    606c:	65 e0       	ldi	r22, 0x05	; 5
    606e:	70 e0       	ldi	r23, 0x00	; 0
    6070:	80 e0       	ldi	r24, 0x00	; 0
    6072:	90 e0       	ldi	r25, 0x00	; 0
    6074:	0e 94 96 00 	call	0x12c	; 0x12c <MFGetAD>
    6078:	61 3a       	cpi	r22, 0xA1	; 161
    607a:	71 05       	cpc	r23, r1
    607c:	81 05       	cpc	r24, r1
    607e:	91 05       	cpc	r25, r1
    6080:	dc f0       	brlt	.+54     	; 0x60b8 <main+0x24a>
        move(-400,300);
    6082:	80 e7       	ldi	r24, 0x70	; 112
    6084:	9e ef       	ldi	r25, 0xFE	; 254
    6086:	6c e2       	ldi	r22, 0x2C	; 44
    6088:	71 e0       	ldi	r23, 0x01	; 1
    608a:	0e 94 5c 2d 	call	0x5ab8	; 0x5ab8 <move>
        DelayMS(500);
    608e:	64 ef       	ldi	r22, 0xF4	; 244
    6090:	71 e0       	ldi	r23, 0x01	; 1
    6092:	80 e0       	ldi	r24, 0x00	; 0
    6094:	90 e0       	ldi	r25, 0x00	; 0
    6096:	0e 94 67 00 	call	0xce	; 0xce <DelayMS>
        if(!MFGetDigiInput(1)){
    609a:	61 e0       	ldi	r22, 0x01	; 1
    609c:	70 e0       	ldi	r23, 0x00	; 0
    609e:	80 e0       	ldi	r24, 0x00	; 0
    60a0:	90 e0       	ldi	r25, 0x00	; 0
    60a2:	0e 94 77 00 	call	0xee	; 0xee <MFGetDigiInput>
    60a6:	61 15       	cp	r22, r1
    60a8:	71 05       	cpc	r23, r1
    60aa:	81 05       	cpc	r24, r1
    60ac:	91 05       	cpc	r25, r1
    60ae:	21 f4       	brne	.+8      	; 0x60b8 <main+0x24a>
        	gongji();
    60b0:	0e 94 b0 2d 	call	0x5b60	; 0x5b60 <gongji>
        	gongji();
    60b4:	0e 94 b0 2d 	call	0x5b60	; 0x5b60 <gongji>
        }
      }
        if(AD0>dangerInt){//安全区域
    60b8:	60 e0       	ldi	r22, 0x00	; 0
    60ba:	70 e0       	ldi	r23, 0x00	; 0
    60bc:	80 e0       	ldi	r24, 0x00	; 0
    60be:	90 e0       	ldi	r25, 0x00	; 0
    60c0:	0e 94 96 00 	call	0x12c	; 0x12c <MFGetAD>
    60c4:	20 91 a0 08 	lds	r18, 0x08A0
    60c8:	30 91 a1 08 	lds	r19, 0x08A1
    60cc:	44 27       	eor	r20, r20
    60ce:	37 fd       	sbrc	r19, 7
    60d0:	40 95       	com	r20
    60d2:	54 2f       	mov	r21, r20
    60d4:	26 17       	cp	r18, r22
    60d6:	37 07       	cpc	r19, r23
    60d8:	48 07       	cpc	r20, r24
    60da:	59 07       	cpc	r21, r25
    60dc:	34 f1       	brlt	.+76     	; 0x612a <main+0x2bc>
          move(300,300);
        }else{    //危险区域
          if(max(AD0,AD1,AD2)==1){//车子向着台子中心
    60de:	60 e0       	ldi	r22, 0x00	; 0
    60e0:	70 e0       	ldi	r23, 0x00	; 0
    60e2:	80 e0       	ldi	r24, 0x00	; 0
    60e4:	90 e0       	ldi	r25, 0x00	; 0
    60e6:	0e 94 96 00 	call	0x12c	; 0x12c <MFGetAD>
    60ea:	eb 01       	movw	r28, r22
    60ec:	61 e0       	ldi	r22, 0x01	; 1
    60ee:	70 e0       	ldi	r23, 0x00	; 0
    60f0:	80 e0       	ldi	r24, 0x00	; 0
    60f2:	90 e0       	ldi	r25, 0x00	; 0
    60f4:	0e 94 96 00 	call	0x12c	; 0x12c <MFGetAD>
    60f8:	7b 01       	movw	r14, r22
    60fa:	8c 01       	movw	r16, r24
    60fc:	62 e0       	ldi	r22, 0x02	; 2
    60fe:	70 e0       	ldi	r23, 0x00	; 0
    6100:	80 e0       	ldi	r24, 0x00	; 0
    6102:	90 e0       	ldi	r25, 0x00	; 0
    6104:	0e 94 96 00 	call	0x12c	; 0x12c <MFGetAD>
	now=AD0;
	return now-pre;
}
int max(int a,int b,int c){
  int max;
  max=a>b?a:b;
    6108:	c7 01       	movw	r24, r14
    610a:	0a 97       	sbiw	r24, 0x0a	; 10
    610c:	62 53       	subi	r22, 0x32	; 50
    610e:	70 40       	sbci	r23, 0x00	; 0
    6110:	86 17       	cp	r24, r22
    6112:	97 07       	cpc	r25, r23
    6114:	0c f4       	brge	.+2      	; 0x6118 <main+0x2aa>
    6116:	cb 01       	movw	r24, r22
  max=max>c?max:c;
  if(max==a){
    6118:	7c 01       	movw	r14, r24
    611a:	8c 17       	cp	r24, r28
    611c:	9d 07       	cpc	r25, r29
    611e:	0c f4       	brge	.+2      	; 0x6122 <main+0x2b4>
    6120:	7e 01       	movw	r14, r28
    6122:	ec 16       	cp	r14, r28
    6124:	fd 06       	cpc	r15, r29
    6126:	09 f0       	breq	.+2      	; 0x612a <main+0x2bc>
    6128:	54 c0       	rjmp	.+168    	; 0x61d2 <main+0x364>
      }
        if(AD0>dangerInt){//安全区域
          move(300,300);
        }else{    //危险区域
          if(max(AD0,AD1,AD2)==1){//车子向着台子中心
            move(300,300);
    612a:	8c e2       	ldi	r24, 0x2C	; 44
    612c:	91 e0       	ldi	r25, 0x01	; 1
    612e:	6c e2       	ldi	r22, 0x2C	; 44
    6130:	71 e0       	ldi	r23, 0x01	; 1
    6132:	0e 94 5c 2d 	call	0x5ab8	; 0x5ab8 <move>
    6136:	15 cf       	rjmp	.-470    	; 0x5f62 <main+0xf4>
  int min;
  min=a<b?a:b;
  min=min<c?min:c;
  if(min==a){
	  return 1;
  }else if(min==b){
    6138:	8c 17       	cp	r24, r28
    613a:	9d 07       	cpc	r25, r29
    613c:	09 f0       	breq	.+2      	; 0x6140 <main+0x2d2>
    613e:	74 c0       	rjmp	.+232    	; 0x6228 <main+0x3ba>
    6140:	8c c0       	rjmp	.+280    	; 0x625a <main+0x3ec>
          if(max(AD0,AD1,AD2)==1){//车子向着台子中心
            move(300,300);
          }else{
            switch(min(AD0,AD1,AD2)){
              case 1:   //车子向外
              if(AD1<AD2){//左边是墙
    6142:	61 e0       	ldi	r22, 0x01	; 1
    6144:	70 e0       	ldi	r23, 0x00	; 0
    6146:	80 e0       	ldi	r24, 0x00	; 0
    6148:	90 e0       	ldi	r25, 0x00	; 0
    614a:	0e 94 96 00 	call	0x12c	; 0x12c <MFGetAD>
    614e:	7b 01       	movw	r14, r22
    6150:	8c 01       	movw	r16, r24
    6152:	62 e0       	ldi	r22, 0x02	; 2
    6154:	70 e0       	ldi	r23, 0x00	; 0
    6156:	80 e0       	ldi	r24, 0x00	; 0
    6158:	90 e0       	ldi	r25, 0x00	; 0
    615a:	0e 94 96 00 	call	0x12c	; 0x12c <MFGetAD>
    615e:	68 52       	subi	r22, 0x28	; 40
    6160:	70 40       	sbci	r23, 0x00	; 0
    6162:	80 40       	sbci	r24, 0x00	; 0
    6164:	90 40       	sbci	r25, 0x00	; 0
    6166:	e6 16       	cp	r14, r22
    6168:	f7 06       	cpc	r15, r23
    616a:	08 07       	cpc	r16, r24
    616c:	19 07       	cpc	r17, r25
    616e:	2c f4       	brge	.+10     	; 0x617a <main+0x30c>
                 move(300,-400);//右转弯
    6170:	8c e2       	ldi	r24, 0x2C	; 44
    6172:	91 e0       	ldi	r25, 0x01	; 1
    6174:	60 e7       	ldi	r22, 0x70	; 112
    6176:	7e ef       	ldi	r23, 0xFE	; 254
    6178:	04 c0       	rjmp	.+8      	; 0x6182 <main+0x314>
                 DelayMS(300);
              }else{
                 move(-400,300);//左转弯
    617a:	80 e7       	ldi	r24, 0x70	; 112
    617c:	9e ef       	ldi	r25, 0xFE	; 254
    617e:	6c e2       	ldi	r22, 0x2C	; 44
    6180:	71 e0       	ldi	r23, 0x01	; 1
    6182:	0e 94 5c 2d 	call	0x5ab8	; 0x5ab8 <move>
                 DelayMS(300);
    6186:	6c e2       	ldi	r22, 0x2C	; 44
    6188:	71 e0       	ldi	r23, 0x01	; 1
    618a:	80 e0       	ldi	r24, 0x00	; 0
    618c:	90 e0       	ldi	r25, 0x00	; 0
    618e:	0e 94 67 00 	call	0xce	; 0xce <DelayMS>
    6192:	e7 ce       	rjmp	.-562    	; 0x5f62 <main+0xf4>
              }
      				break;
              case 2:   //车子右边是台子中心
                if(AD1<=dangerInt){//test
                  move(400,-300);
    6194:	80 e9       	ldi	r24, 0x90	; 144
    6196:	91 e0       	ldi	r25, 0x01	; 1
    6198:	64 ed       	ldi	r22, 0xD4	; 212
    619a:	7e ef       	ldi	r23, 0xFE	; 254
    619c:	f2 cf       	rjmp	.-28     	; 0x6182 <main+0x314>
                  DelayMS(300);
                }
                break;
              case 3:   //车子左边是台子中心
                if(AD1<=dangerInt){//test
                  move(-300,400);
    619e:	84 ed       	ldi	r24, 0xD4	; 212
    61a0:	9e ef       	ldi	r25, 0xFE	; 254
    61a2:	60 e9       	ldi	r22, 0x90	; 144
    61a4:	71 e0       	ldi	r23, 0x01	; 1
    61a6:	ed cf       	rjmp	.-38     	; 0x6182 <main+0x314>
                }
                break;
            }
          }
        }
    }else if(!MFGetDigiInput(8)){//后倒
    61a8:	68 e0       	ldi	r22, 0x08	; 8
    61aa:	70 e0       	ldi	r23, 0x00	; 0
    61ac:	80 e0       	ldi	r24, 0x00	; 0
    61ae:	90 e0       	ldi	r25, 0x00	; 0
    61b0:	0e 94 77 00 	call	0xee	; 0xee <MFGetDigiInput>
    61b4:	61 15       	cp	r22, r1
    61b6:	71 05       	cpc	r23, r1
    61b8:	81 05       	cpc	r24, r1
    61ba:	91 05       	cpc	r25, r1
    61bc:	09 f0       	breq	.+2      	; 0x61c0 <main+0x352>
    61be:	d1 ce       	rjmp	.-606    	; 0x5f62 <main+0xf4>
  	  move(0,0);
    61c0:	80 e0       	ldi	r24, 0x00	; 0
    61c2:	90 e0       	ldi	r25, 0x00	; 0
    61c4:	60 e0       	ldi	r22, 0x00	; 0
    61c6:	70 e0       	ldi	r23, 0x00	; 0
    61c8:	0e 94 5c 2d 	call	0x5ab8	; 0x5ab8 <move>
  	  standup();
    61cc:	0e 94 4b 2c 	call	0x5896	; 0x5896 <standup>
    61d0:	c8 ce       	rjmp	.-624    	; 0x5f62 <main+0xf4>
          move(300,300);
        }else{    //危险区域
          if(max(AD0,AD1,AD2)==1){//车子向着台子中心
            move(300,300);
          }else{
            switch(min(AD0,AD1,AD2)){
    61d2:	60 e0       	ldi	r22, 0x00	; 0
    61d4:	70 e0       	ldi	r23, 0x00	; 0
    61d6:	80 e0       	ldi	r24, 0x00	; 0
    61d8:	90 e0       	ldi	r25, 0x00	; 0
    61da:	0e 94 96 00 	call	0x12c	; 0x12c <MFGetAD>
    61de:	8b 01       	movw	r16, r22
    61e0:	61 e0       	ldi	r22, 0x01	; 1
    61e2:	70 e0       	ldi	r23, 0x00	; 0
    61e4:	80 e0       	ldi	r24, 0x00	; 0
    61e6:	90 e0       	ldi	r25, 0x00	; 0
    61e8:	0e 94 96 00 	call	0x12c	; 0x12c <MFGetAD>
    61ec:	eb 01       	movw	r28, r22
    61ee:	2a 97       	sbiw	r28, 0x0a	; 10
    61f0:	62 e0       	ldi	r22, 0x02	; 2
    61f2:	70 e0       	ldi	r23, 0x00	; 0
    61f4:	80 e0       	ldi	r24, 0x00	; 0
    61f6:	90 e0       	ldi	r25, 0x00	; 0
    61f8:	0e 94 96 00 	call	0x12c	; 0x12c <MFGetAD>
	  return 3;
  }
}
int min(int a,int b,int c){
  int min;
  min=a<b?a:b;
    61fc:	62 53       	subi	r22, 0x32	; 50
    61fe:	70 40       	sbci	r23, 0x00	; 0
    6200:	ce 01       	movw	r24, r28
    6202:	3c 2f       	mov	r19, r28
    6204:	29 2f       	mov	r18, r25
    6206:	6c 17       	cp	r22, r28
    6208:	7d 07       	cpc	r23, r29
    620a:	1c f4       	brge	.+6      	; 0x6212 <main+0x3a4>
    620c:	cb 01       	movw	r24, r22
    620e:	36 2f       	mov	r19, r22
    6210:	29 2f       	mov	r18, r25
  min=min<c?min:c;
    6212:	83 2f       	mov	r24, r19
    6214:	92 2f       	mov	r25, r18
    6216:	08 17       	cp	r16, r24
    6218:	19 07       	cpc	r17, r25
    621a:	0c f4       	brge	.+2      	; 0x621e <main+0x3b0>
    621c:	c8 01       	movw	r24, r16
  if(min==a){
    621e:	80 17       	cp	r24, r16
    6220:	91 07       	cpc	r25, r17
    6222:	09 f0       	breq	.+2      	; 0x6226 <main+0x3b8>
    6224:	89 cf       	rjmp	.-238    	; 0x6138 <main+0x2ca>
    6226:	8d cf       	rjmp	.-230    	; 0x6142 <main+0x2d4>
                  move(400,-300);
                  DelayMS(300);
                }
                break;
              case 3:   //车子左边是台子中心
                if(AD1<=dangerInt){//test
    6228:	61 e0       	ldi	r22, 0x01	; 1
    622a:	70 e0       	ldi	r23, 0x00	; 0
    622c:	80 e0       	ldi	r24, 0x00	; 0
    622e:	90 e0       	ldi	r25, 0x00	; 0
    6230:	0e 94 96 00 	call	0x12c	; 0x12c <MFGetAD>
    6234:	6a 50       	subi	r22, 0x0A	; 10
    6236:	70 40       	sbci	r23, 0x00	; 0
    6238:	80 40       	sbci	r24, 0x00	; 0
    623a:	90 40       	sbci	r25, 0x00	; 0
    623c:	20 91 a0 08 	lds	r18, 0x08A0
    6240:	30 91 a1 08 	lds	r19, 0x08A1
    6244:	44 27       	eor	r20, r20
    6246:	37 fd       	sbrc	r19, 7
    6248:	40 95       	com	r20
    624a:	54 2f       	mov	r21, r20
    624c:	26 17       	cp	r18, r22
    624e:	37 07       	cpc	r19, r23
    6250:	48 07       	cpc	r20, r24
    6252:	59 07       	cpc	r21, r25
    6254:	0c f4       	brge	.+2      	; 0x6258 <main+0x3ea>
    6256:	85 ce       	rjmp	.-758    	; 0x5f62 <main+0xf4>
    6258:	a2 cf       	rjmp	.-188    	; 0x619e <main+0x330>
                 move(-400,300);//左转弯
                 DelayMS(300);
              }
      				break;
              case 2:   //车子右边是台子中心
                if(AD1<=dangerInt){//test
    625a:	61 e0       	ldi	r22, 0x01	; 1
    625c:	70 e0       	ldi	r23, 0x00	; 0
    625e:	80 e0       	ldi	r24, 0x00	; 0
    6260:	90 e0       	ldi	r25, 0x00	; 0
    6262:	0e 94 96 00 	call	0x12c	; 0x12c <MFGetAD>
    6266:	6a 50       	subi	r22, 0x0A	; 10
    6268:	70 40       	sbci	r23, 0x00	; 0
    626a:	80 40       	sbci	r24, 0x00	; 0
    626c:	90 40       	sbci	r25, 0x00	; 0
    626e:	20 91 a0 08 	lds	r18, 0x08A0
    6272:	30 91 a1 08 	lds	r19, 0x08A1
    6276:	44 27       	eor	r20, r20
    6278:	37 fd       	sbrc	r19, 7
    627a:	40 95       	com	r20
    627c:	54 2f       	mov	r21, r20
    627e:	26 17       	cp	r18, r22
    6280:	37 07       	cpc	r19, r23
    6282:	48 07       	cpc	r20, r24
    6284:	59 07       	cpc	r21, r25
    6286:	0c f4       	brge	.+2      	; 0x628a <main+0x41c>
    6288:	6c ce       	rjmp	.-808    	; 0x5f62 <main+0xf4>
    628a:	84 cf       	rjmp	.-248    	; 0x6194 <main+0x326>

0000628c <ConversionRelPosition>:
** 修订人:
** 修订日期:
**------------------------------------------------------------------------------------------------------------------------
*************************************************************************************************************************/
static uint8 ConversionRelPosition(uint8 id, int16 rel_position, uint16* position)
{
    628c:	ef 92       	push	r14
    628e:	ff 92       	push	r15
    6290:	0f 93       	push	r16
    6292:	1f 93       	push	r17
    6294:	df 93       	push	r29
    6296:	cf 93       	push	r28
    6298:	0f 92       	push	r0
    629a:	cd b7       	in	r28, 0x3d	; 61
    629c:	de b7       	in	r29, 0x3e	; 62
    629e:	28 2f       	mov	r18, r24
    62a0:	8b 01       	movw	r16, r22
    62a2:	7a 01       	movw	r14, r20
	uint8 temp_state = 0;
	uint8 temp_value = 0;
    62a4:	19 82       	std	Y+1, r1	; 0x01

	int32 temp_position = 0;

	temp_state = mapping_control.pInverse1DimArray(ttlbus_control.p_device_mapping, ttlbus_control.device_amount, id, &temp_value);
    62a6:	e0 91 71 06 	lds	r30, 0x0671
    62aa:	f0 91 72 06 	lds	r31, 0x0672
    62ae:	80 91 4c 06 	lds	r24, 0x064C
    62b2:	90 91 4d 06 	lds	r25, 0x064D
    62b6:	60 91 4e 06 	lds	r22, 0x064E
    62ba:	42 2f       	mov	r20, r18
    62bc:	9e 01       	movw	r18, r28
    62be:	2f 5f       	subi	r18, 0xFF	; 255
    62c0:	3f 4f       	sbci	r19, 0xFF	; 255
    62c2:	09 95       	icall

	if (TRUE == temp_state)
    62c4:	81 30       	cpi	r24, 0x01	; 1
    62c6:	11 f0       	breq	.+4      	; 0x62cc <ConversionRelPosition+0x40>
    62c8:	80 e0       	ldi	r24, 0x00	; 0
    62ca:	28 c0       	rjmp	.+80     	; 0x631c <ConversionRelPosition+0x90>
	{
		if (FALSE == SERVO_OFFSET_DIRECTION[temp_value])
    62cc:	89 81       	ldd	r24, Y+1	; 0x01
    62ce:	90 e0       	ldi	r25, 0x00	; 0
    62d0:	fc 01       	movw	r30, r24
    62d2:	ee 51       	subi	r30, 0x1E	; 30
    62d4:	f7 4f       	sbci	r31, 0xF7	; 247
    62d6:	20 81       	ld	r18, Z
    62d8:	fc 01       	movw	r30, r24
    62da:	ee 0f       	add	r30, r30
    62dc:	ff 1f       	adc	r31, r31
    62de:	22 23       	and	r18, r18
    62e0:	39 f4       	brne	.+14     	; 0x62f0 <ConversionRelPosition+0x64>
		{
			temp_position = (int32)(SERVO_BASIC_POSITION[temp_value] - rel_position);
    62e2:	ee 55       	subi	r30, 0x5E	; 94
    62e4:	f7 4f       	sbci	r31, 0xF7	; 247
    62e6:	80 81       	ld	r24, Z
    62e8:	91 81       	ldd	r25, Z+1	; 0x01
    62ea:	80 1b       	sub	r24, r16
    62ec:	91 0b       	sbc	r25, r17
    62ee:	06 c0       	rjmp	.+12     	; 0x62fc <ConversionRelPosition+0x70>
		}
		else
		{
			temp_position = (int32)(SERVO_BASIC_POSITION[temp_value] + rel_position);
    62f0:	ee 55       	subi	r30, 0x5E	; 94
    62f2:	f7 4f       	sbci	r31, 0xF7	; 247
    62f4:	80 81       	ld	r24, Z
    62f6:	91 81       	ldd	r25, Z+1	; 0x01
    62f8:	80 0f       	add	r24, r16
    62fa:	91 1f       	adc	r25, r17
    62fc:	a0 e0       	ldi	r26, 0x00	; 0
    62fe:	b0 e0       	ldi	r27, 0x00	; 0
		}

		if (temp_position > 1023)
    6300:	80 30       	cpi	r24, 0x00	; 0
    6302:	24 e0       	ldi	r18, 0x04	; 4
    6304:	92 07       	cpc	r25, r18
    6306:	20 e0       	ldi	r18, 0x00	; 0
    6308:	a2 07       	cpc	r26, r18
    630a:	20 e0       	ldi	r18, 0x00	; 0
    630c:	b2 07       	cpc	r27, r18
    630e:	14 f0       	brlt	.+4      	; 0x6314 <ConversionRelPosition+0x88>
		{
			*position = 1023;
    6310:	8f ef       	ldi	r24, 0xFF	; 255
    6312:	93 e0       	ldi	r25, 0x03	; 3
		{
			*position = 0;
		}
		else
		{
			*position = (uint16)temp_position;
    6314:	f7 01       	movw	r30, r14
    6316:	91 83       	std	Z+1, r25	; 0x01
    6318:	80 83       	st	Z, r24
    631a:	81 e0       	ldi	r24, 0x01	; 1

		return TRUE;
	}

	return FALSE;
}
    631c:	0f 90       	pop	r0
    631e:	cf 91       	pop	r28
    6320:	df 91       	pop	r29
    6322:	1f 91       	pop	r17
    6324:	0f 91       	pop	r16
    6326:	ff 90       	pop	r15
    6328:	ef 90       	pop	r14
    632a:	08 95       	ret

0000632c <ControlSynchronous4Dof>:
** 修订人:
** 修订日期:
**------------------------------------------------------------------------------------------------------------------------
*************************************************************************************************************************/
static void ControlSynchronous4Dof(const int16* vector, uint8 first_id, uint16 ref_time, uint16* calc_time)
{
    632c:	2f 92       	push	r2
    632e:	3f 92       	push	r3
    6330:	4f 92       	push	r4
    6332:	5f 92       	push	r5
    6334:	6f 92       	push	r6
    6336:	7f 92       	push	r7
    6338:	9f 92       	push	r9
    633a:	af 92       	push	r10
    633c:	bf 92       	push	r11
    633e:	cf 92       	push	r12
    6340:	df 92       	push	r13
    6342:	ef 92       	push	r14
    6344:	ff 92       	push	r15
    6346:	0f 93       	push	r16
    6348:	1f 93       	push	r17
    634a:	df 93       	push	r29
    634c:	cf 93       	push	r28
    634e:	cd b7       	in	r28, 0x3d	; 61
    6350:	de b7       	in	r29, 0x3e	; 62
    6352:	66 97       	sbiw	r28, 0x16	; 22
    6354:	0f b6       	in	r0, 0x3f	; 63
    6356:	f8 94       	cli
    6358:	de bf       	out	0x3e, r29	; 62
    635a:	0f be       	out	0x3f, r0	; 63
    635c:	cd bf       	out	0x3d, r28	; 61
    635e:	9c 8b       	std	Y+20, r25	; 0x14
    6360:	8b 8b       	std	Y+19, r24	; 0x13
    6362:	96 2e       	mov	r9, r22
    6364:	5a 01       	movw	r10, r20
    6366:	3e 8b       	std	Y+22, r19	; 0x16
    6368:	2d 8b       	std	Y+21, r18	; 0x15
	uint8 count = 0;
	uint8 temp_id = 0;

	uint16 temp_position = 0;
    636a:	1a 82       	std	Y+2, r1	; 0x02
    636c:	19 82       	std	Y+1, r1	; 0x01
	uint16 temp_velocity[4] = {0, 0, 0, 0};
    636e:	88 e0       	ldi	r24, 0x08	; 8
    6370:	de 01       	movw	r26, r28
    6372:	13 96       	adiw	r26, 0x03	; 3
    6374:	fd 01       	movw	r30, r26
    6376:	98 2f       	mov	r25, r24
    6378:	11 92       	st	Z+, r1
    637a:	9a 95       	dec	r25
    637c:	e9 f7       	brne	.-6      	; 0x6378 <ControlSynchronous4Dof+0x4c>
	uint16 temp_time[4] = {0, 0, 0, 0};
    637e:	9e 01       	movw	r18, r28
    6380:	25 5f       	subi	r18, 0xF5	; 245
    6382:	3f 4f       	sbci	r19, 0xFF	; 255
    6384:	f9 01       	movw	r30, r18
    6386:	11 92       	st	Z+, r1
    6388:	8a 95       	dec	r24
    638a:	e9 f7       	brne	.-6      	; 0x6386 <ControlSynchronous4Dof+0x5a>
    638c:	d6 2e       	mov	r13, r22
    638e:	ee 24       	eor	r14, r14
    6390:	ff 24       	eor	r15, r15

	temp_id = first_id;

	for (count = 0; count < 4; count++)
	{
		ConversionRelPosition((temp_id + count), *(vector + count), &temp_position);
    6392:	1e 01       	movw	r2, r28
    6394:	08 94       	sec
    6396:	21 1c       	adc	r2, r1
    6398:	31 1c       	adc	r3, r1

		servo_control.pCalcVelocity(first_id + count, temp_position, ref_time, &temp_velocity[count], &temp_time[count]);
    639a:	2d 01       	movw	r4, r26
    639c:	39 01       	movw	r6, r18

	temp_id = first_id;

	for (count = 0; count < 4; count++)
	{
		ConversionRelPosition((temp_id + count), *(vector + count), &temp_position);
    639e:	eb 89       	ldd	r30, Y+19	; 0x13
    63a0:	fc 89       	ldd	r31, Y+20	; 0x14
    63a2:	ee 0d       	add	r30, r14
    63a4:	ff 1d       	adc	r31, r15
    63a6:	60 81       	ld	r22, Z
    63a8:	71 81       	ldd	r23, Z+1	; 0x01
    63aa:	8d 2d       	mov	r24, r13
    63ac:	a1 01       	movw	r20, r2
    63ae:	0e 94 46 31 	call	0x628c	; 0x628c <ConversionRelPosition>

		servo_control.pCalcVelocity(first_id + count, temp_position, ref_time, &temp_velocity[count], &temp_time[count]);
    63b2:	69 81       	ldd	r22, Y+1	; 0x01
    63b4:	7a 81       	ldd	r23, Y+2	; 0x02
    63b6:	92 01       	movw	r18, r4
    63b8:	2e 0d       	add	r18, r14
    63ba:	3f 1d       	adc	r19, r15
    63bc:	83 01       	movw	r16, r6
    63be:	0e 0d       	add	r16, r14
    63c0:	1f 1d       	adc	r17, r15
    63c2:	e0 91 e4 03 	lds	r30, 0x03E4
    63c6:	f0 91 e5 03 	lds	r31, 0x03E5
    63ca:	8d 2d       	mov	r24, r13
    63cc:	a5 01       	movw	r20, r10
    63ce:	09 95       	icall
    63d0:	82 e0       	ldi	r24, 0x02	; 2
    63d2:	90 e0       	ldi	r25, 0x00	; 0
    63d4:	e8 0e       	add	r14, r24
    63d6:	f9 1e       	adc	r15, r25
    63d8:	d3 94       	inc	r13
	uint16 temp_time[4] = {0, 0, 0, 0};
	uint16 temp_max = 0;

	temp_id = first_id;

	for (count = 0; count < 4; count++)
    63da:	98 e0       	ldi	r25, 0x08	; 8
    63dc:	e9 16       	cp	r14, r25
    63de:	f1 04       	cpc	r15, r1
    63e0:	f1 f6       	brne	.-68     	; 0x639e <ControlSynchronous4Dof+0x72>
    63e2:	4d 85       	ldd	r20, Y+13	; 0x0d
    63e4:	5e 85       	ldd	r21, Y+14	; 0x0e
    63e6:	8b 85       	ldd	r24, Y+11	; 0x0b
    63e8:	9c 85       	ldd	r25, Y+12	; 0x0c
    63ea:	9c 01       	movw	r18, r24
    63ec:	24 17       	cp	r18, r20
    63ee:	35 07       	cpc	r19, r21
    63f0:	08 f4       	brcc	.+2      	; 0x63f4 <ControlSynchronous4Dof+0xc8>
    63f2:	9a 01       	movw	r18, r20
    63f4:	8f 85       	ldd	r24, Y+15	; 0x0f
    63f6:	98 89       	ldd	r25, Y+16	; 0x10
    63f8:	28 17       	cp	r18, r24
    63fa:	39 07       	cpc	r19, r25
    63fc:	08 f4       	brcc	.+2      	; 0x6400 <ControlSynchronous4Dof+0xd4>
    63fe:	9c 01       	movw	r18, r24
    6400:	89 89       	ldd	r24, Y+17	; 0x11
    6402:	9a 89       	ldd	r25, Y+18	; 0x12
    6404:	59 01       	movw	r10, r18
    6406:	28 17       	cp	r18, r24
    6408:	39 07       	cpc	r19, r25
    640a:	08 f4       	brcc	.+2      	; 0x640e <ControlSynchronous4Dof+0xe2>
    640c:	5c 01       	movw	r10, r24
		{
			temp_max = temp_time[count];
		}
	}

	*calc_time = temp_max;
    640e:	ed 89       	ldd	r30, Y+21	; 0x15
    6410:	fe 89       	ldd	r31, Y+22	; 0x16
    6412:	b1 82       	std	Z+1, r11	; 0x01
    6414:	a0 82       	st	Z, r10
    6416:	23 e0       	ldi	r18, 0x03	; 3
    6418:	c2 2e       	mov	r12, r18
    641a:	d1 2c       	mov	r13, r1
    641c:	cc 0e       	add	r12, r28
    641e:	dd 1e       	adc	r13, r29
    6420:	ee 24       	eor	r14, r14
    6422:	ff 24       	eor	r15, r15

	for (count = 0; count < 4; count++)
	{
		ConversionRelPosition((temp_id + count), *(vector + count), &temp_position);
    6424:	2e 01       	movw	r4, r28
    6426:	08 94       	sec
    6428:	41 1c       	adc	r4, r1
    642a:	51 1c       	adc	r5, r1

		servo_control.pCalcVelocity(first_id + count, temp_position, temp_max, &temp_velocity[count], &temp_time[count]);
    642c:	9b e0       	ldi	r25, 0x0B	; 11
    642e:	69 2e       	mov	r6, r25
    6430:	71 2c       	mov	r7, r1
    6432:	6c 0e       	add	r6, r28
    6434:	7d 1e       	adc	r7, r29

	*calc_time = temp_max;

	for (count = 0; count < 4; count++)
	{
		ConversionRelPosition((temp_id + count), *(vector + count), &temp_position);
    6436:	eb 89       	ldd	r30, Y+19	; 0x13
    6438:	fc 89       	ldd	r31, Y+20	; 0x14
    643a:	ee 0d       	add	r30, r14
    643c:	ff 1d       	adc	r31, r15
    643e:	60 81       	ld	r22, Z
    6440:	71 81       	ldd	r23, Z+1	; 0x01
    6442:	89 2d       	mov	r24, r9
    6444:	a2 01       	movw	r20, r4
    6446:	0e 94 46 31 	call	0x628c	; 0x628c <ConversionRelPosition>

		servo_control.pCalcVelocity(first_id + count, temp_position, temp_max, &temp_velocity[count], &temp_time[count]);
    644a:	69 81       	ldd	r22, Y+1	; 0x01
    644c:	7a 81       	ldd	r23, Y+2	; 0x02
    644e:	83 01       	movw	r16, r6
    6450:	0e 0d       	add	r16, r14
    6452:	1f 1d       	adc	r17, r15
    6454:	e0 91 e4 03 	lds	r30, 0x03E4
    6458:	f0 91 e5 03 	lds	r31, 0x03E5
    645c:	89 2d       	mov	r24, r9
    645e:	a5 01       	movw	r20, r10
    6460:	96 01       	movw	r18, r12
    6462:	09 95       	icall

		if (0 != temp_velocity[count])
    6464:	f6 01       	movw	r30, r12
    6466:	40 81       	ld	r20, Z
    6468:	51 81       	ldd	r21, Z+1	; 0x01
    646a:	41 15       	cp	r20, r1
    646c:	51 05       	cpc	r21, r1
    646e:	41 f0       	breq	.+16     	; 0x6480 <ControlSynchronous4Dof+0x154>
		{
			servo_control.pSetSyncPosition(first_id + count, temp_position, temp_velocity[count]);
    6470:	69 81       	ldd	r22, Y+1	; 0x01
    6472:	7a 81       	ldd	r23, Y+2	; 0x02
    6474:	e0 91 cc 03 	lds	r30, 0x03CC
    6478:	f0 91 cd 03 	lds	r31, 0x03CD
    647c:	89 2d       	mov	r24, r9
    647e:	09 95       	icall
    6480:	82 e0       	ldi	r24, 0x02	; 2
    6482:	90 e0       	ldi	r25, 0x00	; 0
    6484:	e8 0e       	add	r14, r24
    6486:	f9 1e       	adc	r15, r25
    6488:	93 94       	inc	r9
    648a:	c8 0e       	add	r12, r24
    648c:	d9 1e       	adc	r13, r25
		}
	}

	*calc_time = temp_max;

	for (count = 0; count < 4; count++)
    648e:	98 e0       	ldi	r25, 0x08	; 8
    6490:	e9 16       	cp	r14, r25
    6492:	f1 04       	cpc	r15, r1
    6494:	81 f6       	brne	.-96     	; 0x6436 <ControlSynchronous4Dof+0x10a>
		if (0 != temp_velocity[count])
		{
			servo_control.pSetSyncPosition(first_id + count, temp_position, temp_velocity[count]);
		}
	}
}
    6496:	66 96       	adiw	r28, 0x16	; 22
    6498:	0f b6       	in	r0, 0x3f	; 63
    649a:	f8 94       	cli
    649c:	de bf       	out	0x3e, r29	; 62
    649e:	0f be       	out	0x3f, r0	; 63
    64a0:	cd bf       	out	0x3d, r28	; 61
    64a2:	cf 91       	pop	r28
    64a4:	df 91       	pop	r29
    64a6:	1f 91       	pop	r17
    64a8:	0f 91       	pop	r16
    64aa:	ff 90       	pop	r15
    64ac:	ef 90       	pop	r14
    64ae:	df 90       	pop	r13
    64b0:	cf 90       	pop	r12
    64b2:	bf 90       	pop	r11
    64b4:	af 90       	pop	r10
    64b6:	9f 90       	pop	r9
    64b8:	7f 90       	pop	r7
    64ba:	6f 90       	pop	r6
    64bc:	5f 90       	pop	r5
    64be:	4f 90       	pop	r4
    64c0:	3f 90       	pop	r3
    64c2:	2f 90       	pop	r2
    64c4:	08 95       	ret

000064c6 <ControlSynchronous1Dof>:
** 修订人:
** 修订日期:
**------------------------------------------------------------------------------------------------------------------------
*************************************************************************************************************************/
static void ControlSynchronous1Dof(const int16 vector, uint8 id, uint16 ref_time, uint16* calc_time)
{
    64c6:	cf 92       	push	r12
    64c8:	df 92       	push	r13
    64ca:	ff 92       	push	r15
    64cc:	0f 93       	push	r16
    64ce:	1f 93       	push	r17
    64d0:	df 93       	push	r29
    64d2:	cf 93       	push	r28
    64d4:	00 d0       	rcall	.+0      	; 0x64d6 <ControlSynchronous1Dof+0x10>
    64d6:	00 d0       	rcall	.+0      	; 0x64d8 <ControlSynchronous1Dof+0x12>
    64d8:	00 d0       	rcall	.+0      	; 0x64da <ControlSynchronous1Dof+0x14>
    64da:	cd b7       	in	r28, 0x3d	; 61
    64dc:	de b7       	in	r29, 0x3e	; 62
    64de:	fc 01       	movw	r30, r24
    64e0:	f6 2e       	mov	r15, r22
    64e2:	8a 01       	movw	r16, r20
    64e4:	69 01       	movw	r12, r18
	uint16 temp_position = 0;
    64e6:	1a 82       	std	Y+2, r1	; 0x02
    64e8:	19 82       	std	Y+1, r1	; 0x01
	uint16 temp_velocity = 0;
    64ea:	1c 82       	std	Y+4, r1	; 0x04
    64ec:	1b 82       	std	Y+3, r1	; 0x03
	uint16 temp_time = 0;
    64ee:	1e 82       	std	Y+6, r1	; 0x06
    64f0:	1d 82       	std	Y+5, r1	; 0x05

	ConversionRelPosition(id, vector, &temp_position);
    64f2:	86 2f       	mov	r24, r22
    64f4:	bf 01       	movw	r22, r30
    64f6:	ae 01       	movw	r20, r28
    64f8:	4f 5f       	subi	r20, 0xFF	; 255
    64fa:	5f 4f       	sbci	r21, 0xFF	; 255
    64fc:	0e 94 46 31 	call	0x628c	; 0x628c <ConversionRelPosition>

	servo_control.pCalcVelocity(id, temp_position, ref_time, &temp_velocity, &temp_time);
    6500:	69 81       	ldd	r22, Y+1	; 0x01
    6502:	7a 81       	ldd	r23, Y+2	; 0x02
    6504:	e0 91 e4 03 	lds	r30, 0x03E4
    6508:	f0 91 e5 03 	lds	r31, 0x03E5
    650c:	8f 2d       	mov	r24, r15
    650e:	a8 01       	movw	r20, r16
    6510:	9e 01       	movw	r18, r28
    6512:	2d 5f       	subi	r18, 0xFD	; 253
    6514:	3f 4f       	sbci	r19, 0xFF	; 255
    6516:	8e 01       	movw	r16, r28
    6518:	0b 5f       	subi	r16, 0xFB	; 251
    651a:	1f 4f       	sbci	r17, 0xFF	; 255
    651c:	09 95       	icall

	if (0 != temp_velocity)
    651e:	4b 81       	ldd	r20, Y+3	; 0x03
    6520:	5c 81       	ldd	r21, Y+4	; 0x04
    6522:	41 15       	cp	r20, r1
    6524:	51 05       	cpc	r21, r1
    6526:	41 f0       	breq	.+16     	; 0x6538 <ControlSynchronous1Dof+0x72>
	{
		servo_control.pSetSyncPosition(id, temp_position, temp_velocity);
    6528:	69 81       	ldd	r22, Y+1	; 0x01
    652a:	7a 81       	ldd	r23, Y+2	; 0x02
    652c:	e0 91 cc 03 	lds	r30, 0x03CC
    6530:	f0 91 cd 03 	lds	r31, 0x03CD
    6534:	8f 2d       	mov	r24, r15
    6536:	09 95       	icall
	}

	*calc_time = temp_time;
    6538:	8d 81       	ldd	r24, Y+5	; 0x05
    653a:	9e 81       	ldd	r25, Y+6	; 0x06
    653c:	f6 01       	movw	r30, r12
    653e:	91 83       	std	Z+1, r25	; 0x01
    6540:	80 83       	st	Z, r24
}
    6542:	26 96       	adiw	r28, 0x06	; 6
    6544:	0f b6       	in	r0, 0x3f	; 63
    6546:	f8 94       	cli
    6548:	de bf       	out	0x3e, r29	; 62
    654a:	0f be       	out	0x3f, r0	; 63
    654c:	cd bf       	out	0x3d, r28	; 61
    654e:	cf 91       	pop	r28
    6550:	df 91       	pop	r29
    6552:	1f 91       	pop	r17
    6554:	0f 91       	pop	r16
    6556:	ff 90       	pop	r15
    6558:	df 90       	pop	r13
    655a:	cf 90       	pop	r12
    655c:	08 95       	ret

0000655e <SlowlyWalk>:
** 修订人:
** 修订日期:
**------------------------------------------------------------------------------------------------------------------------
*************************************************************************************************************************/
void SlowlyWalk(void)
{
    655e:	0f 93       	push	r16
    6560:	1f 93       	push	r17
    6562:	df 93       	push	r29
    6564:	cf 93       	push	r28
    6566:	00 d0       	rcall	.+0      	; 0x6568 <SlowlyWalk+0xa>
    6568:	0f 92       	push	r0
    656a:	cd b7       	in	r28, 0x3d	; 61
    656c:	de b7       	in	r29, 0x3e	; 62
	const int16 r_hindleg_vector_e[4] = {270, 0, 400, 120};
	const int16 r_hindleg_vector_f[4] = {115, 0, 340, 240};



	uint16 temp_time = 0;
    656e:	1b 82       	std	Y+3, r1	; 0x03
    6570:	1a 82       	std	Y+2, r1	; 0x02
	uint8 temp_value = 0;
    6572:	19 82       	std	Y+1, r1	; 0x01

	const uint8 slowly_walk_mapping[4] = {1, 3, 0, 2};

	signal_control.pGetByte(ADDR_MOVELEG, &temp_value);
    6574:	e0 91 2a 04 	lds	r30, 0x042A
    6578:	f0 91 2b 04 	lds	r31, 0x042B
    657c:	80 e1       	ldi	r24, 0x10	; 16
    657e:	be 01       	movw	r22, r28
    6580:	6f 5f       	subi	r22, 0xFF	; 255
    6582:	7f 4f       	sbci	r23, 0xFF	; 255
    6584:	09 95       	icall

	switch (slowly_walk_mapping[temp_value])
    6586:	e9 81       	ldd	r30, Y+1	; 0x01
    6588:	f0 e0       	ldi	r31, 0x00	; 0
    658a:	ee 55       	subi	r30, 0x5E	; 94
    658c:	f4 4f       	sbci	r31, 0xF4	; 244
    658e:	e0 81       	ld	r30, Z
    6590:	e1 30       	cpi	r30, 0x01	; 1
    6592:	09 f4       	brne	.+2      	; 0x6596 <SlowlyWalk+0x38>
    6594:	77 c0       	rjmp	.+238    	; 0x6684 <SlowlyWalk+0x126>
    6596:	e1 30       	cpi	r30, 0x01	; 1
    6598:	38 f0       	brcs	.+14     	; 0x65a8 <SlowlyWalk+0x4a>
    659a:	e2 30       	cpi	r30, 0x02	; 2
    659c:	09 f4       	brne	.+2      	; 0x65a0 <SlowlyWalk+0x42>
    659e:	e0 c0       	rjmp	.+448    	; 0x6760 <SlowlyWalk+0x202>
    65a0:	e3 30       	cpi	r30, 0x03	; 3
    65a2:	09 f0       	breq	.+2      	; 0x65a6 <SlowlyWalk+0x48>
    65a4:	b9 c1       	rjmp	.+882    	; 0x6918 <SlowlyWalk+0x3ba>
    65a6:	4a c1       	rjmp	.+660    	; 0x683c <SlowlyWalk+0x2de>
	{
		case 0:
		{
			ControlSynchronous4Dof(&l_foreleg_vector_d[0], 11, 500, &temp_time);
    65a8:	8e 01       	movw	r16, r28
    65aa:	0e 5f       	subi	r16, 0xFE	; 254
    65ac:	1f 4f       	sbci	r17, 0xFF	; 255
    65ae:	86 e4       	ldi	r24, 0x46	; 70
    65b0:	9c e0       	ldi	r25, 0x0C	; 12
    65b2:	6b e0       	ldi	r22, 0x0B	; 11
    65b4:	44 ef       	ldi	r20, 0xF4	; 244
    65b6:	51 e0       	ldi	r21, 0x01	; 1
    65b8:	98 01       	movw	r18, r16
    65ba:	0e 94 96 31 	call	0x632c	; 0x632c <ControlSynchronous4Dof>
			ControlSynchronous4Dof(&r_foreleg_vector_b[0], 21, 500, &temp_time);
    65be:	86 e2       	ldi	r24, 0x26	; 38
    65c0:	9c e0       	ldi	r25, 0x0C	; 12
    65c2:	65 e1       	ldi	r22, 0x15	; 21
    65c4:	44 ef       	ldi	r20, 0xF4	; 244
    65c6:	51 e0       	ldi	r21, 0x01	; 1
    65c8:	98 01       	movw	r18, r16
    65ca:	0e 94 96 31 	call	0x632c	; 0x632c <ControlSynchronous4Dof>
			ControlSynchronous4Dof(&l_hindleg_vector_e[0], 31, 200, &temp_time);
    65ce:	8e ed       	ldi	r24, 0xDE	; 222
    65d0:	9b e0       	ldi	r25, 0x0B	; 11
    65d2:	6f e1       	ldi	r22, 0x1F	; 31
    65d4:	48 ec       	ldi	r20, 0xC8	; 200
    65d6:	50 e0       	ldi	r21, 0x00	; 0
    65d8:	98 01       	movw	r18, r16
    65da:	0e 94 96 31 	call	0x632c	; 0x632c <ControlSynchronous4Dof>
			ControlSynchronous4Dof(&r_hindleg_vector_c[0], 41, 500, &temp_time);
    65de:	8e eb       	ldi	r24, 0xBE	; 190
    65e0:	9b e0       	ldi	r25, 0x0B	; 11
    65e2:	69 e2       	ldi	r22, 0x29	; 41
    65e4:	44 ef       	ldi	r20, 0xF4	; 244
    65e6:	51 e0       	ldi	r21, 0x01	; 1
    65e8:	98 01       	movw	r18, r16
    65ea:	0e 94 96 31 	call	0x632c	; 0x632c <ControlSynchronous4Dof>
			servo_control.pActionSync();
    65ee:	e0 91 e0 03 	lds	r30, 0x03E0
    65f2:	f0 91 e1 03 	lds	r31, 0x03E1
    65f6:	09 95       	icall
			led_control.pChangeLedBit(0);
    65f8:	e0 91 59 07 	lds	r30, 0x0759
    65fc:	f0 91 5a 07 	lds	r31, 0x075A
    6600:	80 e0       	ldi	r24, 0x00	; 0
    6602:	09 95       	icall
    6604:	80 ed       	ldi	r24, 0xD0	; 208
    6606:	97 e0       	ldi	r25, 0x07	; 7
    milliseconds can be achieved.
 */
void
_delay_loop_2(uint16_t __count)
{
	__asm__ volatile (
    6608:	20 e9       	ldi	r18, 0x90	; 144
    660a:	31 e0       	ldi	r19, 0x01	; 1
    660c:	f9 01       	movw	r30, r18
    660e:	31 97       	sbiw	r30, 0x01	; 1
    6610:	f1 f7       	brne	.-4      	; 0x660e <SlowlyWalk+0xb0>
		{
			// wait 1/10 ms
			_delay_loop_2(((F_CPU) / 4e3) / 10);
			__ticks --;
    6612:	01 97       	sbiw	r24, 0x01	; 1
		__ticks = 1;
	else if (__tmp > 65535)
	{
		//	__ticks = requested delay in 1/10 ms
		__ticks = (uint16_t) (__ms * 10.0);
		while(__ticks)
    6614:	d9 f7       	brne	.-10     	; 0x660c <SlowlyWalk+0xae>

			_delay_ms(200);

			ControlSynchronous4Dof(&l_hindleg_vector_f[0], 31, 100, &temp_time);
    6616:	86 ed       	ldi	r24, 0xD6	; 214
    6618:	9b e0       	ldi	r25, 0x0B	; 11
    661a:	6f e1       	ldi	r22, 0x1F	; 31
    661c:	44 e6       	ldi	r20, 0x64	; 100
    661e:	50 e0       	ldi	r21, 0x00	; 0
    6620:	9e 01       	movw	r18, r28
    6622:	2e 5f       	subi	r18, 0xFE	; 254
    6624:	3f 4f       	sbci	r19, 0xFF	; 255
    6626:	0e 94 96 31 	call	0x632c	; 0x632c <ControlSynchronous4Dof>
			servo_control.pActionSync();
    662a:	e0 91 e0 03 	lds	r30, 0x03E0
    662e:	f0 91 e1 03 	lds	r31, 0x03E1
    6632:	09 95       	icall
    6634:	88 ee       	ldi	r24, 0xE8	; 232
    6636:	93 e0       	ldi	r25, 0x03	; 3
    6638:	20 e9       	ldi	r18, 0x90	; 144
    663a:	31 e0       	ldi	r19, 0x01	; 1
    663c:	f9 01       	movw	r30, r18
    663e:	31 97       	sbiw	r30, 0x01	; 1
    6640:	f1 f7       	brne	.-4      	; 0x663e <SlowlyWalk+0xe0>
		{
			// wait 1/10 ms
			_delay_loop_2(((F_CPU) / 4e3) / 10);
			__ticks --;
    6642:	01 97       	sbiw	r24, 0x01	; 1
		__ticks = 1;
	else if (__tmp > 65535)
	{
		//	__ticks = requested delay in 1/10 ms
		__ticks = (uint16_t) (__ms * 10.0);
		while(__ticks)
    6644:	d9 f7       	brne	.-10     	; 0x663c <SlowlyWalk+0xde>

			_delay_ms(100);

			ControlSynchronous4Dof(&l_hindleg_vector_a[0], 31, 200, &temp_time);
    6646:	8e ef       	ldi	r24, 0xFE	; 254
    6648:	9b e0       	ldi	r25, 0x0B	; 11
    664a:	6f e1       	ldi	r22, 0x1F	; 31
    664c:	48 ec       	ldi	r20, 0xC8	; 200
    664e:	50 e0       	ldi	r21, 0x00	; 0
    6650:	9e 01       	movw	r18, r28
    6652:	2e 5f       	subi	r18, 0xFE	; 254
    6654:	3f 4f       	sbci	r19, 0xFF	; 255
    6656:	0e 94 96 31 	call	0x632c	; 0x632c <ControlSynchronous4Dof>
			servo_control.pActionSync();
    665a:	e0 91 e0 03 	lds	r30, 0x03E0
    665e:	f0 91 e1 03 	lds	r31, 0x03E1
    6662:	09 95       	icall
    6664:	80 ed       	ldi	r24, 0xD0	; 208
    6666:	97 e0       	ldi	r25, 0x07	; 7
    6668:	20 e9       	ldi	r18, 0x90	; 144
    666a:	31 e0       	ldi	r19, 0x01	; 1
    666c:	f9 01       	movw	r30, r18
    666e:	31 97       	sbiw	r30, 0x01	; 1
    6670:	f1 f7       	brne	.-4      	; 0x666e <SlowlyWalk+0x110>
		{
			// wait 1/10 ms
			_delay_loop_2(((F_CPU) / 4e3) / 10);
			__ticks --;
    6672:	01 97       	sbiw	r24, 0x01	; 1
		__ticks = 1;
	else if (__tmp > 65535)
	{
		//	__ticks = requested delay in 1/10 ms
		__ticks = (uint16_t) (__ms * 10.0);
		while(__ticks)
    6674:	d9 f7       	brne	.-10     	; 0x666c <SlowlyWalk+0x10e>

			_delay_ms(200);

			signal_control.pSetByte(ADDR_MOVELEG, 0);
    6676:	e0 91 28 04 	lds	r30, 0x0428
    667a:	f0 91 29 04 	lds	r31, 0x0429
    667e:	80 e1       	ldi	r24, 0x10	; 16
    6680:	60 e0       	ldi	r22, 0x00	; 0
    6682:	49 c1       	rjmp	.+658    	; 0x6916 <SlowlyWalk+0x3b8>
			break;
		}

		case 1:
		{
			ControlSynchronous4Dof(&l_foreleg_vector_e[0], 11, 200, &temp_time);
    6684:	8e 01       	movw	r16, r28
    6686:	0e 5f       	subi	r16, 0xFE	; 254
    6688:	1f 4f       	sbci	r17, 0xFF	; 255
    668a:	8e e3       	ldi	r24, 0x3E	; 62
    668c:	9c e0       	ldi	r25, 0x0C	; 12
    668e:	6b e0       	ldi	r22, 0x0B	; 11
    6690:	48 ec       	ldi	r20, 0xC8	; 200
    6692:	50 e0       	ldi	r21, 0x00	; 0
    6694:	98 01       	movw	r18, r16
    6696:	0e 94 96 31 	call	0x632c	; 0x632c <ControlSynchronous4Dof>
			ControlSynchronous4Dof(&r_foreleg_vector_c[0], 21, 500, &temp_time);
    669a:	8e e1       	ldi	r24, 0x1E	; 30
    669c:	9c e0       	ldi	r25, 0x0C	; 12
    669e:	65 e1       	ldi	r22, 0x15	; 21
    66a0:	44 ef       	ldi	r20, 0xF4	; 244
    66a2:	51 e0       	ldi	r21, 0x01	; 1
    66a4:	98 01       	movw	r18, r16
    66a6:	0e 94 96 31 	call	0x632c	; 0x632c <ControlSynchronous4Dof>
			ControlSynchronous4Dof(&l_hindleg_vector_b[0], 31, 500, &temp_time);
    66aa:	86 ef       	ldi	r24, 0xF6	; 246
    66ac:	9b e0       	ldi	r25, 0x0B	; 11
    66ae:	6f e1       	ldi	r22, 0x1F	; 31
    66b0:	44 ef       	ldi	r20, 0xF4	; 244
    66b2:	51 e0       	ldi	r21, 0x01	; 1
    66b4:	98 01       	movw	r18, r16
    66b6:	0e 94 96 31 	call	0x632c	; 0x632c <ControlSynchronous4Dof>
			ControlSynchronous4Dof(&r_hindleg_vector_d[0], 41, 500, &temp_time);
    66ba:	86 eb       	ldi	r24, 0xB6	; 182
    66bc:	9b e0       	ldi	r25, 0x0B	; 11
    66be:	69 e2       	ldi	r22, 0x29	; 41
    66c0:	44 ef       	ldi	r20, 0xF4	; 244
    66c2:	51 e0       	ldi	r21, 0x01	; 1
    66c4:	98 01       	movw	r18, r16
    66c6:	0e 94 96 31 	call	0x632c	; 0x632c <ControlSynchronous4Dof>
			servo_control.pActionSync();
    66ca:	e0 91 e0 03 	lds	r30, 0x03E0
    66ce:	f0 91 e1 03 	lds	r31, 0x03E1
    66d2:	09 95       	icall
			led_control.pChangeLedBit(0);
    66d4:	e0 91 59 07 	lds	r30, 0x0759
    66d8:	f0 91 5a 07 	lds	r31, 0x075A
    66dc:	80 e0       	ldi	r24, 0x00	; 0
    66de:	09 95       	icall
    66e0:	80 ed       	ldi	r24, 0xD0	; 208
    66e2:	97 e0       	ldi	r25, 0x07	; 7
    66e4:	20 e9       	ldi	r18, 0x90	; 144
    66e6:	31 e0       	ldi	r19, 0x01	; 1
    66e8:	f9 01       	movw	r30, r18
    66ea:	31 97       	sbiw	r30, 0x01	; 1
    66ec:	f1 f7       	brne	.-4      	; 0x66ea <SlowlyWalk+0x18c>
		{
			// wait 1/10 ms
			_delay_loop_2(((F_CPU) / 4e3) / 10);
			__ticks --;
    66ee:	01 97       	sbiw	r24, 0x01	; 1
		__ticks = 1;
	else if (__tmp > 65535)
	{
		//	__ticks = requested delay in 1/10 ms
		__ticks = (uint16_t) (__ms * 10.0);
		while(__ticks)
    66f0:	d9 f7       	brne	.-10     	; 0x66e8 <SlowlyWalk+0x18a>

			_delay_ms(200);

			ControlSynchronous4Dof(&l_foreleg_vector_f[0], 11, 100, &temp_time);
    66f2:	86 e3       	ldi	r24, 0x36	; 54
    66f4:	9c e0       	ldi	r25, 0x0C	; 12
    66f6:	6b e0       	ldi	r22, 0x0B	; 11
    66f8:	44 e6       	ldi	r20, 0x64	; 100
    66fa:	50 e0       	ldi	r21, 0x00	; 0
    66fc:	9e 01       	movw	r18, r28
    66fe:	2e 5f       	subi	r18, 0xFE	; 254
    6700:	3f 4f       	sbci	r19, 0xFF	; 255
    6702:	0e 94 96 31 	call	0x632c	; 0x632c <ControlSynchronous4Dof>
			servo_control.pActionSync();
    6706:	e0 91 e0 03 	lds	r30, 0x03E0
    670a:	f0 91 e1 03 	lds	r31, 0x03E1
    670e:	09 95       	icall
    6710:	88 ee       	ldi	r24, 0xE8	; 232
    6712:	93 e0       	ldi	r25, 0x03	; 3
    6714:	20 e9       	ldi	r18, 0x90	; 144
    6716:	31 e0       	ldi	r19, 0x01	; 1
    6718:	f9 01       	movw	r30, r18
    671a:	31 97       	sbiw	r30, 0x01	; 1
    671c:	f1 f7       	brne	.-4      	; 0x671a <SlowlyWalk+0x1bc>
		{
			// wait 1/10 ms
			_delay_loop_2(((F_CPU) / 4e3) / 10);
			__ticks --;
    671e:	01 97       	sbiw	r24, 0x01	; 1
		__ticks = 1;
	else if (__tmp > 65535)
	{
		//	__ticks = requested delay in 1/10 ms
		__ticks = (uint16_t) (__ms * 10.0);
		while(__ticks)
    6720:	d9 f7       	brne	.-10     	; 0x6718 <SlowlyWalk+0x1ba>

			_delay_ms(100);

			ControlSynchronous4Dof(&l_foreleg_vector_a[0], 11, 200, &temp_time);
    6722:	8e e5       	ldi	r24, 0x5E	; 94
    6724:	9c e0       	ldi	r25, 0x0C	; 12
    6726:	6b e0       	ldi	r22, 0x0B	; 11
    6728:	48 ec       	ldi	r20, 0xC8	; 200
    672a:	50 e0       	ldi	r21, 0x00	; 0
    672c:	9e 01       	movw	r18, r28
    672e:	2e 5f       	subi	r18, 0xFE	; 254
    6730:	3f 4f       	sbci	r19, 0xFF	; 255
    6732:	0e 94 96 31 	call	0x632c	; 0x632c <ControlSynchronous4Dof>
			servo_control.pActionSync();
    6736:	e0 91 e0 03 	lds	r30, 0x03E0
    673a:	f0 91 e1 03 	lds	r31, 0x03E1
    673e:	09 95       	icall
    6740:	80 ed       	ldi	r24, 0xD0	; 208
    6742:	97 e0       	ldi	r25, 0x07	; 7
    6744:	20 e9       	ldi	r18, 0x90	; 144
    6746:	31 e0       	ldi	r19, 0x01	; 1
    6748:	f9 01       	movw	r30, r18
    674a:	31 97       	sbiw	r30, 0x01	; 1
    674c:	f1 f7       	brne	.-4      	; 0x674a <SlowlyWalk+0x1ec>
		{
			// wait 1/10 ms
			_delay_loop_2(((F_CPU) / 4e3) / 10);
			__ticks --;
    674e:	01 97       	sbiw	r24, 0x01	; 1
		__ticks = 1;
	else if (__tmp > 65535)
	{
		//	__ticks = requested delay in 1/10 ms
		__ticks = (uint16_t) (__ms * 10.0);
		while(__ticks)
    6750:	d9 f7       	brne	.-10     	; 0x6748 <SlowlyWalk+0x1ea>

			_delay_ms(200);

			signal_control.pSetByte(ADDR_MOVELEG, 3);
    6752:	e0 91 28 04 	lds	r30, 0x0428
    6756:	f0 91 29 04 	lds	r31, 0x0429
    675a:	80 e1       	ldi	r24, 0x10	; 16
    675c:	63 e0       	ldi	r22, 0x03	; 3
    675e:	db c0       	rjmp	.+438    	; 0x6916 <SlowlyWalk+0x3b8>
			break;
		}

		case 2:
		{
			ControlSynchronous4Dof(&l_foreleg_vector_b[0], 11, 500, &temp_time);
    6760:	8e 01       	movw	r16, r28
    6762:	0e 5f       	subi	r16, 0xFE	; 254
    6764:	1f 4f       	sbci	r17, 0xFF	; 255
    6766:	86 e5       	ldi	r24, 0x56	; 86
    6768:	9c e0       	ldi	r25, 0x0C	; 12
    676a:	6b e0       	ldi	r22, 0x0B	; 11
    676c:	44 ef       	ldi	r20, 0xF4	; 244
    676e:	51 e0       	ldi	r21, 0x01	; 1
    6770:	98 01       	movw	r18, r16
    6772:	0e 94 96 31 	call	0x632c	; 0x632c <ControlSynchronous4Dof>
			ControlSynchronous4Dof(&r_foreleg_vector_d[0], 21, 500, &temp_time);
    6776:	86 e1       	ldi	r24, 0x16	; 22
    6778:	9c e0       	ldi	r25, 0x0C	; 12
    677a:	65 e1       	ldi	r22, 0x15	; 21
    677c:	44 ef       	ldi	r20, 0xF4	; 244
    677e:	51 e0       	ldi	r21, 0x01	; 1
    6780:	98 01       	movw	r18, r16
    6782:	0e 94 96 31 	call	0x632c	; 0x632c <ControlSynchronous4Dof>
			ControlSynchronous4Dof(&l_hindleg_vector_c[0], 31, 500, &temp_time);
    6786:	8e ee       	ldi	r24, 0xEE	; 238
    6788:	9b e0       	ldi	r25, 0x0B	; 11
    678a:	6f e1       	ldi	r22, 0x1F	; 31
    678c:	44 ef       	ldi	r20, 0xF4	; 244
    678e:	51 e0       	ldi	r21, 0x01	; 1
    6790:	98 01       	movw	r18, r16
    6792:	0e 94 96 31 	call	0x632c	; 0x632c <ControlSynchronous4Dof>
			ControlSynchronous4Dof(&r_hindleg_vector_e[0], 41, 200, &temp_time);
    6796:	8e ea       	ldi	r24, 0xAE	; 174
    6798:	9b e0       	ldi	r25, 0x0B	; 11
    679a:	69 e2       	ldi	r22, 0x29	; 41
    679c:	48 ec       	ldi	r20, 0xC8	; 200
    679e:	50 e0       	ldi	r21, 0x00	; 0
    67a0:	98 01       	movw	r18, r16
    67a2:	0e 94 96 31 	call	0x632c	; 0x632c <ControlSynchronous4Dof>
			servo_control.pActionSync();
    67a6:	e0 91 e0 03 	lds	r30, 0x03E0
    67aa:	f0 91 e1 03 	lds	r31, 0x03E1
    67ae:	09 95       	icall
			led_control.pChangeLedBit(0);
    67b0:	e0 91 59 07 	lds	r30, 0x0759
    67b4:	f0 91 5a 07 	lds	r31, 0x075A
    67b8:	80 e0       	ldi	r24, 0x00	; 0
    67ba:	09 95       	icall
    67bc:	80 ed       	ldi	r24, 0xD0	; 208
    67be:	97 e0       	ldi	r25, 0x07	; 7
    67c0:	20 e9       	ldi	r18, 0x90	; 144
    67c2:	31 e0       	ldi	r19, 0x01	; 1
    67c4:	f9 01       	movw	r30, r18
    67c6:	31 97       	sbiw	r30, 0x01	; 1
    67c8:	f1 f7       	brne	.-4      	; 0x67c6 <SlowlyWalk+0x268>
		{
			// wait 1/10 ms
			_delay_loop_2(((F_CPU) / 4e3) / 10);
			__ticks --;
    67ca:	01 97       	sbiw	r24, 0x01	; 1
		__ticks = 1;
	else if (__tmp > 65535)
	{
		//	__ticks = requested delay in 1/10 ms
		__ticks = (uint16_t) (__ms * 10.0);
		while(__ticks)
    67cc:	d9 f7       	brne	.-10     	; 0x67c4 <SlowlyWalk+0x266>

			_delay_ms(200);

			ControlSynchronous4Dof(&r_hindleg_vector_f[0], 41, 100, &temp_time);
    67ce:	86 ea       	ldi	r24, 0xA6	; 166
    67d0:	9b e0       	ldi	r25, 0x0B	; 11
    67d2:	69 e2       	ldi	r22, 0x29	; 41
    67d4:	44 e6       	ldi	r20, 0x64	; 100
    67d6:	50 e0       	ldi	r21, 0x00	; 0
    67d8:	9e 01       	movw	r18, r28
    67da:	2e 5f       	subi	r18, 0xFE	; 254
    67dc:	3f 4f       	sbci	r19, 0xFF	; 255
    67de:	0e 94 96 31 	call	0x632c	; 0x632c <ControlSynchronous4Dof>
			servo_control.pActionSync();
    67e2:	e0 91 e0 03 	lds	r30, 0x03E0
    67e6:	f0 91 e1 03 	lds	r31, 0x03E1
    67ea:	09 95       	icall
    67ec:	88 ee       	ldi	r24, 0xE8	; 232
    67ee:	93 e0       	ldi	r25, 0x03	; 3
    67f0:	20 e9       	ldi	r18, 0x90	; 144
    67f2:	31 e0       	ldi	r19, 0x01	; 1
    67f4:	f9 01       	movw	r30, r18
    67f6:	31 97       	sbiw	r30, 0x01	; 1
    67f8:	f1 f7       	brne	.-4      	; 0x67f6 <SlowlyWalk+0x298>
		{
			// wait 1/10 ms
			_delay_loop_2(((F_CPU) / 4e3) / 10);
			__ticks --;
    67fa:	01 97       	sbiw	r24, 0x01	; 1
		__ticks = 1;
	else if (__tmp > 65535)
	{
		//	__ticks = requested delay in 1/10 ms
		__ticks = (uint16_t) (__ms * 10.0);
		while(__ticks)
    67fc:	d9 f7       	brne	.-10     	; 0x67f4 <SlowlyWalk+0x296>

			_delay_ms(100);

			ControlSynchronous4Dof(&r_hindleg_vector_a[0], 41, 200, &temp_time);
    67fe:	8e ec       	ldi	r24, 0xCE	; 206
    6800:	9b e0       	ldi	r25, 0x0B	; 11
    6802:	69 e2       	ldi	r22, 0x29	; 41
    6804:	48 ec       	ldi	r20, 0xC8	; 200
    6806:	50 e0       	ldi	r21, 0x00	; 0
    6808:	9e 01       	movw	r18, r28
    680a:	2e 5f       	subi	r18, 0xFE	; 254
    680c:	3f 4f       	sbci	r19, 0xFF	; 255
    680e:	0e 94 96 31 	call	0x632c	; 0x632c <ControlSynchronous4Dof>
			servo_control.pActionSync();
    6812:	e0 91 e0 03 	lds	r30, 0x03E0
    6816:	f0 91 e1 03 	lds	r31, 0x03E1
    681a:	09 95       	icall
    681c:	80 ed       	ldi	r24, 0xD0	; 208
    681e:	97 e0       	ldi	r25, 0x07	; 7
    6820:	20 e9       	ldi	r18, 0x90	; 144
    6822:	31 e0       	ldi	r19, 0x01	; 1
    6824:	f9 01       	movw	r30, r18
    6826:	31 97       	sbiw	r30, 0x01	; 1
    6828:	f1 f7       	brne	.-4      	; 0x6826 <SlowlyWalk+0x2c8>
		{
			// wait 1/10 ms
			_delay_loop_2(((F_CPU) / 4e3) / 10);
			__ticks --;
    682a:	01 97       	sbiw	r24, 0x01	; 1
		__ticks = 1;
	else if (__tmp > 65535)
	{
		//	__ticks = requested delay in 1/10 ms
		__ticks = (uint16_t) (__ms * 10.0);
		while(__ticks)
    682c:	d9 f7       	brne	.-10     	; 0x6824 <SlowlyWalk+0x2c6>

			_delay_ms(200);

			signal_control.pSetByte(ADDR_MOVELEG, 1);
    682e:	e0 91 28 04 	lds	r30, 0x0428
    6832:	f0 91 29 04 	lds	r31, 0x0429
    6836:	80 e1       	ldi	r24, 0x10	; 16
    6838:	61 e0       	ldi	r22, 0x01	; 1
    683a:	6d c0       	rjmp	.+218    	; 0x6916 <SlowlyWalk+0x3b8>
			break;
		}

		case 3:
		{
			ControlSynchronous4Dof(&l_foreleg_vector_c[0], 11, 500, &temp_time);
    683c:	8e 01       	movw	r16, r28
    683e:	0e 5f       	subi	r16, 0xFE	; 254
    6840:	1f 4f       	sbci	r17, 0xFF	; 255
    6842:	8e e4       	ldi	r24, 0x4E	; 78
    6844:	9c e0       	ldi	r25, 0x0C	; 12
    6846:	6b e0       	ldi	r22, 0x0B	; 11
    6848:	44 ef       	ldi	r20, 0xF4	; 244
    684a:	51 e0       	ldi	r21, 0x01	; 1
    684c:	98 01       	movw	r18, r16
    684e:	0e 94 96 31 	call	0x632c	; 0x632c <ControlSynchronous4Dof>
			ControlSynchronous4Dof(&r_foreleg_vector_e[0], 21, 200, &temp_time);
    6852:	8e e0       	ldi	r24, 0x0E	; 14
    6854:	9c e0       	ldi	r25, 0x0C	; 12
    6856:	65 e1       	ldi	r22, 0x15	; 21
    6858:	48 ec       	ldi	r20, 0xC8	; 200
    685a:	50 e0       	ldi	r21, 0x00	; 0
    685c:	98 01       	movw	r18, r16
    685e:	0e 94 96 31 	call	0x632c	; 0x632c <ControlSynchronous4Dof>
			ControlSynchronous4Dof(&l_hindleg_vector_d[0], 31, 500, &temp_time);
    6862:	86 ee       	ldi	r24, 0xE6	; 230
    6864:	9b e0       	ldi	r25, 0x0B	; 11
    6866:	6f e1       	ldi	r22, 0x1F	; 31
    6868:	44 ef       	ldi	r20, 0xF4	; 244
    686a:	51 e0       	ldi	r21, 0x01	; 1
    686c:	98 01       	movw	r18, r16
    686e:	0e 94 96 31 	call	0x632c	; 0x632c <ControlSynchronous4Dof>
			ControlSynchronous4Dof(&r_hindleg_vector_b[0], 41, 500, &temp_time);
    6872:	86 ec       	ldi	r24, 0xC6	; 198
    6874:	9b e0       	ldi	r25, 0x0B	; 11
    6876:	69 e2       	ldi	r22, 0x29	; 41
    6878:	44 ef       	ldi	r20, 0xF4	; 244
    687a:	51 e0       	ldi	r21, 0x01	; 1
    687c:	98 01       	movw	r18, r16
    687e:	0e 94 96 31 	call	0x632c	; 0x632c <ControlSynchronous4Dof>
			servo_control.pActionSync();
    6882:	e0 91 e0 03 	lds	r30, 0x03E0
    6886:	f0 91 e1 03 	lds	r31, 0x03E1
    688a:	09 95       	icall
			led_control.pChangeLedBit(0);
    688c:	e0 91 59 07 	lds	r30, 0x0759
    6890:	f0 91 5a 07 	lds	r31, 0x075A
    6894:	80 e0       	ldi	r24, 0x00	; 0
    6896:	09 95       	icall
    6898:	80 ed       	ldi	r24, 0xD0	; 208
    689a:	97 e0       	ldi	r25, 0x07	; 7
    689c:	20 e9       	ldi	r18, 0x90	; 144
    689e:	31 e0       	ldi	r19, 0x01	; 1
    68a0:	f9 01       	movw	r30, r18
    68a2:	31 97       	sbiw	r30, 0x01	; 1
    68a4:	f1 f7       	brne	.-4      	; 0x68a2 <SlowlyWalk+0x344>
		{
			// wait 1/10 ms
			_delay_loop_2(((F_CPU) / 4e3) / 10);
			__ticks --;
    68a6:	01 97       	sbiw	r24, 0x01	; 1
		__ticks = 1;
	else if (__tmp > 65535)
	{
		//	__ticks = requested delay in 1/10 ms
		__ticks = (uint16_t) (__ms * 10.0);
		while(__ticks)
    68a8:	d9 f7       	brne	.-10     	; 0x68a0 <SlowlyWalk+0x342>

			_delay_ms(200);

			ControlSynchronous4Dof(&r_foreleg_vector_f[0], 21, 100, &temp_time);
    68aa:	86 e0       	ldi	r24, 0x06	; 6
    68ac:	9c e0       	ldi	r25, 0x0C	; 12
    68ae:	65 e1       	ldi	r22, 0x15	; 21
    68b0:	44 e6       	ldi	r20, 0x64	; 100
    68b2:	50 e0       	ldi	r21, 0x00	; 0
    68b4:	9e 01       	movw	r18, r28
    68b6:	2e 5f       	subi	r18, 0xFE	; 254
    68b8:	3f 4f       	sbci	r19, 0xFF	; 255
    68ba:	0e 94 96 31 	call	0x632c	; 0x632c <ControlSynchronous4Dof>
			servo_control.pActionSync();
    68be:	e0 91 e0 03 	lds	r30, 0x03E0
    68c2:	f0 91 e1 03 	lds	r31, 0x03E1
    68c6:	09 95       	icall
    68c8:	88 ee       	ldi	r24, 0xE8	; 232
    68ca:	93 e0       	ldi	r25, 0x03	; 3
    68cc:	20 e9       	ldi	r18, 0x90	; 144
    68ce:	31 e0       	ldi	r19, 0x01	; 1
    68d0:	f9 01       	movw	r30, r18
    68d2:	31 97       	sbiw	r30, 0x01	; 1
    68d4:	f1 f7       	brne	.-4      	; 0x68d2 <SlowlyWalk+0x374>
		{
			// wait 1/10 ms
			_delay_loop_2(((F_CPU) / 4e3) / 10);
			__ticks --;
    68d6:	01 97       	sbiw	r24, 0x01	; 1
		__ticks = 1;
	else if (__tmp > 65535)
	{
		//	__ticks = requested delay in 1/10 ms
		__ticks = (uint16_t) (__ms * 10.0);
		while(__ticks)
    68d8:	d9 f7       	brne	.-10     	; 0x68d0 <SlowlyWalk+0x372>

			_delay_ms(100);

			ControlSynchronous4Dof(&r_foreleg_vector_a[0], 21, 200, &temp_time);
    68da:	8e e2       	ldi	r24, 0x2E	; 46
    68dc:	9c e0       	ldi	r25, 0x0C	; 12
    68de:	65 e1       	ldi	r22, 0x15	; 21
    68e0:	48 ec       	ldi	r20, 0xC8	; 200
    68e2:	50 e0       	ldi	r21, 0x00	; 0
    68e4:	9e 01       	movw	r18, r28
    68e6:	2e 5f       	subi	r18, 0xFE	; 254
    68e8:	3f 4f       	sbci	r19, 0xFF	; 255
    68ea:	0e 94 96 31 	call	0x632c	; 0x632c <ControlSynchronous4Dof>
			servo_control.pActionSync();
    68ee:	e0 91 e0 03 	lds	r30, 0x03E0
    68f2:	f0 91 e1 03 	lds	r31, 0x03E1
    68f6:	09 95       	icall
    68f8:	80 ed       	ldi	r24, 0xD0	; 208
    68fa:	97 e0       	ldi	r25, 0x07	; 7
    68fc:	20 e9       	ldi	r18, 0x90	; 144
    68fe:	31 e0       	ldi	r19, 0x01	; 1
    6900:	f9 01       	movw	r30, r18
    6902:	31 97       	sbiw	r30, 0x01	; 1
    6904:	f1 f7       	brne	.-4      	; 0x6902 <SlowlyWalk+0x3a4>
		{
			// wait 1/10 ms
			_delay_loop_2(((F_CPU) / 4e3) / 10);
			__ticks --;
    6906:	01 97       	sbiw	r24, 0x01	; 1
		__ticks = 1;
	else if (__tmp > 65535)
	{
		//	__ticks = requested delay in 1/10 ms
		__ticks = (uint16_t) (__ms * 10.0);
		while(__ticks)
    6908:	d9 f7       	brne	.-10     	; 0x6900 <SlowlyWalk+0x3a2>

			_delay_ms(200);

			signal_control.pSetByte(ADDR_MOVELEG, 2);
    690a:	e0 91 28 04 	lds	r30, 0x0428
    690e:	f0 91 29 04 	lds	r31, 0x0429
    6912:	80 e1       	ldi	r24, 0x10	; 16
    6914:	62 e0       	ldi	r22, 0x02	; 2
    6916:	09 95       	icall
		default:
		{
			break;
		}
	}
}
    6918:	0f 90       	pop	r0
    691a:	0f 90       	pop	r0
    691c:	0f 90       	pop	r0
    691e:	cf 91       	pop	r28
    6920:	df 91       	pop	r29
    6922:	1f 91       	pop	r17
    6924:	0f 91       	pop	r16
    6926:	08 95       	ret

00006928 <TurnLeft>:
** 修订人:
** 修订日期:
**------------------------------------------------------------------------------------------------------------------------
*************************************************************************************************************************/
void TurnLeft(void)
{
    6928:	0f 93       	push	r16
    692a:	1f 93       	push	r17
    692c:	df 93       	push	r29
    692e:	cf 93       	push	r28
    6930:	00 d0       	rcall	.+0      	; 0x6932 <TurnLeft+0xa>
    6932:	0f 92       	push	r0
    6934:	cd b7       	in	r28, 0x3d	; 61
    6936:	de b7       	in	r29, 0x3e	; 62
	const int16 r_hindleg_vector_d[4] = {140, -60, 160, 50};
	const int16 r_hindleg_vector_e[4] = {275, -30, 380, 200};
	const int16 r_hindleg_vector_f[4] = {200, 60, 270, 100};


	uint16 temp_time = 0;
    6938:	1b 82       	std	Y+3, r1	; 0x03
    693a:	1a 82       	std	Y+2, r1	; 0x02
	uint8 temp_value = 0;
    693c:	19 82       	std	Y+1, r1	; 0x01

	const uint8 turn_left_mapping[4] = {3, 2, 0, 1};

	signal_control.pGetByte(ADDR_MOVELEG, &temp_value);
    693e:	e0 91 2a 04 	lds	r30, 0x042A
    6942:	f0 91 2b 04 	lds	r31, 0x042B
    6946:	80 e1       	ldi	r24, 0x10	; 16
    6948:	be 01       	movw	r22, r28
    694a:	6f 5f       	subi	r22, 0xFF	; 255
    694c:	7f 4f       	sbci	r23, 0xFF	; 255
    694e:	09 95       	icall

	switch (turn_left_mapping[temp_value])
    6950:	e9 81       	ldd	r30, Y+1	; 0x01
    6952:	f0 e0       	ldi	r31, 0x00	; 0
    6954:	e2 52       	subi	r30, 0x22	; 34
    6956:	f5 4f       	sbci	r31, 0xF5	; 245
    6958:	e0 81       	ld	r30, Z
    695a:	e1 30       	cpi	r30, 0x01	; 1
    695c:	09 f4       	brne	.+2      	; 0x6960 <TurnLeft+0x38>
    695e:	77 c0       	rjmp	.+238    	; 0x6a4e <TurnLeft+0x126>
    6960:	e1 30       	cpi	r30, 0x01	; 1
    6962:	38 f0       	brcs	.+14     	; 0x6972 <TurnLeft+0x4a>
    6964:	e2 30       	cpi	r30, 0x02	; 2
    6966:	09 f4       	brne	.+2      	; 0x696a <TurnLeft+0x42>
    6968:	e0 c0       	rjmp	.+448    	; 0x6b2a <TurnLeft+0x202>
    696a:	e3 30       	cpi	r30, 0x03	; 3
    696c:	09 f0       	breq	.+2      	; 0x6970 <TurnLeft+0x48>
    696e:	b9 c1       	rjmp	.+882    	; 0x6ce2 <TurnLeft+0x3ba>
    6970:	4a c1       	rjmp	.+660    	; 0x6c06 <TurnLeft+0x2de>
	{
		case 0:
		{
			ControlSynchronous4Dof(&l_foreleg_vector_b[0], 11, 600, &temp_time);
    6972:	8e 01       	movw	r16, r28
    6974:	0e 5f       	subi	r16, 0xFE	; 254
    6976:	1f 4f       	sbci	r17, 0xFF	; 255
    6978:	82 e3       	ldi	r24, 0x32	; 50
    697a:	9b e0       	ldi	r25, 0x0B	; 11
    697c:	6b e0       	ldi	r22, 0x0B	; 11
    697e:	48 e5       	ldi	r20, 0x58	; 88
    6980:	52 e0       	ldi	r21, 0x02	; 2
    6982:	98 01       	movw	r18, r16
    6984:	0e 94 96 31 	call	0x632c	; 0x632c <ControlSynchronous4Dof>
			ControlSynchronous4Dof(&r_foreleg_vector_b[0], 21, 600, &temp_time);
    6988:	82 e9       	ldi	r24, 0x92	; 146
    698a:	9b e0       	ldi	r25, 0x0B	; 11
    698c:	65 e1       	ldi	r22, 0x15	; 21
    698e:	48 e5       	ldi	r20, 0x58	; 88
    6990:	52 e0       	ldi	r21, 0x02	; 2
    6992:	98 01       	movw	r18, r16
    6994:	0e 94 96 31 	call	0x632c	; 0x632c <ControlSynchronous4Dof>
			ControlSynchronous4Dof(&l_hindleg_vector_f[0], 31, 250, &temp_time);
    6998:	82 e4       	ldi	r24, 0x42	; 66
    699a:	9b e0       	ldi	r25, 0x0B	; 11
    699c:	6f e1       	ldi	r22, 0x1F	; 31
    699e:	4a ef       	ldi	r20, 0xFA	; 250
    69a0:	50 e0       	ldi	r21, 0x00	; 0
    69a2:	98 01       	movw	r18, r16
    69a4:	0e 94 96 31 	call	0x632c	; 0x632c <ControlSynchronous4Dof>
			ControlSynchronous4Dof(&r_hindleg_vector_d[0], 41, 600, &temp_time);
    69a8:	82 ef       	ldi	r24, 0xF2	; 242
    69aa:	9a e0       	ldi	r25, 0x0A	; 10
    69ac:	69 e2       	ldi	r22, 0x29	; 41
    69ae:	48 e5       	ldi	r20, 0x58	; 88
    69b0:	52 e0       	ldi	r21, 0x02	; 2
    69b2:	98 01       	movw	r18, r16
    69b4:	0e 94 96 31 	call	0x632c	; 0x632c <ControlSynchronous4Dof>
			servo_control.pActionSync();
    69b8:	e0 91 e0 03 	lds	r30, 0x03E0
    69bc:	f0 91 e1 03 	lds	r31, 0x03E1
    69c0:	09 95       	icall
			led_control.pChangeLedBit(0);
    69c2:	e0 91 59 07 	lds	r30, 0x0759
    69c6:	f0 91 5a 07 	lds	r31, 0x075A
    69ca:	80 e0       	ldi	r24, 0x00	; 0
    69cc:	09 95       	icall
    69ce:	84 ec       	ldi	r24, 0xC4	; 196
    69d0:	99 e0       	ldi	r25, 0x09	; 9
    69d2:	20 e9       	ldi	r18, 0x90	; 144
    69d4:	31 e0       	ldi	r19, 0x01	; 1
    69d6:	f9 01       	movw	r30, r18
    69d8:	31 97       	sbiw	r30, 0x01	; 1
    69da:	f1 f7       	brne	.-4      	; 0x69d8 <TurnLeft+0xb0>
		{
			// wait 1/10 ms
			_delay_loop_2(((F_CPU) / 4e3) / 10);
			__ticks --;
    69dc:	01 97       	sbiw	r24, 0x01	; 1
		__ticks = 1;
	else if (__tmp > 65535)
	{
		//	__ticks = requested delay in 1/10 ms
		__ticks = (uint16_t) (__ms * 10.0);
		while(__ticks)
    69de:	d9 f7       	brne	.-10     	; 0x69d6 <TurnLeft+0xae>

			_delay_ms(250);

			ControlSynchronous4Dof(&l_hindleg_vector_e[0], 31, 100, &temp_time);
    69e0:	8a e4       	ldi	r24, 0x4A	; 74
    69e2:	9b e0       	ldi	r25, 0x0B	; 11
    69e4:	6f e1       	ldi	r22, 0x1F	; 31
    69e6:	44 e6       	ldi	r20, 0x64	; 100
    69e8:	50 e0       	ldi	r21, 0x00	; 0
    69ea:	9e 01       	movw	r18, r28
    69ec:	2e 5f       	subi	r18, 0xFE	; 254
    69ee:	3f 4f       	sbci	r19, 0xFF	; 255
    69f0:	0e 94 96 31 	call	0x632c	; 0x632c <ControlSynchronous4Dof>
			servo_control.pActionSync();
    69f4:	e0 91 e0 03 	lds	r30, 0x03E0
    69f8:	f0 91 e1 03 	lds	r31, 0x03E1
    69fc:	09 95       	icall
    69fe:	88 ee       	ldi	r24, 0xE8	; 232
    6a00:	93 e0       	ldi	r25, 0x03	; 3
    6a02:	20 e9       	ldi	r18, 0x90	; 144
    6a04:	31 e0       	ldi	r19, 0x01	; 1
    6a06:	f9 01       	movw	r30, r18
    6a08:	31 97       	sbiw	r30, 0x01	; 1
    6a0a:	f1 f7       	brne	.-4      	; 0x6a08 <TurnLeft+0xe0>
		{
			// wait 1/10 ms
			_delay_loop_2(((F_CPU) / 4e3) / 10);
			__ticks --;
    6a0c:	01 97       	sbiw	r24, 0x01	; 1
		__ticks = 1;
	else if (__tmp > 65535)
	{
		//	__ticks = requested delay in 1/10 ms
		__ticks = (uint16_t) (__ms * 10.0);
		while(__ticks)
    6a0e:	d9 f7       	brne	.-10     	; 0x6a06 <TurnLeft+0xde>

			_delay_ms(100);

			ControlSynchronous4Dof(&l_hindleg_vector_d[0], 31, 250, &temp_time);
    6a10:	82 e5       	ldi	r24, 0x52	; 82
    6a12:	9b e0       	ldi	r25, 0x0B	; 11
    6a14:	6f e1       	ldi	r22, 0x1F	; 31
    6a16:	4a ef       	ldi	r20, 0xFA	; 250
    6a18:	50 e0       	ldi	r21, 0x00	; 0
    6a1a:	9e 01       	movw	r18, r28
    6a1c:	2e 5f       	subi	r18, 0xFE	; 254
    6a1e:	3f 4f       	sbci	r19, 0xFF	; 255
    6a20:	0e 94 96 31 	call	0x632c	; 0x632c <ControlSynchronous4Dof>
			servo_control.pActionSync();
    6a24:	e0 91 e0 03 	lds	r30, 0x03E0
    6a28:	f0 91 e1 03 	lds	r31, 0x03E1
    6a2c:	09 95       	icall
    6a2e:	84 ec       	ldi	r24, 0xC4	; 196
    6a30:	99 e0       	ldi	r25, 0x09	; 9
    6a32:	20 e9       	ldi	r18, 0x90	; 144
    6a34:	31 e0       	ldi	r19, 0x01	; 1
    6a36:	f9 01       	movw	r30, r18
    6a38:	31 97       	sbiw	r30, 0x01	; 1
    6a3a:	f1 f7       	brne	.-4      	; 0x6a38 <TurnLeft+0x110>
		{
			// wait 1/10 ms
			_delay_loop_2(((F_CPU) / 4e3) / 10);
			__ticks --;
    6a3c:	01 97       	sbiw	r24, 0x01	; 1
		__ticks = 1;
	else if (__tmp > 65535)
	{
		//	__ticks = requested delay in 1/10 ms
		__ticks = (uint16_t) (__ms * 10.0);
		while(__ticks)
    6a3e:	d9 f7       	brne	.-10     	; 0x6a36 <TurnLeft+0x10e>

			_delay_ms(250);

			signal_control.pSetByte(ADDR_MOVELEG, 3);
    6a40:	e0 91 28 04 	lds	r30, 0x0428
    6a44:	f0 91 29 04 	lds	r31, 0x0429
    6a48:	80 e1       	ldi	r24, 0x10	; 16
    6a4a:	63 e0       	ldi	r22, 0x03	; 3
    6a4c:	49 c1       	rjmp	.+658    	; 0x6ce0 <TurnLeft+0x3b8>
			break;
		}

		case 1:
		{
			ControlSynchronous4Dof(&l_foreleg_vector_c[0], 11, 600, &temp_time);
    6a4e:	8e 01       	movw	r16, r28
    6a50:	0e 5f       	subi	r16, 0xFE	; 254
    6a52:	1f 4f       	sbci	r17, 0xFF	; 255
    6a54:	8a e2       	ldi	r24, 0x2A	; 42
    6a56:	9b e0       	ldi	r25, 0x0B	; 11
    6a58:	6b e0       	ldi	r22, 0x0B	; 11
    6a5a:	48 e5       	ldi	r20, 0x58	; 88
    6a5c:	52 e0       	ldi	r21, 0x02	; 2
    6a5e:	98 01       	movw	r18, r16
    6a60:	0e 94 96 31 	call	0x632c	; 0x632c <ControlSynchronous4Dof>
			ControlSynchronous4Dof(&r_foreleg_vector_a[0], 21, 600, &temp_time);
    6a64:	8a e9       	ldi	r24, 0x9A	; 154
    6a66:	9b e0       	ldi	r25, 0x0B	; 11
    6a68:	65 e1       	ldi	r22, 0x15	; 21
    6a6a:	48 e5       	ldi	r20, 0x58	; 88
    6a6c:	52 e0       	ldi	r21, 0x02	; 2
    6a6e:	98 01       	movw	r18, r16
    6a70:	0e 94 96 31 	call	0x632c	; 0x632c <ControlSynchronous4Dof>
			ControlSynchronous4Dof(&l_hindleg_vector_c[0], 31, 600, &temp_time);
    6a74:	8a e5       	ldi	r24, 0x5A	; 90
    6a76:	9b e0       	ldi	r25, 0x0B	; 11
    6a78:	6f e1       	ldi	r22, 0x1F	; 31
    6a7a:	48 e5       	ldi	r20, 0x58	; 88
    6a7c:	52 e0       	ldi	r21, 0x02	; 2
    6a7e:	98 01       	movw	r18, r16
    6a80:	0e 94 96 31 	call	0x632c	; 0x632c <ControlSynchronous4Dof>
			ControlSynchronous4Dof(&r_hindleg_vector_e[0], 41, 250, &temp_time);
    6a84:	8a ee       	ldi	r24, 0xEA	; 234
    6a86:	9a e0       	ldi	r25, 0x0A	; 10
    6a88:	69 e2       	ldi	r22, 0x29	; 41
    6a8a:	4a ef       	ldi	r20, 0xFA	; 250
    6a8c:	50 e0       	ldi	r21, 0x00	; 0
    6a8e:	98 01       	movw	r18, r16
    6a90:	0e 94 96 31 	call	0x632c	; 0x632c <ControlSynchronous4Dof>
			servo_control.pActionSync();
    6a94:	e0 91 e0 03 	lds	r30, 0x03E0
    6a98:	f0 91 e1 03 	lds	r31, 0x03E1
    6a9c:	09 95       	icall
			led_control.pChangeLedBit(0);
    6a9e:	e0 91 59 07 	lds	r30, 0x0759
    6aa2:	f0 91 5a 07 	lds	r31, 0x075A
    6aa6:	80 e0       	ldi	r24, 0x00	; 0
    6aa8:	09 95       	icall
    6aaa:	84 ec       	ldi	r24, 0xC4	; 196
    6aac:	99 e0       	ldi	r25, 0x09	; 9
    6aae:	20 e9       	ldi	r18, 0x90	; 144
    6ab0:	31 e0       	ldi	r19, 0x01	; 1
    6ab2:	f9 01       	movw	r30, r18
    6ab4:	31 97       	sbiw	r30, 0x01	; 1
    6ab6:	f1 f7       	brne	.-4      	; 0x6ab4 <TurnLeft+0x18c>
		{
			// wait 1/10 ms
			_delay_loop_2(((F_CPU) / 4e3) / 10);
			__ticks --;
    6ab8:	01 97       	sbiw	r24, 0x01	; 1
		__ticks = 1;
	else if (__tmp > 65535)
	{
		//	__ticks = requested delay in 1/10 ms
		__ticks = (uint16_t) (__ms * 10.0);
		while(__ticks)
    6aba:	d9 f7       	brne	.-10     	; 0x6ab2 <TurnLeft+0x18a>

			_delay_ms(250);

			ControlSynchronous4Dof(&r_hindleg_vector_f[0], 41, 100, &temp_time);
    6abc:	82 ee       	ldi	r24, 0xE2	; 226
    6abe:	9a e0       	ldi	r25, 0x0A	; 10
    6ac0:	69 e2       	ldi	r22, 0x29	; 41
    6ac2:	44 e6       	ldi	r20, 0x64	; 100
    6ac4:	50 e0       	ldi	r21, 0x00	; 0
    6ac6:	9e 01       	movw	r18, r28
    6ac8:	2e 5f       	subi	r18, 0xFE	; 254
    6aca:	3f 4f       	sbci	r19, 0xFF	; 255
    6acc:	0e 94 96 31 	call	0x632c	; 0x632c <ControlSynchronous4Dof>
			servo_control.pActionSync();
    6ad0:	e0 91 e0 03 	lds	r30, 0x03E0
    6ad4:	f0 91 e1 03 	lds	r31, 0x03E1
    6ad8:	09 95       	icall
    6ada:	88 ee       	ldi	r24, 0xE8	; 232
    6adc:	93 e0       	ldi	r25, 0x03	; 3
    6ade:	20 e9       	ldi	r18, 0x90	; 144
    6ae0:	31 e0       	ldi	r19, 0x01	; 1
    6ae2:	f9 01       	movw	r30, r18
    6ae4:	31 97       	sbiw	r30, 0x01	; 1
    6ae6:	f1 f7       	brne	.-4      	; 0x6ae4 <TurnLeft+0x1bc>
		{
			// wait 1/10 ms
			_delay_loop_2(((F_CPU) / 4e3) / 10);
			__ticks --;
    6ae8:	01 97       	sbiw	r24, 0x01	; 1
		__ticks = 1;
	else if (__tmp > 65535)
	{
		//	__ticks = requested delay in 1/10 ms
		__ticks = (uint16_t) (__ms * 10.0);
		while(__ticks)
    6aea:	d9 f7       	brne	.-10     	; 0x6ae2 <TurnLeft+0x1ba>

			_delay_ms(100);

			ControlSynchronous4Dof(&r_hindleg_vector_a[0], 41, 250, &temp_time);
    6aec:	8a e0       	ldi	r24, 0x0A	; 10
    6aee:	9b e0       	ldi	r25, 0x0B	; 11
    6af0:	69 e2       	ldi	r22, 0x29	; 41
    6af2:	4a ef       	ldi	r20, 0xFA	; 250
    6af4:	50 e0       	ldi	r21, 0x00	; 0
    6af6:	9e 01       	movw	r18, r28
    6af8:	2e 5f       	subi	r18, 0xFE	; 254
    6afa:	3f 4f       	sbci	r19, 0xFF	; 255
    6afc:	0e 94 96 31 	call	0x632c	; 0x632c <ControlSynchronous4Dof>
			servo_control.pActionSync();
    6b00:	e0 91 e0 03 	lds	r30, 0x03E0
    6b04:	f0 91 e1 03 	lds	r31, 0x03E1
    6b08:	09 95       	icall
    6b0a:	84 ec       	ldi	r24, 0xC4	; 196
    6b0c:	99 e0       	ldi	r25, 0x09	; 9
    6b0e:	20 e9       	ldi	r18, 0x90	; 144
    6b10:	31 e0       	ldi	r19, 0x01	; 1
    6b12:	f9 01       	movw	r30, r18
    6b14:	31 97       	sbiw	r30, 0x01	; 1
    6b16:	f1 f7       	brne	.-4      	; 0x6b14 <TurnLeft+0x1ec>
		{
			// wait 1/10 ms
			_delay_loop_2(((F_CPU) / 4e3) / 10);
			__ticks --;
    6b18:	01 97       	sbiw	r24, 0x01	; 1
		__ticks = 1;
	else if (__tmp > 65535)
	{
		//	__ticks = requested delay in 1/10 ms
		__ticks = (uint16_t) (__ms * 10.0);
		while(__ticks)
    6b1a:	d9 f7       	brne	.-10     	; 0x6b12 <TurnLeft+0x1ea>

			_delay_ms(250);

			signal_control.pSetByte(ADDR_MOVELEG, 1);
    6b1c:	e0 91 28 04 	lds	r30, 0x0428
    6b20:	f0 91 29 04 	lds	r31, 0x0429
    6b24:	80 e1       	ldi	r24, 0x10	; 16
    6b26:	61 e0       	ldi	r22, 0x01	; 1
    6b28:	db c0       	rjmp	.+438    	; 0x6ce0 <TurnLeft+0x3b8>
			break;
		}

		case 2:
		{
			ControlSynchronous4Dof(&l_foreleg_vector_d[0], 11, 600, &temp_time);
    6b2a:	8e 01       	movw	r16, r28
    6b2c:	0e 5f       	subi	r16, 0xFE	; 254
    6b2e:	1f 4f       	sbci	r17, 0xFF	; 255
    6b30:	82 e2       	ldi	r24, 0x22	; 34
    6b32:	9b e0       	ldi	r25, 0x0B	; 11
    6b34:	6b e0       	ldi	r22, 0x0B	; 11
    6b36:	48 e5       	ldi	r20, 0x58	; 88
    6b38:	52 e0       	ldi	r21, 0x02	; 2
    6b3a:	98 01       	movw	r18, r16
    6b3c:	0e 94 96 31 	call	0x632c	; 0x632c <ControlSynchronous4Dof>
			ControlSynchronous4Dof(&r_foreleg_vector_f[0], 21, 250, &temp_time);
    6b40:	82 e7       	ldi	r24, 0x72	; 114
    6b42:	9b e0       	ldi	r25, 0x0B	; 11
    6b44:	65 e1       	ldi	r22, 0x15	; 21
    6b46:	4a ef       	ldi	r20, 0xFA	; 250
    6b48:	50 e0       	ldi	r21, 0x00	; 0
    6b4a:	98 01       	movw	r18, r16
    6b4c:	0e 94 96 31 	call	0x632c	; 0x632c <ControlSynchronous4Dof>
			ControlSynchronous4Dof(&l_hindleg_vector_b[0], 31, 600, &temp_time);
    6b50:	82 e6       	ldi	r24, 0x62	; 98
    6b52:	9b e0       	ldi	r25, 0x0B	; 11
    6b54:	6f e1       	ldi	r22, 0x1F	; 31
    6b56:	48 e5       	ldi	r20, 0x58	; 88
    6b58:	52 e0       	ldi	r21, 0x02	; 2
    6b5a:	98 01       	movw	r18, r16
    6b5c:	0e 94 96 31 	call	0x632c	; 0x632c <ControlSynchronous4Dof>
			ControlSynchronous4Dof(&r_hindleg_vector_b[0], 41, 600, &temp_time);
    6b60:	82 e0       	ldi	r24, 0x02	; 2
    6b62:	9b e0       	ldi	r25, 0x0B	; 11
    6b64:	69 e2       	ldi	r22, 0x29	; 41
    6b66:	48 e5       	ldi	r20, 0x58	; 88
    6b68:	52 e0       	ldi	r21, 0x02	; 2
    6b6a:	98 01       	movw	r18, r16
    6b6c:	0e 94 96 31 	call	0x632c	; 0x632c <ControlSynchronous4Dof>
			servo_control.pActionSync();
    6b70:	e0 91 e0 03 	lds	r30, 0x03E0
    6b74:	f0 91 e1 03 	lds	r31, 0x03E1
    6b78:	09 95       	icall
			led_control.pChangeLedBit(0);
    6b7a:	e0 91 59 07 	lds	r30, 0x0759
    6b7e:	f0 91 5a 07 	lds	r31, 0x075A
    6b82:	80 e0       	ldi	r24, 0x00	; 0
    6b84:	09 95       	icall
    6b86:	84 ec       	ldi	r24, 0xC4	; 196
    6b88:	99 e0       	ldi	r25, 0x09	; 9
    6b8a:	20 e9       	ldi	r18, 0x90	; 144
    6b8c:	31 e0       	ldi	r19, 0x01	; 1
    6b8e:	f9 01       	movw	r30, r18
    6b90:	31 97       	sbiw	r30, 0x01	; 1
    6b92:	f1 f7       	brne	.-4      	; 0x6b90 <TurnLeft+0x268>
		{
			// wait 1/10 ms
			_delay_loop_2(((F_CPU) / 4e3) / 10);
			__ticks --;
    6b94:	01 97       	sbiw	r24, 0x01	; 1
		__ticks = 1;
	else if (__tmp > 65535)
	{
		//	__ticks = requested delay in 1/10 ms
		__ticks = (uint16_t) (__ms * 10.0);
		while(__ticks)
    6b96:	d9 f7       	brne	.-10     	; 0x6b8e <TurnLeft+0x266>

			_delay_ms(250);

			ControlSynchronous4Dof(&r_foreleg_vector_e[0], 21, 100, &temp_time);
    6b98:	8a e7       	ldi	r24, 0x7A	; 122
    6b9a:	9b e0       	ldi	r25, 0x0B	; 11
    6b9c:	65 e1       	ldi	r22, 0x15	; 21
    6b9e:	44 e6       	ldi	r20, 0x64	; 100
    6ba0:	50 e0       	ldi	r21, 0x00	; 0
    6ba2:	9e 01       	movw	r18, r28
    6ba4:	2e 5f       	subi	r18, 0xFE	; 254
    6ba6:	3f 4f       	sbci	r19, 0xFF	; 255
    6ba8:	0e 94 96 31 	call	0x632c	; 0x632c <ControlSynchronous4Dof>
			servo_control.pActionSync();
    6bac:	e0 91 e0 03 	lds	r30, 0x03E0
    6bb0:	f0 91 e1 03 	lds	r31, 0x03E1
    6bb4:	09 95       	icall
    6bb6:	88 ee       	ldi	r24, 0xE8	; 232
    6bb8:	93 e0       	ldi	r25, 0x03	; 3
    6bba:	20 e9       	ldi	r18, 0x90	; 144
    6bbc:	31 e0       	ldi	r19, 0x01	; 1
    6bbe:	f9 01       	movw	r30, r18
    6bc0:	31 97       	sbiw	r30, 0x01	; 1
    6bc2:	f1 f7       	brne	.-4      	; 0x6bc0 <TurnLeft+0x298>
		{
			// wait 1/10 ms
			_delay_loop_2(((F_CPU) / 4e3) / 10);
			__ticks --;
    6bc4:	01 97       	sbiw	r24, 0x01	; 1
		__ticks = 1;
	else if (__tmp > 65535)
	{
		//	__ticks = requested delay in 1/10 ms
		__ticks = (uint16_t) (__ms * 10.0);
		while(__ticks)
    6bc6:	d9 f7       	brne	.-10     	; 0x6bbe <TurnLeft+0x296>

			_delay_ms(100);

			ControlSynchronous4Dof(&r_foreleg_vector_d[0], 21, 250, &temp_time);
    6bc8:	82 e8       	ldi	r24, 0x82	; 130
    6bca:	9b e0       	ldi	r25, 0x0B	; 11
    6bcc:	65 e1       	ldi	r22, 0x15	; 21
    6bce:	4a ef       	ldi	r20, 0xFA	; 250
    6bd0:	50 e0       	ldi	r21, 0x00	; 0
    6bd2:	9e 01       	movw	r18, r28
    6bd4:	2e 5f       	subi	r18, 0xFE	; 254
    6bd6:	3f 4f       	sbci	r19, 0xFF	; 255
    6bd8:	0e 94 96 31 	call	0x632c	; 0x632c <ControlSynchronous4Dof>
			servo_control.pActionSync();
    6bdc:	e0 91 e0 03 	lds	r30, 0x03E0
    6be0:	f0 91 e1 03 	lds	r31, 0x03E1
    6be4:	09 95       	icall
    6be6:	84 ec       	ldi	r24, 0xC4	; 196
    6be8:	99 e0       	ldi	r25, 0x09	; 9
    6bea:	20 e9       	ldi	r18, 0x90	; 144
    6bec:	31 e0       	ldi	r19, 0x01	; 1
    6bee:	f9 01       	movw	r30, r18
    6bf0:	31 97       	sbiw	r30, 0x01	; 1
    6bf2:	f1 f7       	brne	.-4      	; 0x6bf0 <TurnLeft+0x2c8>
		{
			// wait 1/10 ms
			_delay_loop_2(((F_CPU) / 4e3) / 10);
			__ticks --;
    6bf4:	01 97       	sbiw	r24, 0x01	; 1
		__ticks = 1;
	else if (__tmp > 65535)
	{
		//	__ticks = requested delay in 1/10 ms
		__ticks = (uint16_t) (__ms * 10.0);
		while(__ticks)
    6bf6:	d9 f7       	brne	.-10     	; 0x6bee <TurnLeft+0x2c6>

			_delay_ms(250);

			signal_control.pSetByte(ADDR_MOVELEG, 0);
    6bf8:	e0 91 28 04 	lds	r30, 0x0428
    6bfc:	f0 91 29 04 	lds	r31, 0x0429
    6c00:	80 e1       	ldi	r24, 0x10	; 16
    6c02:	60 e0       	ldi	r22, 0x00	; 0
    6c04:	6d c0       	rjmp	.+218    	; 0x6ce0 <TurnLeft+0x3b8>
			break;
		}

		case 3:
		{
			ControlSynchronous4Dof(&l_foreleg_vector_e[0], 11, 250, &temp_time);
    6c06:	8e 01       	movw	r16, r28
    6c08:	0e 5f       	subi	r16, 0xFE	; 254
    6c0a:	1f 4f       	sbci	r17, 0xFF	; 255
    6c0c:	8a e1       	ldi	r24, 0x1A	; 26
    6c0e:	9b e0       	ldi	r25, 0x0B	; 11
    6c10:	6b e0       	ldi	r22, 0x0B	; 11
    6c12:	4a ef       	ldi	r20, 0xFA	; 250
    6c14:	50 e0       	ldi	r21, 0x00	; 0
    6c16:	98 01       	movw	r18, r16
    6c18:	0e 94 96 31 	call	0x632c	; 0x632c <ControlSynchronous4Dof>
			ControlSynchronous4Dof(&r_foreleg_vector_c[0], 21, 600, &temp_time);
    6c1c:	8a e8       	ldi	r24, 0x8A	; 138
    6c1e:	9b e0       	ldi	r25, 0x0B	; 11
    6c20:	65 e1       	ldi	r22, 0x15	; 21
    6c22:	48 e5       	ldi	r20, 0x58	; 88
    6c24:	52 e0       	ldi	r21, 0x02	; 2
    6c26:	98 01       	movw	r18, r16
    6c28:	0e 94 96 31 	call	0x632c	; 0x632c <ControlSynchronous4Dof>
			ControlSynchronous4Dof(&l_hindleg_vector_a[0], 31, 600, &temp_time);
    6c2c:	8a e6       	ldi	r24, 0x6A	; 106
    6c2e:	9b e0       	ldi	r25, 0x0B	; 11
    6c30:	6f e1       	ldi	r22, 0x1F	; 31
    6c32:	48 e5       	ldi	r20, 0x58	; 88
    6c34:	52 e0       	ldi	r21, 0x02	; 2
    6c36:	98 01       	movw	r18, r16
    6c38:	0e 94 96 31 	call	0x632c	; 0x632c <ControlSynchronous4Dof>
			ControlSynchronous4Dof(&r_hindleg_vector_c[0], 41, 600, &temp_time);
    6c3c:	8a ef       	ldi	r24, 0xFA	; 250
    6c3e:	9a e0       	ldi	r25, 0x0A	; 10
    6c40:	69 e2       	ldi	r22, 0x29	; 41
    6c42:	48 e5       	ldi	r20, 0x58	; 88
    6c44:	52 e0       	ldi	r21, 0x02	; 2
    6c46:	98 01       	movw	r18, r16
    6c48:	0e 94 96 31 	call	0x632c	; 0x632c <ControlSynchronous4Dof>
			servo_control.pActionSync();
    6c4c:	e0 91 e0 03 	lds	r30, 0x03E0
    6c50:	f0 91 e1 03 	lds	r31, 0x03E1
    6c54:	09 95       	icall
			led_control.pChangeLedBit(0);
    6c56:	e0 91 59 07 	lds	r30, 0x0759
    6c5a:	f0 91 5a 07 	lds	r31, 0x075A
    6c5e:	80 e0       	ldi	r24, 0x00	; 0
    6c60:	09 95       	icall
    6c62:	84 ec       	ldi	r24, 0xC4	; 196
    6c64:	99 e0       	ldi	r25, 0x09	; 9
    6c66:	20 e9       	ldi	r18, 0x90	; 144
    6c68:	31 e0       	ldi	r19, 0x01	; 1
    6c6a:	f9 01       	movw	r30, r18
    6c6c:	31 97       	sbiw	r30, 0x01	; 1
    6c6e:	f1 f7       	brne	.-4      	; 0x6c6c <TurnLeft+0x344>
		{
			// wait 1/10 ms
			_delay_loop_2(((F_CPU) / 4e3) / 10);
			__ticks --;
    6c70:	01 97       	sbiw	r24, 0x01	; 1
		__ticks = 1;
	else if (__tmp > 65535)
	{
		//	__ticks = requested delay in 1/10 ms
		__ticks = (uint16_t) (__ms * 10.0);
		while(__ticks)
    6c72:	d9 f7       	brne	.-10     	; 0x6c6a <TurnLeft+0x342>

			_delay_ms(250);

			ControlSynchronous4Dof(&l_foreleg_vector_f[0], 11, 100, &temp_time);
    6c74:	82 e1       	ldi	r24, 0x12	; 18
    6c76:	9b e0       	ldi	r25, 0x0B	; 11
    6c78:	6b e0       	ldi	r22, 0x0B	; 11
    6c7a:	44 e6       	ldi	r20, 0x64	; 100
    6c7c:	50 e0       	ldi	r21, 0x00	; 0
    6c7e:	9e 01       	movw	r18, r28
    6c80:	2e 5f       	subi	r18, 0xFE	; 254
    6c82:	3f 4f       	sbci	r19, 0xFF	; 255
    6c84:	0e 94 96 31 	call	0x632c	; 0x632c <ControlSynchronous4Dof>
			servo_control.pActionSync();
    6c88:	e0 91 e0 03 	lds	r30, 0x03E0
    6c8c:	f0 91 e1 03 	lds	r31, 0x03E1
    6c90:	09 95       	icall
    6c92:	88 ee       	ldi	r24, 0xE8	; 232
    6c94:	93 e0       	ldi	r25, 0x03	; 3
    6c96:	20 e9       	ldi	r18, 0x90	; 144
    6c98:	31 e0       	ldi	r19, 0x01	; 1
    6c9a:	f9 01       	movw	r30, r18
    6c9c:	31 97       	sbiw	r30, 0x01	; 1
    6c9e:	f1 f7       	brne	.-4      	; 0x6c9c <TurnLeft+0x374>
		{
			// wait 1/10 ms
			_delay_loop_2(((F_CPU) / 4e3) / 10);
			__ticks --;
    6ca0:	01 97       	sbiw	r24, 0x01	; 1
		__ticks = 1;
	else if (__tmp > 65535)
	{
		//	__ticks = requested delay in 1/10 ms
		__ticks = (uint16_t) (__ms * 10.0);
		while(__ticks)
    6ca2:	d9 f7       	brne	.-10     	; 0x6c9a <TurnLeft+0x372>

			_delay_ms(100);

			ControlSynchronous4Dof(&l_foreleg_vector_a[0], 11, 250, &temp_time);
    6ca4:	8a e3       	ldi	r24, 0x3A	; 58
    6ca6:	9b e0       	ldi	r25, 0x0B	; 11
    6ca8:	6b e0       	ldi	r22, 0x0B	; 11
    6caa:	4a ef       	ldi	r20, 0xFA	; 250
    6cac:	50 e0       	ldi	r21, 0x00	; 0
    6cae:	9e 01       	movw	r18, r28
    6cb0:	2e 5f       	subi	r18, 0xFE	; 254
    6cb2:	3f 4f       	sbci	r19, 0xFF	; 255
    6cb4:	0e 94 96 31 	call	0x632c	; 0x632c <ControlSynchronous4Dof>
			servo_control.pActionSync();
    6cb8:	e0 91 e0 03 	lds	r30, 0x03E0
    6cbc:	f0 91 e1 03 	lds	r31, 0x03E1
    6cc0:	09 95       	icall
    6cc2:	84 ec       	ldi	r24, 0xC4	; 196
    6cc4:	99 e0       	ldi	r25, 0x09	; 9
    6cc6:	20 e9       	ldi	r18, 0x90	; 144
    6cc8:	31 e0       	ldi	r19, 0x01	; 1
    6cca:	f9 01       	movw	r30, r18
    6ccc:	31 97       	sbiw	r30, 0x01	; 1
    6cce:	f1 f7       	brne	.-4      	; 0x6ccc <TurnLeft+0x3a4>
		{
			// wait 1/10 ms
			_delay_loop_2(((F_CPU) / 4e3) / 10);
			__ticks --;
    6cd0:	01 97       	sbiw	r24, 0x01	; 1
		__ticks = 1;
	else if (__tmp > 65535)
	{
		//	__ticks = requested delay in 1/10 ms
		__ticks = (uint16_t) (__ms * 10.0);
		while(__ticks)
    6cd2:	d9 f7       	brne	.-10     	; 0x6cca <TurnLeft+0x3a2>

			_delay_ms(250);

			signal_control.pSetByte(ADDR_MOVELEG, 2);
    6cd4:	e0 91 28 04 	lds	r30, 0x0428
    6cd8:	f0 91 29 04 	lds	r31, 0x0429
    6cdc:	80 e1       	ldi	r24, 0x10	; 16
    6cde:	62 e0       	ldi	r22, 0x02	; 2
    6ce0:	09 95       	icall
		default:
		{
			break;
		}
	}
}
    6ce2:	0f 90       	pop	r0
    6ce4:	0f 90       	pop	r0
    6ce6:	0f 90       	pop	r0
    6ce8:	cf 91       	pop	r28
    6cea:	df 91       	pop	r29
    6cec:	1f 91       	pop	r17
    6cee:	0f 91       	pop	r16
    6cf0:	08 95       	ret

00006cf2 <TurnRight>:
** 修订人:
** 修订日期:
**------------------------------------------------------------------------------------------------------------------------
*************************************************************************************************************************/
void TurnRight(void)
{
    6cf2:	0f 93       	push	r16
    6cf4:	1f 93       	push	r17
    6cf6:	df 93       	push	r29
    6cf8:	cf 93       	push	r28
    6cfa:	00 d0       	rcall	.+0      	; 0x6cfc <TurnRight+0xa>
    6cfc:	0f 92       	push	r0
    6cfe:	cd b7       	in	r28, 0x3d	; 61
    6d00:	de b7       	in	r29, 0x3e	; 62
	const int16 l_hindleg_vector_d[4] = {145, -90, 160, 40};
	const int16 l_hindleg_vector_e[4] = {275, -30, 360, 200};
	const int16 l_hindleg_vector_f[4] = {200, 60, 340, 130};


	uint16 temp_time = 0;
    6d02:	1b 82       	std	Y+3, r1	; 0x03
    6d04:	1a 82       	std	Y+2, r1	; 0x02
	uint8 temp_value = 0;
    6d06:	19 82       	std	Y+1, r1	; 0x01

	const uint8 turn_right_mapping[4] = {0, 1, 3, 2};

	signal_control.pGetByte(ADDR_MOVELEG, &temp_value);
    6d08:	e0 91 2a 04 	lds	r30, 0x042A
    6d0c:	f0 91 2b 04 	lds	r31, 0x042B
    6d10:	80 e1       	ldi	r24, 0x10	; 16
    6d12:	be 01       	movw	r22, r28
    6d14:	6f 5f       	subi	r22, 0xFF	; 255
    6d16:	7f 4f       	sbci	r23, 0xFF	; 255
    6d18:	09 95       	icall

	switch (turn_right_mapping[temp_value])
    6d1a:	e9 81       	ldd	r30, Y+1	; 0x01
    6d1c:	f0 e0       	ldi	r31, 0x00	; 0
    6d1e:	e6 5e       	subi	r30, 0xE6	; 230
    6d20:	f5 4f       	sbci	r31, 0xF5	; 245
    6d22:	e0 81       	ld	r30, Z
    6d24:	e1 30       	cpi	r30, 0x01	; 1
    6d26:	09 f4       	brne	.+2      	; 0x6d2a <TurnRight+0x38>
    6d28:	77 c0       	rjmp	.+238    	; 0x6e18 <TurnRight+0x126>
    6d2a:	e1 30       	cpi	r30, 0x01	; 1
    6d2c:	38 f0       	brcs	.+14     	; 0x6d3c <TurnRight+0x4a>
    6d2e:	e2 30       	cpi	r30, 0x02	; 2
    6d30:	09 f4       	brne	.+2      	; 0x6d34 <TurnRight+0x42>
    6d32:	e0 c0       	rjmp	.+448    	; 0x6ef4 <TurnRight+0x202>
    6d34:	e3 30       	cpi	r30, 0x03	; 3
    6d36:	09 f0       	breq	.+2      	; 0x6d3a <TurnRight+0x48>
    6d38:	b9 c1       	rjmp	.+882    	; 0x70ac <TurnRight+0x3ba>
    6d3a:	4a c1       	rjmp	.+660    	; 0x6fd0 <TurnRight+0x2de>
	{
		case 0:
		{
			ControlSynchronous4Dof(&l_foreleg_vector_f[0], 11, 250, &temp_time);
    6d3c:	8e 01       	movw	r16, r28
    6d3e:	0e 5f       	subi	r16, 0xFE	; 254
    6d40:	1f 4f       	sbci	r17, 0xFF	; 255
    6d42:	8e ea       	ldi	r24, 0xAE	; 174
    6d44:	9a e0       	ldi	r25, 0x0A	; 10
    6d46:	6b e0       	ldi	r22, 0x0B	; 11
    6d48:	4a ef       	ldi	r20, 0xFA	; 250
    6d4a:	50 e0       	ldi	r21, 0x00	; 0
    6d4c:	98 01       	movw	r18, r16
    6d4e:	0e 94 96 31 	call	0x632c	; 0x632c <ControlSynchronous4Dof>
			ControlSynchronous4Dof(&r_foreleg_vector_d[0], 21, 600, &temp_time);
    6d52:	8e e5       	ldi	r24, 0x5E	; 94
    6d54:	9a e0       	ldi	r25, 0x0A	; 10
    6d56:	65 e1       	ldi	r22, 0x15	; 21
    6d58:	48 e5       	ldi	r20, 0x58	; 88
    6d5a:	52 e0       	ldi	r21, 0x02	; 2
    6d5c:	98 01       	movw	r18, r16
    6d5e:	0e 94 96 31 	call	0x632c	; 0x632c <ControlSynchronous4Dof>
			ControlSynchronous4Dof(&l_hindleg_vector_b[0], 31, 600, &temp_time);
    6d62:	8e e3       	ldi	r24, 0x3E	; 62
    6d64:	9a e0       	ldi	r25, 0x0A	; 10
    6d66:	6f e1       	ldi	r22, 0x1F	; 31
    6d68:	48 e5       	ldi	r20, 0x58	; 88
    6d6a:	52 e0       	ldi	r21, 0x02	; 2
    6d6c:	98 01       	movw	r18, r16
    6d6e:	0e 94 96 31 	call	0x632c	; 0x632c <ControlSynchronous4Dof>
			ControlSynchronous4Dof(&r_hindleg_vector_b[0], 41, 600, &temp_time);
    6d72:	8e e9       	ldi	r24, 0x9E	; 158
    6d74:	9a e0       	ldi	r25, 0x0A	; 10
    6d76:	69 e2       	ldi	r22, 0x29	; 41
    6d78:	48 e5       	ldi	r20, 0x58	; 88
    6d7a:	52 e0       	ldi	r21, 0x02	; 2
    6d7c:	98 01       	movw	r18, r16
    6d7e:	0e 94 96 31 	call	0x632c	; 0x632c <ControlSynchronous4Dof>
			servo_control.pActionSync();
    6d82:	e0 91 e0 03 	lds	r30, 0x03E0
    6d86:	f0 91 e1 03 	lds	r31, 0x03E1
    6d8a:	09 95       	icall
			led_control.pChangeLedBit(0);
    6d8c:	e0 91 59 07 	lds	r30, 0x0759
    6d90:	f0 91 5a 07 	lds	r31, 0x075A
    6d94:	80 e0       	ldi	r24, 0x00	; 0
    6d96:	09 95       	icall
    6d98:	84 ec       	ldi	r24, 0xC4	; 196
    6d9a:	99 e0       	ldi	r25, 0x09	; 9
    6d9c:	20 e9       	ldi	r18, 0x90	; 144
    6d9e:	31 e0       	ldi	r19, 0x01	; 1
    6da0:	f9 01       	movw	r30, r18
    6da2:	31 97       	sbiw	r30, 0x01	; 1
    6da4:	f1 f7       	brne	.-4      	; 0x6da2 <TurnRight+0xb0>
		{
			// wait 1/10 ms
			_delay_loop_2(((F_CPU) / 4e3) / 10);
			__ticks --;
    6da6:	01 97       	sbiw	r24, 0x01	; 1
		__ticks = 1;
	else if (__tmp > 65535)
	{
		//	__ticks = requested delay in 1/10 ms
		__ticks = (uint16_t) (__ms * 10.0);
		while(__ticks)
    6da8:	d9 f7       	brne	.-10     	; 0x6da0 <TurnRight+0xae>

			_delay_ms(250);

			ControlSynchronous4Dof(&l_foreleg_vector_e[0], 11, 100, &temp_time);
    6daa:	86 eb       	ldi	r24, 0xB6	; 182
    6dac:	9a e0       	ldi	r25, 0x0A	; 10
    6dae:	6b e0       	ldi	r22, 0x0B	; 11
    6db0:	44 e6       	ldi	r20, 0x64	; 100
    6db2:	50 e0       	ldi	r21, 0x00	; 0
    6db4:	9e 01       	movw	r18, r28
    6db6:	2e 5f       	subi	r18, 0xFE	; 254
    6db8:	3f 4f       	sbci	r19, 0xFF	; 255
    6dba:	0e 94 96 31 	call	0x632c	; 0x632c <ControlSynchronous4Dof>
			servo_control.pActionSync();
    6dbe:	e0 91 e0 03 	lds	r30, 0x03E0
    6dc2:	f0 91 e1 03 	lds	r31, 0x03E1
    6dc6:	09 95       	icall
    6dc8:	88 ee       	ldi	r24, 0xE8	; 232
    6dca:	93 e0       	ldi	r25, 0x03	; 3
    6dcc:	20 e9       	ldi	r18, 0x90	; 144
    6dce:	31 e0       	ldi	r19, 0x01	; 1
    6dd0:	f9 01       	movw	r30, r18
    6dd2:	31 97       	sbiw	r30, 0x01	; 1
    6dd4:	f1 f7       	brne	.-4      	; 0x6dd2 <TurnRight+0xe0>
		{
			// wait 1/10 ms
			_delay_loop_2(((F_CPU) / 4e3) / 10);
			__ticks --;
    6dd6:	01 97       	sbiw	r24, 0x01	; 1
		__ticks = 1;
	else if (__tmp > 65535)
	{
		//	__ticks = requested delay in 1/10 ms
		__ticks = (uint16_t) (__ms * 10.0);
		while(__ticks)
    6dd8:	d9 f7       	brne	.-10     	; 0x6dd0 <TurnRight+0xde>

			_delay_ms(100);

			ControlSynchronous4Dof(&l_foreleg_vector_d[0], 11, 250, &temp_time);
    6dda:	8e eb       	ldi	r24, 0xBE	; 190
    6ddc:	9a e0       	ldi	r25, 0x0A	; 10
    6dde:	6b e0       	ldi	r22, 0x0B	; 11
    6de0:	4a ef       	ldi	r20, 0xFA	; 250
    6de2:	50 e0       	ldi	r21, 0x00	; 0
    6de4:	9e 01       	movw	r18, r28
    6de6:	2e 5f       	subi	r18, 0xFE	; 254
    6de8:	3f 4f       	sbci	r19, 0xFF	; 255
    6dea:	0e 94 96 31 	call	0x632c	; 0x632c <ControlSynchronous4Dof>
			servo_control.pActionSync();
    6dee:	e0 91 e0 03 	lds	r30, 0x03E0
    6df2:	f0 91 e1 03 	lds	r31, 0x03E1
    6df6:	09 95       	icall
    6df8:	84 ec       	ldi	r24, 0xC4	; 196
    6dfa:	99 e0       	ldi	r25, 0x09	; 9
    6dfc:	20 e9       	ldi	r18, 0x90	; 144
    6dfe:	31 e0       	ldi	r19, 0x01	; 1
    6e00:	f9 01       	movw	r30, r18
    6e02:	31 97       	sbiw	r30, 0x01	; 1
    6e04:	f1 f7       	brne	.-4      	; 0x6e02 <TurnRight+0x110>
		{
			// wait 1/10 ms
			_delay_loop_2(((F_CPU) / 4e3) / 10);
			__ticks --;
    6e06:	01 97       	sbiw	r24, 0x01	; 1
		__ticks = 1;
	else if (__tmp > 65535)
	{
		//	__ticks = requested delay in 1/10 ms
		__ticks = (uint16_t) (__ms * 10.0);
		while(__ticks)
    6e08:	d9 f7       	brne	.-10     	; 0x6e00 <TurnRight+0x10e>

			_delay_ms(250);

			signal_control.pSetByte(ADDR_MOVELEG, 1);
    6e0a:	e0 91 28 04 	lds	r30, 0x0428
    6e0e:	f0 91 29 04 	lds	r31, 0x0429
    6e12:	80 e1       	ldi	r24, 0x10	; 16
    6e14:	61 e0       	ldi	r22, 0x01	; 1
    6e16:	49 c1       	rjmp	.+658    	; 0x70aa <TurnRight+0x3b8>
			break;
		}

		case 1:
		{
			ControlSynchronous4Dof(&l_foreleg_vector_c[0], 11, 600, &temp_time);
    6e18:	8e 01       	movw	r16, r28
    6e1a:	0e 5f       	subi	r16, 0xFE	; 254
    6e1c:	1f 4f       	sbci	r17, 0xFF	; 255
    6e1e:	86 ec       	ldi	r24, 0xC6	; 198
    6e20:	9a e0       	ldi	r25, 0x0A	; 10
    6e22:	6b e0       	ldi	r22, 0x0B	; 11
    6e24:	48 e5       	ldi	r20, 0x58	; 88
    6e26:	52 e0       	ldi	r21, 0x02	; 2
    6e28:	98 01       	movw	r18, r16
    6e2a:	0e 94 96 31 	call	0x632c	; 0x632c <ControlSynchronous4Dof>
			ControlSynchronous4Dof(&r_foreleg_vector_e[0], 21, 250, &temp_time);
    6e2e:	86 e5       	ldi	r24, 0x56	; 86
    6e30:	9a e0       	ldi	r25, 0x0A	; 10
    6e32:	65 e1       	ldi	r22, 0x15	; 21
    6e34:	4a ef       	ldi	r20, 0xFA	; 250
    6e36:	50 e0       	ldi	r21, 0x00	; 0
    6e38:	98 01       	movw	r18, r16
    6e3a:	0e 94 96 31 	call	0x632c	; 0x632c <ControlSynchronous4Dof>
			ControlSynchronous4Dof(&l_hindleg_vector_c[0], 31, 600, &temp_time);
    6e3e:	86 e3       	ldi	r24, 0x36	; 54
    6e40:	9a e0       	ldi	r25, 0x0A	; 10
    6e42:	6f e1       	ldi	r22, 0x1F	; 31
    6e44:	48 e5       	ldi	r20, 0x58	; 88
    6e46:	52 e0       	ldi	r21, 0x02	; 2
    6e48:	98 01       	movw	r18, r16
    6e4a:	0e 94 96 31 	call	0x632c	; 0x632c <ControlSynchronous4Dof>
			ControlSynchronous4Dof(&r_hindleg_vector_a[0], 41, 600, &temp_time);
    6e4e:	86 ea       	ldi	r24, 0xA6	; 166
    6e50:	9a e0       	ldi	r25, 0x0A	; 10
    6e52:	69 e2       	ldi	r22, 0x29	; 41
    6e54:	48 e5       	ldi	r20, 0x58	; 88
    6e56:	52 e0       	ldi	r21, 0x02	; 2
    6e58:	98 01       	movw	r18, r16
    6e5a:	0e 94 96 31 	call	0x632c	; 0x632c <ControlSynchronous4Dof>
			servo_control.pActionSync();
    6e5e:	e0 91 e0 03 	lds	r30, 0x03E0
    6e62:	f0 91 e1 03 	lds	r31, 0x03E1
    6e66:	09 95       	icall
			led_control.pChangeLedBit(0);
    6e68:	e0 91 59 07 	lds	r30, 0x0759
    6e6c:	f0 91 5a 07 	lds	r31, 0x075A
    6e70:	80 e0       	ldi	r24, 0x00	; 0
    6e72:	09 95       	icall
    6e74:	84 ec       	ldi	r24, 0xC4	; 196
    6e76:	99 e0       	ldi	r25, 0x09	; 9
    6e78:	20 e9       	ldi	r18, 0x90	; 144
    6e7a:	31 e0       	ldi	r19, 0x01	; 1
    6e7c:	f9 01       	movw	r30, r18
    6e7e:	31 97       	sbiw	r30, 0x01	; 1
    6e80:	f1 f7       	brne	.-4      	; 0x6e7e <TurnRight+0x18c>
		{
			// wait 1/10 ms
			_delay_loop_2(((F_CPU) / 4e3) / 10);
			__ticks --;
    6e82:	01 97       	sbiw	r24, 0x01	; 1
		__ticks = 1;
	else if (__tmp > 65535)
	{
		//	__ticks = requested delay in 1/10 ms
		__ticks = (uint16_t) (__ms * 10.0);
		while(__ticks)
    6e84:	d9 f7       	brne	.-10     	; 0x6e7c <TurnRight+0x18a>

			_delay_ms(250);

			ControlSynchronous4Dof(&r_foreleg_vector_f[0], 21, 100, &temp_time);
    6e86:	8e e4       	ldi	r24, 0x4E	; 78
    6e88:	9a e0       	ldi	r25, 0x0A	; 10
    6e8a:	65 e1       	ldi	r22, 0x15	; 21
    6e8c:	44 e6       	ldi	r20, 0x64	; 100
    6e8e:	50 e0       	ldi	r21, 0x00	; 0
    6e90:	9e 01       	movw	r18, r28
    6e92:	2e 5f       	subi	r18, 0xFE	; 254
    6e94:	3f 4f       	sbci	r19, 0xFF	; 255
    6e96:	0e 94 96 31 	call	0x632c	; 0x632c <ControlSynchronous4Dof>
			servo_control.pActionSync();
    6e9a:	e0 91 e0 03 	lds	r30, 0x03E0
    6e9e:	f0 91 e1 03 	lds	r31, 0x03E1
    6ea2:	09 95       	icall
    6ea4:	88 ee       	ldi	r24, 0xE8	; 232
    6ea6:	93 e0       	ldi	r25, 0x03	; 3
    6ea8:	20 e9       	ldi	r18, 0x90	; 144
    6eaa:	31 e0       	ldi	r19, 0x01	; 1
    6eac:	f9 01       	movw	r30, r18
    6eae:	31 97       	sbiw	r30, 0x01	; 1
    6eb0:	f1 f7       	brne	.-4      	; 0x6eae <TurnRight+0x1bc>
		{
			// wait 1/10 ms
			_delay_loop_2(((F_CPU) / 4e3) / 10);
			__ticks --;
    6eb2:	01 97       	sbiw	r24, 0x01	; 1
		__ticks = 1;
	else if (__tmp > 65535)
	{
		//	__ticks = requested delay in 1/10 ms
		__ticks = (uint16_t) (__ms * 10.0);
		while(__ticks)
    6eb4:	d9 f7       	brne	.-10     	; 0x6eac <TurnRight+0x1ba>

			_delay_ms(100);

			ControlSynchronous4Dof(&r_foreleg_vector_a[0], 21, 250, &temp_time);
    6eb6:	86 e7       	ldi	r24, 0x76	; 118
    6eb8:	9a e0       	ldi	r25, 0x0A	; 10
    6eba:	65 e1       	ldi	r22, 0x15	; 21
    6ebc:	4a ef       	ldi	r20, 0xFA	; 250
    6ebe:	50 e0       	ldi	r21, 0x00	; 0
    6ec0:	9e 01       	movw	r18, r28
    6ec2:	2e 5f       	subi	r18, 0xFE	; 254
    6ec4:	3f 4f       	sbci	r19, 0xFF	; 255
    6ec6:	0e 94 96 31 	call	0x632c	; 0x632c <ControlSynchronous4Dof>
			servo_control.pActionSync();
    6eca:	e0 91 e0 03 	lds	r30, 0x03E0
    6ece:	f0 91 e1 03 	lds	r31, 0x03E1
    6ed2:	09 95       	icall
    6ed4:	84 ec       	ldi	r24, 0xC4	; 196
    6ed6:	99 e0       	ldi	r25, 0x09	; 9
    6ed8:	20 e9       	ldi	r18, 0x90	; 144
    6eda:	31 e0       	ldi	r19, 0x01	; 1
    6edc:	f9 01       	movw	r30, r18
    6ede:	31 97       	sbiw	r30, 0x01	; 1
    6ee0:	f1 f7       	brne	.-4      	; 0x6ede <TurnRight+0x1ec>
		{
			// wait 1/10 ms
			_delay_loop_2(((F_CPU) / 4e3) / 10);
			__ticks --;
    6ee2:	01 97       	sbiw	r24, 0x01	; 1
		__ticks = 1;
	else if (__tmp > 65535)
	{
		//	__ticks = requested delay in 1/10 ms
		__ticks = (uint16_t) (__ms * 10.0);
		while(__ticks)
    6ee4:	d9 f7       	brne	.-10     	; 0x6edc <TurnRight+0x1ea>

			_delay_ms(250);

			signal_control.pSetByte(ADDR_MOVELEG, 3);
    6ee6:	e0 91 28 04 	lds	r30, 0x0428
    6eea:	f0 91 29 04 	lds	r31, 0x0429
    6eee:	80 e1       	ldi	r24, 0x10	; 16
    6ef0:	63 e0       	ldi	r22, 0x03	; 3
    6ef2:	db c0       	rjmp	.+438    	; 0x70aa <TurnRight+0x3b8>
			break;
		}

		case 2:
		{
			ControlSynchronous4Dof(&l_foreleg_vector_b[0], 11, 600, &temp_time);
    6ef4:	8e 01       	movw	r16, r28
    6ef6:	0e 5f       	subi	r16, 0xFE	; 254
    6ef8:	1f 4f       	sbci	r17, 0xFF	; 255
    6efa:	8e ec       	ldi	r24, 0xCE	; 206
    6efc:	9a e0       	ldi	r25, 0x0A	; 10
    6efe:	6b e0       	ldi	r22, 0x0B	; 11
    6f00:	48 e5       	ldi	r20, 0x58	; 88
    6f02:	52 e0       	ldi	r21, 0x02	; 2
    6f04:	98 01       	movw	r18, r16
    6f06:	0e 94 96 31 	call	0x632c	; 0x632c <ControlSynchronous4Dof>
			ControlSynchronous4Dof(&r_foreleg_vector_b[0], 21, 600, &temp_time);
    6f0a:	8e e6       	ldi	r24, 0x6E	; 110
    6f0c:	9a e0       	ldi	r25, 0x0A	; 10
    6f0e:	65 e1       	ldi	r22, 0x15	; 21
    6f10:	48 e5       	ldi	r20, 0x58	; 88
    6f12:	52 e0       	ldi	r21, 0x02	; 2
    6f14:	98 01       	movw	r18, r16
    6f16:	0e 94 96 31 	call	0x632c	; 0x632c <ControlSynchronous4Dof>
			ControlSynchronous4Dof(&l_hindleg_vector_d[0], 31, 600, &temp_time);
    6f1a:	8e e2       	ldi	r24, 0x2E	; 46
    6f1c:	9a e0       	ldi	r25, 0x0A	; 10
    6f1e:	6f e1       	ldi	r22, 0x1F	; 31
    6f20:	48 e5       	ldi	r20, 0x58	; 88
    6f22:	52 e0       	ldi	r21, 0x02	; 2
    6f24:	98 01       	movw	r18, r16
    6f26:	0e 94 96 31 	call	0x632c	; 0x632c <ControlSynchronous4Dof>
			ControlSynchronous4Dof(&r_hindleg_vector_f[0], 41, 250, &temp_time);
    6f2a:	8e e7       	ldi	r24, 0x7E	; 126
    6f2c:	9a e0       	ldi	r25, 0x0A	; 10
    6f2e:	69 e2       	ldi	r22, 0x29	; 41
    6f30:	4a ef       	ldi	r20, 0xFA	; 250
    6f32:	50 e0       	ldi	r21, 0x00	; 0
    6f34:	98 01       	movw	r18, r16
    6f36:	0e 94 96 31 	call	0x632c	; 0x632c <ControlSynchronous4Dof>
			servo_control.pActionSync();
    6f3a:	e0 91 e0 03 	lds	r30, 0x03E0
    6f3e:	f0 91 e1 03 	lds	r31, 0x03E1
    6f42:	09 95       	icall
			led_control.pChangeLedBit(0);
    6f44:	e0 91 59 07 	lds	r30, 0x0759
    6f48:	f0 91 5a 07 	lds	r31, 0x075A
    6f4c:	80 e0       	ldi	r24, 0x00	; 0
    6f4e:	09 95       	icall
    6f50:	84 ec       	ldi	r24, 0xC4	; 196
    6f52:	99 e0       	ldi	r25, 0x09	; 9
    6f54:	20 e9       	ldi	r18, 0x90	; 144
    6f56:	31 e0       	ldi	r19, 0x01	; 1
    6f58:	f9 01       	movw	r30, r18
    6f5a:	31 97       	sbiw	r30, 0x01	; 1
    6f5c:	f1 f7       	brne	.-4      	; 0x6f5a <TurnRight+0x268>
		{
			// wait 1/10 ms
			_delay_loop_2(((F_CPU) / 4e3) / 10);
			__ticks --;
    6f5e:	01 97       	sbiw	r24, 0x01	; 1
		__ticks = 1;
	else if (__tmp > 65535)
	{
		//	__ticks = requested delay in 1/10 ms
		__ticks = (uint16_t) (__ms * 10.0);
		while(__ticks)
    6f60:	d9 f7       	brne	.-10     	; 0x6f58 <TurnRight+0x266>

			_delay_ms(250);

			ControlSynchronous4Dof(&r_hindleg_vector_e[0], 41, 100, &temp_time);
    6f62:	86 e8       	ldi	r24, 0x86	; 134
    6f64:	9a e0       	ldi	r25, 0x0A	; 10
    6f66:	69 e2       	ldi	r22, 0x29	; 41
    6f68:	44 e6       	ldi	r20, 0x64	; 100
    6f6a:	50 e0       	ldi	r21, 0x00	; 0
    6f6c:	9e 01       	movw	r18, r28
    6f6e:	2e 5f       	subi	r18, 0xFE	; 254
    6f70:	3f 4f       	sbci	r19, 0xFF	; 255
    6f72:	0e 94 96 31 	call	0x632c	; 0x632c <ControlSynchronous4Dof>
			servo_control.pActionSync();
    6f76:	e0 91 e0 03 	lds	r30, 0x03E0
    6f7a:	f0 91 e1 03 	lds	r31, 0x03E1
    6f7e:	09 95       	icall
    6f80:	88 ee       	ldi	r24, 0xE8	; 232
    6f82:	93 e0       	ldi	r25, 0x03	; 3
    6f84:	20 e9       	ldi	r18, 0x90	; 144
    6f86:	31 e0       	ldi	r19, 0x01	; 1
    6f88:	f9 01       	movw	r30, r18
    6f8a:	31 97       	sbiw	r30, 0x01	; 1
    6f8c:	f1 f7       	brne	.-4      	; 0x6f8a <TurnRight+0x298>
		{
			// wait 1/10 ms
			_delay_loop_2(((F_CPU) / 4e3) / 10);
			__ticks --;
    6f8e:	01 97       	sbiw	r24, 0x01	; 1
		__ticks = 1;
	else if (__tmp > 65535)
	{
		//	__ticks = requested delay in 1/10 ms
		__ticks = (uint16_t) (__ms * 10.0);
		while(__ticks)
    6f90:	d9 f7       	brne	.-10     	; 0x6f88 <TurnRight+0x296>

			_delay_ms(100);

			ControlSynchronous4Dof(&r_hindleg_vector_d[0], 41, 250, &temp_time);
    6f92:	8e e8       	ldi	r24, 0x8E	; 142
    6f94:	9a e0       	ldi	r25, 0x0A	; 10
    6f96:	69 e2       	ldi	r22, 0x29	; 41
    6f98:	4a ef       	ldi	r20, 0xFA	; 250
    6f9a:	50 e0       	ldi	r21, 0x00	; 0
    6f9c:	9e 01       	movw	r18, r28
    6f9e:	2e 5f       	subi	r18, 0xFE	; 254
    6fa0:	3f 4f       	sbci	r19, 0xFF	; 255
    6fa2:	0e 94 96 31 	call	0x632c	; 0x632c <ControlSynchronous4Dof>
			servo_control.pActionSync();
    6fa6:	e0 91 e0 03 	lds	r30, 0x03E0
    6faa:	f0 91 e1 03 	lds	r31, 0x03E1
    6fae:	09 95       	icall
    6fb0:	84 ec       	ldi	r24, 0xC4	; 196
    6fb2:	99 e0       	ldi	r25, 0x09	; 9
    6fb4:	20 e9       	ldi	r18, 0x90	; 144
    6fb6:	31 e0       	ldi	r19, 0x01	; 1
    6fb8:	f9 01       	movw	r30, r18
    6fba:	31 97       	sbiw	r30, 0x01	; 1
    6fbc:	f1 f7       	brne	.-4      	; 0x6fba <TurnRight+0x2c8>
		{
			// wait 1/10 ms
			_delay_loop_2(((F_CPU) / 4e3) / 10);
			__ticks --;
    6fbe:	01 97       	sbiw	r24, 0x01	; 1
		__ticks = 1;
	else if (__tmp > 65535)
	{
		//	__ticks = requested delay in 1/10 ms
		__ticks = (uint16_t) (__ms * 10.0);
		while(__ticks)
    6fc0:	d9 f7       	brne	.-10     	; 0x6fb8 <TurnRight+0x2c6>

			_delay_ms(250);

			signal_control.pSetByte(ADDR_MOVELEG, 2);
    6fc2:	e0 91 28 04 	lds	r30, 0x0428
    6fc6:	f0 91 29 04 	lds	r31, 0x0429
    6fca:	80 e1       	ldi	r24, 0x10	; 16
    6fcc:	62 e0       	ldi	r22, 0x02	; 2
    6fce:	6d c0       	rjmp	.+218    	; 0x70aa <TurnRight+0x3b8>
			break;
		}

		case 3:
		{
			ControlSynchronous4Dof(&l_foreleg_vector_a[0], 11, 600, &temp_time);
    6fd0:	8e 01       	movw	r16, r28
    6fd2:	0e 5f       	subi	r16, 0xFE	; 254
    6fd4:	1f 4f       	sbci	r17, 0xFF	; 255
    6fd6:	86 ed       	ldi	r24, 0xD6	; 214
    6fd8:	9a e0       	ldi	r25, 0x0A	; 10
    6fda:	6b e0       	ldi	r22, 0x0B	; 11
    6fdc:	48 e5       	ldi	r20, 0x58	; 88
    6fde:	52 e0       	ldi	r21, 0x02	; 2
    6fe0:	98 01       	movw	r18, r16
    6fe2:	0e 94 96 31 	call	0x632c	; 0x632c <ControlSynchronous4Dof>
			ControlSynchronous4Dof(&r_foreleg_vector_c[0], 21, 600, &temp_time);
    6fe6:	86 e6       	ldi	r24, 0x66	; 102
    6fe8:	9a e0       	ldi	r25, 0x0A	; 10
    6fea:	65 e1       	ldi	r22, 0x15	; 21
    6fec:	48 e5       	ldi	r20, 0x58	; 88
    6fee:	52 e0       	ldi	r21, 0x02	; 2
    6ff0:	98 01       	movw	r18, r16
    6ff2:	0e 94 96 31 	call	0x632c	; 0x632c <ControlSynchronous4Dof>
			ControlSynchronous4Dof(&l_hindleg_vector_e[0], 31, 250, &temp_time);
    6ff6:	86 e2       	ldi	r24, 0x26	; 38
    6ff8:	9a e0       	ldi	r25, 0x0A	; 10
    6ffa:	6f e1       	ldi	r22, 0x1F	; 31
    6ffc:	4a ef       	ldi	r20, 0xFA	; 250
    6ffe:	50 e0       	ldi	r21, 0x00	; 0
    7000:	98 01       	movw	r18, r16
    7002:	0e 94 96 31 	call	0x632c	; 0x632c <ControlSynchronous4Dof>
			ControlSynchronous4Dof(&r_hindleg_vector_c[0], 41, 600, &temp_time);
    7006:	86 e9       	ldi	r24, 0x96	; 150
    7008:	9a e0       	ldi	r25, 0x0A	; 10
    700a:	69 e2       	ldi	r22, 0x29	; 41
    700c:	48 e5       	ldi	r20, 0x58	; 88
    700e:	52 e0       	ldi	r21, 0x02	; 2
    7010:	98 01       	movw	r18, r16
    7012:	0e 94 96 31 	call	0x632c	; 0x632c <ControlSynchronous4Dof>
			servo_control.pActionSync();
    7016:	e0 91 e0 03 	lds	r30, 0x03E0
    701a:	f0 91 e1 03 	lds	r31, 0x03E1
    701e:	09 95       	icall
			led_control.pChangeLedBit(0);
    7020:	e0 91 59 07 	lds	r30, 0x0759
    7024:	f0 91 5a 07 	lds	r31, 0x075A
    7028:	80 e0       	ldi	r24, 0x00	; 0
    702a:	09 95       	icall
    702c:	84 ec       	ldi	r24, 0xC4	; 196
    702e:	99 e0       	ldi	r25, 0x09	; 9
    7030:	20 e9       	ldi	r18, 0x90	; 144
    7032:	31 e0       	ldi	r19, 0x01	; 1
    7034:	f9 01       	movw	r30, r18
    7036:	31 97       	sbiw	r30, 0x01	; 1
    7038:	f1 f7       	brne	.-4      	; 0x7036 <TurnRight+0x344>
		{
			// wait 1/10 ms
			_delay_loop_2(((F_CPU) / 4e3) / 10);
			__ticks --;
    703a:	01 97       	sbiw	r24, 0x01	; 1
		__ticks = 1;
	else if (__tmp > 65535)
	{
		//	__ticks = requested delay in 1/10 ms
		__ticks = (uint16_t) (__ms * 10.0);
		while(__ticks)
    703c:	d9 f7       	brne	.-10     	; 0x7034 <TurnRight+0x342>

			_delay_ms(250);

			ControlSynchronous4Dof(&l_hindleg_vector_f[0], 31, 100, &temp_time);
    703e:	8e e1       	ldi	r24, 0x1E	; 30
    7040:	9a e0       	ldi	r25, 0x0A	; 10
    7042:	6f e1       	ldi	r22, 0x1F	; 31
    7044:	44 e6       	ldi	r20, 0x64	; 100
    7046:	50 e0       	ldi	r21, 0x00	; 0
    7048:	9e 01       	movw	r18, r28
    704a:	2e 5f       	subi	r18, 0xFE	; 254
    704c:	3f 4f       	sbci	r19, 0xFF	; 255
    704e:	0e 94 96 31 	call	0x632c	; 0x632c <ControlSynchronous4Dof>
			servo_control.pActionSync();
    7052:	e0 91 e0 03 	lds	r30, 0x03E0
    7056:	f0 91 e1 03 	lds	r31, 0x03E1
    705a:	09 95       	icall
    705c:	88 ee       	ldi	r24, 0xE8	; 232
    705e:	93 e0       	ldi	r25, 0x03	; 3
    7060:	20 e9       	ldi	r18, 0x90	; 144
    7062:	31 e0       	ldi	r19, 0x01	; 1
    7064:	f9 01       	movw	r30, r18
    7066:	31 97       	sbiw	r30, 0x01	; 1
    7068:	f1 f7       	brne	.-4      	; 0x7066 <TurnRight+0x374>
		{
			// wait 1/10 ms
			_delay_loop_2(((F_CPU) / 4e3) / 10);
			__ticks --;
    706a:	01 97       	sbiw	r24, 0x01	; 1
		__ticks = 1;
	else if (__tmp > 65535)
	{
		//	__ticks = requested delay in 1/10 ms
		__ticks = (uint16_t) (__ms * 10.0);
		while(__ticks)
    706c:	d9 f7       	brne	.-10     	; 0x7064 <TurnRight+0x372>

			_delay_ms(100);

			ControlSynchronous4Dof(&l_hindleg_vector_a[0], 31, 250, &temp_time);
    706e:	86 e4       	ldi	r24, 0x46	; 70
    7070:	9a e0       	ldi	r25, 0x0A	; 10
    7072:	6f e1       	ldi	r22, 0x1F	; 31
    7074:	4a ef       	ldi	r20, 0xFA	; 250
    7076:	50 e0       	ldi	r21, 0x00	; 0
    7078:	9e 01       	movw	r18, r28
    707a:	2e 5f       	subi	r18, 0xFE	; 254
    707c:	3f 4f       	sbci	r19, 0xFF	; 255
    707e:	0e 94 96 31 	call	0x632c	; 0x632c <ControlSynchronous4Dof>
			servo_control.pActionSync();
    7082:	e0 91 e0 03 	lds	r30, 0x03E0
    7086:	f0 91 e1 03 	lds	r31, 0x03E1
    708a:	09 95       	icall
    708c:	84 ec       	ldi	r24, 0xC4	; 196
    708e:	99 e0       	ldi	r25, 0x09	; 9
    7090:	20 e9       	ldi	r18, 0x90	; 144
    7092:	31 e0       	ldi	r19, 0x01	; 1
    7094:	f9 01       	movw	r30, r18
    7096:	31 97       	sbiw	r30, 0x01	; 1
    7098:	f1 f7       	brne	.-4      	; 0x7096 <TurnRight+0x3a4>
		{
			// wait 1/10 ms
			_delay_loop_2(((F_CPU) / 4e3) / 10);
			__ticks --;
    709a:	01 97       	sbiw	r24, 0x01	; 1
		__ticks = 1;
	else if (__tmp > 65535)
	{
		//	__ticks = requested delay in 1/10 ms
		__ticks = (uint16_t) (__ms * 10.0);
		while(__ticks)
    709c:	d9 f7       	brne	.-10     	; 0x7094 <TurnRight+0x3a2>

			_delay_ms(250);

			signal_control.pSetByte(ADDR_MOVELEG, 0);
    709e:	e0 91 28 04 	lds	r30, 0x0428
    70a2:	f0 91 29 04 	lds	r31, 0x0429
    70a6:	80 e1       	ldi	r24, 0x10	; 16
    70a8:	60 e0       	ldi	r22, 0x00	; 0
    70aa:	09 95       	icall
		default:
		{
			break;
		}
	}
}
    70ac:	0f 90       	pop	r0
    70ae:	0f 90       	pop	r0
    70b0:	0f 90       	pop	r0
    70b2:	cf 91       	pop	r28
    70b4:	df 91       	pop	r29
    70b6:	1f 91       	pop	r17
    70b8:	0f 91       	pop	r16
    70ba:	08 95       	ret

000070bc <SitDown>:
** 修订人:
** 修订日期:
**------------------------------------------------------------------------------------------------------------------------
*************************************************************************************************************************/
void SitDown(void)
{
    70bc:	0f 93       	push	r16
    70be:	1f 93       	push	r17
    70c0:	df 93       	push	r29
    70c2:	cf 93       	push	r28
    70c4:	00 d0       	rcall	.+0      	; 0x70c6 <SitDown+0xa>
    70c6:	cd b7       	in	r28, 0x3d	; 61
    70c8:	de b7       	in	r29, 0x3e	; 62
	const int16 a[4]= {140-70, 0, 280, 140+70};
	const int16 b[4]= {130-70, 0, 240, 140+70};
	const int16 a1[4]= {100, 0, 0, 100};
	const int16 b1[4]= {130-50, 200, 240, 140+70};

	uint16 temp_time = 0;
    70ca:	1a 82       	std	Y+2, r1	; 0x02
    70cc:	19 82       	std	Y+1, r1	; 0x01

	ControlSynchronous4Dof(&a[0], 11, 400, &temp_time);
    70ce:	82 e1       	ldi	r24, 0x12	; 18
    70d0:	9a e0       	ldi	r25, 0x0A	; 10
    70d2:	6b e0       	ldi	r22, 0x0B	; 11
    70d4:	40 e9       	ldi	r20, 0x90	; 144
    70d6:	51 e0       	ldi	r21, 0x01	; 1
    70d8:	8e 01       	movw	r16, r28
    70da:	0f 5f       	subi	r16, 0xFF	; 255
    70dc:	1f 4f       	sbci	r17, 0xFF	; 255
    70de:	98 01       	movw	r18, r16
    70e0:	0e 94 96 31 	call	0x632c	; 0x632c <ControlSynchronous4Dof>
	ControlSynchronous4Dof(&a[0], 21, 400, &temp_time);
    70e4:	82 e1       	ldi	r24, 0x12	; 18
    70e6:	9a e0       	ldi	r25, 0x0A	; 10
    70e8:	65 e1       	ldi	r22, 0x15	; 21
    70ea:	40 e9       	ldi	r20, 0x90	; 144
    70ec:	51 e0       	ldi	r21, 0x01	; 1
    70ee:	98 01       	movw	r18, r16
    70f0:	0e 94 96 31 	call	0x632c	; 0x632c <ControlSynchronous4Dof>
	ControlSynchronous4Dof(&b[0], 31, 400, &temp_time);
    70f4:	8a e0       	ldi	r24, 0x0A	; 10
    70f6:	9a e0       	ldi	r25, 0x0A	; 10
    70f8:	6f e1       	ldi	r22, 0x1F	; 31
    70fa:	40 e9       	ldi	r20, 0x90	; 144
    70fc:	51 e0       	ldi	r21, 0x01	; 1
    70fe:	98 01       	movw	r18, r16
    7100:	0e 94 96 31 	call	0x632c	; 0x632c <ControlSynchronous4Dof>
	ControlSynchronous4Dof(&b[0], 41, 400, &temp_time);
    7104:	8a e0       	ldi	r24, 0x0A	; 10
    7106:	9a e0       	ldi	r25, 0x0A	; 10
    7108:	69 e2       	ldi	r22, 0x29	; 41
    710a:	40 e9       	ldi	r20, 0x90	; 144
    710c:	51 e0       	ldi	r21, 0x01	; 1
    710e:	98 01       	movw	r18, r16
    7110:	0e 94 96 31 	call	0x632c	; 0x632c <ControlSynchronous4Dof>
	servo_control.pActionSync();
    7114:	e0 91 e0 03 	lds	r30, 0x03E0
    7118:	f0 91 e1 03 	lds	r31, 0x03E1
    711c:	09 95       	icall
    711e:	80 ea       	ldi	r24, 0xA0	; 160
    7120:	9f e0       	ldi	r25, 0x0F	; 15
    7122:	20 e9       	ldi	r18, 0x90	; 144
    7124:	31 e0       	ldi	r19, 0x01	; 1
    7126:	f9 01       	movw	r30, r18
    7128:	31 97       	sbiw	r30, 0x01	; 1
    712a:	f1 f7       	brne	.-4      	; 0x7128 <SitDown+0x6c>
		{
			// wait 1/10 ms
			_delay_loop_2(((F_CPU) / 4e3) / 10);
			__ticks --;
    712c:	01 97       	sbiw	r24, 0x01	; 1
		__ticks = 1;
	else if (__tmp > 65535)
	{
		//	__ticks = requested delay in 1/10 ms
		__ticks = (uint16_t) (__ms * 10.0);
		while(__ticks)
    712e:	d9 f7       	brne	.-10     	; 0x7126 <SitDown+0x6a>

	_delay_ms(400);

	ControlSynchronous4Dof(&a1[0], 11, 800, &temp_time);
    7130:	82 e0       	ldi	r24, 0x02	; 2
    7132:	9a e0       	ldi	r25, 0x0A	; 10
    7134:	6b e0       	ldi	r22, 0x0B	; 11
    7136:	40 e2       	ldi	r20, 0x20	; 32
    7138:	53 e0       	ldi	r21, 0x03	; 3
    713a:	8e 01       	movw	r16, r28
    713c:	0f 5f       	subi	r16, 0xFF	; 255
    713e:	1f 4f       	sbci	r17, 0xFF	; 255
    7140:	98 01       	movw	r18, r16
    7142:	0e 94 96 31 	call	0x632c	; 0x632c <ControlSynchronous4Dof>
	ControlSynchronous4Dof(&a1[0], 21, 800, &temp_time);
    7146:	82 e0       	ldi	r24, 0x02	; 2
    7148:	9a e0       	ldi	r25, 0x0A	; 10
    714a:	65 e1       	ldi	r22, 0x15	; 21
    714c:	40 e2       	ldi	r20, 0x20	; 32
    714e:	53 e0       	ldi	r21, 0x03	; 3
    7150:	98 01       	movw	r18, r16
    7152:	0e 94 96 31 	call	0x632c	; 0x632c <ControlSynchronous4Dof>
	ControlSynchronous4Dof(&b1[0], 31, 1200, &temp_time);
    7156:	8a ef       	ldi	r24, 0xFA	; 250
    7158:	99 e0       	ldi	r25, 0x09	; 9
    715a:	6f e1       	ldi	r22, 0x1F	; 31
    715c:	40 eb       	ldi	r20, 0xB0	; 176
    715e:	54 e0       	ldi	r21, 0x04	; 4
    7160:	98 01       	movw	r18, r16
    7162:	0e 94 96 31 	call	0x632c	; 0x632c <ControlSynchronous4Dof>
	ControlSynchronous4Dof(&b1[0], 41, 1200, &temp_time);
    7166:	8a ef       	ldi	r24, 0xFA	; 250
    7168:	99 e0       	ldi	r25, 0x09	; 9
    716a:	69 e2       	ldi	r22, 0x29	; 41
    716c:	40 eb       	ldi	r20, 0xB0	; 176
    716e:	54 e0       	ldi	r21, 0x04	; 4
    7170:	98 01       	movw	r18, r16
    7172:	0e 94 96 31 	call	0x632c	; 0x632c <ControlSynchronous4Dof>
	servo_control.pActionSync();
    7176:	e0 91 e0 03 	lds	r30, 0x03E0
    717a:	f0 91 e1 03 	lds	r31, 0x03E1
    717e:	09 95       	icall
    7180:	80 ee       	ldi	r24, 0xE0	; 224
    7182:	9e e2       	ldi	r25, 0x2E	; 46
    7184:	20 e9       	ldi	r18, 0x90	; 144
    7186:	31 e0       	ldi	r19, 0x01	; 1
    7188:	f9 01       	movw	r30, r18
    718a:	31 97       	sbiw	r30, 0x01	; 1
    718c:	f1 f7       	brne	.-4      	; 0x718a <SitDown+0xce>
		{
			// wait 1/10 ms
			_delay_loop_2(((F_CPU) / 4e3) / 10);
			__ticks --;
    718e:	01 97       	sbiw	r24, 0x01	; 1
		__ticks = 1;
	else if (__tmp > 65535)
	{
		//	__ticks = requested delay in 1/10 ms
		__ticks = (uint16_t) (__ms * 10.0);
		while(__ticks)
    7190:	d9 f7       	brne	.-10     	; 0x7188 <SitDown+0xcc>

	_delay_ms(1200);

	ControlSynchronous1Dof(-120, 2, 700, &temp_time);
    7192:	88 e8       	ldi	r24, 0x88	; 136
    7194:	9f ef       	ldi	r25, 0xFF	; 255
    7196:	62 e0       	ldi	r22, 0x02	; 2
    7198:	4c eb       	ldi	r20, 0xBC	; 188
    719a:	52 e0       	ldi	r21, 0x02	; 2
    719c:	9e 01       	movw	r18, r28
    719e:	2f 5f       	subi	r18, 0xFF	; 255
    71a0:	3f 4f       	sbci	r19, 0xFF	; 255
    71a2:	0e 94 63 32 	call	0x64c6	; 0x64c6 <ControlSynchronous1Dof>
	servo_control.pActionSync();
    71a6:	e0 91 e0 03 	lds	r30, 0x03E0
    71aa:	f0 91 e1 03 	lds	r31, 0x03E1
    71ae:	09 95       	icall
    71b0:	88 e5       	ldi	r24, 0x58	; 88
    71b2:	9b e1       	ldi	r25, 0x1B	; 27
    71b4:	20 e9       	ldi	r18, 0x90	; 144
    71b6:	31 e0       	ldi	r19, 0x01	; 1
    71b8:	f9 01       	movw	r30, r18
    71ba:	31 97       	sbiw	r30, 0x01	; 1
    71bc:	f1 f7       	brne	.-4      	; 0x71ba <SitDown+0xfe>
		{
			// wait 1/10 ms
			_delay_loop_2(((F_CPU) / 4e3) / 10);
			__ticks --;
    71be:	01 97       	sbiw	r24, 0x01	; 1
		__ticks = 1;
	else if (__tmp > 65535)
	{
		//	__ticks = requested delay in 1/10 ms
		__ticks = (uint16_t) (__ms * 10.0);
		while(__ticks)
    71c0:	d9 f7       	brne	.-10     	; 0x71b8 <SitDown+0xfc>

	_delay_ms(700);

	ControlSynchronous1Dof(70, 2, 700, &temp_time);
    71c2:	86 e4       	ldi	r24, 0x46	; 70
    71c4:	90 e0       	ldi	r25, 0x00	; 0
    71c6:	62 e0       	ldi	r22, 0x02	; 2
    71c8:	4c eb       	ldi	r20, 0xBC	; 188
    71ca:	52 e0       	ldi	r21, 0x02	; 2
    71cc:	9e 01       	movw	r18, r28
    71ce:	2f 5f       	subi	r18, 0xFF	; 255
    71d0:	3f 4f       	sbci	r19, 0xFF	; 255
    71d2:	0e 94 63 32 	call	0x64c6	; 0x64c6 <ControlSynchronous1Dof>
	servo_control.pActionSync();
    71d6:	e0 91 e0 03 	lds	r30, 0x03E0
    71da:	f0 91 e1 03 	lds	r31, 0x03E1
    71de:	09 95       	icall
    71e0:	88 e5       	ldi	r24, 0x58	; 88
    71e2:	9b e1       	ldi	r25, 0x1B	; 27
    71e4:	20 e9       	ldi	r18, 0x90	; 144
    71e6:	31 e0       	ldi	r19, 0x01	; 1
    71e8:	f9 01       	movw	r30, r18
    71ea:	31 97       	sbiw	r30, 0x01	; 1
    71ec:	f1 f7       	brne	.-4      	; 0x71ea <SitDown+0x12e>
		{
			// wait 1/10 ms
			_delay_loop_2(((F_CPU) / 4e3) / 10);
			__ticks --;
    71ee:	01 97       	sbiw	r24, 0x01	; 1
		__ticks = 1;
	else if (__tmp > 65535)
	{
		//	__ticks = requested delay in 1/10 ms
		__ticks = (uint16_t) (__ms * 10.0);
		while(__ticks)
    71f0:	d9 f7       	brne	.-10     	; 0x71e8 <SitDown+0x12c>

	_delay_ms(700);
}
    71f2:	0f 90       	pop	r0
    71f4:	0f 90       	pop	r0
    71f6:	cf 91       	pop	r28
    71f8:	df 91       	pop	r29
    71fa:	1f 91       	pop	r17
    71fc:	0f 91       	pop	r16
    71fe:	08 95       	ret

00007200 <Stand>:
** 修订人:
** 修订日期:
**------------------------------------------------------------------------------------------------------------------------
*************************************************************************************************************************/
void Stand(void)
{
    7200:	0f 93       	push	r16
    7202:	1f 93       	push	r17
    7204:	df 93       	push	r29
    7206:	cf 93       	push	r28
    7208:	00 d0       	rcall	.+0      	; 0x720a <Stand+0xa>
    720a:	cd b7       	in	r28, 0x3d	; 61
    720c:	de b7       	in	r29, 0x3e	; 62
	const int16 a[4]= {140, 0, 280, 140};
	const int16 b[4]= {130, 0, 240, 140};

	uint16 temp_time = 0;
    720e:	1a 82       	std	Y+2, r1	; 0x02
    7210:	19 82       	std	Y+1, r1	; 0x01

	ControlSynchronous4Dof(&a[0], 11, 1800, &temp_time);
    7212:	82 ef       	ldi	r24, 0xF2	; 242
    7214:	99 e0       	ldi	r25, 0x09	; 9
    7216:	6b e0       	ldi	r22, 0x0B	; 11
    7218:	48 e0       	ldi	r20, 0x08	; 8
    721a:	57 e0       	ldi	r21, 0x07	; 7
    721c:	8e 01       	movw	r16, r28
    721e:	0f 5f       	subi	r16, 0xFF	; 255
    7220:	1f 4f       	sbci	r17, 0xFF	; 255
    7222:	98 01       	movw	r18, r16
    7224:	0e 94 96 31 	call	0x632c	; 0x632c <ControlSynchronous4Dof>
	ControlSynchronous4Dof(&a[0], 21, 1800, &temp_time);
    7228:	82 ef       	ldi	r24, 0xF2	; 242
    722a:	99 e0       	ldi	r25, 0x09	; 9
    722c:	65 e1       	ldi	r22, 0x15	; 21
    722e:	48 e0       	ldi	r20, 0x08	; 8
    7230:	57 e0       	ldi	r21, 0x07	; 7
    7232:	98 01       	movw	r18, r16
    7234:	0e 94 96 31 	call	0x632c	; 0x632c <ControlSynchronous4Dof>
	ControlSynchronous4Dof(&b[0], 31, 1800, &temp_time);
    7238:	8a ee       	ldi	r24, 0xEA	; 234
    723a:	99 e0       	ldi	r25, 0x09	; 9
    723c:	6f e1       	ldi	r22, 0x1F	; 31
    723e:	48 e0       	ldi	r20, 0x08	; 8
    7240:	57 e0       	ldi	r21, 0x07	; 7
    7242:	98 01       	movw	r18, r16
    7244:	0e 94 96 31 	call	0x632c	; 0x632c <ControlSynchronous4Dof>
	ControlSynchronous4Dof(&b[0], 41, 1800, &temp_time);
    7248:	8a ee       	ldi	r24, 0xEA	; 234
    724a:	99 e0       	ldi	r25, 0x09	; 9
    724c:	69 e2       	ldi	r22, 0x29	; 41
    724e:	48 e0       	ldi	r20, 0x08	; 8
    7250:	57 e0       	ldi	r21, 0x07	; 7
    7252:	98 01       	movw	r18, r16
    7254:	0e 94 96 31 	call	0x632c	; 0x632c <ControlSynchronous4Dof>

	servo_control.pActionSync();
    7258:	e0 91 e0 03 	lds	r30, 0x03E0
    725c:	f0 91 e1 03 	lds	r31, 0x03E1
    7260:	09 95       	icall
    7262:	80 ed       	ldi	r24, 0xD0	; 208
    7264:	97 e0       	ldi	r25, 0x07	; 7
    7266:	20 e9       	ldi	r18, 0x90	; 144
    7268:	31 e0       	ldi	r19, 0x01	; 1
    726a:	f9 01       	movw	r30, r18
    726c:	31 97       	sbiw	r30, 0x01	; 1
    726e:	f1 f7       	brne	.-4      	; 0x726c <Stand+0x6c>
		{
			// wait 1/10 ms
			_delay_loop_2(((F_CPU) / 4e3) / 10);
			__ticks --;
    7270:	01 97       	sbiw	r24, 0x01	; 1
		__ticks = 1;
	else if (__tmp > 65535)
	{
		//	__ticks = requested delay in 1/10 ms
		__ticks = (uint16_t) (__ms * 10.0);
		while(__ticks)
    7272:	d9 f7       	brne	.-10     	; 0x726a <Stand+0x6a>

	_delay_ms(200);

	ControlSynchronous1Dof(0, 1, 500, &temp_time);
    7274:	80 e0       	ldi	r24, 0x00	; 0
    7276:	90 e0       	ldi	r25, 0x00	; 0
    7278:	61 e0       	ldi	r22, 0x01	; 1
    727a:	44 ef       	ldi	r20, 0xF4	; 244
    727c:	51 e0       	ldi	r21, 0x01	; 1
    727e:	8e 01       	movw	r16, r28
    7280:	0f 5f       	subi	r16, 0xFF	; 255
    7282:	1f 4f       	sbci	r17, 0xFF	; 255
    7284:	98 01       	movw	r18, r16
    7286:	0e 94 63 32 	call	0x64c6	; 0x64c6 <ControlSynchronous1Dof>
	ControlSynchronous1Dof(0, 2, 500, &temp_time);
    728a:	80 e0       	ldi	r24, 0x00	; 0
    728c:	90 e0       	ldi	r25, 0x00	; 0
    728e:	62 e0       	ldi	r22, 0x02	; 2
    7290:	44 ef       	ldi	r20, 0xF4	; 244
    7292:	51 e0       	ldi	r21, 0x01	; 1
    7294:	98 01       	movw	r18, r16
    7296:	0e 94 63 32 	call	0x64c6	; 0x64c6 <ControlSynchronous1Dof>
	ControlSynchronous1Dof(0, 3, 500, &temp_time);
    729a:	80 e0       	ldi	r24, 0x00	; 0
    729c:	90 e0       	ldi	r25, 0x00	; 0
    729e:	63 e0       	ldi	r22, 0x03	; 3
    72a0:	44 ef       	ldi	r20, 0xF4	; 244
    72a2:	51 e0       	ldi	r21, 0x01	; 1
    72a4:	98 01       	movw	r18, r16
    72a6:	0e 94 63 32 	call	0x64c6	; 0x64c6 <ControlSynchronous1Dof>

	servo_control.pActionSync();
    72aa:	e0 91 e0 03 	lds	r30, 0x03E0
    72ae:	f0 91 e1 03 	lds	r31, 0x03E1
    72b2:	09 95       	icall
    72b4:	80 e5       	ldi	r24, 0x50	; 80
    72b6:	96 e4       	ldi	r25, 0x46	; 70
    72b8:	20 e9       	ldi	r18, 0x90	; 144
    72ba:	31 e0       	ldi	r19, 0x01	; 1
    72bc:	f9 01       	movw	r30, r18
    72be:	31 97       	sbiw	r30, 0x01	; 1
    72c0:	f1 f7       	brne	.-4      	; 0x72be <Stand+0xbe>
		{
			// wait 1/10 ms
			_delay_loop_2(((F_CPU) / 4e3) / 10);
			__ticks --;
    72c2:	01 97       	sbiw	r24, 0x01	; 1
		__ticks = 1;
	else if (__tmp > 65535)
	{
		//	__ticks = requested delay in 1/10 ms
		__ticks = (uint16_t) (__ms * 10.0);
		while(__ticks)
    72c4:	d9 f7       	brne	.-10     	; 0x72bc <Stand+0xbc>

	_delay_ms(1800);
}
    72c6:	0f 90       	pop	r0
    72c8:	0f 90       	pop	r0
    72ca:	cf 91       	pop	r28
    72cc:	df 91       	pop	r29
    72ce:	1f 91       	pop	r17
    72d0:	0f 91       	pop	r16
    72d2:	08 95       	ret

000072d4 <ShookHands>:
** 修订日期:
**------------------------------------------------------------------------------------------------------------------------
*************************************************************************************************************************/

void ShookHands(void)
{
    72d4:	cf 92       	push	r12
    72d6:	df 92       	push	r13
    72d8:	ef 92       	push	r14
    72da:	ff 92       	push	r15
    72dc:	0f 93       	push	r16
    72de:	1f 93       	push	r17
    72e0:	df 93       	push	r29
    72e2:	cf 93       	push	r28
    72e4:	00 d0       	rcall	.+0      	; 0x72e6 <ShookHands+0x12>
    72e6:	cd b7       	in	r28, 0x3d	; 61
    72e8:	de b7       	in	r29, 0x3e	; 62
	const int16 a5[4]= {40, 0, 0, 100};
	const int16 b[4] = {130-50, 200-40, 240, 140+70};
	const int16 b1[4] = {130-50, 200+40, 240, 140+70};

	uint8 i;
	uint16 temp_time = 0;
    72ea:	1a 82       	std	Y+2, r1	; 0x02
    72ec:	19 82       	std	Y+1, r1	; 0x01

	ControlSynchronous1Dof(-100, 1, 600, &temp_time);
    72ee:	8c e9       	ldi	r24, 0x9C	; 156
    72f0:	9f ef       	ldi	r25, 0xFF	; 255
    72f2:	61 e0       	ldi	r22, 0x01	; 1
    72f4:	48 e5       	ldi	r20, 0x58	; 88
    72f6:	52 e0       	ldi	r21, 0x02	; 2
    72f8:	8e 01       	movw	r16, r28
    72fa:	0f 5f       	subi	r16, 0xFF	; 255
    72fc:	1f 4f       	sbci	r17, 0xFF	; 255
    72fe:	98 01       	movw	r18, r16
    7300:	0e 94 63 32 	call	0x64c6	; 0x64c6 <ControlSynchronous1Dof>
	ControlSynchronous1Dof(-70, 2, 600, &temp_time);
    7304:	8a eb       	ldi	r24, 0xBA	; 186
    7306:	9f ef       	ldi	r25, 0xFF	; 255
    7308:	62 e0       	ldi	r22, 0x02	; 2
    730a:	48 e5       	ldi	r20, 0x58	; 88
    730c:	52 e0       	ldi	r21, 0x02	; 2
    730e:	98 01       	movw	r18, r16
    7310:	0e 94 63 32 	call	0x64c6	; 0x64c6 <ControlSynchronous1Dof>
	servo_control.pActionSync();
    7314:	e0 91 e0 03 	lds	r30, 0x03E0
    7318:	f0 91 e1 03 	lds	r31, 0x03E1
    731c:	09 95       	icall
    731e:	80 e7       	ldi	r24, 0x70	; 112
    7320:	97 e1       	ldi	r25, 0x17	; 23
    7322:	20 e9       	ldi	r18, 0x90	; 144
    7324:	31 e0       	ldi	r19, 0x01	; 1
    7326:	f9 01       	movw	r30, r18
    7328:	31 97       	sbiw	r30, 0x01	; 1
    732a:	f1 f7       	brne	.-4      	; 0x7328 <ShookHands+0x54>
		{
			// wait 1/10 ms
			_delay_loop_2(((F_CPU) / 4e3) / 10);
			__ticks --;
    732c:	01 97       	sbiw	r24, 0x01	; 1
		__ticks = 1;
	else if (__tmp > 65535)
	{
		//	__ticks = requested delay in 1/10 ms
		__ticks = (uint16_t) (__ms * 10.0);
		while(__ticks)
    732e:	d9 f7       	brne	.-10     	; 0x7326 <ShookHands+0x52>

	_delay_ms(600);

	ControlSynchronous4Dof(&a[0], 11, 300, &temp_time);
    7330:	82 ed       	ldi	r24, 0xD2	; 210
    7332:	99 e0       	ldi	r25, 0x09	; 9
    7334:	6b e0       	ldi	r22, 0x0B	; 11
    7336:	4c e2       	ldi	r20, 0x2C	; 44
    7338:	51 e0       	ldi	r21, 0x01	; 1
    733a:	8e 01       	movw	r16, r28
    733c:	0f 5f       	subi	r16, 0xFF	; 255
    733e:	1f 4f       	sbci	r17, 0xFF	; 255
    7340:	98 01       	movw	r18, r16
    7342:	0e 94 96 31 	call	0x632c	; 0x632c <ControlSynchronous4Dof>
	ControlSynchronous4Dof(&a1[0], 21, 300, &temp_time);
    7346:	8a ec       	ldi	r24, 0xCA	; 202
    7348:	99 e0       	ldi	r25, 0x09	; 9
    734a:	65 e1       	ldi	r22, 0x15	; 21
    734c:	4c e2       	ldi	r20, 0x2C	; 44
    734e:	51 e0       	ldi	r21, 0x01	; 1
    7350:	98 01       	movw	r18, r16
    7352:	0e 94 96 31 	call	0x632c	; 0x632c <ControlSynchronous4Dof>
	servo_control.pActionSync();
    7356:	e0 91 e0 03 	lds	r30, 0x03E0
    735a:	f0 91 e1 03 	lds	r31, 0x03E1
    735e:	09 95       	icall
    7360:	88 eb       	ldi	r24, 0xB8	; 184
    7362:	9b e0       	ldi	r25, 0x0B	; 11
    7364:	20 e9       	ldi	r18, 0x90	; 144
    7366:	31 e0       	ldi	r19, 0x01	; 1
    7368:	f9 01       	movw	r30, r18
    736a:	31 97       	sbiw	r30, 0x01	; 1
    736c:	f1 f7       	brne	.-4      	; 0x736a <ShookHands+0x96>
		{
			// wait 1/10 ms
			_delay_loop_2(((F_CPU) / 4e3) / 10);
			__ticks --;
    736e:	01 97       	sbiw	r24, 0x01	; 1
		__ticks = 1;
	else if (__tmp > 65535)
	{
		//	__ticks = requested delay in 1/10 ms
		__ticks = (uint16_t) (__ms * 10.0);
		while(__ticks)
    7370:	d9 f7       	brne	.-10     	; 0x7368 <ShookHands+0x94>

	_delay_ms(300);

	ControlSynchronous4Dof(&a2[0], 21, 600, &temp_time);
    7372:	82 ec       	ldi	r24, 0xC2	; 194
    7374:	99 e0       	ldi	r25, 0x09	; 9
    7376:	65 e1       	ldi	r22, 0x15	; 21
    7378:	48 e5       	ldi	r20, 0x58	; 88
    737a:	52 e0       	ldi	r21, 0x02	; 2
    737c:	8e 01       	movw	r16, r28
    737e:	0f 5f       	subi	r16, 0xFF	; 255
    7380:	1f 4f       	sbci	r17, 0xFF	; 255
    7382:	98 01       	movw	r18, r16
    7384:	0e 94 96 31 	call	0x632c	; 0x632c <ControlSynchronous4Dof>
	ControlSynchronous4Dof(&b[0], 31, 600, &temp_time);
    7388:	82 eb       	ldi	r24, 0xB2	; 178
    738a:	99 e0       	ldi	r25, 0x09	; 9
    738c:	6f e1       	ldi	r22, 0x1F	; 31
    738e:	48 e5       	ldi	r20, 0x58	; 88
    7390:	52 e0       	ldi	r21, 0x02	; 2
    7392:	98 01       	movw	r18, r16
    7394:	0e 94 96 31 	call	0x632c	; 0x632c <ControlSynchronous4Dof>
	ControlSynchronous4Dof(&b1[0], 41, 600, &temp_time);
    7398:	8a ea       	ldi	r24, 0xAA	; 170
    739a:	99 e0       	ldi	r25, 0x09	; 9
    739c:	69 e2       	ldi	r22, 0x29	; 41
    739e:	48 e5       	ldi	r20, 0x58	; 88
    73a0:	52 e0       	ldi	r21, 0x02	; 2
    73a2:	98 01       	movw	r18, r16
    73a4:	0e 94 96 31 	call	0x632c	; 0x632c <ControlSynchronous4Dof>
	servo_control.pActionSync();
    73a8:	e0 91 e0 03 	lds	r30, 0x03E0
    73ac:	f0 91 e1 03 	lds	r31, 0x03E1
    73b0:	09 95       	icall
    73b2:	80 e7       	ldi	r24, 0x70	; 112
    73b4:	97 e1       	ldi	r25, 0x17	; 23
    73b6:	20 e9       	ldi	r18, 0x90	; 144
    73b8:	31 e0       	ldi	r19, 0x01	; 1
    73ba:	f9 01       	movw	r30, r18
    73bc:	31 97       	sbiw	r30, 0x01	; 1
    73be:	f1 f7       	brne	.-4      	; 0x73bc <ShookHands+0xe8>
		{
			// wait 1/10 ms
			_delay_loop_2(((F_CPU) / 4e3) / 10);
			__ticks --;
    73c0:	01 97       	sbiw	r24, 0x01	; 1
		__ticks = 1;
	else if (__tmp > 65535)
	{
		//	__ticks = requested delay in 1/10 ms
		__ticks = (uint16_t) (__ms * 10.0);
		while(__ticks)
    73c2:	d9 f7       	brne	.-10     	; 0x73ba <ShookHands+0xe6>
    73c4:	00 e0       	ldi	r16, 0x00	; 0

	_delay_ms(600);

	for(i=0;i<3;i++)
	{
		ControlSynchronous4Dof(&a3[0], 21, 300, &temp_time);
    73c6:	6e 01       	movw	r12, r28
    73c8:	08 94       	sec
    73ca:	c1 1c       	adc	r12, r1
    73cc:	d1 1c       	adc	r13, r1
    73ce:	30 e9       	ldi	r19, 0x90	; 144
    73d0:	e3 2e       	mov	r14, r19
    73d2:	31 e0       	ldi	r19, 0x01	; 1
    73d4:	f3 2e       	mov	r15, r19
    73d6:	82 ee       	ldi	r24, 0xE2	; 226
    73d8:	99 e0       	ldi	r25, 0x09	; 9
    73da:	65 e1       	ldi	r22, 0x15	; 21
    73dc:	4c e2       	ldi	r20, 0x2C	; 44
    73de:	51 e0       	ldi	r21, 0x01	; 1
    73e0:	96 01       	movw	r18, r12
    73e2:	0e 94 96 31 	call	0x632c	; 0x632c <ControlSynchronous4Dof>
		servo_control.pActionSync();
    73e6:	e0 91 e0 03 	lds	r30, 0x03E0
    73ea:	f0 91 e1 03 	lds	r31, 0x03E1
    73ee:	09 95       	icall
    73f0:	88 eb       	ldi	r24, 0xB8	; 184
    73f2:	9b e0       	ldi	r25, 0x0B	; 11
    73f4:	f7 01       	movw	r30, r14
    73f6:	31 97       	sbiw	r30, 0x01	; 1
    73f8:	f1 f7       	brne	.-4      	; 0x73f6 <ShookHands+0x122>
		{
			// wait 1/10 ms
			_delay_loop_2(((F_CPU) / 4e3) / 10);
			__ticks --;
    73fa:	01 97       	sbiw	r24, 0x01	; 1
		__ticks = 1;
	else if (__tmp > 65535)
	{
		//	__ticks = requested delay in 1/10 ms
		__ticks = (uint16_t) (__ms * 10.0);
		while(__ticks)
    73fc:	d9 f7       	brne	.-10     	; 0x73f4 <ShookHands+0x120>
		_delay_ms(300);

		ControlSynchronous4Dof(&a4[0], 21, 300, &temp_time);
    73fe:	8a ed       	ldi	r24, 0xDA	; 218
    7400:	99 e0       	ldi	r25, 0x09	; 9
    7402:	65 e1       	ldi	r22, 0x15	; 21
    7404:	4c e2       	ldi	r20, 0x2C	; 44
    7406:	51 e0       	ldi	r21, 0x01	; 1
    7408:	96 01       	movw	r18, r12
    740a:	0e 94 96 31 	call	0x632c	; 0x632c <ControlSynchronous4Dof>
		servo_control.pActionSync();
    740e:	e0 91 e0 03 	lds	r30, 0x03E0
    7412:	f0 91 e1 03 	lds	r31, 0x03E1
    7416:	09 95       	icall
    7418:	88 eb       	ldi	r24, 0xB8	; 184
    741a:	9b e0       	ldi	r25, 0x0B	; 11
    741c:	f7 01       	movw	r30, r14
    741e:	31 97       	sbiw	r30, 0x01	; 1
    7420:	f1 f7       	brne	.-4      	; 0x741e <ShookHands+0x14a>
		{
			// wait 1/10 ms
			_delay_loop_2(((F_CPU) / 4e3) / 10);
			__ticks --;
    7422:	01 97       	sbiw	r24, 0x01	; 1
		__ticks = 1;
	else if (__tmp > 65535)
	{
		//	__ticks = requested delay in 1/10 ms
		__ticks = (uint16_t) (__ms * 10.0);
		while(__ticks)
    7424:	d9 f7       	brne	.-10     	; 0x741c <ShookHands+0x148>
	ControlSynchronous4Dof(&b1[0], 41, 600, &temp_time);
	servo_control.pActionSync();

	_delay_ms(600);

	for(i=0;i<3;i++)
    7426:	0f 5f       	subi	r16, 0xFF	; 255
    7428:	03 30       	cpi	r16, 0x03	; 3
    742a:	a9 f6       	brne	.-86     	; 0x73d6 <ShookHands+0x102>
		ControlSynchronous4Dof(&a4[0], 21, 300, &temp_time);
		servo_control.pActionSync();
		_delay_ms(300);
	}

	ControlSynchronous4Dof(&a5[0], 21, 1200, &temp_time);
    742c:	8a eb       	ldi	r24, 0xBA	; 186
    742e:	99 e0       	ldi	r25, 0x09	; 9
    7430:	65 e1       	ldi	r22, 0x15	; 21
    7432:	40 eb       	ldi	r20, 0xB0	; 176
    7434:	54 e0       	ldi	r21, 0x04	; 4
    7436:	9e 01       	movw	r18, r28
    7438:	2f 5f       	subi	r18, 0xFF	; 255
    743a:	3f 4f       	sbci	r19, 0xFF	; 255
    743c:	0e 94 96 31 	call	0x632c	; 0x632c <ControlSynchronous4Dof>
	servo_control.pActionSync();
    7440:	e0 91 e0 03 	lds	r30, 0x03E0
    7444:	f0 91 e1 03 	lds	r31, 0x03E1
    7448:	09 95       	icall
    744a:	80 ee       	ldi	r24, 0xE0	; 224
    744c:	9e e2       	ldi	r25, 0x2E	; 46
    744e:	20 e9       	ldi	r18, 0x90	; 144
    7450:	31 e0       	ldi	r19, 0x01	; 1
    7452:	f9 01       	movw	r30, r18
    7454:	31 97       	sbiw	r30, 0x01	; 1
    7456:	f1 f7       	brne	.-4      	; 0x7454 <ShookHands+0x180>
		{
			// wait 1/10 ms
			_delay_loop_2(((F_CPU) / 4e3) / 10);
			__ticks --;
    7458:	01 97       	sbiw	r24, 0x01	; 1
		__ticks = 1;
	else if (__tmp > 65535)
	{
		//	__ticks = requested delay in 1/10 ms
		__ticks = (uint16_t) (__ms * 10.0);
		while(__ticks)
    745a:	d9 f7       	brne	.-10     	; 0x7452 <ShookHands+0x17e>

	_delay_ms(1200);
}
    745c:	0f 90       	pop	r0
    745e:	0f 90       	pop	r0
    7460:	cf 91       	pop	r28
    7462:	df 91       	pop	r29
    7464:	1f 91       	pop	r17
    7466:	0f 91       	pop	r16
    7468:	ff 90       	pop	r15
    746a:	ef 90       	pop	r14
    746c:	df 90       	pop	r13
    746e:	cf 90       	pop	r12
    7470:	08 95       	ret

00007472 <Urination>:
** 修订人:
** 修订日期:
**------------------------------------------------------------------------------------------------------------------------
*************************************************************************************************************************/
void Urination(void)
{
    7472:	0f 93       	push	r16
    7474:	1f 93       	push	r17
    7476:	df 93       	push	r29
    7478:	cf 93       	push	r28
    747a:	cd b7       	in	r28, 0x3d	; 61
    747c:	de b7       	in	r29, 0x3e	; 62
    747e:	2a 97       	sbiw	r28, 0x0a	; 10
    7480:	0f b6       	in	r0, 0x3f	; 63
    7482:	f8 94       	cli
    7484:	de bf       	out	0x3e, r29	; 62
    7486:	0f be       	out	0x3f, r0	; 63
    7488:	cd bf       	out	0x3d, r28	; 61
	const int16 a[4] = {170, 0, 340, 170};
	const int16 a1[4]= {0, 0, 0, 160};
    748a:	de 01       	movw	r26, r28
    748c:	13 96       	adiw	r26, 0x03	; 3
    748e:	e2 ea       	ldi	r30, 0xA2	; 162
    7490:	f9 e0       	ldi	r31, 0x09	; 9
    7492:	88 e0       	ldi	r24, 0x08	; 8
    7494:	01 90       	ld	r0, Z+
    7496:	0d 92       	st	X+, r0
    7498:	81 50       	subi	r24, 0x01	; 1
    749a:	e1 f7       	brne	.-8      	; 0x7494 <Urination+0x22>
	const int16 b2[4]= {300, 300, -80, 90};
	const int16 b3[4]= {300, 270, -40, 90};
	const int16 b4[4]= {300, 310, -110, 90};
	const int16 b5[4]= {60, 80, 120, 60};

	uint16 temp_time = 0;
    749c:	1a 82       	std	Y+2, r1	; 0x02
    749e:	19 82       	std	Y+1, r1	; 0x01

	ControlSynchronous1Dof(90, 1, 500, &temp_time);
    74a0:	8a e5       	ldi	r24, 0x5A	; 90
    74a2:	90 e0       	ldi	r25, 0x00	; 0
    74a4:	61 e0       	ldi	r22, 0x01	; 1
    74a6:	44 ef       	ldi	r20, 0xF4	; 244
    74a8:	51 e0       	ldi	r21, 0x01	; 1
    74aa:	8e 01       	movw	r16, r28
    74ac:	0f 5f       	subi	r16, 0xFF	; 255
    74ae:	1f 4f       	sbci	r17, 0xFF	; 255
    74b0:	98 01       	movw	r18, r16
    74b2:	0e 94 63 32 	call	0x64c6	; 0x64c6 <ControlSynchronous1Dof>
	ControlSynchronous1Dof(150, 2, 700, &temp_time);
    74b6:	86 e9       	ldi	r24, 0x96	; 150
    74b8:	90 e0       	ldi	r25, 0x00	; 0
    74ba:	62 e0       	ldi	r22, 0x02	; 2
    74bc:	4c eb       	ldi	r20, 0xBC	; 188
    74be:	52 e0       	ldi	r21, 0x02	; 2
    74c0:	98 01       	movw	r18, r16
    74c2:	0e 94 63 32 	call	0x64c6	; 0x64c6 <ControlSynchronous1Dof>
	servo_control.pActionSync();
    74c6:	e0 91 e0 03 	lds	r30, 0x03E0
    74ca:	f0 91 e1 03 	lds	r31, 0x03E1
    74ce:	09 95       	icall
    74d0:	80 e4       	ldi	r24, 0x40	; 64
    74d2:	9f e1       	ldi	r25, 0x1F	; 31
    74d4:	20 e9       	ldi	r18, 0x90	; 144
    74d6:	31 e0       	ldi	r19, 0x01	; 1
    74d8:	f9 01       	movw	r30, r18
    74da:	31 97       	sbiw	r30, 0x01	; 1
    74dc:	f1 f7       	brne	.-4      	; 0x74da <Urination+0x68>
		{
			// wait 1/10 ms
			_delay_loop_2(((F_CPU) / 4e3) / 10);
			__ticks --;
    74de:	01 97       	sbiw	r24, 0x01	; 1
		__ticks = 1;
	else if (__tmp > 65535)
	{
		//	__ticks = requested delay in 1/10 ms
		__ticks = (uint16_t) (__ms * 10.0);
		while(__ticks)
    74e0:	d9 f7       	brne	.-10     	; 0x74d8 <Urination+0x66>

	_delay_ms(800);

	ControlSynchronous4Dof(&a[0], 11, 1200, &temp_time);
    74e2:	8a e9       	ldi	r24, 0x9A	; 154
    74e4:	99 e0       	ldi	r25, 0x09	; 9
    74e6:	6b e0       	ldi	r22, 0x0B	; 11
    74e8:	40 eb       	ldi	r20, 0xB0	; 176
    74ea:	54 e0       	ldi	r21, 0x04	; 4
    74ec:	8e 01       	movw	r16, r28
    74ee:	0f 5f       	subi	r16, 0xFF	; 255
    74f0:	1f 4f       	sbci	r17, 0xFF	; 255
    74f2:	98 01       	movw	r18, r16
    74f4:	0e 94 96 31 	call	0x632c	; 0x632c <ControlSynchronous4Dof>
	ControlSynchronous4Dof(&a1[0], 21, 1200, &temp_time);
    74f8:	ce 01       	movw	r24, r28
    74fa:	03 96       	adiw	r24, 0x03	; 3
    74fc:	65 e1       	ldi	r22, 0x15	; 21
    74fe:	40 eb       	ldi	r20, 0xB0	; 176
    7500:	54 e0       	ldi	r21, 0x04	; 4
    7502:	98 01       	movw	r18, r16
    7504:	0e 94 96 31 	call	0x632c	; 0x632c <ControlSynchronous4Dof>
	ControlSynchronous4Dof(&b[0], 31, 1200, &temp_time);
    7508:	82 e9       	ldi	r24, 0x92	; 146
    750a:	99 e0       	ldi	r25, 0x09	; 9
    750c:	6f e1       	ldi	r22, 0x1F	; 31
    750e:	40 eb       	ldi	r20, 0xB0	; 176
    7510:	54 e0       	ldi	r21, 0x04	; 4
    7512:	98 01       	movw	r18, r16
    7514:	0e 94 96 31 	call	0x632c	; 0x632c <ControlSynchronous4Dof>
	ControlSynchronous4Dof(&b1[0], 41, 800, &temp_time);
    7518:	8a e8       	ldi	r24, 0x8A	; 138
    751a:	99 e0       	ldi	r25, 0x09	; 9
    751c:	69 e2       	ldi	r22, 0x29	; 41
    751e:	40 e2       	ldi	r20, 0x20	; 32
    7520:	53 e0       	ldi	r21, 0x03	; 3
    7522:	98 01       	movw	r18, r16
    7524:	0e 94 96 31 	call	0x632c	; 0x632c <ControlSynchronous4Dof>
	servo_control.pActionSync();
    7528:	e0 91 e0 03 	lds	r30, 0x03E0
    752c:	f0 91 e1 03 	lds	r31, 0x03E1
    7530:	09 95       	icall
    7532:	80 e4       	ldi	r24, 0x40	; 64
    7534:	9f e1       	ldi	r25, 0x1F	; 31
    7536:	20 e9       	ldi	r18, 0x90	; 144
    7538:	31 e0       	ldi	r19, 0x01	; 1
    753a:	f9 01       	movw	r30, r18
    753c:	31 97       	sbiw	r30, 0x01	; 1
    753e:	f1 f7       	brne	.-4      	; 0x753c <Urination+0xca>
		{
			// wait 1/10 ms
			_delay_loop_2(((F_CPU) / 4e3) / 10);
			__ticks --;
    7540:	01 97       	sbiw	r24, 0x01	; 1
		__ticks = 1;
	else if (__tmp > 65535)
	{
		//	__ticks = requested delay in 1/10 ms
		__ticks = (uint16_t) (__ms * 10.0);
		while(__ticks)
    7542:	d9 f7       	brne	.-10     	; 0x753a <Urination+0xc8>

	_delay_ms(800);

	ControlSynchronous4Dof(&b5[0], 31, 850, &temp_time);
    7544:	8a e6       	ldi	r24, 0x6A	; 106
    7546:	99 e0       	ldi	r25, 0x09	; 9
    7548:	6f e1       	ldi	r22, 0x1F	; 31
    754a:	42 e5       	ldi	r20, 0x52	; 82
    754c:	53 e0       	ldi	r21, 0x03	; 3
    754e:	8e 01       	movw	r16, r28
    7550:	0f 5f       	subi	r16, 0xFF	; 255
    7552:	1f 4f       	sbci	r17, 0xFF	; 255
    7554:	98 01       	movw	r18, r16
    7556:	0e 94 96 31 	call	0x632c	; 0x632c <ControlSynchronous4Dof>
	ControlSynchronous4Dof(&b2[0], 41, 850, &temp_time);
    755a:	82 e8       	ldi	r24, 0x82	; 130
    755c:	99 e0       	ldi	r25, 0x09	; 9
    755e:	69 e2       	ldi	r22, 0x29	; 41
    7560:	42 e5       	ldi	r20, 0x52	; 82
    7562:	53 e0       	ldi	r21, 0x03	; 3
    7564:	98 01       	movw	r18, r16
    7566:	0e 94 96 31 	call	0x632c	; 0x632c <ControlSynchronous4Dof>
	servo_control.pActionSync();
    756a:	e0 91 e0 03 	lds	r30, 0x03E0
    756e:	f0 91 e1 03 	lds	r31, 0x03E1
    7572:	09 95       	icall
    7574:	88 e4       	ldi	r24, 0x48	; 72
    7576:	91 e7       	ldi	r25, 0x71	; 113
    7578:	20 e9       	ldi	r18, 0x90	; 144
    757a:	31 e0       	ldi	r19, 0x01	; 1
    757c:	f9 01       	movw	r30, r18
    757e:	31 97       	sbiw	r30, 0x01	; 1
    7580:	f1 f7       	brne	.-4      	; 0x757e <Urination+0x10c>
		{
			// wait 1/10 ms
			_delay_loop_2(((F_CPU) / 4e3) / 10);
			__ticks --;
    7582:	01 97       	sbiw	r24, 0x01	; 1
		__ticks = 1;
	else if (__tmp > 65535)
	{
		//	__ticks = requested delay in 1/10 ms
		__ticks = (uint16_t) (__ms * 10.0);
		while(__ticks)
    7584:	d9 f7       	brne	.-10     	; 0x757c <Urination+0x10a>

	_delay_ms(2900);

	ControlSynchronous1Dof(-90, 1, 500, &temp_time);
    7586:	86 ea       	ldi	r24, 0xA6	; 166
    7588:	9f ef       	ldi	r25, 0xFF	; 255
    758a:	61 e0       	ldi	r22, 0x01	; 1
    758c:	44 ef       	ldi	r20, 0xF4	; 244
    758e:	51 e0       	ldi	r21, 0x01	; 1
    7590:	8e 01       	movw	r16, r28
    7592:	0f 5f       	subi	r16, 0xFF	; 255
    7594:	1f 4f       	sbci	r17, 0xFF	; 255
    7596:	98 01       	movw	r18, r16
    7598:	0e 94 63 32 	call	0x64c6	; 0x64c6 <ControlSynchronous1Dof>
	ControlSynchronous1Dof(-150, 2, 700, &temp_time);
    759c:	8a e6       	ldi	r24, 0x6A	; 106
    759e:	9f ef       	ldi	r25, 0xFF	; 255
    75a0:	62 e0       	ldi	r22, 0x02	; 2
    75a2:	4c eb       	ldi	r20, 0xBC	; 188
    75a4:	52 e0       	ldi	r21, 0x02	; 2
    75a6:	98 01       	movw	r18, r16
    75a8:	0e 94 63 32 	call	0x64c6	; 0x64c6 <ControlSynchronous1Dof>
	servo_control.pActionSync();
    75ac:	e0 91 e0 03 	lds	r30, 0x03E0
    75b0:	f0 91 e1 03 	lds	r31, 0x03E1
    75b4:	09 95       	icall
    75b6:	80 e7       	ldi	r24, 0x70	; 112
    75b8:	97 e1       	ldi	r25, 0x17	; 23
    75ba:	20 e9       	ldi	r18, 0x90	; 144
    75bc:	31 e0       	ldi	r19, 0x01	; 1
    75be:	f9 01       	movw	r30, r18
    75c0:	31 97       	sbiw	r30, 0x01	; 1
    75c2:	f1 f7       	brne	.-4      	; 0x75c0 <Urination+0x14e>
		{
			// wait 1/10 ms
			_delay_loop_2(((F_CPU) / 4e3) / 10);
			__ticks --;
    75c4:	01 97       	sbiw	r24, 0x01	; 1
		__ticks = 1;
	else if (__tmp > 65535)
	{
		//	__ticks = requested delay in 1/10 ms
		__ticks = (uint16_t) (__ms * 10.0);
		while(__ticks)
    75c6:	d9 f7       	brne	.-10     	; 0x75be <Urination+0x14c>

	_delay_ms(600);

	ControlSynchronous4Dof(&b3[0], 41, 100, &temp_time);
    75c8:	8a e7       	ldi	r24, 0x7A	; 122
    75ca:	99 e0       	ldi	r25, 0x09	; 9
    75cc:	69 e2       	ldi	r22, 0x29	; 41
    75ce:	44 e6       	ldi	r20, 0x64	; 100
    75d0:	50 e0       	ldi	r21, 0x00	; 0
    75d2:	9e 01       	movw	r18, r28
    75d4:	2f 5f       	subi	r18, 0xFF	; 255
    75d6:	3f 4f       	sbci	r19, 0xFF	; 255
    75d8:	0e 94 96 31 	call	0x632c	; 0x632c <ControlSynchronous4Dof>
	servo_control.pActionSync();
    75dc:	e0 91 e0 03 	lds	r30, 0x03E0
    75e0:	f0 91 e1 03 	lds	r31, 0x03E1
    75e4:	09 95       	icall
    75e6:	88 ee       	ldi	r24, 0xE8	; 232
    75e8:	93 e0       	ldi	r25, 0x03	; 3
    75ea:	20 e9       	ldi	r18, 0x90	; 144
    75ec:	31 e0       	ldi	r19, 0x01	; 1
    75ee:	f9 01       	movw	r30, r18
    75f0:	31 97       	sbiw	r30, 0x01	; 1
    75f2:	f1 f7       	brne	.-4      	; 0x75f0 <Urination+0x17e>
		{
			// wait 1/10 ms
			_delay_loop_2(((F_CPU) / 4e3) / 10);
			__ticks --;
    75f4:	01 97       	sbiw	r24, 0x01	; 1
		__ticks = 1;
	else if (__tmp > 65535)
	{
		//	__ticks = requested delay in 1/10 ms
		__ticks = (uint16_t) (__ms * 10.0);
		while(__ticks)
    75f6:	d9 f7       	brne	.-10     	; 0x75ee <Urination+0x17c>

	_delay_ms(100);

	ControlSynchronous4Dof(&b4[0], 41, 100, &temp_time);
    75f8:	82 e7       	ldi	r24, 0x72	; 114
    75fa:	99 e0       	ldi	r25, 0x09	; 9
    75fc:	69 e2       	ldi	r22, 0x29	; 41
    75fe:	44 e6       	ldi	r20, 0x64	; 100
    7600:	50 e0       	ldi	r21, 0x00	; 0
    7602:	9e 01       	movw	r18, r28
    7604:	2f 5f       	subi	r18, 0xFF	; 255
    7606:	3f 4f       	sbci	r19, 0xFF	; 255
    7608:	0e 94 96 31 	call	0x632c	; 0x632c <ControlSynchronous4Dof>
	servo_control.pActionSync();
    760c:	e0 91 e0 03 	lds	r30, 0x03E0
    7610:	f0 91 e1 03 	lds	r31, 0x03E1
    7614:	09 95       	icall
    7616:	88 eb       	ldi	r24, 0xB8	; 184
    7618:	9b e0       	ldi	r25, 0x0B	; 11
    761a:	20 e9       	ldi	r18, 0x90	; 144
    761c:	31 e0       	ldi	r19, 0x01	; 1
    761e:	f9 01       	movw	r30, r18
    7620:	31 97       	sbiw	r30, 0x01	; 1
    7622:	f1 f7       	brne	.-4      	; 0x7620 <Urination+0x1ae>
		{
			// wait 1/10 ms
			_delay_loop_2(((F_CPU) / 4e3) / 10);
			__ticks --;
    7624:	01 97       	sbiw	r24, 0x01	; 1
		__ticks = 1;
	else if (__tmp > 65535)
	{
		//	__ticks = requested delay in 1/10 ms
		__ticks = (uint16_t) (__ms * 10.0);
		while(__ticks)
    7626:	d9 f7       	brne	.-10     	; 0x761e <Urination+0x1ac>

	_delay_ms(300);

	ControlSynchronous4Dof(&b3[0], 41, 100, &temp_time);
    7628:	8a e7       	ldi	r24, 0x7A	; 122
    762a:	99 e0       	ldi	r25, 0x09	; 9
    762c:	69 e2       	ldi	r22, 0x29	; 41
    762e:	44 e6       	ldi	r20, 0x64	; 100
    7630:	50 e0       	ldi	r21, 0x00	; 0
    7632:	9e 01       	movw	r18, r28
    7634:	2f 5f       	subi	r18, 0xFF	; 255
    7636:	3f 4f       	sbci	r19, 0xFF	; 255
    7638:	0e 94 96 31 	call	0x632c	; 0x632c <ControlSynchronous4Dof>
	servo_control.pActionSync();
    763c:	e0 91 e0 03 	lds	r30, 0x03E0
    7640:	f0 91 e1 03 	lds	r31, 0x03E1
    7644:	09 95       	icall
    7646:	88 ee       	ldi	r24, 0xE8	; 232
    7648:	93 e0       	ldi	r25, 0x03	; 3
    764a:	20 e9       	ldi	r18, 0x90	; 144
    764c:	31 e0       	ldi	r19, 0x01	; 1
    764e:	f9 01       	movw	r30, r18
    7650:	31 97       	sbiw	r30, 0x01	; 1
    7652:	f1 f7       	brne	.-4      	; 0x7650 <Urination+0x1de>
		{
			// wait 1/10 ms
			_delay_loop_2(((F_CPU) / 4e3) / 10);
			__ticks --;
    7654:	01 97       	sbiw	r24, 0x01	; 1
		__ticks = 1;
	else if (__tmp > 65535)
	{
		//	__ticks = requested delay in 1/10 ms
		__ticks = (uint16_t) (__ms * 10.0);
		while(__ticks)
    7656:	d9 f7       	brne	.-10     	; 0x764e <Urination+0x1dc>

	_delay_ms(100);

	ControlSynchronous4Dof(&b4[0], 41, 100, &temp_time);
    7658:	82 e7       	ldi	r24, 0x72	; 114
    765a:	99 e0       	ldi	r25, 0x09	; 9
    765c:	69 e2       	ldi	r22, 0x29	; 41
    765e:	44 e6       	ldi	r20, 0x64	; 100
    7660:	50 e0       	ldi	r21, 0x00	; 0
    7662:	9e 01       	movw	r18, r28
    7664:	2f 5f       	subi	r18, 0xFF	; 255
    7666:	3f 4f       	sbci	r19, 0xFF	; 255
    7668:	0e 94 96 31 	call	0x632c	; 0x632c <ControlSynchronous4Dof>
	servo_control.pActionSync();
    766c:	e0 91 e0 03 	lds	r30, 0x03E0
    7670:	f0 91 e1 03 	lds	r31, 0x03E1
    7674:	09 95       	icall
    7676:	88 eb       	ldi	r24, 0xB8	; 184
    7678:	9b e0       	ldi	r25, 0x0B	; 11
    767a:	20 e9       	ldi	r18, 0x90	; 144
    767c:	31 e0       	ldi	r19, 0x01	; 1
    767e:	f9 01       	movw	r30, r18
    7680:	31 97       	sbiw	r30, 0x01	; 1
    7682:	f1 f7       	brne	.-4      	; 0x7680 <Urination+0x20e>
		{
			// wait 1/10 ms
			_delay_loop_2(((F_CPU) / 4e3) / 10);
			__ticks --;
    7684:	01 97       	sbiw	r24, 0x01	; 1
		__ticks = 1;
	else if (__tmp > 65535)
	{
		//	__ticks = requested delay in 1/10 ms
		__ticks = (uint16_t) (__ms * 10.0);
		while(__ticks)
    7686:	d9 f7       	brne	.-10     	; 0x767e <Urination+0x20c>

	_delay_ms(300);
}
    7688:	2a 96       	adiw	r28, 0x0a	; 10
    768a:	0f b6       	in	r0, 0x3f	; 63
    768c:	f8 94       	cli
    768e:	de bf       	out	0x3e, r29	; 62
    7690:	0f be       	out	0x3f, r0	; 63
    7692:	cd bf       	out	0x3d, r28	; 61
    7694:	cf 91       	pop	r28
    7696:	df 91       	pop	r29
    7698:	1f 91       	pop	r17
    769a:	0f 91       	pop	r16
    769c:	08 95       	ret

0000769e <GetDown>:
** 修订人:
** 修订日期:
**------------------------------------------------------------------------------------------------------------------------
*************************************************************************************************************************/
void GetDown(void)
{
    769e:	0f 93       	push	r16
    76a0:	1f 93       	push	r17
    76a2:	df 93       	push	r29
    76a4:	cf 93       	push	r28
    76a6:	00 d0       	rcall	.+0      	; 0x76a8 <GetDown+0xa>
    76a8:	cd b7       	in	r28, 0x3d	; 61
    76aa:	de b7       	in	r29, 0x3e	; 62
	const int16 a[4]= {-100, 0, 200, 240};
	const int16 b[4]= {-100, 70, 180, 240};

	uint16 temp_time = 0;
    76ac:	1a 82       	std	Y+2, r1	; 0x02
    76ae:	19 82       	std	Y+1, r1	; 0x01

	ControlSynchronous4Dof(&a[0], 11, 1000, &temp_time);
    76b0:	82 e6       	ldi	r24, 0x62	; 98
    76b2:	99 e0       	ldi	r25, 0x09	; 9
    76b4:	6b e0       	ldi	r22, 0x0B	; 11
    76b6:	48 ee       	ldi	r20, 0xE8	; 232
    76b8:	53 e0       	ldi	r21, 0x03	; 3
    76ba:	8e 01       	movw	r16, r28
    76bc:	0f 5f       	subi	r16, 0xFF	; 255
    76be:	1f 4f       	sbci	r17, 0xFF	; 255
    76c0:	98 01       	movw	r18, r16
    76c2:	0e 94 96 31 	call	0x632c	; 0x632c <ControlSynchronous4Dof>
	ControlSynchronous4Dof(&a[0], 21, 1000, &temp_time);
    76c6:	82 e6       	ldi	r24, 0x62	; 98
    76c8:	99 e0       	ldi	r25, 0x09	; 9
    76ca:	65 e1       	ldi	r22, 0x15	; 21
    76cc:	48 ee       	ldi	r20, 0xE8	; 232
    76ce:	53 e0       	ldi	r21, 0x03	; 3
    76d0:	98 01       	movw	r18, r16
    76d2:	0e 94 96 31 	call	0x632c	; 0x632c <ControlSynchronous4Dof>
	ControlSynchronous4Dof(&b[0], 31, 1000, &temp_time);
    76d6:	8a e5       	ldi	r24, 0x5A	; 90
    76d8:	99 e0       	ldi	r25, 0x09	; 9
    76da:	6f e1       	ldi	r22, 0x1F	; 31
    76dc:	48 ee       	ldi	r20, 0xE8	; 232
    76de:	53 e0       	ldi	r21, 0x03	; 3
    76e0:	98 01       	movw	r18, r16
    76e2:	0e 94 96 31 	call	0x632c	; 0x632c <ControlSynchronous4Dof>
	ControlSynchronous4Dof(&b[0], 41, 1000, &temp_time);
    76e6:	8a e5       	ldi	r24, 0x5A	; 90
    76e8:	99 e0       	ldi	r25, 0x09	; 9
    76ea:	69 e2       	ldi	r22, 0x29	; 41
    76ec:	48 ee       	ldi	r20, 0xE8	; 232
    76ee:	53 e0       	ldi	r21, 0x03	; 3
    76f0:	98 01       	movw	r18, r16
    76f2:	0e 94 96 31 	call	0x632c	; 0x632c <ControlSynchronous4Dof>
	servo_control.pActionSync();
    76f6:	e0 91 e0 03 	lds	r30, 0x03E0
    76fa:	f0 91 e1 03 	lds	r31, 0x03E1
    76fe:	09 95       	icall
    7700:	80 e1       	ldi	r24, 0x10	; 16
    7702:	97 e2       	ldi	r25, 0x27	; 39
    7704:	20 e9       	ldi	r18, 0x90	; 144
    7706:	31 e0       	ldi	r19, 0x01	; 1
    7708:	f9 01       	movw	r30, r18
    770a:	31 97       	sbiw	r30, 0x01	; 1
    770c:	f1 f7       	brne	.-4      	; 0x770a <GetDown+0x6c>
		{
			// wait 1/10 ms
			_delay_loop_2(((F_CPU) / 4e3) / 10);
			__ticks --;
    770e:	01 97       	sbiw	r24, 0x01	; 1
		__ticks = 1;
	else if (__tmp > 65535)
	{
		//	__ticks = requested delay in 1/10 ms
		__ticks = (uint16_t) (__ms * 10.0);
		while(__ticks)
    7710:	d9 f7       	brne	.-10     	; 0x7708 <GetDown+0x6a>

	_delay_ms(1000);
}
    7712:	0f 90       	pop	r0
    7714:	0f 90       	pop	r0
    7716:	cf 91       	pop	r28
    7718:	df 91       	pop	r29
    771a:	1f 91       	pop	r17
    771c:	0f 91       	pop	r16
    771e:	08 95       	ret

00007720 <Stretched>:
** 修订人:
** 修订日期:
**------------------------------------------------------------------------------------------------------------------------
*************************************************************************************************************************/
void Stretched(void)
{
    7720:	df 92       	push	r13
    7722:	ef 92       	push	r14
    7724:	ff 92       	push	r15
    7726:	0f 93       	push	r16
    7728:	1f 93       	push	r17
    772a:	df 93       	push	r29
    772c:	cf 93       	push	r28
    772e:	00 d0       	rcall	.+0      	; 0x7730 <Stretched+0x10>
    7730:	cd b7       	in	r28, 0x3d	; 61
    7732:	de b7       	in	r29, 0x3e	; 62
	uint16 temp_time = 0;
    7734:	1a 82       	std	Y+2, r1	; 0x02
    7736:	19 82       	std	Y+1, r1	; 0x01
	const int16 a2[4]= {180, 0, 0, 140};
	const int16 b2[4]= {380, 0, 0, 200};
	const int16 a3[4]= {140, 0, 280, 140};
	const int16 b3[4]= {130, 0, 240, 140};

	ControlSynchronous4Dof(&a1[0], 11, 300, &temp_time);
    7738:	8a e4       	ldi	r24, 0x4A	; 74
    773a:	99 e0       	ldi	r25, 0x09	; 9
    773c:	6b e0       	ldi	r22, 0x0B	; 11
    773e:	4c e2       	ldi	r20, 0x2C	; 44
    7740:	51 e0       	ldi	r21, 0x01	; 1
    7742:	9e 01       	movw	r18, r28
    7744:	2f 5f       	subi	r18, 0xFF	; 255
    7746:	3f 4f       	sbci	r19, 0xFF	; 255
    7748:	0e 94 96 31 	call	0x632c	; 0x632c <ControlSynchronous4Dof>
	servo_control.pActionSync();
    774c:	e0 91 e0 03 	lds	r30, 0x03E0
    7750:	f0 91 e1 03 	lds	r31, 0x03E1
    7754:	09 95       	icall
    7756:	88 eb       	ldi	r24, 0xB8	; 184
    7758:	9b e0       	ldi	r25, 0x0B	; 11
    775a:	20 e9       	ldi	r18, 0x90	; 144
    775c:	31 e0       	ldi	r19, 0x01	; 1
    775e:	f9 01       	movw	r30, r18
    7760:	31 97       	sbiw	r30, 0x01	; 1
    7762:	f1 f7       	brne	.-4      	; 0x7760 <Stretched+0x40>
		{
			// wait 1/10 ms
			_delay_loop_2(((F_CPU) / 4e3) / 10);
			__ticks --;
    7764:	01 97       	sbiw	r24, 0x01	; 1
		__ticks = 1;
	else if (__tmp > 65535)
	{
		//	__ticks = requested delay in 1/10 ms
		__ticks = (uint16_t) (__ms * 10.0);
		while(__ticks)
    7766:	d9 f7       	brne	.-10     	; 0x775e <Stretched+0x3e>

	_delay_ms(300);

	ControlSynchronous4Dof(&a[0], 11, 1200, &temp_time);
    7768:	82 e5       	ldi	r24, 0x52	; 82
    776a:	99 e0       	ldi	r25, 0x09	; 9
    776c:	6b e0       	ldi	r22, 0x0B	; 11
    776e:	40 eb       	ldi	r20, 0xB0	; 176
    7770:	54 e0       	ldi	r21, 0x04	; 4
    7772:	8e 01       	movw	r16, r28
    7774:	0f 5f       	subi	r16, 0xFF	; 255
    7776:	1f 4f       	sbci	r17, 0xFF	; 255
    7778:	98 01       	movw	r18, r16
    777a:	0e 94 96 31 	call	0x632c	; 0x632c <ControlSynchronous4Dof>
	ControlSynchronous4Dof(&a[0], 21, 1200, &temp_time);
    777e:	82 e5       	ldi	r24, 0x52	; 82
    7780:	99 e0       	ldi	r25, 0x09	; 9
    7782:	65 e1       	ldi	r22, 0x15	; 21
    7784:	40 eb       	ldi	r20, 0xB0	; 176
    7786:	54 e0       	ldi	r21, 0x04	; 4
    7788:	98 01       	movw	r18, r16
    778a:	0e 94 96 31 	call	0x632c	; 0x632c <ControlSynchronous4Dof>
	ControlSynchronous4Dof(&b[0], 31, 1200, &temp_time);
    778e:	82 e4       	ldi	r24, 0x42	; 66
    7790:	99 e0       	ldi	r25, 0x09	; 9
    7792:	6f e1       	ldi	r22, 0x1F	; 31
    7794:	40 eb       	ldi	r20, 0xB0	; 176
    7796:	54 e0       	ldi	r21, 0x04	; 4
    7798:	98 01       	movw	r18, r16
    779a:	0e 94 96 31 	call	0x632c	; 0x632c <ControlSynchronous4Dof>
	ControlSynchronous4Dof(&b[0], 41, 1200, &temp_time);
    779e:	82 e4       	ldi	r24, 0x42	; 66
    77a0:	99 e0       	ldi	r25, 0x09	; 9
    77a2:	69 e2       	ldi	r22, 0x29	; 41
    77a4:	40 eb       	ldi	r20, 0xB0	; 176
    77a6:	54 e0       	ldi	r21, 0x04	; 4
    77a8:	98 01       	movw	r18, r16
    77aa:	0e 94 96 31 	call	0x632c	; 0x632c <ControlSynchronous4Dof>
	servo_control.pActionSync();
    77ae:	e0 91 e0 03 	lds	r30, 0x03E0
    77b2:	f0 91 e1 03 	lds	r31, 0x03E1
    77b6:	09 95       	icall
    77b8:	80 ef       	ldi	r24, 0xF0	; 240
    77ba:	95 e5       	ldi	r25, 0x55	; 85
    77bc:	20 e9       	ldi	r18, 0x90	; 144
    77be:	31 e0       	ldi	r19, 0x01	; 1
    77c0:	f9 01       	movw	r30, r18
    77c2:	31 97       	sbiw	r30, 0x01	; 1
    77c4:	f1 f7       	brne	.-4      	; 0x77c2 <Stretched+0xa2>
		{
			// wait 1/10 ms
			_delay_loop_2(((F_CPU) / 4e3) / 10);
			__ticks --;
    77c6:	01 97       	sbiw	r24, 0x01	; 1
		__ticks = 1;
	else if (__tmp > 65535)
	{
		//	__ticks = requested delay in 1/10 ms
		__ticks = (uint16_t) (__ms * 10.0);
		while(__ticks)
    77c8:	d9 f7       	brne	.-10     	; 0x77c0 <Stretched+0xa0>

	_delay_ms(2200);

	ControlSynchronous4Dof(&a2[0], 11, 1200, &temp_time);
    77ca:	8a e3       	ldi	r24, 0x3A	; 58
    77cc:	99 e0       	ldi	r25, 0x09	; 9
    77ce:	6b e0       	ldi	r22, 0x0B	; 11
    77d0:	40 eb       	ldi	r20, 0xB0	; 176
    77d2:	54 e0       	ldi	r21, 0x04	; 4
    77d4:	8e 01       	movw	r16, r28
    77d6:	0f 5f       	subi	r16, 0xFF	; 255
    77d8:	1f 4f       	sbci	r17, 0xFF	; 255
    77da:	98 01       	movw	r18, r16
    77dc:	0e 94 96 31 	call	0x632c	; 0x632c <ControlSynchronous4Dof>
	ControlSynchronous4Dof(&a2[0], 21, 1200, &temp_time);
    77e0:	8a e3       	ldi	r24, 0x3A	; 58
    77e2:	99 e0       	ldi	r25, 0x09	; 9
    77e4:	65 e1       	ldi	r22, 0x15	; 21
    77e6:	40 eb       	ldi	r20, 0xB0	; 176
    77e8:	54 e0       	ldi	r21, 0x04	; 4
    77ea:	98 01       	movw	r18, r16
    77ec:	0e 94 96 31 	call	0x632c	; 0x632c <ControlSynchronous4Dof>
	ControlSynchronous4Dof(&b2[0], 31, 1200, &temp_time);
    77f0:	82 e3       	ldi	r24, 0x32	; 50
    77f2:	99 e0       	ldi	r25, 0x09	; 9
    77f4:	6f e1       	ldi	r22, 0x1F	; 31
    77f6:	40 eb       	ldi	r20, 0xB0	; 176
    77f8:	54 e0       	ldi	r21, 0x04	; 4
    77fa:	98 01       	movw	r18, r16
    77fc:	0e 94 96 31 	call	0x632c	; 0x632c <ControlSynchronous4Dof>
	ControlSynchronous4Dof(&b2[0], 41, 1200, &temp_time);
    7800:	82 e3       	ldi	r24, 0x32	; 50
    7802:	99 e0       	ldi	r25, 0x09	; 9
    7804:	69 e2       	ldi	r22, 0x29	; 41
    7806:	40 eb       	ldi	r20, 0xB0	; 176
    7808:	54 e0       	ldi	r21, 0x04	; 4
    780a:	98 01       	movw	r18, r16
    780c:	0e 94 96 31 	call	0x632c	; 0x632c <ControlSynchronous4Dof>
	servo_control.pActionSync();
    7810:	e0 91 e0 03 	lds	r30, 0x03E0
    7814:	f0 91 e1 03 	lds	r31, 0x03E1
    7818:	09 95       	icall
    781a:	80 ef       	ldi	r24, 0xF0	; 240
    781c:	95 e5       	ldi	r25, 0x55	; 85
    781e:	20 e9       	ldi	r18, 0x90	; 144
    7820:	31 e0       	ldi	r19, 0x01	; 1
    7822:	f9 01       	movw	r30, r18
    7824:	31 97       	sbiw	r30, 0x01	; 1
    7826:	f1 f7       	brne	.-4      	; 0x7824 <Stretched+0x104>
		{
			// wait 1/10 ms
			_delay_loop_2(((F_CPU) / 4e3) / 10);
			__ticks --;
    7828:	01 97       	sbiw	r24, 0x01	; 1
		__ticks = 1;
	else if (__tmp > 65535)
	{
		//	__ticks = requested delay in 1/10 ms
		__ticks = (uint16_t) (__ms * 10.0);
		while(__ticks)
    782a:	d9 f7       	brne	.-10     	; 0x7822 <Stretched+0x102>

	_delay_ms(2200);

	ControlSynchronous4Dof(&a3[0], 11, 1800, &temp_time);
    782c:	8a e2       	ldi	r24, 0x2A	; 42
    782e:	99 e0       	ldi	r25, 0x09	; 9
    7830:	6b e0       	ldi	r22, 0x0B	; 11
    7832:	48 e0       	ldi	r20, 0x08	; 8
    7834:	57 e0       	ldi	r21, 0x07	; 7
    7836:	8e 01       	movw	r16, r28
    7838:	0f 5f       	subi	r16, 0xFF	; 255
    783a:	1f 4f       	sbci	r17, 0xFF	; 255
    783c:	98 01       	movw	r18, r16
    783e:	0e 94 96 31 	call	0x632c	; 0x632c <ControlSynchronous4Dof>
	ControlSynchronous4Dof(&a3[0], 21, 1800, &temp_time);
    7842:	8a e2       	ldi	r24, 0x2A	; 42
    7844:	99 e0       	ldi	r25, 0x09	; 9
    7846:	65 e1       	ldi	r22, 0x15	; 21
    7848:	48 e0       	ldi	r20, 0x08	; 8
    784a:	57 e0       	ldi	r21, 0x07	; 7
    784c:	98 01       	movw	r18, r16
    784e:	0e 94 96 31 	call	0x632c	; 0x632c <ControlSynchronous4Dof>
	ControlSynchronous4Dof(&b3[0], 31, 1800, &temp_time);
    7852:	82 e2       	ldi	r24, 0x22	; 34
    7854:	99 e0       	ldi	r25, 0x09	; 9
    7856:	6f e1       	ldi	r22, 0x1F	; 31
    7858:	48 e0       	ldi	r20, 0x08	; 8
    785a:	57 e0       	ldi	r21, 0x07	; 7
    785c:	98 01       	movw	r18, r16
    785e:	0e 94 96 31 	call	0x632c	; 0x632c <ControlSynchronous4Dof>
	ControlSynchronous4Dof(&b3[0], 41, 1800, &temp_time);
    7862:	82 e2       	ldi	r24, 0x22	; 34
    7864:	99 e0       	ldi	r25, 0x09	; 9
    7866:	69 e2       	ldi	r22, 0x29	; 41
    7868:	48 e0       	ldi	r20, 0x08	; 8
    786a:	57 e0       	ldi	r21, 0x07	; 7
    786c:	98 01       	movw	r18, r16
    786e:	0e 94 96 31 	call	0x632c	; 0x632c <ControlSynchronous4Dof>
	servo_control.pActionSync();
    7872:	e0 91 e0 03 	lds	r30, 0x03E0
    7876:	f0 91 e1 03 	lds	r31, 0x03E1
    787a:	09 95       	icall
    787c:	80 ee       	ldi	r24, 0xE0	; 224
    787e:	9e e2       	ldi	r25, 0x2E	; 46
    7880:	20 e9       	ldi	r18, 0x90	; 144
    7882:	31 e0       	ldi	r19, 0x01	; 1
    7884:	f9 01       	movw	r30, r18
    7886:	31 97       	sbiw	r30, 0x01	; 1
    7888:	f1 f7       	brne	.-4      	; 0x7886 <Stretched+0x166>
		{
			// wait 1/10 ms
			_delay_loop_2(((F_CPU) / 4e3) / 10);
			__ticks --;
    788a:	01 97       	sbiw	r24, 0x01	; 1
		__ticks = 1;
	else if (__tmp > 65535)
	{
		//	__ticks = requested delay in 1/10 ms
		__ticks = (uint16_t) (__ms * 10.0);
		while(__ticks)
    788c:	d9 f7       	brne	.-10     	; 0x7884 <Stretched+0x164>
    788e:	dd 24       	eor	r13, r13

	_delay_ms(1200);

	for(i=0;i<3;i++)
	{
		ControlSynchronous1Dof(-10, 34, 200, &temp_time);
    7890:	7e 01       	movw	r14, r28
    7892:	08 94       	sec
    7894:	e1 1c       	adc	r14, r1
    7896:	f1 1c       	adc	r15, r1
    7898:	00 e9       	ldi	r16, 0x90	; 144
    789a:	11 e0       	ldi	r17, 0x01	; 1
    789c:	86 ef       	ldi	r24, 0xF6	; 246
    789e:	9f ef       	ldi	r25, 0xFF	; 255
    78a0:	62 e2       	ldi	r22, 0x22	; 34
    78a2:	48 ec       	ldi	r20, 0xC8	; 200
    78a4:	50 e0       	ldi	r21, 0x00	; 0
    78a6:	97 01       	movw	r18, r14
    78a8:	0e 94 63 32 	call	0x64c6	; 0x64c6 <ControlSynchronous1Dof>
		servo_control.pActionSync();
    78ac:	e0 91 e0 03 	lds	r30, 0x03E0
    78b0:	f0 91 e1 03 	lds	r31, 0x03E1
    78b4:	09 95       	icall
    78b6:	88 ee       	ldi	r24, 0xE8	; 232
    78b8:	93 e0       	ldi	r25, 0x03	; 3
    78ba:	f8 01       	movw	r30, r16
    78bc:	31 97       	sbiw	r30, 0x01	; 1
    78be:	f1 f7       	brne	.-4      	; 0x78bc <Stretched+0x19c>
		{
			// wait 1/10 ms
			_delay_loop_2(((F_CPU) / 4e3) / 10);
			__ticks --;
    78c0:	01 97       	sbiw	r24, 0x01	; 1
		__ticks = 1;
	else if (__tmp > 65535)
	{
		//	__ticks = requested delay in 1/10 ms
		__ticks = (uint16_t) (__ms * 10.0);
		while(__ticks)
    78c2:	d9 f7       	brne	.-10     	; 0x78ba <Stretched+0x19a>

		_delay_ms(100);

		ControlSynchronous1Dof(100, 34, 200, &temp_time);
    78c4:	84 e6       	ldi	r24, 0x64	; 100
    78c6:	90 e0       	ldi	r25, 0x00	; 0
    78c8:	62 e2       	ldi	r22, 0x22	; 34
    78ca:	48 ec       	ldi	r20, 0xC8	; 200
    78cc:	50 e0       	ldi	r21, 0x00	; 0
    78ce:	97 01       	movw	r18, r14
    78d0:	0e 94 63 32 	call	0x64c6	; 0x64c6 <ControlSynchronous1Dof>
		servo_control.pActionSync();
    78d4:	e0 91 e0 03 	lds	r30, 0x03E0
    78d8:	f0 91 e1 03 	lds	r31, 0x03E1
    78dc:	09 95       	icall
    78de:	88 ee       	ldi	r24, 0xE8	; 232
    78e0:	93 e0       	ldi	r25, 0x03	; 3
    78e2:	f8 01       	movw	r30, r16
    78e4:	31 97       	sbiw	r30, 0x01	; 1
    78e6:	f1 f7       	brne	.-4      	; 0x78e4 <Stretched+0x1c4>
		{
			// wait 1/10 ms
			_delay_loop_2(((F_CPU) / 4e3) / 10);
			__ticks --;
    78e8:	01 97       	sbiw	r24, 0x01	; 1
		__ticks = 1;
	else if (__tmp > 65535)
	{
		//	__ticks = requested delay in 1/10 ms
		__ticks = (uint16_t) (__ms * 10.0);
		while(__ticks)
    78ea:	d9 f7       	brne	.-10     	; 0x78e2 <Stretched+0x1c2>

		_delay_ms(100);

		ControlSynchronous1Dof(-10, 44, 200, &temp_time);
    78ec:	86 ef       	ldi	r24, 0xF6	; 246
    78ee:	9f ef       	ldi	r25, 0xFF	; 255
    78f0:	6c e2       	ldi	r22, 0x2C	; 44
    78f2:	48 ec       	ldi	r20, 0xC8	; 200
    78f4:	50 e0       	ldi	r21, 0x00	; 0
    78f6:	97 01       	movw	r18, r14
    78f8:	0e 94 63 32 	call	0x64c6	; 0x64c6 <ControlSynchronous1Dof>
		servo_control.pActionSync();
    78fc:	e0 91 e0 03 	lds	r30, 0x03E0
    7900:	f0 91 e1 03 	lds	r31, 0x03E1
    7904:	09 95       	icall
    7906:	88 ee       	ldi	r24, 0xE8	; 232
    7908:	93 e0       	ldi	r25, 0x03	; 3
    790a:	f8 01       	movw	r30, r16
    790c:	31 97       	sbiw	r30, 0x01	; 1
    790e:	f1 f7       	brne	.-4      	; 0x790c <Stretched+0x1ec>
		{
			// wait 1/10 ms
			_delay_loop_2(((F_CPU) / 4e3) / 10);
			__ticks --;
    7910:	01 97       	sbiw	r24, 0x01	; 1
		__ticks = 1;
	else if (__tmp > 65535)
	{
		//	__ticks = requested delay in 1/10 ms
		__ticks = (uint16_t) (__ms * 10.0);
		while(__ticks)
    7912:	d9 f7       	brne	.-10     	; 0x790a <Stretched+0x1ea>

		_delay_ms(100);

		ControlSynchronous1Dof(100, 44, 200, &temp_time);
    7914:	84 e6       	ldi	r24, 0x64	; 100
    7916:	90 e0       	ldi	r25, 0x00	; 0
    7918:	6c e2       	ldi	r22, 0x2C	; 44
    791a:	48 ec       	ldi	r20, 0xC8	; 200
    791c:	50 e0       	ldi	r21, 0x00	; 0
    791e:	97 01       	movw	r18, r14
    7920:	0e 94 63 32 	call	0x64c6	; 0x64c6 <ControlSynchronous1Dof>
		servo_control.pActionSync();
    7924:	e0 91 e0 03 	lds	r30, 0x03E0
    7928:	f0 91 e1 03 	lds	r31, 0x03E1
    792c:	09 95       	icall
    792e:	88 ee       	ldi	r24, 0xE8	; 232
    7930:	93 e0       	ldi	r25, 0x03	; 3
    7932:	f8 01       	movw	r30, r16
    7934:	31 97       	sbiw	r30, 0x01	; 1
    7936:	f1 f7       	brne	.-4      	; 0x7934 <Stretched+0x214>
		{
			// wait 1/10 ms
			_delay_loop_2(((F_CPU) / 4e3) / 10);
			__ticks --;
    7938:	01 97       	sbiw	r24, 0x01	; 1
		__ticks = 1;
	else if (__tmp > 65535)
	{
		//	__ticks = requested delay in 1/10 ms
		__ticks = (uint16_t) (__ms * 10.0);
		while(__ticks)
    793a:	d9 f7       	brne	.-10     	; 0x7932 <Stretched+0x212>
	ControlSynchronous4Dof(&b3[0], 41, 1800, &temp_time);
	servo_control.pActionSync();

	_delay_ms(1200);

	for(i=0;i<3;i++)
    793c:	d3 94       	inc	r13
    793e:	83 e0       	ldi	r24, 0x03	; 3
    7940:	d8 16       	cp	r13, r24
    7942:	09 f0       	breq	.+2      	; 0x7946 <Stretched+0x226>
    7944:	ab cf       	rjmp	.-170    	; 0x789c <Stretched+0x17c>
		ControlSynchronous1Dof(100, 44, 200, &temp_time);
		servo_control.pActionSync();

		_delay_ms(100);
	}
}
    7946:	0f 90       	pop	r0
    7948:	0f 90       	pop	r0
    794a:	cf 91       	pop	r28
    794c:	df 91       	pop	r29
    794e:	1f 91       	pop	r17
    7950:	0f 91       	pop	r16
    7952:	ff 90       	pop	r15
    7954:	ef 90       	pop	r14
    7956:	df 90       	pop	r13
    7958:	08 95       	ret

0000795a <Scratched>:
** 修订人:
** 修订日期:
**------------------------------------------------------------------------------------------------------------------------
*************************************************************************************************************************/
void Scratched(void)
{
    795a:	cf 92       	push	r12
    795c:	df 92       	push	r13
    795e:	ff 92       	push	r15
    7960:	0f 93       	push	r16
    7962:	1f 93       	push	r17
    7964:	df 93       	push	r29
    7966:	cf 93       	push	r28
    7968:	00 d0       	rcall	.+0      	; 0x796a <Scratched+0x10>
    796a:	cd b7       	in	r28, 0x3d	; 61
    796c:	de b7       	in	r29, 0x3e	; 62
	const int16 b[4]= {-100, -70, 180, 240};
	const int16 b1[4]= {-280, 30, 180, 240};

	uint8 i;

	uint16 temp_time = 0;
    796e:	1a 82       	std	Y+2, r1	; 0x02
    7970:	19 82       	std	Y+1, r1	; 0x01

	ControlSynchronous4Dof(&a[0], 11, 400, &temp_time);
    7972:	8a e1       	ldi	r24, 0x1A	; 26
    7974:	99 e0       	ldi	r25, 0x09	; 9
    7976:	6b e0       	ldi	r22, 0x0B	; 11
    7978:	40 e9       	ldi	r20, 0x90	; 144
    797a:	51 e0       	ldi	r21, 0x01	; 1
    797c:	8e 01       	movw	r16, r28
    797e:	0f 5f       	subi	r16, 0xFF	; 255
    7980:	1f 4f       	sbci	r17, 0xFF	; 255
    7982:	98 01       	movw	r18, r16
    7984:	0e 94 96 31 	call	0x632c	; 0x632c <ControlSynchronous4Dof>
	ControlSynchronous4Dof(&a1[0], 21, 500, &temp_time);
    7988:	82 e1       	ldi	r24, 0x12	; 18
    798a:	99 e0       	ldi	r25, 0x09	; 9
    798c:	65 e1       	ldi	r22, 0x15	; 21
    798e:	44 ef       	ldi	r20, 0xF4	; 244
    7990:	51 e0       	ldi	r21, 0x01	; 1
    7992:	98 01       	movw	r18, r16
    7994:	0e 94 96 31 	call	0x632c	; 0x632c <ControlSynchronous4Dof>
	ControlSynchronous4Dof(&b[0], 31, 500, &temp_time);
    7998:	8a e0       	ldi	r24, 0x0A	; 10
    799a:	99 e0       	ldi	r25, 0x09	; 9
    799c:	6f e1       	ldi	r22, 0x1F	; 31
    799e:	44 ef       	ldi	r20, 0xF4	; 244
    79a0:	51 e0       	ldi	r21, 0x01	; 1
    79a2:	98 01       	movw	r18, r16
    79a4:	0e 94 96 31 	call	0x632c	; 0x632c <ControlSynchronous4Dof>
	ControlSynchronous4Dof(&b1[0], 41, 800, &temp_time);
    79a8:	82 e0       	ldi	r24, 0x02	; 2
    79aa:	99 e0       	ldi	r25, 0x09	; 9
    79ac:	69 e2       	ldi	r22, 0x29	; 41
    79ae:	40 e2       	ldi	r20, 0x20	; 32
    79b0:	53 e0       	ldi	r21, 0x03	; 3
    79b2:	98 01       	movw	r18, r16
    79b4:	0e 94 96 31 	call	0x632c	; 0x632c <ControlSynchronous4Dof>
	servo_control.pActionSync();
    79b8:	e0 91 e0 03 	lds	r30, 0x03E0
    79bc:	f0 91 e1 03 	lds	r31, 0x03E1
    79c0:	09 95       	icall
    79c2:	80 ed       	ldi	r24, 0xD0	; 208
    79c4:	97 e0       	ldi	r25, 0x07	; 7
    79c6:	20 e9       	ldi	r18, 0x90	; 144
    79c8:	31 e0       	ldi	r19, 0x01	; 1
    79ca:	f9 01       	movw	r30, r18
    79cc:	31 97       	sbiw	r30, 0x01	; 1
    79ce:	f1 f7       	brne	.-4      	; 0x79cc <Scratched+0x72>
		{
			// wait 1/10 ms
			_delay_loop_2(((F_CPU) / 4e3) / 10);
			__ticks --;
    79d0:	01 97       	sbiw	r24, 0x01	; 1
		__ticks = 1;
	else if (__tmp > 65535)
	{
		//	__ticks = requested delay in 1/10 ms
		__ticks = (uint16_t) (__ms * 10.0);
		while(__ticks)
    79d2:	d9 f7       	brne	.-10     	; 0x79ca <Scratched+0x70>

	_delay_ms(200);

	ControlSynchronous1Dof(-250, 1, 500, &temp_time);
    79d4:	86 e0       	ldi	r24, 0x06	; 6
    79d6:	9f ef       	ldi	r25, 0xFF	; 255
    79d8:	61 e0       	ldi	r22, 0x01	; 1
    79da:	44 ef       	ldi	r20, 0xF4	; 244
    79dc:	51 e0       	ldi	r21, 0x01	; 1
    79de:	8e 01       	movw	r16, r28
    79e0:	0f 5f       	subi	r16, 0xFF	; 255
    79e2:	1f 4f       	sbci	r17, 0xFF	; 255
    79e4:	98 01       	movw	r18, r16
    79e6:	0e 94 63 32 	call	0x64c6	; 0x64c6 <ControlSynchronous1Dof>
	ControlSynchronous1Dof(-100, 2, 700, &temp_time);
    79ea:	8c e9       	ldi	r24, 0x9C	; 156
    79ec:	9f ef       	ldi	r25, 0xFF	; 255
    79ee:	62 e0       	ldi	r22, 0x02	; 2
    79f0:	4c eb       	ldi	r20, 0xBC	; 188
    79f2:	52 e0       	ldi	r21, 0x02	; 2
    79f4:	98 01       	movw	r18, r16
    79f6:	0e 94 63 32 	call	0x64c6	; 0x64c6 <ControlSynchronous1Dof>
	servo_control.pActionSync();
    79fa:	e0 91 e0 03 	lds	r30, 0x03E0
    79fe:	f0 91 e1 03 	lds	r31, 0x03E1
    7a02:	09 95       	icall
    7a04:	88 ec       	ldi	r24, 0xC8	; 200
    7a06:	92 e3       	ldi	r25, 0x32	; 50
    7a08:	20 e9       	ldi	r18, 0x90	; 144
    7a0a:	31 e0       	ldi	r19, 0x01	; 1
    7a0c:	f9 01       	movw	r30, r18
    7a0e:	31 97       	sbiw	r30, 0x01	; 1
    7a10:	f1 f7       	brne	.-4      	; 0x7a0e <Scratched+0xb4>
		{
			// wait 1/10 ms
			_delay_loop_2(((F_CPU) / 4e3) / 10);
			__ticks --;
    7a12:	01 97       	sbiw	r24, 0x01	; 1
		__ticks = 1;
	else if (__tmp > 65535)
	{
		//	__ticks = requested delay in 1/10 ms
		__ticks = (uint16_t) (__ms * 10.0);
		while(__ticks)
    7a14:	d9 f7       	brne	.-10     	; 0x7a0c <Scratched+0xb2>
    7a16:	ff 24       	eor	r15, r15

	_delay_ms(1300);

	for(i=0;i<2;i++)
	{
		ControlSynchronous1Dof(230, 43, 200, &temp_time);
    7a18:	8e 01       	movw	r16, r28
    7a1a:	0f 5f       	subi	r16, 0xFF	; 255
    7a1c:	1f 4f       	sbci	r17, 0xFF	; 255
    7a1e:	60 e9       	ldi	r22, 0x90	; 144
    7a20:	c6 2e       	mov	r12, r22
    7a22:	61 e0       	ldi	r22, 0x01	; 1
    7a24:	d6 2e       	mov	r13, r22
    7a26:	86 ee       	ldi	r24, 0xE6	; 230
    7a28:	90 e0       	ldi	r25, 0x00	; 0
    7a2a:	6b e2       	ldi	r22, 0x2B	; 43
    7a2c:	48 ec       	ldi	r20, 0xC8	; 200
    7a2e:	50 e0       	ldi	r21, 0x00	; 0
    7a30:	98 01       	movw	r18, r16
    7a32:	0e 94 63 32 	call	0x64c6	; 0x64c6 <ControlSynchronous1Dof>
		ControlSynchronous1Dof(190, 44, 200, &temp_time);
    7a36:	8e eb       	ldi	r24, 0xBE	; 190
    7a38:	90 e0       	ldi	r25, 0x00	; 0
    7a3a:	6c e2       	ldi	r22, 0x2C	; 44
    7a3c:	48 ec       	ldi	r20, 0xC8	; 200
    7a3e:	50 e0       	ldi	r21, 0x00	; 0
    7a40:	98 01       	movw	r18, r16
    7a42:	0e 94 63 32 	call	0x64c6	; 0x64c6 <ControlSynchronous1Dof>
		servo_control.pActionSync();
    7a46:	e0 91 e0 03 	lds	r30, 0x03E0
    7a4a:	f0 91 e1 03 	lds	r31, 0x03E1
    7a4e:	09 95       	icall
    7a50:	80 ed       	ldi	r24, 0xD0	; 208
    7a52:	97 e0       	ldi	r25, 0x07	; 7
    7a54:	f6 01       	movw	r30, r12
    7a56:	31 97       	sbiw	r30, 0x01	; 1
    7a58:	f1 f7       	brne	.-4      	; 0x7a56 <Scratched+0xfc>
		{
			// wait 1/10 ms
			_delay_loop_2(((F_CPU) / 4e3) / 10);
			__ticks --;
    7a5a:	01 97       	sbiw	r24, 0x01	; 1
		__ticks = 1;
	else if (__tmp > 65535)
	{
		//	__ticks = requested delay in 1/10 ms
		__ticks = (uint16_t) (__ms * 10.0);
		while(__ticks)
    7a5c:	d9 f7       	brne	.-10     	; 0x7a54 <Scratched+0xfa>

		_delay_ms(200);

		ControlSynchronous1Dof(180, 43, 50, &temp_time);
    7a5e:	84 eb       	ldi	r24, 0xB4	; 180
    7a60:	90 e0       	ldi	r25, 0x00	; 0
    7a62:	6b e2       	ldi	r22, 0x2B	; 43
    7a64:	42 e3       	ldi	r20, 0x32	; 50
    7a66:	50 e0       	ldi	r21, 0x00	; 0
    7a68:	98 01       	movw	r18, r16
    7a6a:	0e 94 63 32 	call	0x64c6	; 0x64c6 <ControlSynchronous1Dof>
		ControlSynchronous1Dof(240, 44, 50, &temp_time);
    7a6e:	80 ef       	ldi	r24, 0xF0	; 240
    7a70:	90 e0       	ldi	r25, 0x00	; 0
    7a72:	6c e2       	ldi	r22, 0x2C	; 44
    7a74:	42 e3       	ldi	r20, 0x32	; 50
    7a76:	50 e0       	ldi	r21, 0x00	; 0
    7a78:	98 01       	movw	r18, r16
    7a7a:	0e 94 63 32 	call	0x64c6	; 0x64c6 <ControlSynchronous1Dof>
		servo_control.pActionSync();
    7a7e:	e0 91 e0 03 	lds	r30, 0x03E0
    7a82:	f0 91 e1 03 	lds	r31, 0x03E1
    7a86:	09 95       	icall
    7a88:	88 ee       	ldi	r24, 0xE8	; 232
    7a8a:	93 e0       	ldi	r25, 0x03	; 3
    7a8c:	f6 01       	movw	r30, r12
    7a8e:	31 97       	sbiw	r30, 0x01	; 1
    7a90:	f1 f7       	brne	.-4      	; 0x7a8e <Scratched+0x134>
		{
			// wait 1/10 ms
			_delay_loop_2(((F_CPU) / 4e3) / 10);
			__ticks --;
    7a92:	01 97       	sbiw	r24, 0x01	; 1
		__ticks = 1;
	else if (__tmp > 65535)
	{
		//	__ticks = requested delay in 1/10 ms
		__ticks = (uint16_t) (__ms * 10.0);
		while(__ticks)
    7a94:	d9 f7       	brne	.-10     	; 0x7a8c <Scratched+0x132>
	ControlSynchronous1Dof(-100, 2, 700, &temp_time);
	servo_control.pActionSync();

	_delay_ms(1300);

	for(i=0;i<2;i++)
    7a96:	f3 94       	inc	r15
    7a98:	82 e0       	ldi	r24, 0x02	; 2
    7a9a:	f8 16       	cp	r15, r24
    7a9c:	09 f0       	breq	.+2      	; 0x7aa0 <Scratched+0x146>
    7a9e:	c3 cf       	rjmp	.-122    	; 0x7a26 <Scratched+0xcc>
    7aa0:	88 e8       	ldi	r24, 0x88	; 136
    7aa2:	93 e1       	ldi	r25, 0x13	; 19
    7aa4:	20 e9       	ldi	r18, 0x90	; 144
    7aa6:	31 e0       	ldi	r19, 0x01	; 1
    7aa8:	f9 01       	movw	r30, r18
    7aaa:	31 97       	sbiw	r30, 0x01	; 1
    7aac:	f1 f7       	brne	.-4      	; 0x7aaa <Scratched+0x150>
		{
			// wait 1/10 ms
			_delay_loop_2(((F_CPU) / 4e3) / 10);
			__ticks --;
    7aae:	01 97       	sbiw	r24, 0x01	; 1
		__ticks = 1;
	else if (__tmp > 65535)
	{
		//	__ticks = requested delay in 1/10 ms
		__ticks = (uint16_t) (__ms * 10.0);
		while(__ticks)
    7ab0:	d9 f7       	brne	.-10     	; 0x7aa8 <Scratched+0x14e>
    7ab2:	ff 24       	eor	r15, r15

	_delay_ms(500);

	for(i=0;i<6;i++)
	{
		ControlSynchronous1Dof(230, 43, 100, &temp_time);
    7ab4:	8e 01       	movw	r16, r28
    7ab6:	0f 5f       	subi	r16, 0xFF	; 255
    7ab8:	1f 4f       	sbci	r17, 0xFF	; 255
    7aba:	50 e9       	ldi	r21, 0x90	; 144
    7abc:	c5 2e       	mov	r12, r21
    7abe:	51 e0       	ldi	r21, 0x01	; 1
    7ac0:	d5 2e       	mov	r13, r21
    7ac2:	86 ee       	ldi	r24, 0xE6	; 230
    7ac4:	90 e0       	ldi	r25, 0x00	; 0
    7ac6:	6b e2       	ldi	r22, 0x2B	; 43
    7ac8:	44 e6       	ldi	r20, 0x64	; 100
    7aca:	50 e0       	ldi	r21, 0x00	; 0
    7acc:	98 01       	movw	r18, r16
    7ace:	0e 94 63 32 	call	0x64c6	; 0x64c6 <ControlSynchronous1Dof>
		ControlSynchronous1Dof(190, 44, 100, &temp_time);
    7ad2:	8e eb       	ldi	r24, 0xBE	; 190
    7ad4:	90 e0       	ldi	r25, 0x00	; 0
    7ad6:	6c e2       	ldi	r22, 0x2C	; 44
    7ad8:	44 e6       	ldi	r20, 0x64	; 100
    7ada:	50 e0       	ldi	r21, 0x00	; 0
    7adc:	98 01       	movw	r18, r16
    7ade:	0e 94 63 32 	call	0x64c6	; 0x64c6 <ControlSynchronous1Dof>
		servo_control.pActionSync();
    7ae2:	e0 91 e0 03 	lds	r30, 0x03E0
    7ae6:	f0 91 e1 03 	lds	r31, 0x03E1
    7aea:	09 95       	icall
    7aec:	88 ee       	ldi	r24, 0xE8	; 232
    7aee:	93 e0       	ldi	r25, 0x03	; 3
    7af0:	f6 01       	movw	r30, r12
    7af2:	31 97       	sbiw	r30, 0x01	; 1
    7af4:	f1 f7       	brne	.-4      	; 0x7af2 <Scratched+0x198>
		{
			// wait 1/10 ms
			_delay_loop_2(((F_CPU) / 4e3) / 10);
			__ticks --;
    7af6:	01 97       	sbiw	r24, 0x01	; 1
		__ticks = 1;
	else if (__tmp > 65535)
	{
		//	__ticks = requested delay in 1/10 ms
		__ticks = (uint16_t) (__ms * 10.0);
		while(__ticks)
    7af8:	d9 f7       	brne	.-10     	; 0x7af0 <Scratched+0x196>

		_delay_ms(100);

		ControlSynchronous1Dof(180, 43, 50, &temp_time);
    7afa:	84 eb       	ldi	r24, 0xB4	; 180
    7afc:	90 e0       	ldi	r25, 0x00	; 0
    7afe:	6b e2       	ldi	r22, 0x2B	; 43
    7b00:	42 e3       	ldi	r20, 0x32	; 50
    7b02:	50 e0       	ldi	r21, 0x00	; 0
    7b04:	98 01       	movw	r18, r16
    7b06:	0e 94 63 32 	call	0x64c6	; 0x64c6 <ControlSynchronous1Dof>
		ControlSynchronous1Dof(240, 44, 50, &temp_time);
    7b0a:	80 ef       	ldi	r24, 0xF0	; 240
    7b0c:	90 e0       	ldi	r25, 0x00	; 0
    7b0e:	6c e2       	ldi	r22, 0x2C	; 44
    7b10:	42 e3       	ldi	r20, 0x32	; 50
    7b12:	50 e0       	ldi	r21, 0x00	; 0
    7b14:	98 01       	movw	r18, r16
    7b16:	0e 94 63 32 	call	0x64c6	; 0x64c6 <ControlSynchronous1Dof>
		servo_control.pActionSync();
    7b1a:	e0 91 e0 03 	lds	r30, 0x03E0
    7b1e:	f0 91 e1 03 	lds	r31, 0x03E1
    7b22:	09 95       	icall
    7b24:	84 ef       	ldi	r24, 0xF4	; 244
    7b26:	91 e0       	ldi	r25, 0x01	; 1
    7b28:	f6 01       	movw	r30, r12
    7b2a:	31 97       	sbiw	r30, 0x01	; 1
    7b2c:	f1 f7       	brne	.-4      	; 0x7b2a <Scratched+0x1d0>
		{
			// wait 1/10 ms
			_delay_loop_2(((F_CPU) / 4e3) / 10);
			__ticks --;
    7b2e:	01 97       	sbiw	r24, 0x01	; 1
		__ticks = 1;
	else if (__tmp > 65535)
	{
		//	__ticks = requested delay in 1/10 ms
		__ticks = (uint16_t) (__ms * 10.0);
		while(__ticks)
    7b30:	d9 f7       	brne	.-10     	; 0x7b28 <Scratched+0x1ce>
		_delay_ms(100);
	}

	_delay_ms(500);

	for(i=0;i<6;i++)
    7b32:	f3 94       	inc	r15
    7b34:	86 e0       	ldi	r24, 0x06	; 6
    7b36:	f8 16       	cp	r15, r24
    7b38:	09 f0       	breq	.+2      	; 0x7b3c <Scratched+0x1e2>
    7b3a:	c3 cf       	rjmp	.-122    	; 0x7ac2 <Scratched+0x168>
    7b3c:	88 e5       	ldi	r24, 0x58	; 88
    7b3e:	9b e1       	ldi	r25, 0x1B	; 27
    7b40:	20 e9       	ldi	r18, 0x90	; 144
    7b42:	31 e0       	ldi	r19, 0x01	; 1
    7b44:	f9 01       	movw	r30, r18
    7b46:	31 97       	sbiw	r30, 0x01	; 1
    7b48:	f1 f7       	brne	.-4      	; 0x7b46 <Scratched+0x1ec>
		{
			// wait 1/10 ms
			_delay_loop_2(((F_CPU) / 4e3) / 10);
			__ticks --;
    7b4a:	01 97       	sbiw	r24, 0x01	; 1
		__ticks = 1;
	else if (__tmp > 65535)
	{
		//	__ticks = requested delay in 1/10 ms
		__ticks = (uint16_t) (__ms * 10.0);
		while(__ticks)
    7b4c:	d9 f7       	brne	.-10     	; 0x7b44 <Scratched+0x1ea>
    7b4e:	ff 24       	eor	r15, r15

	_delay_ms(700);

	for(i=0;i<2;i++)
	{
		ControlSynchronous1Dof(230, 43, 200, &temp_time);
    7b50:	8e 01       	movw	r16, r28
    7b52:	0f 5f       	subi	r16, 0xFF	; 255
    7b54:	1f 4f       	sbci	r17, 0xFF	; 255
    7b56:	40 e9       	ldi	r20, 0x90	; 144
    7b58:	c4 2e       	mov	r12, r20
    7b5a:	41 e0       	ldi	r20, 0x01	; 1
    7b5c:	d4 2e       	mov	r13, r20
    7b5e:	86 ee       	ldi	r24, 0xE6	; 230
    7b60:	90 e0       	ldi	r25, 0x00	; 0
    7b62:	6b e2       	ldi	r22, 0x2B	; 43
    7b64:	48 ec       	ldi	r20, 0xC8	; 200
    7b66:	50 e0       	ldi	r21, 0x00	; 0
    7b68:	98 01       	movw	r18, r16
    7b6a:	0e 94 63 32 	call	0x64c6	; 0x64c6 <ControlSynchronous1Dof>
		ControlSynchronous1Dof(190, 44, 200, &temp_time);
    7b6e:	8e eb       	ldi	r24, 0xBE	; 190
    7b70:	90 e0       	ldi	r25, 0x00	; 0
    7b72:	6c e2       	ldi	r22, 0x2C	; 44
    7b74:	48 ec       	ldi	r20, 0xC8	; 200
    7b76:	50 e0       	ldi	r21, 0x00	; 0
    7b78:	98 01       	movw	r18, r16
    7b7a:	0e 94 63 32 	call	0x64c6	; 0x64c6 <ControlSynchronous1Dof>
		servo_control.pActionSync();
    7b7e:	e0 91 e0 03 	lds	r30, 0x03E0
    7b82:	f0 91 e1 03 	lds	r31, 0x03E1
    7b86:	09 95       	icall
    7b88:	80 ed       	ldi	r24, 0xD0	; 208
    7b8a:	97 e0       	ldi	r25, 0x07	; 7
    7b8c:	f6 01       	movw	r30, r12
    7b8e:	31 97       	sbiw	r30, 0x01	; 1
    7b90:	f1 f7       	brne	.-4      	; 0x7b8e <Scratched+0x234>
		{
			// wait 1/10 ms
			_delay_loop_2(((F_CPU) / 4e3) / 10);
			__ticks --;
    7b92:	01 97       	sbiw	r24, 0x01	; 1
		__ticks = 1;
	else if (__tmp > 65535)
	{
		//	__ticks = requested delay in 1/10 ms
		__ticks = (uint16_t) (__ms * 10.0);
		while(__ticks)
    7b94:	d9 f7       	brne	.-10     	; 0x7b8c <Scratched+0x232>

		_delay_ms(200);

		ControlSynchronous1Dof(180, 43, 50, &temp_time);
    7b96:	84 eb       	ldi	r24, 0xB4	; 180
    7b98:	90 e0       	ldi	r25, 0x00	; 0
    7b9a:	6b e2       	ldi	r22, 0x2B	; 43
    7b9c:	42 e3       	ldi	r20, 0x32	; 50
    7b9e:	50 e0       	ldi	r21, 0x00	; 0
    7ba0:	98 01       	movw	r18, r16
    7ba2:	0e 94 63 32 	call	0x64c6	; 0x64c6 <ControlSynchronous1Dof>
		ControlSynchronous1Dof(240, 44, 50, &temp_time);
    7ba6:	80 ef       	ldi	r24, 0xF0	; 240
    7ba8:	90 e0       	ldi	r25, 0x00	; 0
    7baa:	6c e2       	ldi	r22, 0x2C	; 44
    7bac:	42 e3       	ldi	r20, 0x32	; 50
    7bae:	50 e0       	ldi	r21, 0x00	; 0
    7bb0:	98 01       	movw	r18, r16
    7bb2:	0e 94 63 32 	call	0x64c6	; 0x64c6 <ControlSynchronous1Dof>
		servo_control.pActionSync();
    7bb6:	e0 91 e0 03 	lds	r30, 0x03E0
    7bba:	f0 91 e1 03 	lds	r31, 0x03E1
    7bbe:	09 95       	icall
    7bc0:	88 ee       	ldi	r24, 0xE8	; 232
    7bc2:	93 e0       	ldi	r25, 0x03	; 3
    7bc4:	f6 01       	movw	r30, r12
    7bc6:	31 97       	sbiw	r30, 0x01	; 1
    7bc8:	f1 f7       	brne	.-4      	; 0x7bc6 <Scratched+0x26c>
		{
			// wait 1/10 ms
			_delay_loop_2(((F_CPU) / 4e3) / 10);
			__ticks --;
    7bca:	01 97       	sbiw	r24, 0x01	; 1
		__ticks = 1;
	else if (__tmp > 65535)
	{
		//	__ticks = requested delay in 1/10 ms
		__ticks = (uint16_t) (__ms * 10.0);
		while(__ticks)
    7bcc:	d9 f7       	brne	.-10     	; 0x7bc4 <Scratched+0x26a>
		_delay_ms(50);
	}

	_delay_ms(700);

	for(i=0;i<2;i++)
    7bce:	f3 94       	inc	r15
    7bd0:	82 e0       	ldi	r24, 0x02	; 2
    7bd2:	f8 16       	cp	r15, r24
    7bd4:	09 f0       	breq	.+2      	; 0x7bd8 <Scratched+0x27e>
    7bd6:	c3 cf       	rjmp	.-122    	; 0x7b5e <Scratched+0x204>
		ControlSynchronous1Dof(240, 44, 50, &temp_time);
		servo_control.pActionSync();

		_delay_ms(100);
	}
}
    7bd8:	0f 90       	pop	r0
    7bda:	0f 90       	pop	r0
    7bdc:	cf 91       	pop	r28
    7bde:	df 91       	pop	r29
    7be0:	1f 91       	pop	r17
    7be2:	0f 91       	pop	r16
    7be4:	ff 90       	pop	r15
    7be6:	df 90       	pop	r13
    7be8:	cf 90       	pop	r12
    7bea:	08 95       	ret

00007bec <RobotDog_Behavior>:
** 修订人:
** 修订日期:
**------------------------------------------------------------------------------------------------------------------------
*************************************************************************************************************************/
void RobotDog_Behavior(void)
{
    7bec:	df 93       	push	r29
    7bee:	cf 93       	push	r28
    7bf0:	0f 92       	push	r0
    7bf2:	cd b7       	in	r28, 0x3d	; 61
    7bf4:	de b7       	in	r29, 0x3e	; 62
	uint8 temp_value = 0;
    7bf6:	19 82       	std	Y+1, r1	; 0x01

	signal_control.pGetByte(ADDR_BEHAVIOR, &temp_value);
    7bf8:	e0 91 2a 04 	lds	r30, 0x042A
    7bfc:	f0 91 2b 04 	lds	r31, 0x042B
    7c00:	80 e0       	ldi	r24, 0x00	; 0
    7c02:	be 01       	movw	r22, r28
    7c04:	6f 5f       	subi	r22, 0xFF	; 255
    7c06:	7f 4f       	sbci	r23, 0xFF	; 255
    7c08:	09 95       	icall

	switch (temp_value)
    7c0a:	89 81       	ldd	r24, Y+1	; 0x01
    7c0c:	85 30       	cpi	r24, 0x05	; 5
    7c0e:	09 f4       	brne	.+2      	; 0x7c12 <RobotDog_Behavior+0x26>
    7c10:	55 c0       	rjmp	.+170    	; 0x7cbc <RobotDog_Behavior+0xd0>
    7c12:	86 30       	cpi	r24, 0x06	; 6
    7c14:	88 f4       	brcc	.+34     	; 0x7c38 <RobotDog_Behavior+0x4c>
    7c16:	82 30       	cpi	r24, 0x02	; 2
    7c18:	c1 f1       	breq	.+112    	; 0x7c8a <RobotDog_Behavior+0x9e>
    7c1a:	83 30       	cpi	r24, 0x03	; 3
    7c1c:	30 f4       	brcc	.+12     	; 0x7c2a <RobotDog_Behavior+0x3e>
    7c1e:	88 23       	and	r24, r24
    7c20:	f1 f0       	breq	.+60     	; 0x7c5e <RobotDog_Behavior+0x72>
    7c22:	81 30       	cpi	r24, 0x01	; 1
    7c24:	09 f0       	breq	.+2      	; 0x7c28 <RobotDog_Behavior+0x3c>
    7c26:	9a c0       	rjmp	.+308    	; 0x7d5c <RobotDog_Behavior+0x170>
    7c28:	24 c0       	rjmp	.+72     	; 0x7c72 <RobotDog_Behavior+0x86>
    7c2a:	83 30       	cpi	r24, 0x03	; 3
    7c2c:	09 f4       	brne	.+2      	; 0x7c30 <RobotDog_Behavior+0x44>
    7c2e:	37 c0       	rjmp	.+110    	; 0x7c9e <RobotDog_Behavior+0xb2>
    7c30:	84 30       	cpi	r24, 0x04	; 4
    7c32:	09 f0       	breq	.+2      	; 0x7c36 <RobotDog_Behavior+0x4a>
    7c34:	93 c0       	rjmp	.+294    	; 0x7d5c <RobotDog_Behavior+0x170>
    7c36:	3f c0       	rjmp	.+126    	; 0x7cb6 <RobotDog_Behavior+0xca>
    7c38:	88 30       	cpi	r24, 0x08	; 8
    7c3a:	09 f4       	brne	.+2      	; 0x7c3e <RobotDog_Behavior+0x52>
    7c3c:	65 c0       	rjmp	.+202    	; 0x7d08 <RobotDog_Behavior+0x11c>
    7c3e:	89 30       	cpi	r24, 0x09	; 9
    7c40:	38 f4       	brcc	.+14     	; 0x7c50 <RobotDog_Behavior+0x64>
    7c42:	86 30       	cpi	r24, 0x06	; 6
    7c44:	09 f4       	brne	.+2      	; 0x7c48 <RobotDog_Behavior+0x5c>
    7c46:	46 c0       	rjmp	.+140    	; 0x7cd4 <RobotDog_Behavior+0xe8>
    7c48:	87 30       	cpi	r24, 0x07	; 7
    7c4a:	09 f0       	breq	.+2      	; 0x7c4e <RobotDog_Behavior+0x62>
    7c4c:	87 c0       	rjmp	.+270    	; 0x7d5c <RobotDog_Behavior+0x170>
    7c4e:	4e c0       	rjmp	.+156    	; 0x7cec <RobotDog_Behavior+0x100>
    7c50:	89 30       	cpi	r24, 0x09	; 9
    7c52:	09 f4       	brne	.+2      	; 0x7c56 <RobotDog_Behavior+0x6a>
    7c54:	65 c0       	rjmp	.+202    	; 0x7d20 <RobotDog_Behavior+0x134>
    7c56:	8a 30       	cpi	r24, 0x0A	; 10
    7c58:	09 f0       	breq	.+2      	; 0x7c5c <RobotDog_Behavior+0x70>
    7c5a:	80 c0       	rjmp	.+256    	; 0x7d5c <RobotDog_Behavior+0x170>
    7c5c:	6d c0       	rjmp	.+218    	; 0x7d38 <RobotDog_Behavior+0x14c>
    7c5e:	88 ee       	ldi	r24, 0xE8	; 232
    7c60:	93 e0       	ldi	r25, 0x03	; 3
    7c62:	20 e9       	ldi	r18, 0x90	; 144
    7c64:	31 e0       	ldi	r19, 0x01	; 1
    7c66:	f9 01       	movw	r30, r18
    7c68:	31 97       	sbiw	r30, 0x01	; 1
    7c6a:	f1 f7       	brne	.-4      	; 0x7c68 <RobotDog_Behavior+0x7c>
		{
			// wait 1/10 ms
			_delay_loop_2(((F_CPU) / 4e3) / 10);
			__ticks --;
    7c6c:	01 97       	sbiw	r24, 0x01	; 1
		__ticks = 1;
	else if (__tmp > 65535)
	{
		//	__ticks = requested delay in 1/10 ms
		__ticks = (uint16_t) (__ms * 10.0);
		while(__ticks)
    7c6e:	d9 f7       	brne	.-10     	; 0x7c66 <RobotDog_Behavior+0x7a>
    7c70:	75 c0       	rjmp	.+234    	; 0x7d5c <RobotDog_Behavior+0x170>
    7c72:	88 ee       	ldi	r24, 0xE8	; 232
    7c74:	93 e0       	ldi	r25, 0x03	; 3
    7c76:	20 e9       	ldi	r18, 0x90	; 144
    7c78:	31 e0       	ldi	r19, 0x01	; 1
    7c7a:	f9 01       	movw	r30, r18
    7c7c:	31 97       	sbiw	r30, 0x01	; 1
    7c7e:	f1 f7       	brne	.-4      	; 0x7c7c <RobotDog_Behavior+0x90>
		{
			// wait 1/10 ms
			_delay_loop_2(((F_CPU) / 4e3) / 10);
			__ticks --;
    7c80:	01 97       	sbiw	r24, 0x01	; 1
		__ticks = 1;
	else if (__tmp > 65535)
	{
		//	__ticks = requested delay in 1/10 ms
		__ticks = (uint16_t) (__ms * 10.0);
		while(__ticks)
    7c82:	d9 f7       	brne	.-10     	; 0x7c7a <RobotDog_Behavior+0x8e>
			break;
		}
		case BEHAVIOR_IDEL:					// 休息
		{
			_delay_ms(100);
			GetDown();
    7c84:	0e 94 4f 3b 	call	0x769e	; 0x769e <GetDown>
    7c88:	62 c0       	rjmp	.+196    	; 0x7d4e <RobotDog_Behavior+0x162>
			signal_control.pSetByte(ADDR_BEHAVIOR, BEHAVIOR_HOLD);
			break;
    7c8a:	88 ee       	ldi	r24, 0xE8	; 232
    7c8c:	93 e0       	ldi	r25, 0x03	; 3
    7c8e:	20 e9       	ldi	r18, 0x90	; 144
    7c90:	31 e0       	ldi	r19, 0x01	; 1
    7c92:	f9 01       	movw	r30, r18
    7c94:	31 97       	sbiw	r30, 0x01	; 1
    7c96:	f1 f7       	brne	.-4      	; 0x7c94 <RobotDog_Behavior+0xa8>
		{
			// wait 1/10 ms
			_delay_loop_2(((F_CPU) / 4e3) / 10);
			__ticks --;
    7c98:	01 97       	sbiw	r24, 0x01	; 1
		__ticks = 1;
	else if (__tmp > 65535)
	{
		//	__ticks = requested delay in 1/10 ms
		__ticks = (uint16_t) (__ms * 10.0);
		while(__ticks)
    7c9a:	d9 f7       	brne	.-10     	; 0x7c92 <RobotDog_Behavior+0xa6>
    7c9c:	32 c0       	rjmp	.+100    	; 0x7d02 <RobotDog_Behavior+0x116>
		case BEHAVIOR_STANDING:				// 站立
		{
			_delay_ms(100);
			Stand();
			signal_control.pSetByte(ADDR_BEHAVIOR, BEHAVIOR_HOLD);
			break;
    7c9e:	88 ee       	ldi	r24, 0xE8	; 232
    7ca0:	93 e0       	ldi	r25, 0x03	; 3
    7ca2:	20 e9       	ldi	r18, 0x90	; 144
    7ca4:	31 e0       	ldi	r19, 0x01	; 1
    7ca6:	f9 01       	movw	r30, r18
    7ca8:	31 97       	sbiw	r30, 0x01	; 1
    7caa:	f1 f7       	brne	.-4      	; 0x7ca8 <RobotDog_Behavior+0xbc>
		{
			// wait 1/10 ms
			_delay_loop_2(((F_CPU) / 4e3) / 10);
			__ticks --;
    7cac:	01 97       	sbiw	r24, 0x01	; 1
		__ticks = 1;
	else if (__tmp > 65535)
	{
		//	__ticks = requested delay in 1/10 ms
		__ticks = (uint16_t) (__ms * 10.0);
		while(__ticks)
    7cae:	d9 f7       	brne	.-10     	; 0x7ca6 <RobotDog_Behavior+0xba>
		}
		case BEHAVIOR_STRETCH:				// 伸懒腰
		{
			_delay_ms(100);
			Stretched();
    7cb0:	0e 94 90 3b 	call	0x7720	; 0x7720 <Stretched>
    7cb4:	26 c0       	rjmp	.+76     	; 0x7d02 <RobotDog_Behavior+0x116>
			signal_control.pSetByte(ADDR_BEHAVIOR, BEHAVIOR_HOLD);
			break;
		}
		case BEHAVIOR_WALKING:				// 步行
		{
			SlowlyWalk();
    7cb6:	0e 94 af 32 	call	0x655e	; 0x655e <SlowlyWalk>
    7cba:	50 c0       	rjmp	.+160    	; 0x7d5c <RobotDog_Behavior+0x170>
			break;
    7cbc:	80 e9       	ldi	r24, 0x90	; 144
    7cbe:	91 e0       	ldi	r25, 0x01	; 1
    7cc0:	20 e9       	ldi	r18, 0x90	; 144
    7cc2:	31 e0       	ldi	r19, 0x01	; 1
    7cc4:	f9 01       	movw	r30, r18
    7cc6:	31 97       	sbiw	r30, 0x01	; 1
    7cc8:	f1 f7       	brne	.-4      	; 0x7cc6 <RobotDog_Behavior+0xda>
		{
			// wait 1/10 ms
			_delay_loop_2(((F_CPU) / 4e3) / 10);
			__ticks --;
    7cca:	01 97       	sbiw	r24, 0x01	; 1
		__ticks = 1;
	else if (__tmp > 65535)
	{
		//	__ticks = requested delay in 1/10 ms
		__ticks = (uint16_t) (__ms * 10.0);
		while(__ticks)
    7ccc:	d9 f7       	brne	.-10     	; 0x7cc4 <RobotDog_Behavior+0xd8>
		}
		case BEHAVIOR_TURNLEFT:				// 左转
		{
			_delay_ms(40);
			TurnLeft();
    7cce:	0e 94 94 34 	call	0x6928	; 0x6928 <TurnLeft>
    7cd2:	44 c0       	rjmp	.+136    	; 0x7d5c <RobotDog_Behavior+0x170>
			break;
    7cd4:	80 e9       	ldi	r24, 0x90	; 144
    7cd6:	91 e0       	ldi	r25, 0x01	; 1
    7cd8:	20 e9       	ldi	r18, 0x90	; 144
    7cda:	31 e0       	ldi	r19, 0x01	; 1
    7cdc:	f9 01       	movw	r30, r18
    7cde:	31 97       	sbiw	r30, 0x01	; 1
    7ce0:	f1 f7       	brne	.-4      	; 0x7cde <RobotDog_Behavior+0xf2>
		{
			// wait 1/10 ms
			_delay_loop_2(((F_CPU) / 4e3) / 10);
			__ticks --;
    7ce2:	01 97       	sbiw	r24, 0x01	; 1
		__ticks = 1;
	else if (__tmp > 65535)
	{
		//	__ticks = requested delay in 1/10 ms
		__ticks = (uint16_t) (__ms * 10.0);
		while(__ticks)
    7ce4:	d9 f7       	brne	.-10     	; 0x7cdc <RobotDog_Behavior+0xf0>
		}
		case BEHAVIOR_TURNRIGHT:			// 右转
		{
			_delay_ms(40);
			TurnRight();
    7ce6:	0e 94 79 36 	call	0x6cf2	; 0x6cf2 <TurnRight>
    7cea:	38 c0       	rjmp	.+112    	; 0x7d5c <RobotDog_Behavior+0x170>
			break;
    7cec:	88 ee       	ldi	r24, 0xE8	; 232
    7cee:	93 e0       	ldi	r25, 0x03	; 3
    7cf0:	20 e9       	ldi	r18, 0x90	; 144
    7cf2:	31 e0       	ldi	r19, 0x01	; 1
    7cf4:	f9 01       	movw	r30, r18
    7cf6:	31 97       	sbiw	r30, 0x01	; 1
    7cf8:	f1 f7       	brne	.-4      	; 0x7cf6 <RobotDog_Behavior+0x10a>
		{
			// wait 1/10 ms
			_delay_loop_2(((F_CPU) / 4e3) / 10);
			__ticks --;
    7cfa:	01 97       	sbiw	r24, 0x01	; 1
		__ticks = 1;
	else if (__tmp > 65535)
	{
		//	__ticks = requested delay in 1/10 ms
		__ticks = (uint16_t) (__ms * 10.0);
		while(__ticks)
    7cfc:	d9 f7       	brne	.-10     	; 0x7cf4 <RobotDog_Behavior+0x108>
		}
		case BEHAVIOR_MARKING:				// 做标记
		{
			_delay_ms(100);
			Urination();
    7cfe:	0e 94 39 3a 	call	0x7472	; 0x7472 <Urination>
			Stand();
    7d02:	0e 94 00 39 	call	0x7200	; 0x7200 <Stand>
    7d06:	23 c0       	rjmp	.+70     	; 0x7d4e <RobotDog_Behavior+0x162>
			signal_control.pSetByte(ADDR_BEHAVIOR, BEHAVIOR_HOLD);
			break;
    7d08:	88 ee       	ldi	r24, 0xE8	; 232
    7d0a:	93 e0       	ldi	r25, 0x03	; 3
    7d0c:	20 e9       	ldi	r18, 0x90	; 144
    7d0e:	31 e0       	ldi	r19, 0x01	; 1
    7d10:	f9 01       	movw	r30, r18
    7d12:	31 97       	sbiw	r30, 0x01	; 1
    7d14:	f1 f7       	brne	.-4      	; 0x7d12 <RobotDog_Behavior+0x126>
		{
			// wait 1/10 ms
			_delay_loop_2(((F_CPU) / 4e3) / 10);
			__ticks --;
    7d16:	01 97       	sbiw	r24, 0x01	; 1
		__ticks = 1;
	else if (__tmp > 65535)
	{
		//	__ticks = requested delay in 1/10 ms
		__ticks = (uint16_t) (__ms * 10.0);
		while(__ticks)
    7d18:	d9 f7       	brne	.-10     	; 0x7d10 <RobotDog_Behavior+0x124>
		}
		case BEHAVIOR_TK:					// 挠痒痒
		{
			_delay_ms(100);
			Scratched();
    7d1a:	0e 94 ad 3c 	call	0x795a	; 0x795a <Scratched>
    7d1e:	17 c0       	rjmp	.+46     	; 0x7d4e <RobotDog_Behavior+0x162>

			signal_control.pSetByte(ADDR_BEHAVIOR, BEHAVIOR_HOLD);
			break;
    7d20:	88 ee       	ldi	r24, 0xE8	; 232
    7d22:	93 e0       	ldi	r25, 0x03	; 3
    7d24:	20 e9       	ldi	r18, 0x90	; 144
    7d26:	31 e0       	ldi	r19, 0x01	; 1
    7d28:	f9 01       	movw	r30, r18
    7d2a:	31 97       	sbiw	r30, 0x01	; 1
    7d2c:	f1 f7       	brne	.-4      	; 0x7d2a <RobotDog_Behavior+0x13e>
		{
			// wait 1/10 ms
			_delay_loop_2(((F_CPU) / 4e3) / 10);
			__ticks --;
    7d2e:	01 97       	sbiw	r24, 0x01	; 1
		__ticks = 1;
	else if (__tmp > 65535)
	{
		//	__ticks = requested delay in 1/10 ms
		__ticks = (uint16_t) (__ms * 10.0);
		while(__ticks)
    7d30:	d9 f7       	brne	.-10     	; 0x7d28 <RobotDog_Behavior+0x13c>
		}
		case BEHAVIOR_SIT:					// 坐下
		{
			_delay_ms(100);

			SitDown();
    7d32:	0e 94 5e 38 	call	0x70bc	; 0x70bc <SitDown>
    7d36:	0b c0       	rjmp	.+22     	; 0x7d4e <RobotDog_Behavior+0x162>

			signal_control.pSetByte(ADDR_BEHAVIOR, BEHAVIOR_HOLD);
			break;
    7d38:	88 ee       	ldi	r24, 0xE8	; 232
    7d3a:	93 e0       	ldi	r25, 0x03	; 3
    7d3c:	20 e9       	ldi	r18, 0x90	; 144
    7d3e:	31 e0       	ldi	r19, 0x01	; 1
    7d40:	f9 01       	movw	r30, r18
    7d42:	31 97       	sbiw	r30, 0x01	; 1
    7d44:	f1 f7       	brne	.-4      	; 0x7d42 <RobotDog_Behavior+0x156>
		{
			// wait 1/10 ms
			_delay_loop_2(((F_CPU) / 4e3) / 10);
			__ticks --;
    7d46:	01 97       	sbiw	r24, 0x01	; 1
		__ticks = 1;
	else if (__tmp > 65535)
	{
		//	__ticks = requested delay in 1/10 ms
		__ticks = (uint16_t) (__ms * 10.0);
		while(__ticks)
    7d48:	d9 f7       	brne	.-10     	; 0x7d40 <RobotDog_Behavior+0x154>
		}
		case BEHAVIOR_HANDSHAKE:			// 握手
		{
			_delay_ms(100);

			ShookHands();
    7d4a:	0e 94 6a 39 	call	0x72d4	; 0x72d4 <ShookHands>

			signal_control.pSetByte(ADDR_BEHAVIOR, BEHAVIOR_HOLD);
    7d4e:	e0 91 28 04 	lds	r30, 0x0428
    7d52:	f0 91 29 04 	lds	r31, 0x0429
    7d56:	80 e0       	ldi	r24, 0x00	; 0
    7d58:	60 e0       	ldi	r22, 0x00	; 0
    7d5a:	09 95       	icall
		default:
		{
			break;
		}
	}
}
    7d5c:	0f 90       	pop	r0
    7d5e:	cf 91       	pop	r28
    7d60:	df 91       	pop	r29
    7d62:	08 95       	ret

00007d64 <Test>:
** 修订人:
** 修订日期:
**------------------------------------------------------------------------------------------------------------------------
*************************************************************************************************************************/
void Test(void)
{
    7d64:	ef 92       	push	r14
    7d66:	ff 92       	push	r15
    7d68:	0f 93       	push	r16
    7d6a:	1f 93       	push	r17
    7d6c:	df 93       	push	r29
    7d6e:	cf 93       	push	r28
    7d70:	cd b7       	in	r28, 0x3d	; 61
    7d72:	de b7       	in	r29, 0x3e	; 62
    7d74:	2a 97       	sbiw	r28, 0x0a	; 10
    7d76:	0f b6       	in	r0, 0x3f	; 63
    7d78:	f8 94       	cli
    7d7a:	de bf       	out	0x3e, r29	; 62
    7d7c:	0f be       	out	0x3f, r0	; 63
    7d7e:	cd bf       	out	0x3d, r28	; 61
	const int16 vector[4] = {0, 0, 0, 0};
    7d80:	73 e0       	ldi	r23, 0x03	; 3
    7d82:	e7 2e       	mov	r14, r23
    7d84:	f1 2c       	mov	r15, r1
    7d86:	ec 0e       	add	r14, r28
    7d88:	fd 1e       	adc	r15, r29
    7d8a:	88 e0       	ldi	r24, 0x08	; 8
    7d8c:	f7 01       	movw	r30, r14
    7d8e:	11 92       	st	Z+, r1
    7d90:	8a 95       	dec	r24
    7d92:	e9 f7       	brne	.-6      	; 0x7d8e <Test+0x2a>

	uint16 temp_time = 0;
    7d94:	1a 82       	std	Y+2, r1	; 0x02
    7d96:	19 82       	std	Y+1, r1	; 0x01

	ControlSynchronous4Dof(&vector[0], 11, 1000, &temp_time);
    7d98:	c7 01       	movw	r24, r14
    7d9a:	6b e0       	ldi	r22, 0x0B	; 11
    7d9c:	48 ee       	ldi	r20, 0xE8	; 232
    7d9e:	53 e0       	ldi	r21, 0x03	; 3
    7da0:	8e 01       	movw	r16, r28
    7da2:	0f 5f       	subi	r16, 0xFF	; 255
    7da4:	1f 4f       	sbci	r17, 0xFF	; 255
    7da6:	98 01       	movw	r18, r16
    7da8:	0e 94 96 31 	call	0x632c	; 0x632c <ControlSynchronous4Dof>
	ControlSynchronous4Dof(&vector[0], 21, 1000, &temp_time);
    7dac:	c7 01       	movw	r24, r14
    7dae:	65 e1       	ldi	r22, 0x15	; 21
    7db0:	48 ee       	ldi	r20, 0xE8	; 232
    7db2:	53 e0       	ldi	r21, 0x03	; 3
    7db4:	98 01       	movw	r18, r16
    7db6:	0e 94 96 31 	call	0x632c	; 0x632c <ControlSynchronous4Dof>
	ControlSynchronous4Dof(&vector[0], 31, 1000, &temp_time);
    7dba:	c7 01       	movw	r24, r14
    7dbc:	6f e1       	ldi	r22, 0x1F	; 31
    7dbe:	48 ee       	ldi	r20, 0xE8	; 232
    7dc0:	53 e0       	ldi	r21, 0x03	; 3
    7dc2:	98 01       	movw	r18, r16
    7dc4:	0e 94 96 31 	call	0x632c	; 0x632c <ControlSynchronous4Dof>
	ControlSynchronous4Dof(&vector[0], 41, 1000, &temp_time);
    7dc8:	c7 01       	movw	r24, r14
    7dca:	69 e2       	ldi	r22, 0x29	; 41
    7dcc:	48 ee       	ldi	r20, 0xE8	; 232
    7dce:	53 e0       	ldi	r21, 0x03	; 3
    7dd0:	98 01       	movw	r18, r16
    7dd2:	0e 94 96 31 	call	0x632c	; 0x632c <ControlSynchronous4Dof>
	servo_control.pActionSync();
    7dd6:	e0 91 e0 03 	lds	r30, 0x03E0
    7dda:	f0 91 e1 03 	lds	r31, 0x03E1
    7dde:	09 95       	icall
}
    7de0:	2a 96       	adiw	r28, 0x0a	; 10
    7de2:	0f b6       	in	r0, 0x3f	; 63
    7de4:	f8 94       	cli
    7de6:	de bf       	out	0x3e, r29	; 62
    7de8:	0f be       	out	0x3f, r0	; 63
    7dea:	cd bf       	out	0x3d, r28	; 61
    7dec:	cf 91       	pop	r28
    7dee:	df 91       	pop	r29
    7df0:	1f 91       	pop	r17
    7df2:	0f 91       	pop	r16
    7df4:	ff 90       	pop	r15
    7df6:	ef 90       	pop	r14
    7df8:	08 95       	ret

00007dfa <InitDevices>:
** 修订日期:
**------------------------------------------------------------------------------------------------------------------------
*************************************************************************************************************************/
void InitDevices(void)
{
	cli();															// disable all interrupts
    7dfa:	f8 94       	cli

	sim_control.pInit();
    7dfc:	e0 91 78 07 	lds	r30, 0x0778
    7e00:	f0 91 79 07 	lds	r31, 0x0779
    7e04:	09 95       	icall
	uart0_control.pInit();
    7e06:	e0 91 02 08 	lds	r30, 0x0802
    7e0a:	f0 91 03 08 	lds	r31, 0x0803
    7e0e:	09 95       	icall
	uart1_control.pInit();
    7e10:	e0 91 23 08 	lds	r30, 0x0823
    7e14:	f0 91 24 08 	lds	r31, 0x0824
    7e18:	09 95       	icall
	//uart1_control.pSetBaudRate(UART_BAUDRATE_2X, 57600L);
	timer0_control.pInit();
    7e1a:	e0 91 c6 07 	lds	r30, 0x07C6
    7e1e:	f0 91 c7 07 	lds	r31, 0x07C7
    7e22:	09 95       	icall
	timer3_control.pInit();
    7e24:	e0 91 ab 07 	lds	r30, 0x07AB
    7e28:	f0 91 ac 07 	lds	r31, 0x07AC
    7e2c:	09 95       	icall
	adc_control.pInit();
    7e2e:	e0 91 a3 06 	lds	r30, 0x06A3
    7e32:	f0 91 a4 06 	lds	r31, 0x06A4
    7e36:	09 95       	icall
	gpio_control.pInit();
    7e38:	e0 91 4e 07 	lds	r30, 0x074E
    7e3c:	f0 91 4f 07 	lds	r31, 0x074F
    7e40:	09 95       	icall
	ppm_control.pInit();
    7e42:	e0 91 75 07 	lds	r30, 0x0775
    7e46:	f0 91 76 07 	lds	r31, 0x0776
    7e4a:	09 95       	icall
	led_control.pInit();
    7e4c:	e0 91 51 07 	lds	r30, 0x0751
    7e50:	f0 91 52 07 	lds	r31, 0x0752
    7e54:	09 95       	icall
	spi_control.pInit();
    7e56:	e0 91 98 07 	lds	r30, 0x0798
    7e5a:	f0 91 99 07 	lds	r31, 0x0799
    7e5e:	09 95       	icall
	extint_control.pInit();
    7e60:	e0 91 ac 06 	lds	r30, 0x06AC
    7e64:	f0 91 ad 06 	lds	r31, 0x06AD
    7e68:	09 95       	icall
	uart2_control.pInit();
    7e6a:	e0 91 86 08 	lds	r30, 0x0886
    7e6e:	f0 91 87 08 	lds	r31, 0x0887
    7e72:	09 95       	icall
	signal_control.pInit();
    7e74:	e0 91 26 04 	lds	r30, 0x0426
    7e78:	f0 91 27 04 	lds	r31, 0x0427
    7e7c:	09 95       	icall

	//下面是小螃蟹写的
	//uart0_test.pInit();
	//上面是小螃蟹写的

	SetRegBit(DDRG, 3);
    7e7e:	80 91 64 00 	lds	r24, 0x0064
    7e82:	88 60       	ori	r24, 0x08	; 8
    7e84:	80 93 64 00 	sts	0x0064, r24
	SetRegBit(PORTG, 3);
    7e88:	80 91 65 00 	lds	r24, 0x0065
    7e8c:	88 60       	ori	r24, 0x08	; 8
    7e8e:	80 93 65 00 	sts	0x0065, r24
    7e92:	80 ea       	ldi	r24, 0xA0	; 160
    7e94:	9f e0       	ldi	r25, 0x0F	; 15
    7e96:	01 97       	sbiw	r24, 0x01	; 1
    7e98:	f1 f7       	brne	.-4      	; 0x7e96 <InitDevices+0x9c>
	_delay_ms(1);
	ClrRegBit(PORTG,3);
    7e9a:	80 91 65 00 	lds	r24, 0x0065
    7e9e:	87 7f       	andi	r24, 0xF7	; 247
    7ea0:	80 93 65 00 	sts	0x0065, r24
    7ea4:	88 ee       	ldi	r24, 0xE8	; 232
    7ea6:	93 e0       	ldi	r25, 0x03	; 3
    7ea8:	20 e9       	ldi	r18, 0x90	; 144
    7eaa:	31 e0       	ldi	r19, 0x01	; 1
    7eac:	f9 01       	movw	r30, r18
    7eae:	31 97       	sbiw	r30, 0x01	; 1
    7eb0:	f1 f7       	brne	.-4      	; 0x7eae <InitDevices+0xb4>
		{
			// wait 1/10 ms
			_delay_loop_2(((F_CPU) / 4e3) / 10);
			__ticks --;
    7eb2:	01 97       	sbiw	r24, 0x01	; 1
		__ticks = 1;
	else if (__tmp > 65535)
	{
		//	__ticks = requested delay in 1/10 ms
		__ticks = (uint16_t) (__ms * 10.0);
		while(__ticks)
    7eb4:	d9 f7       	brne	.-10     	; 0x7eac <InitDevices+0xb2>

	_delay_ms(100);													// 等待系统稳定

	sei();															// re-enable interrupts
    7eb6:	78 94       	sei
}
    7eb8:	08 95       	ret

00007eba <ProcessingCommand>:
*************************************************************************************************************************/
void ProcessingCommand(void)
{
	uint8 temp_state = 0;

	temp_state = uprobot_control.pUpRobotSlaveRxPacket(&main_communication.str_stack.str_slave_receive, main_communication.p_uart_control);
    7eba:	60 91 2c 04 	lds	r22, 0x042C
    7ebe:	70 91 2d 04 	lds	r23, 0x042D
    7ec2:	e0 91 85 06 	lds	r30, 0x0685
    7ec6:	f0 91 86 06 	lds	r31, 0x0686
    7eca:	8e e2       	ldi	r24, 0x2E	; 46
    7ecc:	94 e0       	ldi	r25, 0x04	; 4
    7ece:	09 95       	icall
    7ed0:	98 2f       	mov	r25, r24
	SetRegMask(main_communication.state, ERR_MASK, temp_state);
    7ed2:	80 91 80 05 	lds	r24, 0x0580
    7ed6:	80 7c       	andi	r24, 0xC0	; 192
    7ed8:	89 2b       	or	r24, r25
    7eda:	80 93 80 05 	sts	0x0580, r24

	if(ERR_OK == temp_state || ERR_CRC == temp_state)
    7ede:	99 23       	and	r25, r25
    7ee0:	11 f0       	breq	.+4      	; 0x7ee6 <ProcessingCommand+0x2c>
    7ee2:	94 31       	cpi	r25, 0x14	; 20
    7ee4:	d1 f4       	brne	.+52     	; 0x7f1a <ProcessingCommand+0x60>
	{
		led_control.pChangeLedBit(3);
    7ee6:	e0 91 59 07 	lds	r30, 0x0759
    7eea:	f0 91 5a 07 	lds	r31, 0x075A
    7eee:	83 e0       	ldi	r24, 0x03	; 3
    7ef0:	09 95       	icall

		temp_state = command_control.pCommandParse(&main_communication);
    7ef2:	e0 91 14 01 	lds	r30, 0x0114
    7ef6:	f0 91 15 01 	lds	r31, 0x0115
    7efa:	8c e2       	ldi	r24, 0x2C	; 44
    7efc:	94 e0       	ldi	r25, 0x04	; 4
    7efe:	09 95       	icall

		if(temp_state == TRUE)
    7f00:	81 30       	cpi	r24, 0x01	; 1
    7f02:	59 f4       	brne	.+22     	; 0x7f1a <ProcessingCommand+0x60>
		{
			uprobot_control.pUpRobotSlaveTxPacket(&main_communication.str_stack.str_slave_send, main_communication.p_uart_control);
    7f04:	60 91 2c 04 	lds	r22, 0x042C
    7f08:	70 91 2d 04 	lds	r23, 0x042D
    7f0c:	e0 91 87 06 	lds	r30, 0x0687
    7f10:	f0 91 88 06 	lds	r31, 0x0688
    7f14:	88 ec       	ldi	r24, 0xC8	; 200
    7f16:	94 e0       	ldi	r25, 0x04	; 4
    7f18:	09 95       	icall
    7f1a:	08 95       	ret

00007f1c <SystemClockTick>:
**------------------------------------------------------------------------------------------------------------------------
*************************************************************************************************************************/
void SystemClockTick(void)
{
//	uint8 count = 0;
	ServeSystemClock();
    7f1c:	0e 94 a9 01 	call	0x352	; 0x352 <ServeSystemClock>
    7f20:	02 c0       	rjmp	.+4      	; 0x7f26 <SystemClockTick+0xa>

	while (main_communication.p_uart_control->pTestReceiveBuffer())
	{
		ProcessingCommand();
    7f22:	0e 94 5d 3f 	call	0x7eba	; 0x7eba <ProcessingCommand>
void SystemClockTick(void)
{
//	uint8 count = 0;
	ServeSystemClock();

	while (main_communication.p_uart_control->pTestReceiveBuffer())
    7f26:	e0 91 2c 04 	lds	r30, 0x042C
    7f2a:	f0 91 2d 04 	lds	r31, 0x042D
    7f2e:	05 8c       	ldd	r0, Z+29	; 0x1d
    7f30:	f6 8d       	ldd	r31, Z+30	; 0x1e
    7f32:	e0 2d       	mov	r30, r0
    7f34:	09 95       	icall
    7f36:	88 23       	and	r24, r24
    7f38:	a1 f7       	brne	.-24     	; 0x7f22 <SystemClockTick+0x6>
	{
		ProcessingCommand();
	}

	sayn_communications_control.adc_single_sayn_count++;
    7f3a:	80 91 17 01 	lds	r24, 0x0117
    7f3e:	8f 5f       	subi	r24, 0xFF	; 255
    7f40:	80 93 17 01 	sts	0x0117, r24
	if ((sayn_communications_control.adc_single_sayn_time > 0) && (sayn_communications_control.adc_single_sayn_count == sayn_communications_control.adc_single_sayn_time))
    7f44:	90 91 16 01 	lds	r25, 0x0116
    7f48:	99 23       	and	r25, r25
    7f4a:	51 f0       	breq	.+20     	; 0x7f60 <SystemClockTick+0x44>
    7f4c:	89 17       	cp	r24, r25
    7f4e:	41 f4       	brne	.+16     	; 0x7f60 <SystemClockTick+0x44>
	{

		sayn_communications_control.adc_single_sayn_count = 0;
    7f50:	10 92 17 01 	sts	0x0117, r1
		GetAdcSamplingAtTimes(&main_communication,sayn_communications_control.adc_single_sayn_parameter[0]);
    7f54:	8c e2       	ldi	r24, 0x2C	; 44
    7f56:	94 e0       	ldi	r25, 0x04	; 4
    7f58:	60 91 1b 01 	lds	r22, 0x011B
    7f5c:	0e 94 fb 01 	call	0x3f6	; 0x3f6 <GetAdcSamplingAtTimes>

	}

	sayn_communications_control.adc_multi_sayn_count++;
    7f60:	80 91 1e 01 	lds	r24, 0x011E
    7f64:	8f 5f       	subi	r24, 0xFF	; 255
    7f66:	80 93 1e 01 	sts	0x011E, r24
	if ((sayn_communications_control.adc_multi_sayn_time > 0) &&(sayn_communications_control.adc_multi_sayn_count == sayn_communications_control.adc_multi_sayn_time))
    7f6a:	90 91 1d 01 	lds	r25, 0x011D
    7f6e:	99 23       	and	r25, r25
    7f70:	59 f0       	breq	.+22     	; 0x7f88 <SystemClockTick+0x6c>
    7f72:	89 17       	cp	r24, r25
    7f74:	49 f4       	brne	.+18     	; 0x7f88 <SystemClockTick+0x6c>
	{
		sayn_communications_control.adc_multi_sayn_count = 1;
    7f76:	81 e0       	ldi	r24, 0x01	; 1
    7f78:	80 93 1e 01 	sts	0x011E, r24
		GetAdcMultiAtTimes(&main_communication,sayn_communications_control.adc_multi_sayn_parameter[0]);
    7f7c:	8c e2       	ldi	r24, 0x2C	; 44
    7f7e:	94 e0       	ldi	r25, 0x04	; 4
    7f80:	60 91 22 01 	lds	r22, 0x0122
    7f84:	0e 94 45 02 	call	0x48a	; 0x48a <GetAdcMultiAtTimes>
	}

	sayn_communications_control.adc_all_sayn_count++;
    7f88:	80 91 25 01 	lds	r24, 0x0125
    7f8c:	8f 5f       	subi	r24, 0xFF	; 255
    7f8e:	80 93 25 01 	sts	0x0125, r24
	if ((sayn_communications_control.adc_all_sayn_time > 0) &&(sayn_communications_control.adc_all_sayn_count == sayn_communications_control.adc_all_sayn_time))
    7f92:	90 91 24 01 	lds	r25, 0x0124
    7f96:	99 23       	and	r25, r25
    7f98:	49 f0       	breq	.+18     	; 0x7fac <SystemClockTick+0x90>
    7f9a:	89 17       	cp	r24, r25
    7f9c:	39 f4       	brne	.+14     	; 0x7fac <SystemClockTick+0x90>
	{
		sayn_communications_control.adc_all_sayn_count = 1;
    7f9e:	81 e0       	ldi	r24, 0x01	; 1
    7fa0:	80 93 25 01 	sts	0x0125, r24
		GetAdcAllAtTimes(&main_communication);
    7fa4:	8c e2       	ldi	r24, 0x2C	; 44
    7fa6:	94 e0       	ldi	r25, 0x04	; 4
    7fa8:	0e 94 d1 02 	call	0x5a2	; 0x5a2 <GetAdcAllAtTimes>
	}

	sayn_communications_control.io_sayn_count++;
    7fac:	80 91 2c 01 	lds	r24, 0x012C
    7fb0:	8f 5f       	subi	r24, 0xFF	; 255
    7fb2:	80 93 2c 01 	sts	0x012C, r24
	if ((sayn_communications_control.io_sayn_time > 0) &&(sayn_communications_control.io_sayn_count == sayn_communications_control.io_sayn_time))
    7fb6:	90 91 2b 01 	lds	r25, 0x012B
    7fba:	99 23       	and	r25, r25
    7fbc:	49 f0       	breq	.+18     	; 0x7fd0 <SystemClockTick+0xb4>
    7fbe:	89 17       	cp	r24, r25
    7fc0:	39 f4       	brne	.+14     	; 0x7fd0 <SystemClockTick+0xb4>
	{
		sayn_communications_control.io_sayn_count = 1;
    7fc2:	81 e0       	ldi	r24, 0x01	; 1
    7fc4:	80 93 2c 01 	sts	0x012C, r24
		GetIoInputAtTimes(&main_communication);
    7fc8:	8c e2       	ldi	r24, 0x2C	; 44
    7fca:	94 e0       	ldi	r25, 0x04	; 4
    7fcc:	0e 94 2e 03 	call	0x65c	; 0x65c <GetIoInputAtTimes>
    7fd0:	08 95       	ret

00007fd2 <__mulsi3>:
    7fd2:	62 9f       	mul	r22, r18
    7fd4:	d0 01       	movw	r26, r0
    7fd6:	73 9f       	mul	r23, r19
    7fd8:	f0 01       	movw	r30, r0
    7fda:	82 9f       	mul	r24, r18
    7fdc:	e0 0d       	add	r30, r0
    7fde:	f1 1d       	adc	r31, r1
    7fe0:	64 9f       	mul	r22, r20
    7fe2:	e0 0d       	add	r30, r0
    7fe4:	f1 1d       	adc	r31, r1
    7fe6:	92 9f       	mul	r25, r18
    7fe8:	f0 0d       	add	r31, r0
    7fea:	83 9f       	mul	r24, r19
    7fec:	f0 0d       	add	r31, r0
    7fee:	74 9f       	mul	r23, r20
    7ff0:	f0 0d       	add	r31, r0
    7ff2:	65 9f       	mul	r22, r21
    7ff4:	f0 0d       	add	r31, r0
    7ff6:	99 27       	eor	r25, r25
    7ff8:	72 9f       	mul	r23, r18
    7ffa:	b0 0d       	add	r27, r0
    7ffc:	e1 1d       	adc	r30, r1
    7ffe:	f9 1f       	adc	r31, r25
    8000:	63 9f       	mul	r22, r19
    8002:	b0 0d       	add	r27, r0
    8004:	e1 1d       	adc	r30, r1
    8006:	f9 1f       	adc	r31, r25
    8008:	bd 01       	movw	r22, r26
    800a:	cf 01       	movw	r24, r30
    800c:	11 24       	eor	r1, r1
    800e:	08 95       	ret

00008010 <__udivmodqi4>:
    8010:	99 1b       	sub	r25, r25
    8012:	79 e0       	ldi	r23, 0x09	; 9
    8014:	04 c0       	rjmp	.+8      	; 0x801e <__udivmodqi4_ep>

00008016 <__udivmodqi4_loop>:
    8016:	99 1f       	adc	r25, r25
    8018:	96 17       	cp	r25, r22
    801a:	08 f0       	brcs	.+2      	; 0x801e <__udivmodqi4_ep>
    801c:	96 1b       	sub	r25, r22

0000801e <__udivmodqi4_ep>:
    801e:	88 1f       	adc	r24, r24
    8020:	7a 95       	dec	r23
    8022:	c9 f7       	brne	.-14     	; 0x8016 <__udivmodqi4_loop>
    8024:	80 95       	com	r24
    8026:	08 95       	ret

00008028 <__divmodhi4>:
    8028:	97 fb       	bst	r25, 7
    802a:	09 2e       	mov	r0, r25
    802c:	07 26       	eor	r0, r23
    802e:	0a d0       	rcall	.+20     	; 0x8044 <__divmodhi4_neg1>
    8030:	77 fd       	sbrc	r23, 7
    8032:	04 d0       	rcall	.+8      	; 0x803c <__divmodhi4_neg2>
    8034:	2e d0       	rcall	.+92     	; 0x8092 <__udivmodhi4>
    8036:	06 d0       	rcall	.+12     	; 0x8044 <__divmodhi4_neg1>
    8038:	00 20       	and	r0, r0
    803a:	1a f4       	brpl	.+6      	; 0x8042 <__divmodhi4_exit>

0000803c <__divmodhi4_neg2>:
    803c:	70 95       	com	r23
    803e:	61 95       	neg	r22
    8040:	7f 4f       	sbci	r23, 0xFF	; 255

00008042 <__divmodhi4_exit>:
    8042:	08 95       	ret

00008044 <__divmodhi4_neg1>:
    8044:	f6 f7       	brtc	.-4      	; 0x8042 <__divmodhi4_exit>
    8046:	90 95       	com	r25
    8048:	81 95       	neg	r24
    804a:	9f 4f       	sbci	r25, 0xFF	; 255
    804c:	08 95       	ret

0000804e <__udivmodsi4>:
    804e:	a1 e2       	ldi	r26, 0x21	; 33
    8050:	1a 2e       	mov	r1, r26
    8052:	aa 1b       	sub	r26, r26
    8054:	bb 1b       	sub	r27, r27
    8056:	fd 01       	movw	r30, r26
    8058:	0d c0       	rjmp	.+26     	; 0x8074 <__udivmodsi4_ep>

0000805a <__udivmodsi4_loop>:
    805a:	aa 1f       	adc	r26, r26
    805c:	bb 1f       	adc	r27, r27
    805e:	ee 1f       	adc	r30, r30
    8060:	ff 1f       	adc	r31, r31
    8062:	a2 17       	cp	r26, r18
    8064:	b3 07       	cpc	r27, r19
    8066:	e4 07       	cpc	r30, r20
    8068:	f5 07       	cpc	r31, r21
    806a:	20 f0       	brcs	.+8      	; 0x8074 <__udivmodsi4_ep>
    806c:	a2 1b       	sub	r26, r18
    806e:	b3 0b       	sbc	r27, r19
    8070:	e4 0b       	sbc	r30, r20
    8072:	f5 0b       	sbc	r31, r21

00008074 <__udivmodsi4_ep>:
    8074:	66 1f       	adc	r22, r22
    8076:	77 1f       	adc	r23, r23
    8078:	88 1f       	adc	r24, r24
    807a:	99 1f       	adc	r25, r25
    807c:	1a 94       	dec	r1
    807e:	69 f7       	brne	.-38     	; 0x805a <__udivmodsi4_loop>
    8080:	60 95       	com	r22
    8082:	70 95       	com	r23
    8084:	80 95       	com	r24
    8086:	90 95       	com	r25
    8088:	9b 01       	movw	r18, r22
    808a:	ac 01       	movw	r20, r24
    808c:	bd 01       	movw	r22, r26
    808e:	cf 01       	movw	r24, r30
    8090:	08 95       	ret

00008092 <__udivmodhi4>:
    8092:	aa 1b       	sub	r26, r26
    8094:	bb 1b       	sub	r27, r27
    8096:	51 e1       	ldi	r21, 0x11	; 17
    8098:	07 c0       	rjmp	.+14     	; 0x80a8 <__udivmodhi4_ep>

0000809a <__udivmodhi4_loop>:
    809a:	aa 1f       	adc	r26, r26
    809c:	bb 1f       	adc	r27, r27
    809e:	a6 17       	cp	r26, r22
    80a0:	b7 07       	cpc	r27, r23
    80a2:	10 f0       	brcs	.+4      	; 0x80a8 <__udivmodhi4_ep>
    80a4:	a6 1b       	sub	r26, r22
    80a6:	b7 0b       	sbc	r27, r23

000080a8 <__udivmodhi4_ep>:
    80a8:	88 1f       	adc	r24, r24
    80aa:	99 1f       	adc	r25, r25
    80ac:	5a 95       	dec	r21
    80ae:	a9 f7       	brne	.-22     	; 0x809a <__udivmodhi4_loop>
    80b0:	80 95       	com	r24
    80b2:	90 95       	com	r25
    80b4:	bc 01       	movw	r22, r24
    80b6:	cd 01       	movw	r24, r26
    80b8:	08 95       	ret

000080ba <malloc>:
    80ba:	cf 93       	push	r28
    80bc:	df 93       	push	r29
    80be:	bc 01       	movw	r22, r24
    80c0:	82 30       	cpi	r24, 0x02	; 2
    80c2:	91 05       	cpc	r25, r1
    80c4:	10 f4       	brcc	.+4      	; 0x80ca <malloc+0x10>
    80c6:	62 e0       	ldi	r22, 0x02	; 2
    80c8:	70 e0       	ldi	r23, 0x00	; 0
    80ca:	a0 91 2a 0d 	lds	r26, 0x0D2A
    80ce:	b0 91 2b 0d 	lds	r27, 0x0D2B
    80d2:	ed 01       	movw	r28, r26
    80d4:	e0 e0       	ldi	r30, 0x00	; 0
    80d6:	f0 e0       	ldi	r31, 0x00	; 0
    80d8:	40 e0       	ldi	r20, 0x00	; 0
    80da:	50 e0       	ldi	r21, 0x00	; 0
    80dc:	21 c0       	rjmp	.+66     	; 0x8120 <malloc+0x66>
    80de:	88 81       	ld	r24, Y
    80e0:	99 81       	ldd	r25, Y+1	; 0x01
    80e2:	86 17       	cp	r24, r22
    80e4:	97 07       	cpc	r25, r23
    80e6:	69 f4       	brne	.+26     	; 0x8102 <malloc+0x48>
    80e8:	8a 81       	ldd	r24, Y+2	; 0x02
    80ea:	9b 81       	ldd	r25, Y+3	; 0x03
    80ec:	30 97       	sbiw	r30, 0x00	; 0
    80ee:	19 f0       	breq	.+6      	; 0x80f6 <malloc+0x3c>
    80f0:	93 83       	std	Z+3, r25	; 0x03
    80f2:	82 83       	std	Z+2, r24	; 0x02
    80f4:	04 c0       	rjmp	.+8      	; 0x80fe <malloc+0x44>
    80f6:	90 93 2b 0d 	sts	0x0D2B, r25
    80fa:	80 93 2a 0d 	sts	0x0D2A, r24
    80fe:	fe 01       	movw	r30, r28
    8100:	34 c0       	rjmp	.+104    	; 0x816a <malloc+0xb0>
    8102:	68 17       	cp	r22, r24
    8104:	79 07       	cpc	r23, r25
    8106:	38 f4       	brcc	.+14     	; 0x8116 <malloc+0x5c>
    8108:	41 15       	cp	r20, r1
    810a:	51 05       	cpc	r21, r1
    810c:	19 f0       	breq	.+6      	; 0x8114 <malloc+0x5a>
    810e:	84 17       	cp	r24, r20
    8110:	95 07       	cpc	r25, r21
    8112:	08 f4       	brcc	.+2      	; 0x8116 <malloc+0x5c>
    8114:	ac 01       	movw	r20, r24
    8116:	fe 01       	movw	r30, r28
    8118:	8a 81       	ldd	r24, Y+2	; 0x02
    811a:	9b 81       	ldd	r25, Y+3	; 0x03
    811c:	9c 01       	movw	r18, r24
    811e:	e9 01       	movw	r28, r18
    8120:	20 97       	sbiw	r28, 0x00	; 0
    8122:	e9 f6       	brne	.-70     	; 0x80de <malloc+0x24>
    8124:	41 15       	cp	r20, r1
    8126:	51 05       	cpc	r21, r1
    8128:	a9 f1       	breq	.+106    	; 0x8194 <malloc+0xda>
    812a:	ca 01       	movw	r24, r20
    812c:	86 1b       	sub	r24, r22
    812e:	97 0b       	sbc	r25, r23
    8130:	04 97       	sbiw	r24, 0x04	; 4
    8132:	08 f4       	brcc	.+2      	; 0x8136 <malloc+0x7c>
    8134:	ba 01       	movw	r22, r20
    8136:	e0 e0       	ldi	r30, 0x00	; 0
    8138:	f0 e0       	ldi	r31, 0x00	; 0
    813a:	2a c0       	rjmp	.+84     	; 0x8190 <malloc+0xd6>
    813c:	8d 91       	ld	r24, X+
    813e:	9c 91       	ld	r25, X
    8140:	11 97       	sbiw	r26, 0x01	; 1
    8142:	84 17       	cp	r24, r20
    8144:	95 07       	cpc	r25, r21
    8146:	f9 f4       	brne	.+62     	; 0x8186 <malloc+0xcc>
    8148:	64 17       	cp	r22, r20
    814a:	75 07       	cpc	r23, r21
    814c:	81 f4       	brne	.+32     	; 0x816e <malloc+0xb4>
    814e:	12 96       	adiw	r26, 0x02	; 2
    8150:	8d 91       	ld	r24, X+
    8152:	9c 91       	ld	r25, X
    8154:	13 97       	sbiw	r26, 0x03	; 3
    8156:	30 97       	sbiw	r30, 0x00	; 0
    8158:	19 f0       	breq	.+6      	; 0x8160 <malloc+0xa6>
    815a:	93 83       	std	Z+3, r25	; 0x03
    815c:	82 83       	std	Z+2, r24	; 0x02
    815e:	04 c0       	rjmp	.+8      	; 0x8168 <malloc+0xae>
    8160:	90 93 2b 0d 	sts	0x0D2B, r25
    8164:	80 93 2a 0d 	sts	0x0D2A, r24
    8168:	fd 01       	movw	r30, r26
    816a:	32 96       	adiw	r30, 0x02	; 2
    816c:	4f c0       	rjmp	.+158    	; 0x820c <malloc+0x152>
    816e:	ca 01       	movw	r24, r20
    8170:	86 1b       	sub	r24, r22
    8172:	97 0b       	sbc	r25, r23
    8174:	fd 01       	movw	r30, r26
    8176:	e8 0f       	add	r30, r24
    8178:	f9 1f       	adc	r31, r25
    817a:	61 93       	st	Z+, r22
    817c:	71 93       	st	Z+, r23
    817e:	02 97       	sbiw	r24, 0x02	; 2
    8180:	8d 93       	st	X+, r24
    8182:	9c 93       	st	X, r25
    8184:	43 c0       	rjmp	.+134    	; 0x820c <malloc+0x152>
    8186:	fd 01       	movw	r30, r26
    8188:	82 81       	ldd	r24, Z+2	; 0x02
    818a:	93 81       	ldd	r25, Z+3	; 0x03
    818c:	9c 01       	movw	r18, r24
    818e:	d9 01       	movw	r26, r18
    8190:	10 97       	sbiw	r26, 0x00	; 0
    8192:	a1 f6       	brne	.-88     	; 0x813c <malloc+0x82>
    8194:	80 91 28 0d 	lds	r24, 0x0D28
    8198:	90 91 29 0d 	lds	r25, 0x0D29
    819c:	89 2b       	or	r24, r25
    819e:	41 f4       	brne	.+16     	; 0x81b0 <malloc+0xf6>
    81a0:	80 91 02 01 	lds	r24, 0x0102
    81a4:	90 91 03 01 	lds	r25, 0x0103
    81a8:	90 93 29 0d 	sts	0x0D29, r25
    81ac:	80 93 28 0d 	sts	0x0D28, r24
    81b0:	40 91 04 01 	lds	r20, 0x0104
    81b4:	50 91 05 01 	lds	r21, 0x0105
    81b8:	41 15       	cp	r20, r1
    81ba:	51 05       	cpc	r21, r1
    81bc:	41 f4       	brne	.+16     	; 0x81ce <malloc+0x114>
    81be:	4d b7       	in	r20, 0x3d	; 61
    81c0:	5e b7       	in	r21, 0x3e	; 62
    81c2:	80 91 00 01 	lds	r24, 0x0100
    81c6:	90 91 01 01 	lds	r25, 0x0101
    81ca:	48 1b       	sub	r20, r24
    81cc:	59 0b       	sbc	r21, r25
    81ce:	20 91 28 0d 	lds	r18, 0x0D28
    81d2:	30 91 29 0d 	lds	r19, 0x0D29
    81d6:	24 17       	cp	r18, r20
    81d8:	35 07       	cpc	r19, r21
    81da:	b0 f4       	brcc	.+44     	; 0x8208 <malloc+0x14e>
    81dc:	ca 01       	movw	r24, r20
    81de:	82 1b       	sub	r24, r18
    81e0:	93 0b       	sbc	r25, r19
    81e2:	86 17       	cp	r24, r22
    81e4:	97 07       	cpc	r25, r23
    81e6:	80 f0       	brcs	.+32     	; 0x8208 <malloc+0x14e>
    81e8:	ab 01       	movw	r20, r22
    81ea:	4e 5f       	subi	r20, 0xFE	; 254
    81ec:	5f 4f       	sbci	r21, 0xFF	; 255
    81ee:	84 17       	cp	r24, r20
    81f0:	95 07       	cpc	r25, r21
    81f2:	50 f0       	brcs	.+20     	; 0x8208 <malloc+0x14e>
    81f4:	42 0f       	add	r20, r18
    81f6:	53 1f       	adc	r21, r19
    81f8:	50 93 29 0d 	sts	0x0D29, r21
    81fc:	40 93 28 0d 	sts	0x0D28, r20
    8200:	f9 01       	movw	r30, r18
    8202:	61 93       	st	Z+, r22
    8204:	71 93       	st	Z+, r23
    8206:	02 c0       	rjmp	.+4      	; 0x820c <malloc+0x152>
    8208:	e0 e0       	ldi	r30, 0x00	; 0
    820a:	f0 e0       	ldi	r31, 0x00	; 0
    820c:	cf 01       	movw	r24, r30
    820e:	df 91       	pop	r29
    8210:	cf 91       	pop	r28
    8212:	08 95       	ret

00008214 <free>:
    8214:	cf 93       	push	r28
    8216:	df 93       	push	r29
    8218:	00 97       	sbiw	r24, 0x00	; 0
    821a:	09 f4       	brne	.+2      	; 0x821e <free+0xa>
    821c:	50 c0       	rjmp	.+160    	; 0x82be <free+0xaa>
    821e:	ec 01       	movw	r28, r24
    8220:	22 97       	sbiw	r28, 0x02	; 2
    8222:	1b 82       	std	Y+3, r1	; 0x03
    8224:	1a 82       	std	Y+2, r1	; 0x02
    8226:	a0 91 2a 0d 	lds	r26, 0x0D2A
    822a:	b0 91 2b 0d 	lds	r27, 0x0D2B
    822e:	10 97       	sbiw	r26, 0x00	; 0
    8230:	09 f1       	breq	.+66     	; 0x8274 <free+0x60>
    8232:	40 e0       	ldi	r20, 0x00	; 0
    8234:	50 e0       	ldi	r21, 0x00	; 0
    8236:	ac 17       	cp	r26, r28
    8238:	bd 07       	cpc	r27, r29
    823a:	08 f1       	brcs	.+66     	; 0x827e <free+0x6a>
    823c:	bb 83       	std	Y+3, r27	; 0x03
    823e:	aa 83       	std	Y+2, r26	; 0x02
    8240:	fe 01       	movw	r30, r28
    8242:	21 91       	ld	r18, Z+
    8244:	31 91       	ld	r19, Z+
    8246:	e2 0f       	add	r30, r18
    8248:	f3 1f       	adc	r31, r19
    824a:	ae 17       	cp	r26, r30
    824c:	bf 07       	cpc	r27, r31
    824e:	79 f4       	brne	.+30     	; 0x826e <free+0x5a>
    8250:	8d 91       	ld	r24, X+
    8252:	9c 91       	ld	r25, X
    8254:	11 97       	sbiw	r26, 0x01	; 1
    8256:	28 0f       	add	r18, r24
    8258:	39 1f       	adc	r19, r25
    825a:	2e 5f       	subi	r18, 0xFE	; 254
    825c:	3f 4f       	sbci	r19, 0xFF	; 255
    825e:	39 83       	std	Y+1, r19	; 0x01
    8260:	28 83       	st	Y, r18
    8262:	12 96       	adiw	r26, 0x02	; 2
    8264:	8d 91       	ld	r24, X+
    8266:	9c 91       	ld	r25, X
    8268:	13 97       	sbiw	r26, 0x03	; 3
    826a:	9b 83       	std	Y+3, r25	; 0x03
    826c:	8a 83       	std	Y+2, r24	; 0x02
    826e:	41 15       	cp	r20, r1
    8270:	51 05       	cpc	r21, r1
    8272:	71 f4       	brne	.+28     	; 0x8290 <free+0x7c>
    8274:	d0 93 2b 0d 	sts	0x0D2B, r29
    8278:	c0 93 2a 0d 	sts	0x0D2A, r28
    827c:	20 c0       	rjmp	.+64     	; 0x82be <free+0xaa>
    827e:	12 96       	adiw	r26, 0x02	; 2
    8280:	8d 91       	ld	r24, X+
    8282:	9c 91       	ld	r25, X
    8284:	13 97       	sbiw	r26, 0x03	; 3
    8286:	ad 01       	movw	r20, r26
    8288:	00 97       	sbiw	r24, 0x00	; 0
    828a:	11 f0       	breq	.+4      	; 0x8290 <free+0x7c>
    828c:	dc 01       	movw	r26, r24
    828e:	d3 cf       	rjmp	.-90     	; 0x8236 <free+0x22>
    8290:	fa 01       	movw	r30, r20
    8292:	d3 83       	std	Z+3, r29	; 0x03
    8294:	c2 83       	std	Z+2, r28	; 0x02
    8296:	21 91       	ld	r18, Z+
    8298:	31 91       	ld	r19, Z+
    829a:	e2 0f       	add	r30, r18
    829c:	f3 1f       	adc	r31, r19
    829e:	ce 17       	cp	r28, r30
    82a0:	df 07       	cpc	r29, r31
    82a2:	69 f4       	brne	.+26     	; 0x82be <free+0xaa>
    82a4:	88 81       	ld	r24, Y
    82a6:	99 81       	ldd	r25, Y+1	; 0x01
    82a8:	28 0f       	add	r18, r24
    82aa:	39 1f       	adc	r19, r25
    82ac:	2e 5f       	subi	r18, 0xFE	; 254
    82ae:	3f 4f       	sbci	r19, 0xFF	; 255
    82b0:	fa 01       	movw	r30, r20
    82b2:	31 83       	std	Z+1, r19	; 0x01
    82b4:	20 83       	st	Z, r18
    82b6:	8a 81       	ldd	r24, Y+2	; 0x02
    82b8:	9b 81       	ldd	r25, Y+3	; 0x03
    82ba:	93 83       	std	Z+3, r25	; 0x03
    82bc:	82 83       	std	Z+2, r24	; 0x02
    82be:	df 91       	pop	r29
    82c0:	cf 91       	pop	r28
    82c2:	08 95       	ret

000082c4 <_exit>:
    82c4:	f8 94       	cli

000082c6 <__stop_program>:
    82c6:	ff cf       	rjmp	.-2      	; 0x82c6 <__stop_program>
