
K70.elf:     file format elf32-avr

Sections:
Idx Name          Size      VMA       LMA       File off  Algn
  0 .data         00000b66  00800100  000087c8  0000885c  2**0
                  CONTENTS, ALLOC, LOAD, DATA
  1 .text         000087c8  00000000  00000000  00000094  2**1
                  CONTENTS, ALLOC, LOAD, READONLY, CODE
  2 .bss          000000c6  00800c66  00800c66  000093c2  2**0
                  ALLOC

Disassembly of section .text:

00000000 <__vectors>:
       0:	0c 94 46 00 	jmp	0x8c	; 0x8c <__ctors_end>
       4:	0c 94 83 1d 	jmp	0x3b06	; 0x3b06 <__vector_1>
       8:	0c 94 65 00 	jmp	0xca	; 0xca <__bad_interrupt>
       c:	0c 94 65 00 	jmp	0xca	; 0xca <__bad_interrupt>
      10:	0c 94 65 00 	jmp	0xca	; 0xca <__bad_interrupt>
      14:	0c 94 65 00 	jmp	0xca	; 0xca <__bad_interrupt>
      18:	0c 94 65 00 	jmp	0xca	; 0xca <__bad_interrupt>
      1c:	0c 94 65 00 	jmp	0xca	; 0xca <__bad_interrupt>
      20:	0c 94 65 00 	jmp	0xca	; 0xca <__bad_interrupt>
      24:	0c 94 65 00 	jmp	0xca	; 0xca <__bad_interrupt>
      28:	0c 94 65 00 	jmp	0xca	; 0xca <__bad_interrupt>
      2c:	0c 94 65 00 	jmp	0xca	; 0xca <__bad_interrupt>
      30:	0c 94 65 00 	jmp	0xca	; 0xca <__bad_interrupt>
      34:	0c 94 65 00 	jmp	0xca	; 0xca <__bad_interrupt>
      38:	0c 94 65 00 	jmp	0xca	; 0xca <__bad_interrupt>
      3c:	0c 94 65 00 	jmp	0xca	; 0xca <__bad_interrupt>
      40:	0c 94 39 1d 	jmp	0x3a72	; 0x3a72 <__vector_16>
      44:	0c 94 b7 24 	jmp	0x496e	; 0x496e <__vector_17>
      48:	0c 94 8f 29 	jmp	0x531e	; 0x531e <__vector_18>
      4c:	0c 94 ec 29 	jmp	0x53d8	; 0x53d8 <__vector_19>
      50:	0c 94 5e 29 	jmp	0x52bc	; 0x52bc <__vector_20>
      54:	0c 94 65 00 	jmp	0xca	; 0xca <__bad_interrupt>
      58:	0c 94 65 00 	jmp	0xca	; 0xca <__bad_interrupt>
      5c:	0c 94 65 00 	jmp	0xca	; 0xca <__bad_interrupt>
      60:	0c 94 65 00 	jmp	0xca	; 0xca <__bad_interrupt>
      64:	0c 94 65 00 	jmp	0xca	; 0xca <__bad_interrupt>
      68:	0c 94 4b 22 	jmp	0x4496	; 0x4496 <__vector_26>
      6c:	0c 94 65 00 	jmp	0xca	; 0xca <__bad_interrupt>
      70:	0c 94 65 00 	jmp	0xca	; 0xca <__bad_interrupt>
      74:	0c 94 b1 1d 	jmp	0x3b62	; 0x3b62 <__vector_29>
      78:	0c 94 bd 29 	jmp	0x537a	; 0x537a <__vector_30>
      7c:	0c 94 2b 2a 	jmp	0x5456	; 0x5456 <__vector_31>
      80:	0c 94 65 00 	jmp	0xca	; 0xca <__bad_interrupt>
      84:	0c 94 65 00 	jmp	0xca	; 0xca <__bad_interrupt>
      88:	0c 94 65 00 	jmp	0xca	; 0xca <__bad_interrupt>

0000008c <__ctors_end>:
      8c:	11 24       	eor	r1, r1
      8e:	1f be       	out	0x3f, r1	; 63
      90:	cf ef       	ldi	r28, 0xFF	; 255
      92:	d0 e1       	ldi	r29, 0x10	; 16
      94:	de bf       	out	0x3e, r29	; 62
      96:	cd bf       	out	0x3d, r28	; 61

00000098 <__do_copy_data>:
      98:	1c e0       	ldi	r17, 0x0C	; 12
      9a:	a0 e0       	ldi	r26, 0x00	; 0
      9c:	b1 e0       	ldi	r27, 0x01	; 1
      9e:	e8 ec       	ldi	r30, 0xC8	; 200
      a0:	f7 e8       	ldi	r31, 0x87	; 135
      a2:	00 e0       	ldi	r16, 0x00	; 0
      a4:	0b bf       	out	0x3b, r16	; 59
      a6:	02 c0       	rjmp	.+4      	; 0xac <__do_copy_data+0x14>
      a8:	07 90       	elpm	r0, Z+
      aa:	0d 92       	st	X+, r0
      ac:	a6 36       	cpi	r26, 0x66	; 102
      ae:	b1 07       	cpc	r27, r17
      b0:	d9 f7       	brne	.-10     	; 0xa8 <__do_copy_data+0x10>

000000b2 <__do_clear_bss>:
      b2:	1d e0       	ldi	r17, 0x0D	; 13
      b4:	a6 e6       	ldi	r26, 0x66	; 102
      b6:	bc e0       	ldi	r27, 0x0C	; 12
      b8:	01 c0       	rjmp	.+2      	; 0xbc <.do_clear_bss_start>

000000ba <.do_clear_bss_loop>:
      ba:	1d 92       	st	X+, r1

000000bc <.do_clear_bss_start>:
      bc:	ac 32       	cpi	r26, 0x2C	; 44
      be:	b1 07       	cpc	r27, r17
      c0:	e1 f7       	brne	.-8      	; 0xba <.do_clear_bss_loop>
      c2:	0e 94 06 31 	call	0x620c	; 0x620c <main>
      c6:	0c 94 e2 43 	jmp	0x87c4	; 0x87c4 <_exit>

000000ca <__bad_interrupt>:
      ca:	0c 94 00 00 	jmp	0	; 0x0 <__vectors>

000000ce <DelayMS>:
      ce:	dc 01       	movw	r26, r24
      d0:	cb 01       	movw	r24, r22
      d2:	e0 91 10 01 	lds	r30, 0x0110
      d6:	f0 91 11 01 	lds	r31, 0x0111
      da:	09 95       	icall
      dc:	08 95       	ret

000000de <MFSetPortDirect>:
      de:	dc 01       	movw	r26, r24
      e0:	cb 01       	movw	r24, r22
      e2:	e0 91 3c 07 	lds	r30, 0x073C
      e6:	f0 91 3d 07 	lds	r31, 0x073D
      ea:	09 95       	icall
      ec:	08 95       	ret

000000ee <MFGetDigiInput>:
      ee:	df 93       	push	r29
      f0:	cf 93       	push	r28
      f2:	0f 92       	push	r0
      f4:	cd b7       	in	r28, 0x3d	; 61
      f6:	de b7       	in	r29, 0x3e	; 62
      f8:	86 2f       	mov	r24, r22
      fa:	19 82       	std	Y+1, r1	; 0x01
      fc:	e0 91 4a 07 	lds	r30, 0x074A
     100:	f0 91 4b 07 	lds	r31, 0x074B
     104:	be 01       	movw	r22, r28
     106:	6f 5f       	subi	r22, 0xFF	; 255
     108:	7f 4f       	sbci	r23, 0xFF	; 255
     10a:	09 95       	icall
     10c:	69 81       	ldd	r22, Y+1	; 0x01
     10e:	70 e0       	ldi	r23, 0x00	; 0
     110:	80 e0       	ldi	r24, 0x00	; 0
     112:	90 e0       	ldi	r25, 0x00	; 0
     114:	0f 90       	pop	r0
     116:	cf 91       	pop	r28
     118:	df 91       	pop	r29
     11a:	08 95       	ret

0000011c <MFDigiOutput>:
     11c:	86 2f       	mov	r24, r22
     11e:	e0 91 42 07 	lds	r30, 0x0742
     122:	f0 91 43 07 	lds	r31, 0x0743
     126:	62 2f       	mov	r22, r18
     128:	09 95       	icall
     12a:	08 95       	ret

0000012c <MFGetAD>:
     12c:	df 93       	push	r29
     12e:	cf 93       	push	r28
     130:	00 d0       	rcall	.+0      	; 0x132 <MFGetAD+0x6>
     132:	cd b7       	in	r28, 0x3d	; 61
     134:	de b7       	in	r29, 0x3e	; 62
     136:	86 2f       	mov	r24, r22
     138:	1a 82       	std	Y+2, r1	; 0x02
     13a:	19 82       	std	Y+1, r1	; 0x01
     13c:	e0 91 a9 06 	lds	r30, 0x06A9
     140:	f0 91 aa 06 	lds	r31, 0x06AA
     144:	be 01       	movw	r22, r28
     146:	6f 5f       	subi	r22, 0xFF	; 255
     148:	7f 4f       	sbci	r23, 0xFF	; 255
     14a:	09 95       	icall
     14c:	89 81       	ldd	r24, Y+1	; 0x01
     14e:	9a 81       	ldd	r25, Y+2	; 0x02
     150:	bc 01       	movw	r22, r24
     152:	80 e0       	ldi	r24, 0x00	; 0
     154:	90 e0       	ldi	r25, 0x00	; 0
     156:	0f 90       	pop	r0
     158:	0f 90       	pop	r0
     15a:	cf 91       	pop	r28
     15c:	df 91       	pop	r29
     15e:	08 95       	ret

00000160 <MFSetServoMode>:
     160:	86 2f       	mov	r24, r22
     162:	e0 91 c4 03 	lds	r30, 0x03C4
     166:	f0 91 c5 03 	lds	r31, 0x03C5
     16a:	62 2f       	mov	r22, r18
     16c:	09 95       	icall
     16e:	08 95       	ret

00000170 <MFGetServoPos>:
     170:	df 93       	push	r29
     172:	cf 93       	push	r28
     174:	00 d0       	rcall	.+0      	; 0x176 <MFGetServoPos+0x6>
     176:	cd b7       	in	r28, 0x3d	; 61
     178:	de b7       	in	r29, 0x3e	; 62
     17a:	86 2f       	mov	r24, r22
     17c:	1a 82       	std	Y+2, r1	; 0x02
     17e:	19 82       	std	Y+1, r1	; 0x01
     180:	e0 91 d8 03 	lds	r30, 0x03D8
     184:	f0 91 d9 03 	lds	r31, 0x03D9
     188:	be 01       	movw	r22, r28
     18a:	6f 5f       	subi	r22, 0xFF	; 255
     18c:	7f 4f       	sbci	r23, 0xFF	; 255
     18e:	09 95       	icall
     190:	89 81       	ldd	r24, Y+1	; 0x01
     192:	9a 81       	ldd	r25, Y+2	; 0x02
     194:	bc 01       	movw	r22, r24
     196:	80 e0       	ldi	r24, 0x00	; 0
     198:	90 e0       	ldi	r25, 0x00	; 0
     19a:	0f 90       	pop	r0
     19c:	0f 90       	pop	r0
     19e:	cf 91       	pop	r28
     1a0:	df 91       	pop	r29
     1a2:	08 95       	ret

000001a4 <MFServoAction>:
     1a4:	e0 91 e0 03 	lds	r30, 0x03E0
     1a8:	f0 91 e1 03 	lds	r31, 0x03E1
     1ac:	09 95       	icall
     1ae:	10 92 66 0c 	sts	0x0C66, r1
     1b2:	08 95       	ret

000001b4 <MFSetServoRotaSpd>:
     1b4:	0f 93       	push	r16
     1b6:	1f 93       	push	r17
     1b8:	89 01       	movw	r16, r18
     1ba:	9a 01       	movw	r18, r20
     1bc:	37 fd       	sbrc	r19, 7
     1be:	08 c0       	rjmp	.+16     	; 0x1d0 <MFSetServoRotaSpd+0x1c>
     1c0:	e0 91 ce 03 	lds	r30, 0x03CE
     1c4:	f0 91 cf 03 	lds	r31, 0x03CF
     1c8:	86 2f       	mov	r24, r22
     1ca:	60 e0       	ldi	r22, 0x00	; 0
     1cc:	a8 01       	movw	r20, r16
     1ce:	0a c0       	rjmp	.+20     	; 0x1e4 <MFSetServoRotaSpd+0x30>
     1d0:	44 27       	eor	r20, r20
     1d2:	55 27       	eor	r21, r21
     1d4:	40 1b       	sub	r20, r16
     1d6:	51 0b       	sbc	r21, r17
     1d8:	e0 91 ce 03 	lds	r30, 0x03CE
     1dc:	f0 91 cf 03 	lds	r31, 0x03CF
     1e0:	86 2f       	mov	r24, r22
     1e2:	61 e0       	ldi	r22, 0x01	; 1
     1e4:	09 95       	icall
     1e6:	80 91 66 0c 	lds	r24, 0x0C66
     1ea:	8f 5f       	subi	r24, 0xFF	; 255
     1ec:	80 93 66 0c 	sts	0x0C66, r24
     1f0:	81 31       	cpi	r24, 0x11	; 17
     1f2:	40 f0       	brcs	.+16     	; 0x204 <MFSetServoRotaSpd+0x50>
     1f4:	0e 94 d2 00 	call	0x1a4	; 0x1a4 <MFServoAction>
     1f8:	10 92 66 0c 	sts	0x0C66, r1
     1fc:	80 e9       	ldi	r24, 0x90	; 144
     1fe:	91 e0       	ldi	r25, 0x01	; 1
     200:	01 97       	sbiw	r24, 0x01	; 1
     202:	f1 f7       	brne	.-4      	; 0x200 <MFSetServoRotaSpd+0x4c>
     204:	1f 91       	pop	r17
     206:	0f 91       	pop	r16
     208:	08 95       	ret

0000020a <MFSetServoPos>:
     20a:	ef 92       	push	r14
     20c:	ff 92       	push	r15
     20e:	0f 93       	push	r16
     210:	1f 93       	push	r17
     212:	86 2f       	mov	r24, r22
     214:	e0 91 c8 03 	lds	r30, 0x03C8
     218:	f0 91 c9 03 	lds	r31, 0x03C9
     21c:	b9 01       	movw	r22, r18
     21e:	a7 01       	movw	r20, r14
     220:	09 95       	icall
     222:	80 91 66 0c 	lds	r24, 0x0C66
     226:	8f 5f       	subi	r24, 0xFF	; 255
     228:	80 93 66 0c 	sts	0x0C66, r24
     22c:	81 31       	cpi	r24, 0x11	; 17
     22e:	40 f0       	brcs	.+16     	; 0x240 <MFSetServoPos+0x36>
     230:	0e 94 d2 00 	call	0x1a4	; 0x1a4 <MFServoAction>
     234:	10 92 66 0c 	sts	0x0C66, r1
     238:	80 ed       	ldi	r24, 0xD0	; 208
     23a:	97 e0       	ldi	r25, 0x07	; 7
     23c:	01 97       	sbiw	r24, 0x01	; 1
     23e:	f1 f7       	brne	.-4      	; 0x23c <MFSetServoPos+0x32>
     240:	1f 91       	pop	r17
     242:	0f 91       	pop	r16
     244:	ff 90       	pop	r15
     246:	ef 90       	pop	r14
     248:	08 95       	ret

0000024a <MFInitServoMapping>:
     24a:	e0 91 e2 03 	lds	r30, 0x03E2
     24e:	f0 91 e3 03 	lds	r31, 0x03E3
     252:	09 95       	icall
     254:	08 95       	ret

00000256 <Uart0SetDCB>:
     256:	e0 91 46 08 	lds	r30, 0x0846
     25a:	f0 91 47 08 	lds	r31, 0x0847
     25e:	09 95       	icall
     260:	08 95       	ret

00000262 <Uart0Send>:
     262:	e0 91 4c 08 	lds	r30, 0x084C
     266:	f0 91 4d 08 	lds	r31, 0x084D
     26a:	09 95       	icall
     26c:	e0 91 4e 08 	lds	r30, 0x084E
     270:	f0 91 4f 08 	lds	r31, 0x084F
     274:	09 95       	icall
     276:	08 95       	ret

00000278 <Uart1SetDCB>:
     278:	e0 91 67 08 	lds	r30, 0x0867
     27c:	f0 91 68 08 	lds	r31, 0x0868
     280:	09 95       	icall
     282:	08 95       	ret

00000284 <Uart1Send>:
     284:	e0 91 6d 08 	lds	r30, 0x086D
     288:	f0 91 6e 08 	lds	r31, 0x086E
     28c:	09 95       	icall
     28e:	e0 91 6f 08 	lds	r30, 0x086F
     292:	f0 91 70 08 	lds	r31, 0x0870
     296:	09 95       	icall
     298:	08 95       	ret

0000029a <MFInit>:
     29a:	0e 94 7d 41 	call	0x82fa	; 0x82fa <InitDevices>
     29e:	08 95       	ret

000002a0 <ClearSystemClock>:
     2a0:	10 92 06 01 	sts	0x0106, r1
     2a4:	10 92 07 01 	sts	0x0107, r1
     2a8:	10 92 08 01 	sts	0x0108, r1
     2ac:	10 92 09 01 	sts	0x0109, r1
     2b0:	08 95       	ret

000002b2 <GetSystemClock>:
     2b2:	fc 01       	movw	r30, r24
     2b4:	80 91 06 01 	lds	r24, 0x0106
     2b8:	90 91 07 01 	lds	r25, 0x0107
     2bc:	a0 91 08 01 	lds	r26, 0x0108
     2c0:	b0 91 09 01 	lds	r27, 0x0109
     2c4:	80 83       	st	Z, r24
     2c6:	91 83       	std	Z+1, r25	; 0x01
     2c8:	a2 83       	std	Z+2, r26	; 0x02
     2ca:	b3 83       	std	Z+3, r27	; 0x03
     2cc:	08 95       	ret

000002ce <DelaySystemMs>:
     2ce:	10 92 0b 01 	sts	0x010B, r1
     2d2:	10 92 0a 01 	sts	0x010A, r1
     2d6:	9c 01       	movw	r18, r24
     2d8:	36 95       	lsr	r19
     2da:	27 95       	ror	r18
     2dc:	45 e3       	ldi	r20, 0x35	; 53
     2de:	03 c0       	rjmp	.+6      	; 0x2e6 <DelaySystemMs+0x18>
     2e0:	84 2f       	mov	r24, r20
     2e2:	8a 95       	dec	r24
     2e4:	f1 f7       	brne	.-4      	; 0x2e2 <DelaySystemMs+0x14>
     2e6:	80 91 0a 01 	lds	r24, 0x010A
     2ea:	90 91 0b 01 	lds	r25, 0x010B
     2ee:	28 17       	cp	r18, r24
     2f0:	39 07       	cpc	r19, r25
     2f2:	b0 f7       	brcc	.-20     	; 0x2e0 <DelaySystemMs+0x12>
     2f4:	08 95       	ret

000002f6 <DelaySystemS>:
     2f6:	0f 93       	push	r16
     2f8:	1f 93       	push	r17
     2fa:	40 91 06 01 	lds	r20, 0x0106
     2fe:	50 91 07 01 	lds	r21, 0x0107
     302:	60 91 08 01 	lds	r22, 0x0108
     306:	70 91 09 01 	lds	r23, 0x0109
     30a:	90 e0       	ldi	r25, 0x00	; 0
     30c:	24 ef       	ldi	r18, 0xF4	; 244
     30e:	31 e0       	ldi	r19, 0x01	; 1
     310:	fc 01       	movw	r30, r24
     312:	e2 9f       	mul	r30, r18
     314:	c0 01       	movw	r24, r0
     316:	e3 9f       	mul	r30, r19
     318:	90 0d       	add	r25, r0
     31a:	f2 9f       	mul	r31, r18
     31c:	90 0d       	add	r25, r0
     31e:	11 24       	eor	r1, r1
     320:	8c 01       	movw	r16, r24
     322:	22 27       	eor	r18, r18
     324:	17 fd       	sbrc	r17, 7
     326:	20 95       	com	r18
     328:	32 2f       	mov	r19, r18
     32a:	04 0f       	add	r16, r20
     32c:	15 1f       	adc	r17, r21
     32e:	26 1f       	adc	r18, r22
     330:	37 1f       	adc	r19, r23
     332:	80 91 06 01 	lds	r24, 0x0106
     336:	90 91 07 01 	lds	r25, 0x0107
     33a:	a0 91 08 01 	lds	r26, 0x0108
     33e:	b0 91 09 01 	lds	r27, 0x0109
     342:	80 17       	cp	r24, r16
     344:	91 07       	cpc	r25, r17
     346:	a2 07       	cpc	r26, r18
     348:	b3 07       	cpc	r27, r19
     34a:	98 f3       	brcs	.-26     	; 0x332 <DelaySystemS+0x3c>
     34c:	1f 91       	pop	r17
     34e:	0f 91       	pop	r16
     350:	08 95       	ret

00000352 <ServeSystemClock>:
     352:	80 91 06 01 	lds	r24, 0x0106
     356:	90 91 07 01 	lds	r25, 0x0107
     35a:	a0 91 08 01 	lds	r26, 0x0108
     35e:	b0 91 09 01 	lds	r27, 0x0109
     362:	01 96       	adiw	r24, 0x01	; 1
     364:	a1 1d       	adc	r26, r1
     366:	b1 1d       	adc	r27, r1
     368:	80 93 06 01 	sts	0x0106, r24
     36c:	90 93 07 01 	sts	0x0107, r25
     370:	a0 93 08 01 	sts	0x0108, r26
     374:	b0 93 09 01 	sts	0x0109, r27
     378:	80 91 0a 01 	lds	r24, 0x010A
     37c:	90 91 0b 01 	lds	r25, 0x010B
     380:	01 96       	adiw	r24, 0x01	; 1
     382:	90 93 0b 01 	sts	0x010B, r25
     386:	80 93 0a 01 	sts	0x010A, r24
     38a:	08 95       	ret

0000038c <FillSlaveSendStructByArray>:
     38c:	cf 93       	push	r28
     38e:	df 93       	push	r29
     390:	ec 01       	movw	r28, r24
     392:	9b 01       	movw	r18, r22
     394:	fc 01       	movw	r30, r24
     396:	e4 56       	subi	r30, 0x64	; 100
     398:	ff 4f       	sbci	r31, 0xFF	; 255
     39a:	c1 5b       	subi	r28, 0xB1	; 177
     39c:	de 4f       	sbci	r29, 0xFE	; 254
     39e:	88 81       	ld	r24, Y
     3a0:	80 83       	st	Z, r24
     3a2:	cf 5a       	subi	r28, 0xAF	; 175
     3a4:	d0 40       	sbci	r29, 0x00	; 0
     3a6:	fb 01       	movw	r30, r22
     3a8:	80 81       	ld	r24, Z
     3aa:	88 83       	st	Y, r24
     3ac:	23 97       	sbiw	r28, 0x03	; 3
     3ae:	81 81       	ldd	r24, Z+1	; 0x01
     3b0:	89 93       	st	Y+, r24
     3b2:	82 81       	ldd	r24, Z+2	; 0x02
     3b4:	88 83       	st	Y, r24
     3b6:	ce 59       	subi	r28, 0x9E	; 158
     3b8:	d0 40       	sbci	r29, 0x00	; 0
     3ba:	90 e0       	ldi	r25, 0x00	; 0
     3bc:	0c c0       	rjmp	.+24     	; 0x3d6 <FillSlaveSendStructByArray+0x4a>
     3be:	e9 2f       	mov	r30, r25
     3c0:	f0 e0       	ldi	r31, 0x00	; 0
     3c2:	de 01       	movw	r26, r28
     3c4:	ae 0f       	add	r26, r30
     3c6:	bf 1f       	adc	r27, r31
     3c8:	af 55       	subi	r26, 0x5F	; 95
     3ca:	bf 4f       	sbci	r27, 0xFF	; 255
     3cc:	e4 0f       	add	r30, r20
     3ce:	f5 1f       	adc	r31, r21
     3d0:	80 81       	ld	r24, Z
     3d2:	8c 93       	st	X, r24
     3d4:	9f 5f       	subi	r25, 0xFF	; 255
     3d6:	f9 01       	movw	r30, r18
     3d8:	80 81       	ld	r24, Z
     3da:	98 17       	cp	r25, r24
     3dc:	80 f3       	brcs	.-32     	; 0x3be <FillSlaveSendStructByArray+0x32>
     3de:	fe 01       	movw	r30, r28
     3e0:	ec 5a       	subi	r30, 0xAC	; 172
     3e2:	fe 4f       	sbci	r31, 0xFE	; 254
     3e4:	80 81       	ld	r24, Z
     3e6:	80 7c       	andi	r24, 0xC0	; 192
     3e8:	80 83       	st	Z, r24
     3ea:	c1 56       	subi	r28, 0x61	; 97
     3ec:	df 4f       	sbci	r29, 0xFF	; 255
     3ee:	88 83       	st	Y, r24
     3f0:	df 91       	pop	r29
     3f2:	cf 91       	pop	r28
     3f4:	08 95       	ret

000003f6 <GetAdcSamplingAtTimes>:
     3f6:	0f 93       	push	r16
     3f8:	1f 93       	push	r17
     3fa:	df 93       	push	r29
     3fc:	cf 93       	push	r28
     3fe:	cd b7       	in	r28, 0x3d	; 61
     400:	de b7       	in	r29, 0x3e	; 62
     402:	63 97       	sbiw	r28, 0x13	; 19
     404:	0f b6       	in	r0, 0x3f	; 63
     406:	f8 94       	cli
     408:	de bf       	out	0x3e, r29	; 62
     40a:	0f be       	out	0x3f, r0	; 63
     40c:	cd bf       	out	0x3d, r28	; 61
     40e:	8c 01       	movw	r16, r24
     410:	83 e0       	ldi	r24, 0x03	; 3
     412:	89 83       	std	Y+1, r24	; 0x01
     414:	80 91 18 01 	lds	r24, 0x0118
     418:	8a 83       	std	Y+2, r24	; 0x02
     41a:	80 91 19 01 	lds	r24, 0x0119
     41e:	8b 83       	std	Y+3, r24	; 0x03
     420:	80 91 1b 01 	lds	r24, 0x011B
     424:	8c 83       	std	Y+4, r24	; 0x04
     426:	e0 91 a9 06 	lds	r30, 0x06A9
     42a:	f0 91 aa 06 	lds	r31, 0x06AA
     42e:	be 01       	movw	r22, r28
     430:	64 5f       	subi	r22, 0xF4	; 244
     432:	7f 4f       	sbci	r23, 0xFF	; 255
     434:	09 95       	icall
     436:	28 2f       	mov	r18, r24
     438:	81 30       	cpi	r24, 0x01	; 1
     43a:	11 f0       	breq	.+4      	; 0x440 <GetAdcSamplingAtTimes+0x4a>
     43c:	89 e0       	ldi	r24, 0x09	; 9
     43e:	1a c0       	rjmp	.+52     	; 0x474 <GetAdcSamplingAtTimes+0x7e>
     440:	9c 85       	ldd	r25, Y+12	; 0x0c
     442:	8d 85       	ldd	r24, Y+13	; 0x0d
     444:	2b 87       	std	Y+11, r18	; 0x0b
     446:	8d 83       	std	Y+5, r24	; 0x05
     448:	9e 83       	std	Y+6, r25	; 0x06
     44a:	c8 01       	movw	r24, r16
     44c:	be 01       	movw	r22, r28
     44e:	6f 5f       	subi	r22, 0xFF	; 255
     450:	7f 4f       	sbci	r23, 0xFF	; 255
     452:	ae 01       	movw	r20, r28
     454:	4c 5f       	subi	r20, 0xFC	; 252
     456:	5f 4f       	sbci	r21, 0xFF	; 255
     458:	0e 94 c6 01 	call	0x38c	; 0x38c <FillSlaveSendStructByArray>
     45c:	f8 01       	movw	r30, r16
     45e:	60 81       	ld	r22, Z
     460:	71 81       	ldd	r23, Z+1	; 0x01
     462:	e0 91 87 06 	lds	r30, 0x0687
     466:	f0 91 88 06 	lds	r31, 0x0688
     46a:	c8 01       	movw	r24, r16
     46c:	84 56       	subi	r24, 0x64	; 100
     46e:	9f 4f       	sbci	r25, 0xFF	; 255
     470:	09 95       	icall
     472:	80 e0       	ldi	r24, 0x00	; 0
     474:	63 96       	adiw	r28, 0x13	; 19
     476:	0f b6       	in	r0, 0x3f	; 63
     478:	f8 94       	cli
     47a:	de bf       	out	0x3e, r29	; 62
     47c:	0f be       	out	0x3f, r0	; 63
     47e:	cd bf       	out	0x3d, r28	; 61
     480:	cf 91       	pop	r28
     482:	df 91       	pop	r29
     484:	1f 91       	pop	r17
     486:	0f 91       	pop	r16
     488:	08 95       	ret

0000048a <GetAdcMultiAtTimes>:
     48a:	6f 92       	push	r6
     48c:	7f 92       	push	r7
     48e:	9f 92       	push	r9
     490:	af 92       	push	r10
     492:	bf 92       	push	r11
     494:	cf 92       	push	r12
     496:	df 92       	push	r13
     498:	ef 92       	push	r14
     49a:	ff 92       	push	r15
     49c:	0f 93       	push	r16
     49e:	1f 93       	push	r17
     4a0:	df 93       	push	r29
     4a2:	cf 93       	push	r28
     4a4:	cd b7       	in	r28, 0x3d	; 61
     4a6:	de b7       	in	r29, 0x3e	; 62
     4a8:	a7 97       	sbiw	r28, 0x27	; 39
     4aa:	0f b6       	in	r0, 0x3f	; 63
     4ac:	f8 94       	cli
     4ae:	de bf       	out	0x3e, r29	; 62
     4b0:	0f be       	out	0x3f, r0	; 63
     4b2:	cd bf       	out	0x3d, r28	; 61
     4b4:	6c 01       	movw	r12, r24
     4b6:	e6 2e       	mov	r14, r22
     4b8:	66 23       	and	r22, r22
     4ba:	11 f4       	brne	.+4      	; 0x4c0 <GetAdcMultiAtTimes+0x36>
     4bc:	89 e0       	ldi	r24, 0x09	; 9
     4be:	5d c0       	rjmp	.+186    	; 0x57a <GetAdcMultiAtTimes+0xf0>
     4c0:	6c 83       	std	Y+4, r22	; 0x04
     4c2:	99 24       	eor	r9, r9
     4c4:	93 94       	inc	r9
     4c6:	ff 24       	eor	r15, r15
     4c8:	00 e0       	ldi	r16, 0x00	; 0
     4ca:	10 e0       	ldi	r17, 0x00	; 0
     4cc:	a6 2e       	mov	r10, r22
     4ce:	bb 24       	eor	r11, r11
     4d0:	26 e1       	ldi	r18, 0x16	; 22
     4d2:	62 2e       	mov	r6, r18
     4d4:	71 2c       	mov	r7, r1
     4d6:	6c 0e       	add	r6, r28
     4d8:	7d 1e       	adc	r7, r29
     4da:	c5 01       	movw	r24, r10
     4dc:	00 2e       	mov	r0, r16
     4de:	02 c0       	rjmp	.+4      	; 0x4e4 <GetAdcMultiAtTimes+0x5a>
     4e0:	95 95       	asr	r25
     4e2:	87 95       	ror	r24
     4e4:	0a 94       	dec	r0
     4e6:	e2 f7       	brpl	.-8      	; 0x4e0 <GetAdcMultiAtTimes+0x56>
     4e8:	80 ff       	sbrs	r24, 0
     4ea:	0f c0       	rjmp	.+30     	; 0x50a <GetAdcMultiAtTimes+0x80>
     4ec:	6f 2d       	mov	r22, r15
     4ee:	70 e0       	ldi	r23, 0x00	; 0
     4f0:	66 0f       	add	r22, r22
     4f2:	77 1f       	adc	r23, r23
     4f4:	66 0d       	add	r22, r6
     4f6:	77 1d       	adc	r23, r7
     4f8:	e0 91 a9 06 	lds	r30, 0x06A9
     4fc:	f0 91 aa 06 	lds	r31, 0x06AA
     500:	80 2f       	mov	r24, r16
     502:	09 95       	icall
     504:	f3 94       	inc	r15
     506:	82 e0       	ldi	r24, 0x02	; 2
     508:	98 0e       	add	r9, r24
     50a:	0f 5f       	subi	r16, 0xFF	; 255
     50c:	1f 4f       	sbci	r17, 0xFF	; 255
     50e:	08 30       	cpi	r16, 0x08	; 8
     510:	11 05       	cpc	r17, r1
     512:	19 f7       	brne	.-58     	; 0x4da <GetAdcMultiAtTimes+0x50>
     514:	fe 01       	movw	r30, r28
     516:	76 96       	adiw	r30, 0x16	; 22
     518:	de 01       	movw	r26, r28
     51a:	15 96       	adiw	r26, 0x05	; 5
     51c:	6f 2d       	mov	r22, r15
     51e:	70 e0       	ldi	r23, 0x00	; 0
     520:	66 0f       	add	r22, r22
     522:	77 1f       	adc	r23, r23
     524:	6e 0f       	add	r22, r30
     526:	7f 1f       	adc	r23, r31
     528:	08 c0       	rjmp	.+16     	; 0x53a <GetAdcMultiAtTimes+0xb0>
     52a:	90 81       	ld	r25, Z
     52c:	81 81       	ldd	r24, Z+1	; 0x01
     52e:	8c 93       	st	X, r24
     530:	11 96       	adiw	r26, 0x01	; 1
     532:	9c 93       	st	X, r25
     534:	11 97       	sbiw	r26, 0x01	; 1
     536:	32 96       	adiw	r30, 0x02	; 2
     538:	12 96       	adiw	r26, 0x02	; 2
     53a:	e6 17       	cp	r30, r22
     53c:	f7 07       	cpc	r31, r23
     53e:	a9 f7       	brne	.-22     	; 0x52a <GetAdcMultiAtTimes+0xa0>
     540:	ec 82       	std	Y+4, r14	; 0x04
     542:	80 91 1f 01 	lds	r24, 0x011F
     546:	8a 83       	std	Y+2, r24	; 0x02
     548:	80 91 20 01 	lds	r24, 0x0120
     54c:	8b 83       	std	Y+3, r24	; 0x03
     54e:	99 82       	std	Y+1, r9	; 0x01
     550:	c6 01       	movw	r24, r12
     552:	be 01       	movw	r22, r28
     554:	6f 5f       	subi	r22, 0xFF	; 255
     556:	7f 4f       	sbci	r23, 0xFF	; 255
     558:	ae 01       	movw	r20, r28
     55a:	4c 5f       	subi	r20, 0xFC	; 252
     55c:	5f 4f       	sbci	r21, 0xFF	; 255
     55e:	0e 94 c6 01 	call	0x38c	; 0x38c <FillSlaveSendStructByArray>
     562:	f6 01       	movw	r30, r12
     564:	60 81       	ld	r22, Z
     566:	71 81       	ldd	r23, Z+1	; 0x01
     568:	e0 91 87 06 	lds	r30, 0x0687
     56c:	f0 91 88 06 	lds	r31, 0x0688
     570:	c6 01       	movw	r24, r12
     572:	84 56       	subi	r24, 0x64	; 100
     574:	9f 4f       	sbci	r25, 0xFF	; 255
     576:	09 95       	icall
     578:	80 e0       	ldi	r24, 0x00	; 0
     57a:	a7 96       	adiw	r28, 0x27	; 39
     57c:	0f b6       	in	r0, 0x3f	; 63
     57e:	f8 94       	cli
     580:	de bf       	out	0x3e, r29	; 62
     582:	0f be       	out	0x3f, r0	; 63
     584:	cd bf       	out	0x3d, r28	; 61
     586:	cf 91       	pop	r28
     588:	df 91       	pop	r29
     58a:	1f 91       	pop	r17
     58c:	0f 91       	pop	r16
     58e:	ff 90       	pop	r15
     590:	ef 90       	pop	r14
     592:	df 90       	pop	r13
     594:	cf 90       	pop	r12
     596:	bf 90       	pop	r11
     598:	af 90       	pop	r10
     59a:	9f 90       	pop	r9
     59c:	7f 90       	pop	r7
     59e:	6f 90       	pop	r6
     5a0:	08 95       	ret

000005a2 <GetAdcAllAtTimes>:
     5a2:	ef 92       	push	r14
     5a4:	ff 92       	push	r15
     5a6:	0f 93       	push	r16
     5a8:	1f 93       	push	r17
     5aa:	df 93       	push	r29
     5ac:	cf 93       	push	r28
     5ae:	cd b7       	in	r28, 0x3d	; 61
     5b0:	de b7       	in	r29, 0x3e	; 62
     5b2:	6e 97       	sbiw	r28, 0x1e	; 30
     5b4:	0f b6       	in	r0, 0x3f	; 63
     5b6:	f8 94       	cli
     5b8:	de bf       	out	0x3e, r29	; 62
     5ba:	0f be       	out	0x3f, r0	; 63
     5bc:	cd bf       	out	0x3d, r28	; 61
     5be:	7c 01       	movw	r14, r24
     5c0:	8e 01       	movw	r16, r28
     5c2:	02 5f       	subi	r16, 0xF2	; 242
     5c4:	1f 4f       	sbci	r17, 0xFF	; 255
     5c6:	90 e0       	ldi	r25, 0x00	; 0
     5c8:	e0 91 a9 06 	lds	r30, 0x06A9
     5cc:	f0 91 aa 06 	lds	r31, 0x06AA
     5d0:	89 2f       	mov	r24, r25
     5d2:	b8 01       	movw	r22, r16
     5d4:	9e 8f       	std	Y+30, r25	; 0x1e
     5d6:	09 95       	icall
     5d8:	9e 8d       	ldd	r25, Y+30	; 0x1e
     5da:	9f 5f       	subi	r25, 0xFF	; 255
     5dc:	0e 5f       	subi	r16, 0xFE	; 254
     5de:	1f 4f       	sbci	r17, 0xFF	; 255
     5e0:	98 30       	cpi	r25, 0x08	; 8
     5e2:	91 f7       	brne	.-28     	; 0x5c8 <GetAdcAllAtTimes+0x26>
     5e4:	50 91 26 01 	lds	r21, 0x0126
     5e8:	40 91 27 01 	lds	r20, 0x0127
     5ec:	fe 01       	movw	r30, r28
     5ee:	3e 96       	adiw	r30, 0x0e	; 14
     5f0:	de 01       	movw	r26, r28
     5f2:	14 96       	adiw	r26, 0x04	; 4
     5f4:	9e 01       	movw	r18, r28
     5f6:	22 5e       	subi	r18, 0xE2	; 226
     5f8:	3f 4f       	sbci	r19, 0xFF	; 255
     5fa:	90 81       	ld	r25, Z
     5fc:	81 81       	ldd	r24, Z+1	; 0x01
     5fe:	8c 93       	st	X, r24
     600:	11 96       	adiw	r26, 0x01	; 1
     602:	9c 93       	st	X, r25
     604:	11 97       	sbiw	r26, 0x01	; 1
     606:	32 96       	adiw	r30, 0x02	; 2
     608:	12 96       	adiw	r26, 0x02	; 2
     60a:	e2 17       	cp	r30, r18
     60c:	f3 07       	cpc	r31, r19
     60e:	a9 f7       	brne	.-22     	; 0x5fa <GetAdcAllAtTimes+0x58>
     610:	4b 83       	std	Y+3, r20	; 0x03
     612:	5a 83       	std	Y+2, r21	; 0x02
     614:	80 e1       	ldi	r24, 0x10	; 16
     616:	89 83       	std	Y+1, r24	; 0x01
     618:	c7 01       	movw	r24, r14
     61a:	be 01       	movw	r22, r28
     61c:	6f 5f       	subi	r22, 0xFF	; 255
     61e:	7f 4f       	sbci	r23, 0xFF	; 255
     620:	ae 01       	movw	r20, r28
     622:	4c 5f       	subi	r20, 0xFC	; 252
     624:	5f 4f       	sbci	r21, 0xFF	; 255
     626:	0e 94 c6 01 	call	0x38c	; 0x38c <FillSlaveSendStructByArray>
     62a:	f7 01       	movw	r30, r14
     62c:	60 81       	ld	r22, Z
     62e:	71 81       	ldd	r23, Z+1	; 0x01
     630:	e0 91 87 06 	lds	r30, 0x0687
     634:	f0 91 88 06 	lds	r31, 0x0688
     638:	c7 01       	movw	r24, r14
     63a:	84 56       	subi	r24, 0x64	; 100
     63c:	9f 4f       	sbci	r25, 0xFF	; 255
     63e:	09 95       	icall
     640:	80 e0       	ldi	r24, 0x00	; 0
     642:	6e 96       	adiw	r28, 0x1e	; 30
     644:	0f b6       	in	r0, 0x3f	; 63
     646:	f8 94       	cli
     648:	de bf       	out	0x3e, r29	; 62
     64a:	0f be       	out	0x3f, r0	; 63
     64c:	cd bf       	out	0x3d, r28	; 61
     64e:	cf 91       	pop	r28
     650:	df 91       	pop	r29
     652:	1f 91       	pop	r17
     654:	0f 91       	pop	r16
     656:	ff 90       	pop	r15
     658:	ef 90       	pop	r14
     65a:	08 95       	ret

0000065c <GetIoInputAtTimes>:
     65c:	0f 93       	push	r16
     65e:	1f 93       	push	r17
     660:	df 93       	push	r29
     662:	cf 93       	push	r28
     664:	cd b7       	in	r28, 0x3d	; 61
     666:	de b7       	in	r29, 0x3e	; 62
     668:	29 97       	sbiw	r28, 0x09	; 9
     66a:	0f b6       	in	r0, 0x3f	; 63
     66c:	f8 94       	cli
     66e:	de bf       	out	0x3e, r29	; 62
     670:	0f be       	out	0x3f, r0	; 63
     672:	cd bf       	out	0x3d, r28	; 61
     674:	8c 01       	movw	r16, r24
     676:	e0 91 4c 07 	lds	r30, 0x074C
     67a:	f0 91 4d 07 	lds	r31, 0x074D
     67e:	ce 01       	movw	r24, r28
     680:	06 96       	adiw	r24, 0x06	; 6
     682:	09 95       	icall
     684:	82 e0       	ldi	r24, 0x02	; 2
     686:	8b 83       	std	Y+3, r24	; 0x03
     688:	80 91 2d 01 	lds	r24, 0x012D
     68c:	8c 83       	std	Y+4, r24	; 0x04
     68e:	80 91 2e 01 	lds	r24, 0x012E
     692:	8d 83       	std	Y+5, r24	; 0x05
     694:	9e 81       	ldd	r25, Y+6	; 0x06
     696:	8f 81       	ldd	r24, Y+7	; 0x07
     698:	89 83       	std	Y+1, r24	; 0x01
     69a:	9a 83       	std	Y+2, r25	; 0x02
     69c:	c8 01       	movw	r24, r16
     69e:	be 01       	movw	r22, r28
     6a0:	6d 5f       	subi	r22, 0xFD	; 253
     6a2:	7f 4f       	sbci	r23, 0xFF	; 255
     6a4:	ae 01       	movw	r20, r28
     6a6:	4f 5f       	subi	r20, 0xFF	; 255
     6a8:	5f 4f       	sbci	r21, 0xFF	; 255
     6aa:	0e 94 c6 01 	call	0x38c	; 0x38c <FillSlaveSendStructByArray>
     6ae:	f8 01       	movw	r30, r16
     6b0:	60 81       	ld	r22, Z
     6b2:	71 81       	ldd	r23, Z+1	; 0x01
     6b4:	e0 91 87 06 	lds	r30, 0x0687
     6b8:	f0 91 88 06 	lds	r31, 0x0688
     6bc:	c8 01       	movw	r24, r16
     6be:	84 56       	subi	r24, 0x64	; 100
     6c0:	9f 4f       	sbci	r25, 0xFF	; 255
     6c2:	09 95       	icall
     6c4:	80 e0       	ldi	r24, 0x00	; 0
     6c6:	29 96       	adiw	r28, 0x09	; 9
     6c8:	0f b6       	in	r0, 0x3f	; 63
     6ca:	f8 94       	cli
     6cc:	de bf       	out	0x3e, r29	; 62
     6ce:	0f be       	out	0x3f, r0	; 63
     6d0:	cd bf       	out	0x3d, r28	; 61
     6d2:	cf 91       	pop	r28
     6d4:	df 91       	pop	r29
     6d6:	1f 91       	pop	r17
     6d8:	0f 91       	pop	r16
     6da:	08 95       	ret

000006dc <GetServoPositionMultiAtTimes>:
     6dc:	af 92       	push	r10
     6de:	bf 92       	push	r11
     6e0:	cf 92       	push	r12
     6e2:	df 92       	push	r13
     6e4:	ef 92       	push	r14
     6e6:	ff 92       	push	r15
     6e8:	0f 93       	push	r16
     6ea:	1f 93       	push	r17
     6ec:	df 93       	push	r29
     6ee:	cf 93       	push	r28
     6f0:	cd b7       	in	r28, 0x3d	; 61
     6f2:	de b7       	in	r29, 0x3e	; 62
     6f4:	cc 57       	subi	r28, 0x7C	; 124
     6f6:	d0 40       	sbci	r29, 0x00	; 0
     6f8:	0f b6       	in	r0, 0x3f	; 63
     6fa:	f8 94       	cli
     6fc:	de bf       	out	0x3e, r29	; 62
     6fe:	0f be       	out	0x3f, r0	; 63
     700:	cd bf       	out	0x3d, r28	; 61
     702:	6c 01       	movw	r12, r24
     704:	80 91 34 01 	lds	r24, 0x0134
     708:	23 e0       	ldi	r18, 0x03	; 3
     70a:	82 9f       	mul	r24, r18
     70c:	c0 01       	movw	r24, r0
     70e:	11 24       	eor	r1, r1
     710:	89 83       	std	Y+1, r24	; 0x01
     712:	80 91 35 01 	lds	r24, 0x0135
     716:	8a 83       	std	Y+2, r24	; 0x02
     718:	80 91 36 01 	lds	r24, 0x0136
     71c:	8b 83       	std	Y+3, r24	; 0x03
     71e:	00 e0       	ldi	r16, 0x00	; 0
     720:	5c e7       	ldi	r21, 0x7C	; 124
     722:	e5 2e       	mov	r14, r21
     724:	f1 2c       	mov	r15, r1
     726:	ec 0e       	add	r14, r28
     728:	fd 1e       	adc	r15, r29
     72a:	44 e0       	ldi	r20, 0x04	; 4
     72c:	a4 2e       	mov	r10, r20
     72e:	b1 2c       	mov	r11, r1
     730:	ac 0e       	add	r10, r28
     732:	bd 1e       	adc	r11, r29
     734:	16 c0       	rjmp	.+44     	; 0x762 <GetServoPositionMultiAtTimes+0x86>
     736:	f7 01       	movw	r30, r14
     738:	10 81       	ld	r17, Z
     73a:	e0 2f       	mov	r30, r16
     73c:	f0 e0       	ldi	r31, 0x00	; 0
     73e:	bf 01       	movw	r22, r30
     740:	66 0f       	add	r22, r22
     742:	77 1f       	adc	r23, r23
     744:	6a 0d       	add	r22, r10
     746:	7b 1d       	adc	r23, r11
     748:	20 91 d8 03 	lds	r18, 0x03D8
     74c:	30 91 d9 03 	lds	r19, 0x03D9
     750:	ea 5e       	subi	r30, 0xEA	; 234
     752:	fe 4f       	sbci	r31, 0xFE	; 254
     754:	82 a1       	ldd	r24, Z+34	; 0x22
     756:	f9 01       	movw	r30, r18
     758:	09 95       	icall
     75a:	18 23       	and	r17, r24
     75c:	f7 01       	movw	r30, r14
     75e:	10 83       	st	Z, r17
     760:	0f 5f       	subi	r16, 0xFF	; 255
     762:	10 91 34 01 	lds	r17, 0x0134
     766:	01 17       	cp	r16, r17
     768:	30 f3       	brcs	.-52     	; 0x736 <GetServoPositionMultiAtTimes+0x5a>
     76a:	f7 01       	movw	r30, r14
     76c:	80 81       	ld	r24, Z
     76e:	81 30       	cpi	r24, 0x01	; 1
     770:	11 f0       	breq	.+4      	; 0x776 <GetServoPositionMultiAtTimes+0x9a>
     772:	89 e0       	ldi	r24, 0x09	; 9
     774:	30 c0       	rjmp	.+96     	; 0x7d6 <GetServoPositionMultiAtTimes+0xfa>
     776:	fc 80       	ldd	r15, Y+4	; 0x04
     778:	0d 81       	ldd	r16, Y+5	; 0x05
     77a:	ce 01       	movw	r24, r28
     77c:	80 5c       	subi	r24, 0xC0	; 192
     77e:	9f 4f       	sbci	r25, 0xFF	; 255
     780:	bc 01       	movw	r22, r24
     782:	6f 5f       	subi	r22, 0xFF	; 255
     784:	7f 4f       	sbci	r23, 0xFF	; 255
     786:	20 e0       	ldi	r18, 0x00	; 0
     788:	30 e0       	ldi	r19, 0x00	; 0
     78a:	ac 01       	movw	r20, r24
     78c:	10 c0       	rjmp	.+32     	; 0x7ae <GetServoPositionMultiAtTimes+0xd2>
     78e:	fa 01       	movw	r30, r20
     790:	e2 0f       	add	r30, r18
     792:	f3 1f       	adc	r31, r19
     794:	d9 01       	movw	r26, r18
     796:	aa 5e       	subi	r26, 0xEA	; 234
     798:	be 4f       	sbci	r27, 0xFE	; 254
     79a:	92 96       	adiw	r26, 0x22	; 34
     79c:	8c 91       	ld	r24, X
     79e:	80 83       	st	Z, r24
     7a0:	fb 01       	movw	r30, r22
     7a2:	00 83       	st	Z, r16
     7a4:	f1 82       	std	Z+1, r15	; 0x01
     7a6:	2f 5f       	subi	r18, 0xFF	; 255
     7a8:	3f 4f       	sbci	r19, 0xFF	; 255
     7aa:	6d 5f       	subi	r22, 0xFD	; 253
     7ac:	7f 4f       	sbci	r23, 0xFF	; 255
     7ae:	21 17       	cp	r18, r17
     7b0:	70 f3       	brcs	.-36     	; 0x78e <GetServoPositionMultiAtTimes+0xb2>
     7b2:	c6 01       	movw	r24, r12
     7b4:	be 01       	movw	r22, r28
     7b6:	6f 5f       	subi	r22, 0xFF	; 255
     7b8:	7f 4f       	sbci	r23, 0xFF	; 255
     7ba:	0e 94 c6 01 	call	0x38c	; 0x38c <FillSlaveSendStructByArray>
     7be:	f6 01       	movw	r30, r12
     7c0:	60 81       	ld	r22, Z
     7c2:	71 81       	ldd	r23, Z+1	; 0x01
     7c4:	e0 91 87 06 	lds	r30, 0x0687
     7c8:	f0 91 88 06 	lds	r31, 0x0688
     7cc:	c6 01       	movw	r24, r12
     7ce:	84 56       	subi	r24, 0x64	; 100
     7d0:	9f 4f       	sbci	r25, 0xFF	; 255
     7d2:	09 95       	icall
     7d4:	80 e0       	ldi	r24, 0x00	; 0
     7d6:	c4 58       	subi	r28, 0x84	; 132
     7d8:	df 4f       	sbci	r29, 0xFF	; 255
     7da:	0f b6       	in	r0, 0x3f	; 63
     7dc:	f8 94       	cli
     7de:	de bf       	out	0x3e, r29	; 62
     7e0:	0f be       	out	0x3f, r0	; 63
     7e2:	cd bf       	out	0x3d, r28	; 61
     7e4:	cf 91       	pop	r28
     7e6:	df 91       	pop	r29
     7e8:	1f 91       	pop	r17
     7ea:	0f 91       	pop	r16
     7ec:	ff 90       	pop	r15
     7ee:	ef 90       	pop	r14
     7f0:	df 90       	pop	r13
     7f2:	cf 90       	pop	r12
     7f4:	bf 90       	pop	r11
     7f6:	af 90       	pop	r10
     7f8:	08 95       	ret

000007fa <SetServoPositionMultiAtTimes>:
     7fa:	6f 92       	push	r6
     7fc:	7f 92       	push	r7
     7fe:	8f 92       	push	r8
     800:	9f 92       	push	r9
     802:	af 92       	push	r10
     804:	bf 92       	push	r11
     806:	df 92       	push	r13
     808:	ef 92       	push	r14
     80a:	ff 92       	push	r15
     80c:	0f 93       	push	r16
     80e:	1f 93       	push	r17
     810:	df 93       	push	r29
     812:	cf 93       	push	r28
     814:	cd b7       	in	r28, 0x3d	; 61
     816:	de b7       	in	r29, 0x3e	; 62
     818:	c8 57       	subi	r28, 0x78	; 120
     81a:	d0 40       	sbci	r29, 0x00	; 0
     81c:	0f b6       	in	r0, 0x3f	; 63
     81e:	f8 94       	cli
     820:	de bf       	out	0x3e, r29	; 62
     822:	0f be       	out	0x3f, r0	; 63
     824:	cd bf       	out	0x3d, r28	; 61
     826:	5b 01       	movw	r10, r22
     828:	80 91 6a 01 	lds	r24, 0x016A
     82c:	88 23       	and	r24, r24
     82e:	11 f4       	brne	.+4      	; 0x834 <SetServoPositionMultiAtTimes+0x3a>
     830:	83 e0       	ldi	r24, 0x03	; 3
     832:	4b c0       	rjmp	.+150    	; 0x8ca <SetServoPositionMultiAtTimes+0xd0>
     834:	dd 24       	eor	r13, r13
     836:	3e 01       	movw	r6, r28
     838:	08 94       	sec
     83a:	61 1c       	adc	r6, r1
     83c:	71 1c       	adc	r7, r1
     83e:	87 e9       	ldi	r24, 0x97	; 151
     840:	88 2e       	mov	r8, r24
     842:	91 2c       	mov	r9, r1
     844:	86 0e       	add	r8, r22
     846:	97 1e       	adc	r9, r23
     848:	38 c0       	rjmp	.+112    	; 0x8ba <SetServoPositionMultiAtTimes+0xc0>
     84a:	8d 2d       	mov	r24, r13
     84c:	90 e0       	ldi	r25, 0x00	; 0
     84e:	bc 01       	movw	r22, r24
     850:	66 0f       	add	r22, r22
     852:	77 1f       	adc	r23, r23
     854:	fc 01       	movw	r30, r24
     856:	ee 0f       	add	r30, r30
     858:	ff 1f       	adc	r31, r31
     85a:	ee 0f       	add	r30, r30
     85c:	ff 1f       	adc	r31, r31
     85e:	e8 0f       	add	r30, r24
     860:	f9 1f       	adc	r31, r25
     862:	9b 01       	movw	r18, r22
     864:	22 0f       	add	r18, r18
     866:	33 1f       	adc	r19, r19
     868:	26 0d       	add	r18, r6
     86a:	37 1d       	adc	r19, r7
     86c:	ea 0d       	add	r30, r10
     86e:	fb 1d       	adc	r31, r11
     870:	f1 80       	ldd	r15, Z+1	; 0x01
     872:	ee 24       	eor	r14, r14
     874:	82 81       	ldd	r24, Z+2	; 0x02
     876:	90 e0       	ldi	r25, 0x00	; 0
     878:	8e 29       	or	r24, r14
     87a:	9f 29       	or	r25, r15
     87c:	d9 01       	movw	r26, r18
     87e:	8d 93       	st	X+, r24
     880:	9c 93       	st	X, r25
     882:	13 81       	ldd	r17, Z+3	; 0x03
     884:	00 e0       	ldi	r16, 0x00	; 0
     886:	44 81       	ldd	r20, Z+4	; 0x04
     888:	50 e0       	ldi	r21, 0x00	; 0
     88a:	40 2b       	or	r20, r16
     88c:	51 2b       	or	r21, r17
     88e:	6f 5f       	subi	r22, 0xFF	; 255
     890:	7f 4f       	sbci	r23, 0xFF	; 255
     892:	66 0f       	add	r22, r22
     894:	77 1f       	adc	r23, r23
     896:	66 0d       	add	r22, r6
     898:	77 1d       	adc	r23, r7
     89a:	db 01       	movw	r26, r22
     89c:	4d 93       	st	X+, r20
     89e:	5c 93       	st	X, r21
     8a0:	d9 01       	movw	r26, r18
     8a2:	6d 91       	ld	r22, X+
     8a4:	7c 91       	ld	r23, X
     8a6:	20 91 c8 03 	lds	r18, 0x03C8
     8aa:	30 91 c9 03 	lds	r19, 0x03C9
     8ae:	80 81       	ld	r24, Z
     8b0:	f9 01       	movw	r30, r18
     8b2:	09 95       	icall
     8b4:	f4 01       	movw	r30, r8
     8b6:	80 83       	st	Z, r24
     8b8:	d3 94       	inc	r13
     8ba:	80 91 6a 01 	lds	r24, 0x016A
     8be:	65 e0       	ldi	r22, 0x05	; 5
     8c0:	0e 94 88 42 	call	0x8510	; 0x8510 <__udivmodqi4>
     8c4:	d8 16       	cp	r13, r24
     8c6:	08 f2       	brcs	.-126    	; 0x84a <SetServoPositionMultiAtTimes+0x50>
     8c8:	80 e0       	ldi	r24, 0x00	; 0
     8ca:	c8 58       	subi	r28, 0x88	; 136
     8cc:	df 4f       	sbci	r29, 0xFF	; 255
     8ce:	0f b6       	in	r0, 0x3f	; 63
     8d0:	f8 94       	cli
     8d2:	de bf       	out	0x3e, r29	; 62
     8d4:	0f be       	out	0x3f, r0	; 63
     8d6:	cd bf       	out	0x3d, r28	; 61
     8d8:	cf 91       	pop	r28
     8da:	df 91       	pop	r29
     8dc:	1f 91       	pop	r17
     8de:	0f 91       	pop	r16
     8e0:	ff 90       	pop	r15
     8e2:	ef 90       	pop	r14
     8e4:	df 90       	pop	r13
     8e6:	bf 90       	pop	r11
     8e8:	af 90       	pop	r10
     8ea:	9f 90       	pop	r9
     8ec:	8f 90       	pop	r8
     8ee:	7f 90       	pop	r7
     8f0:	6f 90       	pop	r6
     8f2:	08 95       	ret

000008f4 <SetServoVelocityMultiAtTimes>:
     8f4:	cf 92       	push	r12
     8f6:	df 92       	push	r13
     8f8:	ef 92       	push	r14
     8fa:	ff 92       	push	r15
     8fc:	0f 93       	push	r16
     8fe:	1f 93       	push	r17
     900:	df 93       	push	r29
     902:	cf 93       	push	r28
     904:	0f 92       	push	r0
     906:	cd b7       	in	r28, 0x3d	; 61
     908:	de b7       	in	r29, 0x3e	; 62
     90a:	8b 01       	movw	r16, r22
     90c:	80 91 05 02 	lds	r24, 0x0205
     910:	88 23       	and	r24, r24
     912:	11 f4       	brne	.+4      	; 0x918 <SetServoVelocityMultiAtTimes+0x24>
     914:	83 e0       	ldi	r24, 0x03	; 3
     916:	2e c0       	rjmp	.+92     	; 0x974 <SetServoVelocityMultiAtTimes+0x80>
     918:	90 e0       	ldi	r25, 0x00	; 0
     91a:	47 e9       	ldi	r20, 0x97	; 151
     91c:	e4 2e       	mov	r14, r20
     91e:	f1 2c       	mov	r15, r1
     920:	e6 0e       	add	r14, r22
     922:	f7 1e       	adc	r15, r23
     924:	20 c0       	rjmp	.+64     	; 0x966 <SetServoVelocityMultiAtTimes+0x72>
     926:	e9 2f       	mov	r30, r25
     928:	f0 e0       	ldi	r31, 0x00	; 0
     92a:	ee 0f       	add	r30, r30
     92c:	ff 1f       	adc	r31, r31
     92e:	ee 0f       	add	r30, r30
     930:	ff 1f       	adc	r31, r31
     932:	d8 01       	movw	r26, r16
     934:	ae 0f       	add	r26, r30
     936:	bf 1f       	adc	r27, r31
     938:	e0 0f       	add	r30, r16
     93a:	f1 1f       	adc	r31, r17
     93c:	d2 80       	ldd	r13, Z+2	; 0x02
     93e:	cc 24       	eor	r12, r12
     940:	13 96       	adiw	r26, 0x03	; 3
     942:	4c 91       	ld	r20, X
     944:	13 97       	sbiw	r26, 0x03	; 3
     946:	50 e0       	ldi	r21, 0x00	; 0
     948:	4c 29       	or	r20, r12
     94a:	5d 29       	or	r21, r13
     94c:	e0 91 ce 03 	lds	r30, 0x03CE
     950:	f0 91 cf 03 	lds	r31, 0x03CF
     954:	8c 91       	ld	r24, X
     956:	11 96       	adiw	r26, 0x01	; 1
     958:	6c 91       	ld	r22, X
     95a:	99 83       	std	Y+1, r25	; 0x01
     95c:	09 95       	icall
     95e:	d7 01       	movw	r26, r14
     960:	8c 93       	st	X, r24
     962:	99 81       	ldd	r25, Y+1	; 0x01
     964:	9f 5f       	subi	r25, 0xFF	; 255
     966:	80 91 05 02 	lds	r24, 0x0205
     96a:	86 95       	lsr	r24
     96c:	86 95       	lsr	r24
     96e:	98 17       	cp	r25, r24
     970:	d0 f2       	brcs	.-76     	; 0x926 <SetServoVelocityMultiAtTimes+0x32>
     972:	80 e0       	ldi	r24, 0x00	; 0
     974:	0f 90       	pop	r0
     976:	cf 91       	pop	r28
     978:	df 91       	pop	r29
     97a:	1f 91       	pop	r17
     97c:	0f 91       	pop	r16
     97e:	ff 90       	pop	r15
     980:	ef 90       	pop	r14
     982:	df 90       	pop	r13
     984:	cf 90       	pop	r12
     986:	08 95       	ret

00000988 <SetServoModeMultiAtTimes>:
     988:	ef 92       	push	r14
     98a:	ff 92       	push	r15
     98c:	1f 93       	push	r17
     98e:	df 93       	push	r29
     990:	cf 93       	push	r28
     992:	00 d0       	rcall	.+0      	; 0x994 <SetServoModeMultiAtTimes+0xc>
     994:	0f 92       	push	r0
     996:	cd b7       	in	r28, 0x3d	; 61
     998:	de b7       	in	r29, 0x3e	; 62
     99a:	7c 01       	movw	r14, r24
     99c:	20 91 a1 02 	lds	r18, 0x02A1
     9a0:	90 91 a2 02 	lds	r25, 0x02A2
     9a4:	80 91 a0 02 	lds	r24, 0x02A0
     9a8:	88 23       	and	r24, r24
     9aa:	11 f4       	brne	.+4      	; 0x9b0 <SetServoModeMultiAtTimes+0x28>
     9ac:	83 e0       	ldi	r24, 0x03	; 3
     9ae:	38 c0       	rjmp	.+112    	; 0xa20 <SetServoModeMultiAtTimes+0x98>
     9b0:	19 82       	std	Y+1, r1	; 0x01
     9b2:	2a 83       	std	Y+2, r18	; 0x02
     9b4:	9b 83       	std	Y+3, r25	; 0x03
     9b6:	90 e0       	ldi	r25, 0x00	; 0
     9b8:	10 e0       	ldi	r17, 0x00	; 0
     9ba:	15 c0       	rjmp	.+42     	; 0x9e6 <SetServoModeMultiAtTimes+0x5e>
     9bc:	e1 2f       	mov	r30, r17
     9be:	f0 e0       	ldi	r31, 0x00	; 0
     9c0:	ee 0f       	add	r30, r30
     9c2:	ff 1f       	adc	r31, r31
     9c4:	ea 5e       	subi	r30, 0xEA	; 234
     9c6:	fe 4f       	sbci	r31, 0xFE	; 254
     9c8:	df 01       	movw	r26, r30
     9ca:	a1 57       	subi	r26, 0x71	; 113
     9cc:	be 4f       	sbci	r27, 0xFE	; 254
     9ce:	20 91 c4 03 	lds	r18, 0x03C4
     9d2:	30 91 c5 03 	lds	r19, 0x03C5
     9d6:	e2 57       	subi	r30, 0x72	; 114
     9d8:	fe 4f       	sbci	r31, 0xFE	; 254
     9da:	80 81       	ld	r24, Z
     9dc:	6c 91       	ld	r22, X
     9de:	f9 01       	movw	r30, r18
     9e0:	09 95       	icall
     9e2:	98 2f       	mov	r25, r24
     9e4:	1f 5f       	subi	r17, 0xFF	; 255
     9e6:	80 91 a0 02 	lds	r24, 0x02A0
     9ea:	86 95       	lsr	r24
     9ec:	18 17       	cp	r17, r24
     9ee:	30 f3       	brcs	.-52     	; 0x9bc <SetServoModeMultiAtTimes+0x34>
     9f0:	91 30       	cpi	r25, 0x01	; 1
     9f2:	11 f0       	breq	.+4      	; 0x9f8 <SetServoModeMultiAtTimes+0x70>
     9f4:	89 e0       	ldi	r24, 0x09	; 9
     9f6:	14 c0       	rjmp	.+40     	; 0xa20 <SetServoModeMultiAtTimes+0x98>
     9f8:	c7 01       	movw	r24, r14
     9fa:	be 01       	movw	r22, r28
     9fc:	6f 5f       	subi	r22, 0xFF	; 255
     9fe:	7f 4f       	sbci	r23, 0xFF	; 255
     a00:	44 ea       	ldi	r20, 0xA4	; 164
     a02:	52 e0       	ldi	r21, 0x02	; 2
     a04:	0e 94 c6 01 	call	0x38c	; 0x38c <FillSlaveSendStructByArray>
     a08:	f7 01       	movw	r30, r14
     a0a:	60 81       	ld	r22, Z
     a0c:	71 81       	ldd	r23, Z+1	; 0x01
     a0e:	e0 91 87 06 	lds	r30, 0x0687
     a12:	f0 91 88 06 	lds	r31, 0x0688
     a16:	c7 01       	movw	r24, r14
     a18:	84 56       	subi	r24, 0x64	; 100
     a1a:	9f 4f       	sbci	r25, 0xFF	; 255
     a1c:	09 95       	icall
     a1e:	80 e0       	ldi	r24, 0x00	; 0
     a20:	0f 90       	pop	r0
     a22:	0f 90       	pop	r0
     a24:	0f 90       	pop	r0
     a26:	cf 91       	pop	r28
     a28:	df 91       	pop	r29
     a2a:	1f 91       	pop	r17
     a2c:	ff 90       	pop	r15
     a2e:	ef 90       	pop	r14
     a30:	08 95       	ret

00000a32 <SetServoTorqueMultiAtTimes>:
     a32:	ef 92       	push	r14
     a34:	ff 92       	push	r15
     a36:	1f 93       	push	r17
     a38:	df 93       	push	r29
     a3a:	cf 93       	push	r28
     a3c:	00 d0       	rcall	.+0      	; 0xa3e <SetServoTorqueMultiAtTimes+0xc>
     a3e:	0f 92       	push	r0
     a40:	cd b7       	in	r28, 0x3d	; 61
     a42:	de b7       	in	r29, 0x3e	; 62
     a44:	7c 01       	movw	r14, r24
     a46:	20 91 e1 02 	lds	r18, 0x02E1
     a4a:	90 91 e2 02 	lds	r25, 0x02E2
     a4e:	80 91 e0 02 	lds	r24, 0x02E0
     a52:	88 23       	and	r24, r24
     a54:	11 f4       	brne	.+4      	; 0xa5a <SetServoTorqueMultiAtTimes+0x28>
     a56:	83 e0       	ldi	r24, 0x03	; 3
     a58:	38 c0       	rjmp	.+112    	; 0xaca <SetServoTorqueMultiAtTimes+0x98>
     a5a:	19 82       	std	Y+1, r1	; 0x01
     a5c:	2a 83       	std	Y+2, r18	; 0x02
     a5e:	9b 83       	std	Y+3, r25	; 0x03
     a60:	90 e0       	ldi	r25, 0x00	; 0
     a62:	10 e0       	ldi	r17, 0x00	; 0
     a64:	15 c0       	rjmp	.+42     	; 0xa90 <SetServoTorqueMultiAtTimes+0x5e>
     a66:	e1 2f       	mov	r30, r17
     a68:	f0 e0       	ldi	r31, 0x00	; 0
     a6a:	ee 0f       	add	r30, r30
     a6c:	ff 1f       	adc	r31, r31
     a6e:	ea 5e       	subi	r30, 0xEA	; 234
     a70:	fe 4f       	sbci	r31, 0xFE	; 254
     a72:	df 01       	movw	r26, r30
     a74:	a1 53       	subi	r26, 0x31	; 49
     a76:	be 4f       	sbci	r27, 0xFE	; 254
     a78:	20 91 c6 03 	lds	r18, 0x03C6
     a7c:	30 91 c7 03 	lds	r19, 0x03C7
     a80:	e2 53       	subi	r30, 0x32	; 50
     a82:	fe 4f       	sbci	r31, 0xFE	; 254
     a84:	80 81       	ld	r24, Z
     a86:	6c 91       	ld	r22, X
     a88:	f9 01       	movw	r30, r18
     a8a:	09 95       	icall
     a8c:	98 2f       	mov	r25, r24
     a8e:	1f 5f       	subi	r17, 0xFF	; 255
     a90:	80 91 e0 02 	lds	r24, 0x02E0
     a94:	86 95       	lsr	r24
     a96:	18 17       	cp	r17, r24
     a98:	30 f3       	brcs	.-52     	; 0xa66 <SetServoTorqueMultiAtTimes+0x34>
     a9a:	91 30       	cpi	r25, 0x01	; 1
     a9c:	11 f0       	breq	.+4      	; 0xaa2 <SetServoTorqueMultiAtTimes+0x70>
     a9e:	89 e0       	ldi	r24, 0x09	; 9
     aa0:	14 c0       	rjmp	.+40     	; 0xaca <SetServoTorqueMultiAtTimes+0x98>
     aa2:	c7 01       	movw	r24, r14
     aa4:	be 01       	movw	r22, r28
     aa6:	6f 5f       	subi	r22, 0xFF	; 255
     aa8:	7f 4f       	sbci	r23, 0xFF	; 255
     aaa:	44 ee       	ldi	r20, 0xE4	; 228
     aac:	52 e0       	ldi	r21, 0x02	; 2
     aae:	0e 94 c6 01 	call	0x38c	; 0x38c <FillSlaveSendStructByArray>
     ab2:	f7 01       	movw	r30, r14
     ab4:	60 81       	ld	r22, Z
     ab6:	71 81       	ldd	r23, Z+1	; 0x01
     ab8:	e0 91 87 06 	lds	r30, 0x0687
     abc:	f0 91 88 06 	lds	r31, 0x0688
     ac0:	c7 01       	movw	r24, r14
     ac2:	84 56       	subi	r24, 0x64	; 100
     ac4:	9f 4f       	sbci	r25, 0xFF	; 255
     ac6:	09 95       	icall
     ac8:	80 e0       	ldi	r24, 0x00	; 0
     aca:	0f 90       	pop	r0
     acc:	0f 90       	pop	r0
     ace:	0f 90       	pop	r0
     ad0:	cf 91       	pop	r28
     ad2:	df 91       	pop	r29
     ad4:	1f 91       	pop	r17
     ad6:	ff 90       	pop	r15
     ad8:	ef 90       	pop	r14
     ada:	08 95       	ret

00000adc <CommandParse>:
     adc:	cf 92       	push	r12
     ade:	df 92       	push	r13
     ae0:	ef 92       	push	r14
     ae2:	ff 92       	push	r15
     ae4:	0f 93       	push	r16
     ae6:	1f 93       	push	r17
     ae8:	df 93       	push	r29
     aea:	cf 93       	push	r28
     aec:	cd b7       	in	r28, 0x3d	; 61
     aee:	de b7       	in	r29, 0x3e	; 62
     af0:	60 97       	sbiw	r28, 0x10	; 16
     af2:	0f b6       	in	r0, 0x3f	; 63
     af4:	f8 94       	cli
     af6:	de bf       	out	0x3e, r29	; 62
     af8:	0f be       	out	0x3f, r0	; 63
     afa:	cd bf       	out	0x3d, r28	; 61
     afc:	8c 01       	movw	r16, r24
     afe:	e4 e5       	ldi	r30, 0x54	; 84
     b00:	ce 2e       	mov	r12, r30
     b02:	e1 e0       	ldi	r30, 0x01	; 1
     b04:	de 2e       	mov	r13, r30
     b06:	c8 0e       	add	r12, r24
     b08:	d9 1e       	adc	r13, r25
     b0a:	d6 01       	movw	r26, r12
     b0c:	2c 91       	ld	r18, X
     b0e:	82 2f       	mov	r24, r18
     b10:	8f 73       	andi	r24, 0x3F	; 63
     b12:	7f e4       	ldi	r23, 0x4F	; 79
     b14:	e7 2e       	mov	r14, r23
     b16:	71 e0       	ldi	r23, 0x01	; 1
     b18:	f7 2e       	mov	r15, r23
     b1a:	e0 0e       	add	r14, r16
     b1c:	f1 1e       	adc	r15, r17
     b1e:	84 31       	cpi	r24, 0x14	; 20
     b20:	09 f5       	brne	.+66     	; 0xb64 <CommandParse+0x88>
     b22:	04 56       	subi	r16, 0x64	; 100
     b24:	1f 4f       	sbci	r17, 0xFF	; 255
     b26:	f7 01       	movw	r30, r14
     b28:	80 81       	ld	r24, Z
     b2a:	d8 01       	movw	r26, r16
     b2c:	8c 93       	st	X, r24
     b2e:	0c 5f       	subi	r16, 0xFC	; 252
     b30:	1f 4f       	sbci	r17, 0xFF	; 255
     b32:	f8 01       	movw	r30, r16
     b34:	10 82       	st	Z, r1
     b36:	00 5a       	subi	r16, 0xA0	; 160
     b38:	10 40       	sbci	r17, 0x00	; 0
     b3a:	d8 01       	movw	r26, r16
     b3c:	13 96       	adiw	r26, 0x03	; 3
     b3e:	8c 91       	ld	r24, X
     b40:	03 56       	subi	r16, 0x63	; 99
     b42:	1f 4f       	sbci	r17, 0xFF	; 255
     b44:	f8 01       	movw	r30, r16
     b46:	80 83       	st	Z, r24
     b48:	0d 59       	subi	r16, 0x9D	; 157
     b4a:	10 40       	sbci	r17, 0x00	; 0
     b4c:	d8 01       	movw	r26, r16
     b4e:	14 96       	adiw	r26, 0x04	; 4
     b50:	8c 91       	ld	r24, X
     b52:	02 56       	subi	r16, 0x62	; 98
     b54:	1f 4f       	sbci	r17, 0xFF	; 255
     b56:	f8 01       	movw	r30, r16
     b58:	80 83       	st	Z, r24
     b5a:	0f 5f       	subi	r16, 0xFF	; 255
     b5c:	1f 4f       	sbci	r17, 0xFF	; 255
     b5e:	d8 01       	movw	r26, r16
     b60:	2c 93       	st	X, r18
     b62:	1d c4       	rjmp	.+2106   	; 0x139e <__stack+0x29f>
     b64:	f7 01       	movw	r30, r14
     b66:	90 81       	ld	r25, Z
     b68:	d8 01       	movw	r26, r16
     b6a:	12 96       	adiw	r26, 0x02	; 2
     b6c:	8c 91       	ld	r24, X
     b6e:	12 97       	sbiw	r26, 0x02	; 2
     b70:	98 17       	cp	r25, r24
     b72:	09 f0       	breq	.+2      	; 0xb76 <CommandParse+0x9a>
     b74:	85 c4       	rjmp	.+2314   	; 0x1480 <__stack+0x381>
     b76:	13 96       	adiw	r26, 0x03	; 3
     b78:	8c 91       	ld	r24, X
     b7a:	86 30       	cpi	r24, 0x06	; 6
     b7c:	38 f4       	brcc	.+14     	; 0xb8c <CommandParse+0xb0>
     b7e:	84 30       	cpi	r24, 0x04	; 4
     b80:	08 f0       	brcs	.+2      	; 0xb84 <CommandParse+0xa8>
     b82:	7e c4       	rjmp	.+2300   	; 0x1480 <__stack+0x381>
     b84:	82 30       	cpi	r24, 0x02	; 2
     b86:	08 f0       	brcs	.+2      	; 0xb8a <CommandParse+0xae>
     b88:	4f c4       	rjmp	.+2206   	; 0x1428 <__stack+0x329>
     b8a:	7a c4       	rjmp	.+2292   	; 0x1480 <__stack+0x381>
     b8c:	87 30       	cpi	r24, 0x07	; 7
     b8e:	09 f4       	brne	.+2      	; 0xb92 <CommandParse+0xb6>
     b90:	9a c0       	rjmp	.+308    	; 0xcc6 <CommandParse+0x1ea>
     b92:	87 30       	cpi	r24, 0x07	; 7
     b94:	38 f0       	brcs	.+14     	; 0xba4 <CommandParse+0xc8>
     b96:	88 30       	cpi	r24, 0x08	; 8
     b98:	09 f4       	brne	.+2      	; 0xb9c <CommandParse+0xc0>
     b9a:	3d c1       	rjmp	.+634    	; 0xe16 <CommandParse+0x33a>
     b9c:	80 3a       	cpi	r24, 0xA0	; 160
     b9e:	09 f0       	breq	.+2      	; 0xba2 <CommandParse+0xc6>
     ba0:	43 c4       	rjmp	.+2182   	; 0x1428 <__stack+0x329>
     ba2:	b3 c3       	rjmp	.+1894   	; 0x130a <__stack+0x20b>
     ba4:	f8 01       	movw	r30, r16
     ba6:	84 81       	ldd	r24, Z+4	; 0x04
     ba8:	81 32       	cpi	r24, 0x21	; 33
     baa:	09 f4       	brne	.+2      	; 0xbae <CommandParse+0xd2>
     bac:	5c c0       	rjmp	.+184    	; 0xc66 <CommandParse+0x18a>
     bae:	82 32       	cpi	r24, 0x22	; 34
     bb0:	30 f4       	brcc	.+12     	; 0xbbe <CommandParse+0xe2>
     bb2:	88 23       	and	r24, r24
     bb4:	41 f0       	breq	.+16     	; 0xbc6 <CommandParse+0xea>
     bb6:	80 32       	cpi	r24, 0x20	; 32
     bb8:	09 f0       	breq	.+2      	; 0xbbc <CommandParse+0xe0>
     bba:	2d c4       	rjmp	.+2138   	; 0x1416 <__stack+0x317>
     bbc:	39 c0       	rjmp	.+114    	; 0xc30 <CommandParse+0x154>
     bbe:	80 36       	cpi	r24, 0x60	; 96
     bc0:	09 f0       	breq	.+2      	; 0xbc4 <CommandParse+0xe8>
     bc2:	29 c4       	rjmp	.+2130   	; 0x1416 <__stack+0x317>
     bc4:	6b c0       	rjmp	.+214    	; 0xc9c <CommandParse+0x1c0>
     bc6:	d8 01       	movw	r26, r16
     bc8:	15 96       	adiw	r26, 0x05	; 5
     bca:	8c 91       	ld	r24, X
     bcc:	88 23       	and	r24, r24
     bce:	09 f0       	breq	.+2      	; 0xbd2 <CommandParse+0xf6>
     bd0:	22 c4       	rjmp	.+2116   	; 0x1416 <__stack+0x317>
     bd2:	e0 91 4c 07 	lds	r30, 0x074C
     bd6:	f0 91 4d 07 	lds	r31, 0x074D
     bda:	ce 01       	movw	r24, r28
     bdc:	09 96       	adiw	r24, 0x09	; 9
     bde:	09 95       	icall
     be0:	d8 01       	movw	r26, r16
     be2:	a4 56       	subi	r26, 0x64	; 100
     be4:	bf 4f       	sbci	r27, 0xFF	; 255
     be6:	f7 01       	movw	r30, r14
     be8:	80 81       	ld	r24, Z
     bea:	8c 93       	st	X, r24
     bec:	f8 01       	movw	r30, r16
     bee:	83 81       	ldd	r24, Z+3	; 0x03
     bf0:	03 56       	subi	r16, 0x63	; 99
     bf2:	1f 4f       	sbci	r17, 0xFF	; 255
     bf4:	f8 01       	movw	r30, r16
     bf6:	80 83       	st	Z, r24
     bf8:	0d 59       	subi	r16, 0x9D	; 157
     bfa:	10 40       	sbci	r17, 0x00	; 0
     bfc:	f8 01       	movw	r30, r16
     bfe:	84 81       	ldd	r24, Z+4	; 0x04
     c00:	02 56       	subi	r16, 0x62	; 98
     c02:	1f 4f       	sbci	r17, 0xFF	; 255
     c04:	f8 01       	movw	r30, r16
     c06:	80 83       	st	Z, r24
     c08:	0e 5f       	subi	r16, 0xFE	; 254
     c0a:	1f 4f       	sbci	r17, 0xFF	; 255
     c0c:	82 e0       	ldi	r24, 0x02	; 2
     c0e:	f8 01       	movw	r30, r16
     c10:	81 93       	st	Z+, r24
     c12:	99 85       	ldd	r25, Y+9	; 0x09
     c14:	8a 85       	ldd	r24, Y+10	; 0x0a
     c16:	89 83       	std	Y+1, r24	; 0x01
     c18:	9a 83       	std	Y+2, r25	; 0x02
     c1a:	81 93       	st	Z+, r24
     c1c:	8f 01       	movw	r16, r30
     c1e:	90 83       	st	Z, r25
     c20:	80 91 80 05 	lds	r24, 0x0580
     c24:	80 7c       	andi	r24, 0xC0	; 192
     c26:	80 93 80 05 	sts	0x0580, r24
     c2a:	03 50       	subi	r16, 0x03	; 3
     c2c:	10 40       	sbci	r17, 0x00	; 0
     c2e:	c1 c2       	rjmp	.+1410   	; 0x11b2 <__stack+0xb3>
     c30:	d8 01       	movw	r26, r16
     c32:	15 96       	adiw	r26, 0x05	; 5
     c34:	8c 91       	ld	r24, X
     c36:	15 97       	sbiw	r26, 0x05	; 5
     c38:	82 30       	cpi	r24, 0x02	; 2
     c3a:	09 f0       	breq	.+2      	; 0xc3e <CommandParse+0x162>
     c3c:	ec c3       	rjmp	.+2008   	; 0x1416 <__stack+0x317>
     c3e:	16 96       	adiw	r26, 0x06	; 6
     c40:	4c 91       	ld	r20, X
     c42:	16 97       	sbiw	r26, 0x06	; 6
     c44:	49 83       	std	Y+1, r20	; 0x01
     c46:	17 96       	adiw	r26, 0x07	; 7
     c48:	8c 91       	ld	r24, X
     c4a:	8a 83       	std	Y+2, r24	; 0x02
     c4c:	34 2f       	mov	r19, r20
     c4e:	20 e0       	ldi	r18, 0x00	; 0
     c50:	90 e0       	ldi	r25, 0x00	; 0
     c52:	82 2b       	or	r24, r18
     c54:	93 2b       	or	r25, r19
     c56:	9a 87       	std	Y+10, r25	; 0x0a
     c58:	89 87       	std	Y+9, r24	; 0x09
     c5a:	e0 91 3c 07 	lds	r30, 0x073C
     c5e:	f0 91 3d 07 	lds	r31, 0x073D
     c62:	09 95       	icall
     c64:	5a c2       	rjmp	.+1204   	; 0x111a <__stack+0x1b>
     c66:	d8 01       	movw	r26, r16
     c68:	15 96       	adiw	r26, 0x05	; 5
     c6a:	8c 91       	ld	r24, X
     c6c:	15 97       	sbiw	r26, 0x05	; 5
     c6e:	82 30       	cpi	r24, 0x02	; 2
     c70:	09 f0       	breq	.+2      	; 0xc74 <CommandParse+0x198>
     c72:	d1 c3       	rjmp	.+1954   	; 0x1416 <__stack+0x317>
     c74:	16 96       	adiw	r26, 0x06	; 6
     c76:	4c 91       	ld	r20, X
     c78:	16 97       	sbiw	r26, 0x06	; 6
     c7a:	49 83       	std	Y+1, r20	; 0x01
     c7c:	17 96       	adiw	r26, 0x07	; 7
     c7e:	8c 91       	ld	r24, X
     c80:	8a 83       	std	Y+2, r24	; 0x02
     c82:	34 2f       	mov	r19, r20
     c84:	20 e0       	ldi	r18, 0x00	; 0
     c86:	90 e0       	ldi	r25, 0x00	; 0
     c88:	82 2b       	or	r24, r18
     c8a:	93 2b       	or	r25, r19
     c8c:	9a 87       	std	Y+10, r25	; 0x0a
     c8e:	89 87       	std	Y+9, r24	; 0x09
     c90:	e0 91 40 07 	lds	r30, 0x0740
     c94:	f0 91 41 07 	lds	r31, 0x0741
     c98:	09 95       	icall
     c9a:	0f c2       	rjmp	.+1054   	; 0x10ba <CommandParse+0x5de>
     c9c:	d8 01       	movw	r26, r16
     c9e:	15 96       	adiw	r26, 0x05	; 5
     ca0:	8c 91       	ld	r24, X
     ca2:	15 97       	sbiw	r26, 0x05	; 5
     ca4:	81 30       	cpi	r24, 0x01	; 1
     ca6:	09 f0       	breq	.+2      	; 0xcaa <CommandParse+0x1ce>
     ca8:	b6 c3       	rjmp	.+1900   	; 0x1416 <__stack+0x317>
     caa:	16 96       	adiw	r26, 0x06	; 6
     cac:	8c 91       	ld	r24, X
     cae:	80 93 2b 01 	sts	0x012B, r24
     cb2:	81 50       	subi	r24, 0x01	; 1
     cb4:	84 30       	cpi	r24, 0x04	; 4
     cb6:	18 f4       	brcc	.+6      	; 0xcbe <CommandParse+0x1e2>
     cb8:	85 e0       	ldi	r24, 0x05	; 5
     cba:	80 93 2b 01 	sts	0x012B, r24
     cbe:	c8 01       	movw	r24, r16
     cc0:	0e 94 2e 03 	call	0x65c	; 0x65c <GetIoInputAtTimes>
     cc4:	a4 c0       	rjmp	.+328    	; 0xe0e <CommandParse+0x332>
     cc6:	f8 01       	movw	r30, r16
     cc8:	84 81       	ldd	r24, Z+4	; 0x04
     cca:	81 36       	cpi	r24, 0x61	; 97
     ccc:	09 f4       	brne	.+2      	; 0xcd0 <CommandParse+0x1f4>
     cce:	6c c0       	rjmp	.+216    	; 0xda8 <CommandParse+0x2cc>
     cd0:	82 36       	cpi	r24, 0x62	; 98
     cd2:	30 f4       	brcc	.+12     	; 0xce0 <CommandParse+0x204>
     cd4:	88 23       	and	r24, r24
     cd6:	41 f0       	breq	.+16     	; 0xce8 <CommandParse+0x20c>
     cd8:	80 36       	cpi	r24, 0x60	; 96
     cda:	09 f0       	breq	.+2      	; 0xcde <CommandParse+0x202>
     cdc:	9c c3       	rjmp	.+1848   	; 0x1416 <__stack+0x317>
     cde:	42 c0       	rjmp	.+132    	; 0xd64 <CommandParse+0x288>
     ce0:	82 36       	cpi	r24, 0x62	; 98
     ce2:	09 f0       	breq	.+2      	; 0xce6 <CommandParse+0x20a>
     ce4:	98 c3       	rjmp	.+1840   	; 0x1416 <__stack+0x317>
     ce6:	7f c0       	rjmp	.+254    	; 0xde6 <CommandParse+0x30a>
     ce8:	d8 01       	movw	r26, r16
     cea:	15 96       	adiw	r26, 0x05	; 5
     cec:	8c 91       	ld	r24, X
     cee:	81 30       	cpi	r24, 0x01	; 1
     cf0:	09 f0       	breq	.+2      	; 0xcf4 <CommandParse+0x218>
     cf2:	91 c3       	rjmp	.+1826   	; 0x1416 <__stack+0x317>
     cf4:	f8 01       	movw	r30, r16
     cf6:	86 81       	ldd	r24, Z+6	; 0x06
     cf8:	89 83       	std	Y+1, r24	; 0x01
     cfa:	e0 91 a9 06 	lds	r30, 0x06A9
     cfe:	f0 91 aa 06 	lds	r31, 0x06AA
     d02:	be 01       	movw	r22, r28
     d04:	67 5f       	subi	r22, 0xF7	; 247
     d06:	7f 4f       	sbci	r23, 0xFF	; 255
     d08:	09 95       	icall
     d0a:	88 87       	std	Y+8, r24	; 0x08
     d0c:	81 30       	cpi	r24, 0x01	; 1
     d0e:	09 f0       	breq	.+2      	; 0xd12 <CommandParse+0x236>
     d10:	c7 c3       	rjmp	.+1934   	; 0x14a0 <__stack+0x3a1>
     d12:	2a 85       	ldd	r18, Y+10	; 0x0a
     d14:	2a 83       	std	Y+2, r18	; 0x02
     d16:	99 85       	ldd	r25, Y+9	; 0x09
     d18:	9b 83       	std	Y+3, r25	; 0x03
     d1a:	d8 01       	movw	r26, r16
     d1c:	a4 56       	subi	r26, 0x64	; 100
     d1e:	bf 4f       	sbci	r27, 0xFF	; 255
     d20:	f7 01       	movw	r30, r14
     d22:	80 81       	ld	r24, Z
     d24:	8c 93       	st	X, r24
     d26:	f8 01       	movw	r30, r16
     d28:	83 81       	ldd	r24, Z+3	; 0x03
     d2a:	03 56       	subi	r16, 0x63	; 99
     d2c:	1f 4f       	sbci	r17, 0xFF	; 255
     d2e:	f8 01       	movw	r30, r16
     d30:	80 83       	st	Z, r24
     d32:	0d 59       	subi	r16, 0x9D	; 157
     d34:	10 40       	sbci	r17, 0x00	; 0
     d36:	f8 01       	movw	r30, r16
     d38:	84 81       	ldd	r24, Z+4	; 0x04
     d3a:	02 56       	subi	r16, 0x62	; 98
     d3c:	1f 4f       	sbci	r17, 0xFF	; 255
     d3e:	f8 01       	movw	r30, r16
     d40:	80 83       	st	Z, r24
     d42:	0e 5f       	subi	r16, 0xFE	; 254
     d44:	1f 4f       	sbci	r17, 0xFF	; 255
     d46:	83 e0       	ldi	r24, 0x03	; 3
     d48:	f8 01       	movw	r30, r16
     d4a:	81 93       	st	Z+, r24
     d4c:	89 81       	ldd	r24, Y+1	; 0x01
     d4e:	81 93       	st	Z+, r24
     d50:	21 93       	st	Z+, r18
     d52:	8f 01       	movw	r16, r30
     d54:	90 83       	st	Z, r25
     d56:	f6 01       	movw	r30, r12
     d58:	80 81       	ld	r24, Z
     d5a:	80 7c       	andi	r24, 0xC0	; 192
     d5c:	80 83       	st	Z, r24
     d5e:	04 50       	subi	r16, 0x04	; 4
     d60:	10 40       	sbci	r17, 0x00	; 0
     d62:	27 c2       	rjmp	.+1102   	; 0x11b2 <__stack+0xb3>
     d64:	d8 01       	movw	r26, r16
     d66:	16 96       	adiw	r26, 0x06	; 6
     d68:	9c 91       	ld	r25, X
     d6a:	16 97       	sbiw	r26, 0x06	; 6
     d6c:	90 93 1b 01 	sts	0x011B, r25
     d70:	17 96       	adiw	r26, 0x07	; 7
     d72:	8c 91       	ld	r24, X
     d74:	80 93 1c 01 	sts	0x011C, r24
     d78:	98 30       	cpi	r25, 0x08	; 8
     d7a:	10 f0       	brcs	.+4      	; 0xd80 <CommandParse+0x2a4>
     d7c:	82 e0       	ldi	r24, 0x02	; 2
     d7e:	4c c3       	rjmp	.+1688   	; 0x1418 <__stack+0x319>
     d80:	f8 01       	movw	r30, r16
     d82:	87 81       	ldd	r24, Z+7	; 0x07
     d84:	25 e0       	ldi	r18, 0x05	; 5
     d86:	82 9f       	mul	r24, r18
     d88:	c0 01       	movw	r24, r0
     d8a:	11 24       	eor	r1, r1
     d8c:	80 93 16 01 	sts	0x0116, r24
     d90:	81 50       	subi	r24, 0x01	; 1
     d92:	89 30       	cpi	r24, 0x09	; 9
     d94:	18 f4       	brcc	.+6      	; 0xd9c <CommandParse+0x2c0>
     d96:	8a e0       	ldi	r24, 0x0A	; 10
     d98:	80 93 16 01 	sts	0x0116, r24
     d9c:	c8 01       	movw	r24, r16
     d9e:	60 91 1b 01 	lds	r22, 0x011B
     da2:	0e 94 fb 01 	call	0x3f6	; 0x3f6 <GetAdcSamplingAtTimes>
     da6:	33 c0       	rjmp	.+102    	; 0xe0e <CommandParse+0x332>
     da8:	d8 01       	movw	r26, r16
     daa:	16 96       	adiw	r26, 0x06	; 6
     dac:	8c 91       	ld	r24, X
     dae:	16 97       	sbiw	r26, 0x06	; 6
     db0:	80 93 22 01 	sts	0x0122, r24
     db4:	17 96       	adiw	r26, 0x07	; 7
     db6:	8c 91       	ld	r24, X
     db8:	17 97       	sbiw	r26, 0x07	; 7
     dba:	80 93 23 01 	sts	0x0123, r24
     dbe:	17 96       	adiw	r26, 0x07	; 7
     dc0:	8c 91       	ld	r24, X
     dc2:	25 e0       	ldi	r18, 0x05	; 5
     dc4:	82 9f       	mul	r24, r18
     dc6:	c0 01       	movw	r24, r0
     dc8:	11 24       	eor	r1, r1
     dca:	80 93 1d 01 	sts	0x011D, r24
     dce:	81 50       	subi	r24, 0x01	; 1
     dd0:	89 30       	cpi	r24, 0x09	; 9
     dd2:	18 f4       	brcc	.+6      	; 0xdda <CommandParse+0x2fe>
     dd4:	8a e0       	ldi	r24, 0x0A	; 10
     dd6:	80 93 1d 01 	sts	0x011D, r24
     dda:	c8 01       	movw	r24, r16
     ddc:	60 91 22 01 	lds	r22, 0x0122
     de0:	0e 94 45 02 	call	0x48a	; 0x48a <GetAdcMultiAtTimes>
     de4:	14 c0       	rjmp	.+40     	; 0xe0e <CommandParse+0x332>
     de6:	f8 01       	movw	r30, r16
     de8:	86 81       	ldd	r24, Z+6	; 0x06
     dea:	80 93 29 01 	sts	0x0129, r24
     dee:	86 81       	ldd	r24, Z+6	; 0x06
     df0:	25 e0       	ldi	r18, 0x05	; 5
     df2:	82 9f       	mul	r24, r18
     df4:	c0 01       	movw	r24, r0
     df6:	11 24       	eor	r1, r1
     df8:	80 93 24 01 	sts	0x0124, r24
     dfc:	81 50       	subi	r24, 0x01	; 1
     dfe:	89 30       	cpi	r24, 0x09	; 9
     e00:	18 f4       	brcc	.+6      	; 0xe08 <CommandParse+0x32c>
     e02:	8a e0       	ldi	r24, 0x0A	; 10
     e04:	80 93 24 01 	sts	0x0124, r24
     e08:	c8 01       	movw	r24, r16
     e0a:	0e 94 d1 02 	call	0x5a2	; 0x5a2 <GetAdcAllAtTimes>
     e0e:	88 23       	and	r24, r24
     e10:	09 f0       	breq	.+2      	; 0xe14 <CommandParse+0x338>
     e12:	46 c3       	rjmp	.+1676   	; 0x14a0 <__stack+0x3a1>
     e14:	35 c3       	rjmp	.+1642   	; 0x1480 <__stack+0x381>
     e16:	f8 01       	movw	r30, r16
     e18:	84 81       	ldd	r24, Z+4	; 0x04
     e1a:	84 32       	cpi	r24, 0x24	; 36
     e1c:	09 f4       	brne	.+2      	; 0xe20 <CommandParse+0x344>
     e1e:	36 c1       	rjmp	.+620    	; 0x108c <CommandParse+0x5b0>
     e20:	85 32       	cpi	r24, 0x25	; 37
     e22:	b8 f4       	brcc	.+46     	; 0xe52 <CommandParse+0x376>
     e24:	80 32       	cpi	r24, 0x20	; 32
     e26:	09 f4       	brne	.+2      	; 0xe2a <CommandParse+0x34e>
     e28:	a6 c0       	rjmp	.+332    	; 0xf76 <CommandParse+0x49a>
     e2a:	81 32       	cpi	r24, 0x21	; 33
     e2c:	40 f4       	brcc	.+16     	; 0xe3e <CommandParse+0x362>
     e2e:	81 30       	cpi	r24, 0x01	; 1
     e30:	d9 f1       	breq	.+118    	; 0xea8 <CommandParse+0x3cc>
     e32:	81 30       	cpi	r24, 0x01	; 1
     e34:	68 f1       	brcs	.+90     	; 0xe90 <CommandParse+0x3b4>
     e36:	82 30       	cpi	r24, 0x02	; 2
     e38:	09 f0       	breq	.+2      	; 0xe3c <CommandParse+0x360>
     e3a:	ed c2       	rjmp	.+1498   	; 0x1416 <__stack+0x317>
     e3c:	6d c0       	rjmp	.+218    	; 0xf18 <CommandParse+0x43c>
     e3e:	82 32       	cpi	r24, 0x22	; 34
     e40:	09 f4       	brne	.+2      	; 0xe44 <CommandParse+0x368>
     e42:	d6 c0       	rjmp	.+428    	; 0xff0 <CommandParse+0x514>
     e44:	d8 01       	movw	r26, r16
     e46:	15 96       	adiw	r26, 0x05	; 5
     e48:	9c 91       	ld	r25, X
     e4a:	83 32       	cpi	r24, 0x23	; 35
     e4c:	08 f0       	brcs	.+2      	; 0xe50 <CommandParse+0x374>
     e4e:	f3 c0       	rjmp	.+486    	; 0x1036 <CommandParse+0x55a>
     e50:	a5 c0       	rjmp	.+330    	; 0xf9c <CommandParse+0x4c0>
     e52:	80 36       	cpi	r24, 0x60	; 96
     e54:	09 f4       	brne	.+2      	; 0xe58 <CommandParse+0x37c>
     e56:	bb c1       	rjmp	.+886    	; 0x11ce <__stack+0xcf>
     e58:	81 36       	cpi	r24, 0x61	; 97
     e5a:	50 f4       	brcc	.+20     	; 0xe70 <CommandParse+0x394>
     e5c:	80 34       	cpi	r24, 0x40	; 64
     e5e:	09 f4       	brne	.+2      	; 0xe62 <CommandParse+0x386>
     e60:	49 c1       	rjmp	.+658    	; 0x10f4 <CommandParse+0x618>
     e62:	81 34       	cpi	r24, 0x41	; 65
     e64:	09 f4       	brne	.+2      	; 0xe68 <CommandParse+0x38c>
     e66:	68 c1       	rjmp	.+720    	; 0x1138 <__stack+0x39>
     e68:	85 32       	cpi	r24, 0x25	; 37
     e6a:	09 f0       	breq	.+2      	; 0xe6e <CommandParse+0x392>
     e6c:	d4 c2       	rjmp	.+1448   	; 0x1416 <__stack+0x317>
     e6e:	2e c1       	rjmp	.+604    	; 0x10cc <CommandParse+0x5f0>
     e70:	81 37       	cpi	r24, 0x71	; 113
     e72:	09 f4       	brne	.+2      	; 0xe76 <CommandParse+0x39a>
     e74:	d4 c1       	rjmp	.+936    	; 0x121e <__stack+0x11f>
     e76:	82 37       	cpi	r24, 0x72	; 114
     e78:	20 f4       	brcc	.+8      	; 0xe82 <CommandParse+0x3a6>
     e7a:	80 37       	cpi	r24, 0x70	; 112
     e7c:	09 f0       	breq	.+2      	; 0xe80 <CommandParse+0x3a4>
     e7e:	cb c2       	rjmp	.+1430   	; 0x1416 <__stack+0x317>
     e80:	eb c1       	rjmp	.+982    	; 0x1258 <__stack+0x159>
     e82:	82 37       	cpi	r24, 0x72	; 114
     e84:	09 f4       	brne	.+2      	; 0xe88 <CommandParse+0x3ac>
     e86:	23 c2       	rjmp	.+1094   	; 0x12ce <__stack+0x1cf>
     e88:	83 37       	cpi	r24, 0x73	; 115
     e8a:	09 f0       	breq	.+2      	; 0xe8e <CommandParse+0x3b2>
     e8c:	c4 c2       	rjmp	.+1416   	; 0x1416 <__stack+0x317>
     e8e:	00 c2       	rjmp	.+1024   	; 0x1290 <__stack+0x191>
     e90:	f8 01       	movw	r30, r16
     e92:	85 81       	ldd	r24, Z+5	; 0x05
     e94:	81 30       	cpi	r24, 0x01	; 1
     e96:	09 f0       	breq	.+2      	; 0xe9a <CommandParse+0x3be>
     e98:	be c2       	rjmp	.+1404   	; 0x1416 <__stack+0x317>
     e9a:	86 81       	ldd	r24, Z+6	; 0x06
     e9c:	89 83       	std	Y+1, r24	; 0x01
     e9e:	e0 91 d8 03 	lds	r30, 0x03D8
     ea2:	f0 91 d9 03 	lds	r31, 0x03D9
     ea6:	46 c0       	rjmp	.+140    	; 0xf34 <CommandParse+0x458>
     ea8:	d8 01       	movw	r26, r16
     eaa:	15 96       	adiw	r26, 0x05	; 5
     eac:	8c 91       	ld	r24, X
     eae:	15 97       	sbiw	r26, 0x05	; 5
     eb0:	81 30       	cpi	r24, 0x01	; 1
     eb2:	09 f0       	breq	.+2      	; 0xeb6 <CommandParse+0x3da>
     eb4:	b0 c2       	rjmp	.+1376   	; 0x1416 <__stack+0x317>
     eb6:	16 96       	adiw	r26, 0x06	; 6
     eb8:	8c 91       	ld	r24, X
     eba:	89 83       	std	Y+1, r24	; 0x01
     ebc:	e0 91 dc 03 	lds	r30, 0x03DC
     ec0:	f0 91 dd 03 	lds	r31, 0x03DD
     ec4:	be 01       	movw	r22, r28
     ec6:	67 5f       	subi	r22, 0xF7	; 247
     ec8:	7f 4f       	sbci	r23, 0xFF	; 255
     eca:	ae 01       	movw	r20, r28
     ecc:	45 5f       	subi	r20, 0xF5	; 245
     ece:	5f 4f       	sbci	r21, 0xFF	; 255
     ed0:	09 95       	icall
     ed2:	88 87       	std	Y+8, r24	; 0x08
     ed4:	81 30       	cpi	r24, 0x01	; 1
     ed6:	09 f0       	breq	.+2      	; 0xeda <CommandParse+0x3fe>
     ed8:	e3 c2       	rjmp	.+1478   	; 0x14a0 <__stack+0x3a1>
     eda:	d8 01       	movw	r26, r16
     edc:	a4 56       	subi	r26, 0x64	; 100
     ede:	bf 4f       	sbci	r27, 0xFF	; 255
     ee0:	01 5b       	subi	r16, 0xB1	; 177
     ee2:	1e 4f       	sbci	r17, 0xFE	; 254
     ee4:	f8 01       	movw	r30, r16
     ee6:	80 81       	ld	r24, Z
     ee8:	8c 93       	st	X, r24
     eea:	0f 5a       	subi	r16, 0xAF	; 175
     eec:	10 40       	sbci	r17, 0x00	; 0
     eee:	85 e0       	ldi	r24, 0x05	; 5
     ef0:	f8 01       	movw	r30, r16
     ef2:	81 93       	st	Z+, r24
     ef4:	89 81       	ldd	r24, Y+1	; 0x01
     ef6:	81 93       	st	Z+, r24
     ef8:	3a 85       	ldd	r19, Y+10	; 0x0a
     efa:	3c 83       	std	Y+4, r19	; 0x04
     efc:	99 85       	ldd	r25, Y+9	; 0x09
     efe:	9b 83       	std	Y+3, r25	; 0x03
     f00:	2c 85       	ldd	r18, Y+12	; 0x0c
     f02:	2e 83       	std	Y+6, r18	; 0x06
     f04:	8b 85       	ldd	r24, Y+11	; 0x0b
     f06:	8d 83       	std	Y+5, r24	; 0x05
     f08:	91 93       	st	Z+, r25
     f0a:	31 93       	st	Z+, r19
     f0c:	81 93       	st	Z+, r24
     f0e:	8f 01       	movw	r16, r30
     f10:	20 83       	st	Z, r18
     f12:	05 5a       	subi	r16, 0xA5	; 165
     f14:	10 40       	sbci	r17, 0x00	; 0
     f16:	38 c1       	rjmp	.+624    	; 0x1188 <__stack+0x89>
     f18:	d8 01       	movw	r26, r16
     f1a:	15 96       	adiw	r26, 0x05	; 5
     f1c:	8c 91       	ld	r24, X
     f1e:	15 97       	sbiw	r26, 0x05	; 5
     f20:	81 30       	cpi	r24, 0x01	; 1
     f22:	09 f0       	breq	.+2      	; 0xf26 <CommandParse+0x44a>
     f24:	78 c2       	rjmp	.+1264   	; 0x1416 <__stack+0x317>
     f26:	16 96       	adiw	r26, 0x06	; 6
     f28:	8c 91       	ld	r24, X
     f2a:	89 83       	std	Y+1, r24	; 0x01
     f2c:	e0 91 da 03 	lds	r30, 0x03DA
     f30:	f0 91 db 03 	lds	r31, 0x03DB
     f34:	be 01       	movw	r22, r28
     f36:	67 5f       	subi	r22, 0xF7	; 247
     f38:	7f 4f       	sbci	r23, 0xFF	; 255
     f3a:	09 95       	icall
     f3c:	88 87       	std	Y+8, r24	; 0x08
     f3e:	81 30       	cpi	r24, 0x01	; 1
     f40:	09 f0       	breq	.+2      	; 0xf44 <CommandParse+0x468>
     f42:	ae c2       	rjmp	.+1372   	; 0x14a0 <__stack+0x3a1>
     f44:	d8 01       	movw	r26, r16
     f46:	a4 56       	subi	r26, 0x64	; 100
     f48:	bf 4f       	sbci	r27, 0xFF	; 255
     f4a:	01 5b       	subi	r16, 0xB1	; 177
     f4c:	1e 4f       	sbci	r17, 0xFE	; 254
     f4e:	f8 01       	movw	r30, r16
     f50:	80 81       	ld	r24, Z
     f52:	8c 93       	st	X, r24
     f54:	0f 5a       	subi	r16, 0xAF	; 175
     f56:	10 40       	sbci	r17, 0x00	; 0
     f58:	83 e0       	ldi	r24, 0x03	; 3
     f5a:	f8 01       	movw	r30, r16
     f5c:	81 93       	st	Z+, r24
     f5e:	89 81       	ldd	r24, Y+1	; 0x01
     f60:	81 93       	st	Z+, r24
     f62:	9a 85       	ldd	r25, Y+10	; 0x0a
     f64:	9b 83       	std	Y+3, r25	; 0x03
     f66:	89 85       	ldd	r24, Y+9	; 0x09
     f68:	8c 83       	std	Y+4, r24	; 0x04
     f6a:	91 93       	st	Z+, r25
     f6c:	8f 01       	movw	r16, r30
     f6e:	80 83       	st	Z, r24
     f70:	03 5a       	subi	r16, 0xA3	; 163
     f72:	10 40       	sbci	r17, 0x00	; 0
     f74:	09 c1       	rjmp	.+530    	; 0x1188 <__stack+0x89>
     f76:	d8 01       	movw	r26, r16
     f78:	15 96       	adiw	r26, 0x05	; 5
     f7a:	8c 91       	ld	r24, X
     f7c:	15 97       	sbiw	r26, 0x05	; 5
     f7e:	82 30       	cpi	r24, 0x02	; 2
     f80:	09 f0       	breq	.+2      	; 0xf84 <CommandParse+0x4a8>
     f82:	49 c2       	rjmp	.+1170   	; 0x1416 <__stack+0x317>
     f84:	16 96       	adiw	r26, 0x06	; 6
     f86:	8c 91       	ld	r24, X
     f88:	16 97       	sbiw	r26, 0x06	; 6
     f8a:	89 83       	std	Y+1, r24	; 0x01
     f8c:	17 96       	adiw	r26, 0x07	; 7
     f8e:	6c 91       	ld	r22, X
     f90:	6a 83       	std	Y+2, r22	; 0x02
     f92:	e0 91 c4 03 	lds	r30, 0x03C4
     f96:	f0 91 c5 03 	lds	r31, 0x03C5
     f9a:	aa c0       	rjmp	.+340    	; 0x10f0 <CommandParse+0x614>
     f9c:	95 30       	cpi	r25, 0x05	; 5
     f9e:	09 f0       	breq	.+2      	; 0xfa2 <CommandParse+0x4c6>
     fa0:	3a c2       	rjmp	.+1140   	; 0x1416 <__stack+0x317>
     fa2:	d8 01       	movw	r26, r16
     fa4:	16 96       	adiw	r26, 0x06	; 6
     fa6:	8c 91       	ld	r24, X
     fa8:	16 97       	sbiw	r26, 0x06	; 6
     faa:	89 83       	std	Y+1, r24	; 0x01
     fac:	17 96       	adiw	r26, 0x07	; 7
     fae:	9c 91       	ld	r25, X
     fb0:	17 97       	sbiw	r26, 0x07	; 7
     fb2:	9a 83       	std	Y+2, r25	; 0x02
     fb4:	18 96       	adiw	r26, 0x08	; 8
     fb6:	6c 91       	ld	r22, X
     fb8:	18 97       	sbiw	r26, 0x08	; 8
     fba:	6b 83       	std	Y+3, r22	; 0x03
     fbc:	19 96       	adiw	r26, 0x09	; 9
     fbe:	ec 91       	ld	r30, X
     fc0:	19 97       	sbiw	r26, 0x09	; 9
     fc2:	ec 83       	std	Y+4, r30	; 0x04
     fc4:	1a 96       	adiw	r26, 0x0a	; 10
     fc6:	4c 91       	ld	r20, X
     fc8:	4d 83       	std	Y+5, r20	; 0x05
     fca:	39 2f       	mov	r19, r25
     fcc:	20 e0       	ldi	r18, 0x00	; 0
     fce:	70 e0       	ldi	r23, 0x00	; 0
     fd0:	62 2b       	or	r22, r18
     fd2:	73 2b       	or	r23, r19
     fd4:	7a 87       	std	Y+10, r23	; 0x0a
     fd6:	69 87       	std	Y+9, r22	; 0x09
     fd8:	3e 2f       	mov	r19, r30
     fda:	20 e0       	ldi	r18, 0x00	; 0
     fdc:	50 e0       	ldi	r21, 0x00	; 0
     fde:	42 2b       	or	r20, r18
     fe0:	53 2b       	or	r21, r19
     fe2:	5c 87       	std	Y+12, r21	; 0x0c
     fe4:	4b 87       	std	Y+11, r20	; 0x0b
     fe6:	e0 91 c8 03 	lds	r30, 0x03C8
     fea:	f0 91 c9 03 	lds	r31, 0x03C9
     fee:	4c c0       	rjmp	.+152    	; 0x1088 <CommandParse+0x5ac>
     ff0:	d8 01       	movw	r26, r16
     ff2:	15 96       	adiw	r26, 0x05	; 5
     ff4:	8c 91       	ld	r24, X
     ff6:	15 97       	sbiw	r26, 0x05	; 5
     ff8:	84 30       	cpi	r24, 0x04	; 4
     ffa:	09 f0       	breq	.+2      	; 0xffe <CommandParse+0x522>
     ffc:	0c c2       	rjmp	.+1048   	; 0x1416 <__stack+0x317>
     ffe:	16 96       	adiw	r26, 0x06	; 6
    1000:	8c 91       	ld	r24, X
    1002:	16 97       	sbiw	r26, 0x06	; 6
    1004:	89 83       	std	Y+1, r24	; 0x01
    1006:	17 96       	adiw	r26, 0x07	; 7
    1008:	6c 91       	ld	r22, X
    100a:	17 97       	sbiw	r26, 0x07	; 7
    100c:	6a 83       	std	Y+2, r22	; 0x02
    100e:	18 96       	adiw	r26, 0x08	; 8
    1010:	9c 91       	ld	r25, X
    1012:	18 97       	sbiw	r26, 0x08	; 8
    1014:	9b 83       	std	Y+3, r25	; 0x03
    1016:	19 96       	adiw	r26, 0x09	; 9
    1018:	4c 91       	ld	r20, X
    101a:	4c 83       	std	Y+4, r20	; 0x04
    101c:	39 2f       	mov	r19, r25
    101e:	20 e0       	ldi	r18, 0x00	; 0
    1020:	50 e0       	ldi	r21, 0x00	; 0
    1022:	42 2b       	or	r20, r18
    1024:	53 2b       	or	r21, r19
    1026:	5a 87       	std	Y+10, r21	; 0x0a
    1028:	49 87       	std	Y+9, r20	; 0x09
    102a:	e0 91 ce 03 	lds	r30, 0x03CE
    102e:	f0 91 cf 03 	lds	r31, 0x03CF
    1032:	09 95       	icall
    1034:	6e c0       	rjmp	.+220    	; 0x1112 <__stack+0x13>
    1036:	95 30       	cpi	r25, 0x05	; 5
    1038:	09 f0       	breq	.+2      	; 0x103c <CommandParse+0x560>
    103a:	ed c1       	rjmp	.+986    	; 0x1416 <__stack+0x317>
    103c:	d8 01       	movw	r26, r16
    103e:	16 96       	adiw	r26, 0x06	; 6
    1040:	8c 91       	ld	r24, X
    1042:	16 97       	sbiw	r26, 0x06	; 6
    1044:	89 83       	std	Y+1, r24	; 0x01
    1046:	17 96       	adiw	r26, 0x07	; 7
    1048:	9c 91       	ld	r25, X
    104a:	17 97       	sbiw	r26, 0x07	; 7
    104c:	9a 83       	std	Y+2, r25	; 0x02
    104e:	18 96       	adiw	r26, 0x08	; 8
    1050:	6c 91       	ld	r22, X
    1052:	18 97       	sbiw	r26, 0x08	; 8
    1054:	6b 83       	std	Y+3, r22	; 0x03
    1056:	19 96       	adiw	r26, 0x09	; 9
    1058:	ec 91       	ld	r30, X
    105a:	19 97       	sbiw	r26, 0x09	; 9
    105c:	ec 83       	std	Y+4, r30	; 0x04
    105e:	1a 96       	adiw	r26, 0x0a	; 10
    1060:	4c 91       	ld	r20, X
    1062:	4d 83       	std	Y+5, r20	; 0x05
    1064:	39 2f       	mov	r19, r25
    1066:	20 e0       	ldi	r18, 0x00	; 0
    1068:	70 e0       	ldi	r23, 0x00	; 0
    106a:	62 2b       	or	r22, r18
    106c:	73 2b       	or	r23, r19
    106e:	7a 87       	std	Y+10, r23	; 0x0a
    1070:	69 87       	std	Y+9, r22	; 0x09
    1072:	3e 2f       	mov	r19, r30
    1074:	20 e0       	ldi	r18, 0x00	; 0
    1076:	50 e0       	ldi	r21, 0x00	; 0
    1078:	42 2b       	or	r20, r18
    107a:	53 2b       	or	r21, r19
    107c:	5c 87       	std	Y+12, r21	; 0x0c
    107e:	4b 87       	std	Y+11, r20	; 0x0b
    1080:	e0 91 d4 03 	lds	r30, 0x03D4
    1084:	f0 91 d5 03 	lds	r31, 0x03D5
    1088:	09 95       	icall
    108a:	43 c0       	rjmp	.+134    	; 0x1112 <__stack+0x13>
    108c:	d8 01       	movw	r26, r16
    108e:	15 96       	adiw	r26, 0x05	; 5
    1090:	8c 91       	ld	r24, X
    1092:	15 97       	sbiw	r26, 0x05	; 5
    1094:	82 30       	cpi	r24, 0x02	; 2
    1096:	09 f0       	breq	.+2      	; 0x109a <CommandParse+0x5be>
    1098:	be c1       	rjmp	.+892    	; 0x1416 <__stack+0x317>
    109a:	16 96       	adiw	r26, 0x06	; 6
    109c:	8c 91       	ld	r24, X
    109e:	16 97       	sbiw	r26, 0x06	; 6
    10a0:	89 83       	std	Y+1, r24	; 0x01
    10a2:	17 96       	adiw	r26, 0x07	; 7
    10a4:	6c 91       	ld	r22, X
    10a6:	6a 83       	std	Y+2, r22	; 0x02
    10a8:	e0 91 d6 03 	lds	r30, 0x03D6
    10ac:	f0 91 d7 03 	lds	r31, 0x03D7
    10b0:	09 95       	icall
    10b2:	88 87       	std	Y+8, r24	; 0x08
    10b4:	81 30       	cpi	r24, 0x01	; 1
    10b6:	09 f0       	breq	.+2      	; 0x10ba <CommandParse+0x5de>
    10b8:	f3 c1       	rjmp	.+998    	; 0x14a0 <__stack+0x3a1>
    10ba:	d8 01       	movw	r26, r16
    10bc:	a4 56       	subi	r26, 0x64	; 100
    10be:	bf 4f       	sbci	r27, 0xFF	; 255
    10c0:	f7 01       	movw	r30, r14
    10c2:	80 81       	ld	r24, Z
    10c4:	8c 93       	st	X, r24
    10c6:	00 56       	subi	r16, 0x60	; 96
    10c8:	1f 4f       	sbci	r17, 0xFF	; 255
    10ca:	31 c0       	rjmp	.+98     	; 0x112e <__stack+0x2f>
    10cc:	d8 01       	movw	r26, r16
    10ce:	15 96       	adiw	r26, 0x05	; 5
    10d0:	8c 91       	ld	r24, X
    10d2:	15 97       	sbiw	r26, 0x05	; 5
    10d4:	82 30       	cpi	r24, 0x02	; 2
    10d6:	09 f0       	breq	.+2      	; 0x10da <CommandParse+0x5fe>
    10d8:	9e c1       	rjmp	.+828    	; 0x1416 <__stack+0x317>
    10da:	16 96       	adiw	r26, 0x06	; 6
    10dc:	8c 91       	ld	r24, X
    10de:	16 97       	sbiw	r26, 0x06	; 6
    10e0:	89 83       	std	Y+1, r24	; 0x01
    10e2:	17 96       	adiw	r26, 0x07	; 7
    10e4:	6c 91       	ld	r22, X
    10e6:	6a 83       	std	Y+2, r22	; 0x02
    10e8:	e0 91 c6 03 	lds	r30, 0x03C6
    10ec:	f0 91 c7 03 	lds	r31, 0x03C7
    10f0:	09 95       	icall
    10f2:	0f c0       	rjmp	.+30     	; 0x1112 <__stack+0x13>
    10f4:	d8 01       	movw	r26, r16
    10f6:	15 96       	adiw	r26, 0x05	; 5
    10f8:	8c 91       	ld	r24, X
    10fa:	15 97       	sbiw	r26, 0x05	; 5
    10fc:	81 30       	cpi	r24, 0x01	; 1
    10fe:	09 f0       	breq	.+2      	; 0x1102 <__stack+0x3>
    1100:	8a c1       	rjmp	.+788    	; 0x1416 <__stack+0x317>
    1102:	16 96       	adiw	r26, 0x06	; 6
    1104:	8c 91       	ld	r24, X
    1106:	89 83       	std	Y+1, r24	; 0x01
    1108:	e0 91 e0 03 	lds	r30, 0x03E0
    110c:	f0 91 e1 03 	lds	r31, 0x03E1
    1110:	09 95       	icall
    1112:	88 87       	std	Y+8, r24	; 0x08
    1114:	81 30       	cpi	r24, 0x01	; 1
    1116:	09 f0       	breq	.+2      	; 0x111a <__stack+0x1b>
    1118:	c3 c1       	rjmp	.+902    	; 0x14a0 <__stack+0x3a1>
    111a:	d8 01       	movw	r26, r16
    111c:	a4 56       	subi	r26, 0x64	; 100
    111e:	bf 4f       	sbci	r27, 0xFF	; 255
    1120:	01 5b       	subi	r16, 0xB1	; 177
    1122:	1e 4f       	sbci	r17, 0xFE	; 254
    1124:	f8 01       	movw	r30, r16
    1126:	80 81       	ld	r24, Z
    1128:	8c 93       	st	X, r24
    112a:	0f 5a       	subi	r16, 0xAF	; 175
    112c:	10 40       	sbci	r17, 0x00	; 0
    112e:	f8 01       	movw	r30, r16
    1130:	10 82       	st	Z, r1
    1132:	00 5a       	subi	r16, 0xA0	; 160
    1134:	10 40       	sbci	r17, 0x00	; 0
    1136:	28 c0       	rjmp	.+80     	; 0x1188 <__stack+0x89>
    1138:	d8 01       	movw	r26, r16
    113a:	15 96       	adiw	r26, 0x05	; 5
    113c:	8c 91       	ld	r24, X
    113e:	15 97       	sbiw	r26, 0x05	; 5
    1140:	81 30       	cpi	r24, 0x01	; 1
    1142:	09 f0       	breq	.+2      	; 0x1146 <__stack+0x47>
    1144:	68 c1       	rjmp	.+720    	; 0x1416 <__stack+0x317>
    1146:	16 96       	adiw	r26, 0x06	; 6
    1148:	8c 91       	ld	r24, X
    114a:	89 83       	std	Y+1, r24	; 0x01
    114c:	e0 91 c2 03 	lds	r30, 0x03C2
    1150:	f0 91 c3 03 	lds	r31, 0x03C3
    1154:	be 01       	movw	r22, r28
    1156:	69 5f       	subi	r22, 0xF9	; 249
    1158:	7f 4f       	sbci	r23, 0xFF	; 255
    115a:	09 95       	icall
    115c:	98 2f       	mov	r25, r24
    115e:	88 87       	std	Y+8, r24	; 0x08
    1160:	81 30       	cpi	r24, 0x01	; 1
    1162:	09 f0       	breq	.+2      	; 0x1166 <__stack+0x67>
    1164:	9d c1       	rjmp	.+826    	; 0x14a0 <__stack+0x3a1>
    1166:	d8 01       	movw	r26, r16
    1168:	a4 56       	subi	r26, 0x64	; 100
    116a:	bf 4f       	sbci	r27, 0xFF	; 255
    116c:	01 5b       	subi	r16, 0xB1	; 177
    116e:	1e 4f       	sbci	r17, 0xFE	; 254
    1170:	f8 01       	movw	r30, r16
    1172:	80 81       	ld	r24, Z
    1174:	8c 93       	st	X, r24
    1176:	0f 5a       	subi	r16, 0xAF	; 175
    1178:	10 40       	sbci	r17, 0x00	; 0
    117a:	f8 01       	movw	r30, r16
    117c:	91 93       	st	Z+, r25
    117e:	8f 01       	movw	r16, r30
    1180:	8f 81       	ldd	r24, Y+7	; 0x07
    1182:	80 83       	st	Z, r24
    1184:	01 5a       	subi	r16, 0xA1	; 161
    1186:	10 40       	sbci	r17, 0x00	; 0
    1188:	f8 01       	movw	r30, r16
    118a:	83 81       	ldd	r24, Z+3	; 0x03
    118c:	03 56       	subi	r16, 0x63	; 99
    118e:	1f 4f       	sbci	r17, 0xFF	; 255
    1190:	f8 01       	movw	r30, r16
    1192:	80 83       	st	Z, r24
    1194:	0d 59       	subi	r16, 0x9D	; 157
    1196:	10 40       	sbci	r17, 0x00	; 0
    1198:	f8 01       	movw	r30, r16
    119a:	84 81       	ldd	r24, Z+4	; 0x04
    119c:	02 56       	subi	r16, 0x62	; 98
    119e:	1f 4f       	sbci	r17, 0xFF	; 255
    11a0:	f8 01       	movw	r30, r16
    11a2:	80 83       	st	Z, r24
    11a4:	80 91 80 05 	lds	r24, 0x0580
    11a8:	80 7c       	andi	r24, 0xC0	; 192
    11aa:	80 93 80 05 	sts	0x0580, r24
    11ae:	0f 5f       	subi	r16, 0xFF	; 255
    11b0:	1f 4f       	sbci	r17, 0xFF	; 255
    11b2:	f8 01       	movw	r30, r16
    11b4:	80 83       	st	Z, r24
    11b6:	0f 59       	subi	r16, 0x9F	; 159
    11b8:	10 40       	sbci	r17, 0x00	; 0
    11ba:	f8 01       	movw	r30, r16
    11bc:	60 81       	ld	r22, Z
    11be:	71 81       	ldd	r23, Z+1	; 0x01
    11c0:	e0 91 87 06 	lds	r30, 0x0687
    11c4:	f0 91 88 06 	lds	r31, 0x0688
    11c8:	cd 01       	movw	r24, r26
    11ca:	09 95       	icall
    11cc:	59 c1       	rjmp	.+690    	; 0x1480 <__stack+0x381>
    11ce:	d8 01       	movw	r26, r16
    11d0:	15 96       	adiw	r26, 0x05	; 5
    11d2:	8c 91       	ld	r24, X
    11d4:	88 23       	and	r24, r24
    11d6:	09 f4       	brne	.+2      	; 0x11da <__stack+0xdb>
    11d8:	1e c1       	rjmp	.+572    	; 0x1416 <__stack+0x317>
    11da:	f8 01       	movw	r30, r16
    11dc:	e8 0f       	add	r30, r24
    11de:	f1 1d       	adc	r31, r1
    11e0:	85 81       	ldd	r24, Z+5	; 0x05
    11e2:	80 93 32 01 	sts	0x0132, r24
    11e6:	f8 01       	movw	r30, r16
    11e8:	85 81       	ldd	r24, Z+5	; 0x05
    11ea:	81 50       	subi	r24, 0x01	; 1
    11ec:	80 93 34 01 	sts	0x0134, r24
    11f0:	90 e0       	ldi	r25, 0x00	; 0
    11f2:	0b c0       	rjmp	.+22     	; 0x120a <__stack+0x10b>
    11f4:	e9 2f       	mov	r30, r25
    11f6:	f0 e0       	ldi	r31, 0x00	; 0
    11f8:	d8 01       	movw	r26, r16
    11fa:	ae 0f       	add	r26, r30
    11fc:	bf 1f       	adc	r27, r31
    11fe:	16 96       	adiw	r26, 0x06	; 6
    1200:	8c 91       	ld	r24, X
    1202:	ea 5e       	subi	r30, 0xEA	; 234
    1204:	fe 4f       	sbci	r31, 0xFE	; 254
    1206:	82 a3       	std	Z+34, r24	; 0x22
    1208:	9f 5f       	subi	r25, 0xFF	; 255
    120a:	80 91 34 01 	lds	r24, 0x0134
    120e:	98 17       	cp	r25, r24
    1210:	88 f3       	brcs	.-30     	; 0x11f4 <__stack+0xf5>
    1212:	c8 01       	movw	r24, r16
    1214:	68 e3       	ldi	r22, 0x38	; 56
    1216:	71 e0       	ldi	r23, 0x01	; 1
    1218:	0e 94 6e 03 	call	0x6dc	; 0x6dc <GetServoPositionMultiAtTimes>
    121c:	31 c1       	rjmp	.+610    	; 0x1480 <__stack+0x381>
    121e:	d8 01       	movw	r26, r16
    1220:	15 96       	adiw	r26, 0x05	; 5
    1222:	8c 91       	ld	r24, X
    1224:	88 23       	and	r24, r24
    1226:	09 f4       	brne	.+2      	; 0x122a <__stack+0x12b>
    1228:	f6 c0       	rjmp	.+492    	; 0x1416 <__stack+0x317>
    122a:	80 93 6a 01 	sts	0x016A, r24
    122e:	90 e0       	ldi	r25, 0x00	; 0
    1230:	0b c0       	rjmp	.+22     	; 0x1248 <__stack+0x149>
    1232:	e9 2f       	mov	r30, r25
    1234:	f0 e0       	ldi	r31, 0x00	; 0
    1236:	d8 01       	movw	r26, r16
    1238:	ae 0f       	add	r26, r30
    123a:	bf 1f       	adc	r27, r31
    123c:	16 96       	adiw	r26, 0x06	; 6
    123e:	8c 91       	ld	r24, X
    1240:	e2 59       	subi	r30, 0x92	; 146
    1242:	fe 4f       	sbci	r31, 0xFE	; 254
    1244:	80 83       	st	Z, r24
    1246:	9f 5f       	subi	r25, 0xFF	; 255
    1248:	80 91 6a 01 	lds	r24, 0x016A
    124c:	98 17       	cp	r25, r24
    124e:	88 f3       	brcs	.-30     	; 0x1232 <__stack+0x133>
    1250:	c8 01       	movw	r24, r16
    1252:	6e e6       	ldi	r22, 0x6E	; 110
    1254:	71 e0       	ldi	r23, 0x01	; 1
    1256:	38 c0       	rjmp	.+112    	; 0x12c8 <__stack+0x1c9>
    1258:	f8 01       	movw	r30, r16
    125a:	85 81       	ldd	r24, Z+5	; 0x05
    125c:	88 23       	and	r24, r24
    125e:	09 f4       	brne	.+2      	; 0x1262 <__stack+0x163>
    1260:	da c0       	rjmp	.+436    	; 0x1416 <__stack+0x317>
    1262:	80 93 a0 02 	sts	0x02A0, r24
    1266:	90 e0       	ldi	r25, 0x00	; 0
    1268:	0b c0       	rjmp	.+22     	; 0x1280 <__stack+0x181>
    126a:	e9 2f       	mov	r30, r25
    126c:	f0 e0       	ldi	r31, 0x00	; 0
    126e:	d8 01       	movw	r26, r16
    1270:	ae 0f       	add	r26, r30
    1272:	bf 1f       	adc	r27, r31
    1274:	16 96       	adiw	r26, 0x06	; 6
    1276:	8c 91       	ld	r24, X
    1278:	ec 55       	subi	r30, 0x5C	; 92
    127a:	fd 4f       	sbci	r31, 0xFD	; 253
    127c:	80 83       	st	Z, r24
    127e:	9f 5f       	subi	r25, 0xFF	; 255
    1280:	80 91 a0 02 	lds	r24, 0x02A0
    1284:	98 17       	cp	r25, r24
    1286:	88 f3       	brcs	.-30     	; 0x126a <__stack+0x16b>
    1288:	c8 01       	movw	r24, r16
    128a:	64 ea       	ldi	r22, 0xA4	; 164
    128c:	72 e0       	ldi	r23, 0x02	; 2
    128e:	1c c0       	rjmp	.+56     	; 0x12c8 <__stack+0x1c9>
    1290:	d8 01       	movw	r26, r16
    1292:	15 96       	adiw	r26, 0x05	; 5
    1294:	8c 91       	ld	r24, X
    1296:	88 23       	and	r24, r24
    1298:	09 f4       	brne	.+2      	; 0x129c <__stack+0x19d>
    129a:	bd c0       	rjmp	.+378    	; 0x1416 <__stack+0x317>
    129c:	80 93 e0 02 	sts	0x02E0, r24
    12a0:	90 e0       	ldi	r25, 0x00	; 0
    12a2:	0b c0       	rjmp	.+22     	; 0x12ba <__stack+0x1bb>
    12a4:	e9 2f       	mov	r30, r25
    12a6:	f0 e0       	ldi	r31, 0x00	; 0
    12a8:	d8 01       	movw	r26, r16
    12aa:	ae 0f       	add	r26, r30
    12ac:	bf 1f       	adc	r27, r31
    12ae:	16 96       	adiw	r26, 0x06	; 6
    12b0:	8c 91       	ld	r24, X
    12b2:	ec 51       	subi	r30, 0x1C	; 28
    12b4:	fd 4f       	sbci	r31, 0xFD	; 253
    12b6:	80 83       	st	Z, r24
    12b8:	9f 5f       	subi	r25, 0xFF	; 255
    12ba:	80 91 e0 02 	lds	r24, 0x02E0
    12be:	98 17       	cp	r25, r24
    12c0:	88 f3       	brcs	.-30     	; 0x12a4 <__stack+0x1a5>
    12c2:	c8 01       	movw	r24, r16
    12c4:	64 ee       	ldi	r22, 0xE4	; 228
    12c6:	72 e0       	ldi	r23, 0x02	; 2
    12c8:	0e 94 fd 03 	call	0x7fa	; 0x7fa <SetServoPositionMultiAtTimes>
    12cc:	d9 c0       	rjmp	.+434    	; 0x1480 <__stack+0x381>
    12ce:	f8 01       	movw	r30, r16
    12d0:	85 81       	ldd	r24, Z+5	; 0x05
    12d2:	88 23       	and	r24, r24
    12d4:	09 f4       	brne	.+2      	; 0x12d8 <__stack+0x1d9>
    12d6:	9f c0       	rjmp	.+318    	; 0x1416 <__stack+0x317>
    12d8:	80 93 05 02 	sts	0x0205, r24
    12dc:	90 e0       	ldi	r25, 0x00	; 0
    12de:	0b c0       	rjmp	.+22     	; 0x12f6 <__stack+0x1f7>
    12e0:	e9 2f       	mov	r30, r25
    12e2:	f0 e0       	ldi	r31, 0x00	; 0
    12e4:	d8 01       	movw	r26, r16
    12e6:	ae 0f       	add	r26, r30
    12e8:	bf 1f       	adc	r27, r31
    12ea:	16 96       	adiw	r26, 0x06	; 6
    12ec:	8c 91       	ld	r24, X
    12ee:	e7 5f       	subi	r30, 0xF7	; 247
    12f0:	fd 4f       	sbci	r31, 0xFD	; 253
    12f2:	80 83       	st	Z, r24
    12f4:	9f 5f       	subi	r25, 0xFF	; 255
    12f6:	80 91 05 02 	lds	r24, 0x0205
    12fa:	98 17       	cp	r25, r24
    12fc:	88 f3       	brcs	.-30     	; 0x12e0 <__stack+0x1e1>
    12fe:	c8 01       	movw	r24, r16
    1300:	69 e0       	ldi	r22, 0x09	; 9
    1302:	72 e0       	ldi	r23, 0x02	; 2
    1304:	0e 94 7a 04 	call	0x8f4	; 0x8f4 <SetServoVelocityMultiAtTimes>
    1308:	bb c0       	rjmp	.+374    	; 0x1480 <__stack+0x381>
    130a:	f8 01       	movw	r30, r16
    130c:	84 81       	ldd	r24, Z+4	; 0x04
    130e:	88 23       	and	r24, r24
    1310:	21 f0       	breq	.+8      	; 0x131a <__stack+0x21b>
    1312:	80 32       	cpi	r24, 0x20	; 32
    1314:	09 f0       	breq	.+2      	; 0x1318 <__stack+0x219>
    1316:	7f c0       	rjmp	.+254    	; 0x1416 <__stack+0x317>
    1318:	44 c0       	rjmp	.+136    	; 0x13a2 <__stack+0x2a3>
    131a:	d8 01       	movw	r26, r16
    131c:	15 96       	adiw	r26, 0x05	; 5
    131e:	8c 91       	ld	r24, X
    1320:	15 97       	sbiw	r26, 0x05	; 5
    1322:	81 30       	cpi	r24, 0x01	; 1
    1324:	09 f0       	breq	.+2      	; 0x1328 <__stack+0x229>
    1326:	77 c0       	rjmp	.+238    	; 0x1416 <__stack+0x317>
    1328:	16 96       	adiw	r26, 0x06	; 6
    132a:	8c 91       	ld	r24, X
    132c:	89 83       	std	Y+1, r24	; 0x01
    132e:	e0 91 2a 04 	lds	r30, 0x042A
    1332:	f0 91 2b 04 	lds	r31, 0x042B
    1336:	be 01       	movw	r22, r28
    1338:	6e 5f       	subi	r22, 0xFE	; 254
    133a:	7f 4f       	sbci	r23, 0xFF	; 255
    133c:	09 95       	icall
    133e:	88 87       	std	Y+8, r24	; 0x08
    1340:	81 30       	cpi	r24, 0x01	; 1
    1342:	09 f0       	breq	.+2      	; 0x1346 <__stack+0x247>
    1344:	ad c0       	rjmp	.+346    	; 0x14a0 <__stack+0x3a1>
    1346:	f8 01       	movw	r30, r16
    1348:	e4 56       	subi	r30, 0x64	; 100
    134a:	ff 4f       	sbci	r31, 0xFF	; 255
    134c:	01 5b       	subi	r16, 0xB1	; 177
    134e:	1e 4f       	sbci	r17, 0xFE	; 254
    1350:	d8 01       	movw	r26, r16
    1352:	8c 91       	ld	r24, X
    1354:	0f 54       	subi	r16, 0x4F	; 79
    1356:	11 40       	sbci	r17, 0x01	; 1
    1358:	80 83       	st	Z, r24
    135a:	f8 01       	movw	r30, r16
    135c:	83 81       	ldd	r24, Z+3	; 0x03
    135e:	03 56       	subi	r16, 0x63	; 99
    1360:	1f 4f       	sbci	r17, 0xFF	; 255
    1362:	d8 01       	movw	r26, r16
    1364:	8c 93       	st	X, r24
    1366:	0d 59       	subi	r16, 0x9D	; 157
    1368:	10 40       	sbci	r17, 0x00	; 0
    136a:	f8 01       	movw	r30, r16
    136c:	84 81       	ldd	r24, Z+4	; 0x04
    136e:	02 56       	subi	r16, 0x62	; 98
    1370:	1f 4f       	sbci	r17, 0xFF	; 255
    1372:	d8 01       	movw	r26, r16
    1374:	8c 93       	st	X, r24
    1376:	0e 5f       	subi	r16, 0xFE	; 254
    1378:	1f 4f       	sbci	r17, 0xFF	; 255
    137a:	82 e0       	ldi	r24, 0x02	; 2
    137c:	f8 01       	movw	r30, r16
    137e:	81 93       	st	Z+, r24
    1380:	89 81       	ldd	r24, Y+1	; 0x01
    1382:	df 01       	movw	r26, r30
    1384:	8d 93       	st	X+, r24
    1386:	8d 01       	movw	r16, r26
    1388:	8a 81       	ldd	r24, Y+2	; 0x02
    138a:	8c 93       	st	X, r24
    138c:	80 91 80 05 	lds	r24, 0x0580
    1390:	80 7c       	andi	r24, 0xC0	; 192
    1392:	80 93 80 05 	sts	0x0580, r24
    1396:	03 50       	subi	r16, 0x03	; 3
    1398:	10 40       	sbci	r17, 0x00	; 0
    139a:	f8 01       	movw	r30, r16
    139c:	80 83       	st	Z, r24
    139e:	81 e0       	ldi	r24, 0x01	; 1
    13a0:	70 c0       	rjmp	.+224    	; 0x1482 <__stack+0x383>
    13a2:	d8 01       	movw	r26, r16
    13a4:	15 96       	adiw	r26, 0x05	; 5
    13a6:	8c 91       	ld	r24, X
    13a8:	15 97       	sbiw	r26, 0x05	; 5
    13aa:	82 30       	cpi	r24, 0x02	; 2
    13ac:	a1 f5       	brne	.+104    	; 0x1416 <__stack+0x317>
    13ae:	16 96       	adiw	r26, 0x06	; 6
    13b0:	8c 91       	ld	r24, X
    13b2:	16 97       	sbiw	r26, 0x06	; 6
    13b4:	89 83       	std	Y+1, r24	; 0x01
    13b6:	17 96       	adiw	r26, 0x07	; 7
    13b8:	6c 91       	ld	r22, X
    13ba:	6a 83       	std	Y+2, r22	; 0x02
    13bc:	e0 91 28 04 	lds	r30, 0x0428
    13c0:	f0 91 29 04 	lds	r31, 0x0429
    13c4:	09 95       	icall
    13c6:	f8 01       	movw	r30, r16
    13c8:	e4 56       	subi	r30, 0x64	; 100
    13ca:	ff 4f       	sbci	r31, 0xFF	; 255
    13cc:	01 5b       	subi	r16, 0xB1	; 177
    13ce:	1e 4f       	sbci	r17, 0xFE	; 254
    13d0:	d8 01       	movw	r26, r16
    13d2:	8c 91       	ld	r24, X
    13d4:	80 83       	st	Z, r24
    13d6:	0f 5a       	subi	r16, 0xAF	; 175
    13d8:	10 40       	sbci	r17, 0x00	; 0
    13da:	f8 01       	movw	r30, r16
    13dc:	10 82       	st	Z, r1
    13de:	00 5a       	subi	r16, 0xA0	; 160
    13e0:	10 40       	sbci	r17, 0x00	; 0
    13e2:	d8 01       	movw	r26, r16
    13e4:	13 96       	adiw	r26, 0x03	; 3
    13e6:	8c 91       	ld	r24, X
    13e8:	03 56       	subi	r16, 0x63	; 99
    13ea:	1f 4f       	sbci	r17, 0xFF	; 255
    13ec:	f8 01       	movw	r30, r16
    13ee:	80 83       	st	Z, r24
    13f0:	0d 59       	subi	r16, 0x9D	; 157
    13f2:	10 40       	sbci	r17, 0x00	; 0
    13f4:	d8 01       	movw	r26, r16
    13f6:	14 96       	adiw	r26, 0x04	; 4
    13f8:	8c 91       	ld	r24, X
    13fa:	02 56       	subi	r16, 0x62	; 98
    13fc:	1f 4f       	sbci	r17, 0xFF	; 255
    13fe:	f8 01       	movw	r30, r16
    1400:	80 83       	st	Z, r24
    1402:	80 91 80 05 	lds	r24, 0x0580
    1406:	80 7c       	andi	r24, 0xC0	; 192
    1408:	80 93 80 05 	sts	0x0580, r24
    140c:	0f 5f       	subi	r16, 0xFF	; 255
    140e:	1f 4f       	sbci	r17, 0xFF	; 255
    1410:	d8 01       	movw	r26, r16
    1412:	8c 93       	st	X, r24
    1414:	c4 cf       	rjmp	.-120    	; 0x139e <__stack+0x29f>
    1416:	83 e0       	ldi	r24, 0x03	; 3
    1418:	f8 01       	movw	r30, r16
    141a:	ec 5a       	subi	r30, 0xAC	; 172
    141c:	fe 4f       	sbci	r31, 0xFE	; 254
    141e:	90 81       	ld	r25, Z
    1420:	90 7c       	andi	r25, 0xC0	; 192
    1422:	98 2b       	or	r25, r24
    1424:	90 83       	st	Z, r25
    1426:	09 c0       	rjmp	.+18     	; 0x143a <__stack+0x33b>
    1428:	0c 5a       	subi	r16, 0xAC	; 172
    142a:	1e 4f       	sbci	r17, 0xFE	; 254
    142c:	92 2f       	mov	r25, r18
    142e:	90 7c       	andi	r25, 0xC0	; 192
    1430:	93 60       	ori	r25, 0x03	; 3
    1432:	f8 01       	movw	r30, r16
    1434:	90 83       	st	Z, r25
    1436:	04 55       	subi	r16, 0x54	; 84
    1438:	11 40       	sbci	r17, 0x01	; 1
    143a:	f8 01       	movw	r30, r16
    143c:	e4 56       	subi	r30, 0x64	; 100
    143e:	ff 4f       	sbci	r31, 0xFF	; 255
    1440:	01 5b       	subi	r16, 0xB1	; 177
    1442:	1e 4f       	sbci	r17, 0xFE	; 254
    1444:	d8 01       	movw	r26, r16
    1446:	8c 91       	ld	r24, X
    1448:	80 83       	st	Z, r24
    144a:	0f 5a       	subi	r16, 0xAF	; 175
    144c:	10 40       	sbci	r17, 0x00	; 0
    144e:	f8 01       	movw	r30, r16
    1450:	10 82       	st	Z, r1
    1452:	00 5a       	subi	r16, 0xA0	; 160
    1454:	10 40       	sbci	r17, 0x00	; 0
    1456:	d8 01       	movw	r26, r16
    1458:	13 96       	adiw	r26, 0x03	; 3
    145a:	8c 91       	ld	r24, X
    145c:	03 56       	subi	r16, 0x63	; 99
    145e:	1f 4f       	sbci	r17, 0xFF	; 255
    1460:	f8 01       	movw	r30, r16
    1462:	80 83       	st	Z, r24
    1464:	0d 59       	subi	r16, 0x9D	; 157
    1466:	10 40       	sbci	r17, 0x00	; 0
    1468:	d8 01       	movw	r26, r16
    146a:	14 96       	adiw	r26, 0x04	; 4
    146c:	8c 91       	ld	r24, X
    146e:	02 56       	subi	r16, 0x62	; 98
    1470:	1f 4f       	sbci	r17, 0xFF	; 255
    1472:	f8 01       	movw	r30, r16
    1474:	80 83       	st	Z, r24
    1476:	0f 5f       	subi	r16, 0xFF	; 255
    1478:	1f 4f       	sbci	r17, 0xFF	; 255
    147a:	d8 01       	movw	r26, r16
    147c:	9c 93       	st	X, r25
    147e:	8f cf       	rjmp	.-226    	; 0x139e <__stack+0x29f>
    1480:	80 e0       	ldi	r24, 0x00	; 0
    1482:	60 96       	adiw	r28, 0x10	; 16
    1484:	0f b6       	in	r0, 0x3f	; 63
    1486:	f8 94       	cli
    1488:	de bf       	out	0x3e, r29	; 62
    148a:	0f be       	out	0x3f, r0	; 63
    148c:	cd bf       	out	0x3d, r28	; 61
    148e:	cf 91       	pop	r28
    1490:	df 91       	pop	r29
    1492:	1f 91       	pop	r17
    1494:	0f 91       	pop	r16
    1496:	ff 90       	pop	r15
    1498:	ef 90       	pop	r14
    149a:	df 90       	pop	r13
    149c:	cf 90       	pop	r12
    149e:	08 95       	ret
    14a0:	89 e0       	ldi	r24, 0x09	; 9
    14a2:	ba cf       	rjmp	.-140    	; 0x1418 <__stack+0x319>

000014a4 <TestServo>:
    14a4:	ef 92       	push	r14
    14a6:	ff 92       	push	r15
    14a8:	1f 93       	push	r17
    14aa:	df 93       	push	r29
    14ac:	cf 93       	push	r28
    14ae:	0f 92       	push	r0
    14b0:	cd b7       	in	r28, 0x3d	; 61
    14b2:	de b7       	in	r29, 0x3e	; 62
    14b4:	18 2f       	mov	r17, r24
    14b6:	7b 01       	movw	r14, r22
    14b8:	19 82       	std	Y+1, r1	; 0x01
    14ba:	82 95       	swap	r24
    14bc:	8f 70       	andi	r24, 0x0F	; 15
    14be:	8e 30       	cpi	r24, 0x0E	; 14
    14c0:	11 f4       	brne	.+4      	; 0x14c6 <TestServo+0x22>
    14c2:	1e 3f       	cpi	r17, 0xFE	; 254
    14c4:	81 f4       	brne	.+32     	; 0x14e6 <TestServo+0x42>
    14c6:	e0 91 68 06 	lds	r30, 0x0668
    14ca:	f0 91 69 06 	lds	r31, 0x0669
    14ce:	81 2f       	mov	r24, r17
    14d0:	be 01       	movw	r22, r28
    14d2:	6f 5f       	subi	r22, 0xFF	; 255
    14d4:	7f 4f       	sbci	r23, 0xFF	; 255
    14d6:	09 95       	icall
    14d8:	88 23       	and	r24, r24
    14da:	29 f4       	brne	.+10     	; 0x14e6 <TestServo+0x42>
    14dc:	89 81       	ldd	r24, Y+1	; 0x01
    14de:	81 17       	cp	r24, r17
    14e0:	21 f0       	breq	.+8      	; 0x14ea <TestServo+0x46>
    14e2:	1e 3f       	cpi	r17, 0xFE	; 254
    14e4:	11 f0       	breq	.+4      	; 0x14ea <TestServo+0x46>
    14e6:	90 e0       	ldi	r25, 0x00	; 0
    14e8:	01 c0       	rjmp	.+2      	; 0x14ec <TestServo+0x48>
    14ea:	91 e0       	ldi	r25, 0x01	; 1
    14ec:	80 91 6a 06 	lds	r24, 0x066A
    14f0:	f7 01       	movw	r30, r14
    14f2:	80 83       	st	Z, r24
    14f4:	89 2f       	mov	r24, r25
    14f6:	0f 90       	pop	r0
    14f8:	cf 91       	pop	r28
    14fa:	df 91       	pop	r29
    14fc:	1f 91       	pop	r17
    14fe:	ff 90       	pop	r15
    1500:	ef 90       	pop	r14
    1502:	08 95       	ret

00001504 <SetServoTorqueEnable>:
    1504:	ff 92       	push	r15
    1506:	0f 93       	push	r16
    1508:	1f 93       	push	r17
    150a:	18 2f       	mov	r17, r24
    150c:	f6 2e       	mov	r15, r22
    150e:	08 2f       	mov	r16, r24
    1510:	02 95       	swap	r16
    1512:	0f 70       	andi	r16, 0x0F	; 15
    1514:	0e 30       	cpi	r16, 0x0E	; 14
    1516:	11 f0       	breq	.+4      	; 0x151c <SetServoTorqueEnable+0x18>
    1518:	8e 3f       	cpi	r24, 0xFE	; 254
    151a:	a1 f4       	brne	.+40     	; 0x1544 <SetServoTorqueEnable+0x40>
    151c:	81 2f       	mov	r24, r17
    151e:	80 5e       	subi	r24, 0xE0	; 224
    1520:	ff 20       	and	r15, r15
    1522:	29 f4       	brne	.+10     	; 0x152e <SetServoTorqueEnable+0x2a>
    1524:	e0 91 6b 07 	lds	r30, 0x076B
    1528:	f0 91 6c 07 	lds	r31, 0x076C
    152c:	04 c0       	rjmp	.+8      	; 0x1536 <SetServoTorqueEnable+0x32>
    152e:	e0 91 73 07 	lds	r30, 0x0773
    1532:	f0 91 74 07 	lds	r31, 0x0774
    1536:	09 95       	icall
    1538:	0e 30       	cpi	r16, 0x0E	; 14
    153a:	21 f4       	brne	.+8      	; 0x1544 <SetServoTorqueEnable+0x40>
    153c:	1e 3f       	cpi	r17, 0xFE	; 254
    153e:	11 f0       	breq	.+4      	; 0x1544 <SetServoTorqueEnable+0x40>
    1540:	81 e0       	ldi	r24, 0x01	; 1
    1542:	17 c0       	rjmp	.+46     	; 0x1572 <SetServoTorqueEnable+0x6e>
    1544:	ff 20       	and	r15, r15
    1546:	41 f4       	brne	.+16     	; 0x1558 <SetServoTorqueEnable+0x54>
    1548:	e0 91 5a 06 	lds	r30, 0x065A
    154c:	f0 91 5b 06 	lds	r31, 0x065B
    1550:	81 2f       	mov	r24, r17
    1552:	68 e1       	ldi	r22, 0x18	; 24
    1554:	40 e0       	ldi	r20, 0x00	; 0
    1556:	07 c0       	rjmp	.+14     	; 0x1566 <SetServoTorqueEnable+0x62>
    1558:	e0 91 5a 06 	lds	r30, 0x065A
    155c:	f0 91 5b 06 	lds	r31, 0x065B
    1560:	81 2f       	mov	r24, r17
    1562:	68 e1       	ldi	r22, 0x18	; 24
    1564:	41 e0       	ldi	r20, 0x01	; 1
    1566:	09 95       	icall
    1568:	98 2f       	mov	r25, r24
    156a:	81 11       	cpse	r24, r1
    156c:	91 e0       	ldi	r25, 0x01	; 1
    156e:	81 e0       	ldi	r24, 0x01	; 1
    1570:	89 27       	eor	r24, r25
    1572:	1f 91       	pop	r17
    1574:	0f 91       	pop	r16
    1576:	ff 90       	pop	r15
    1578:	08 95       	ret

0000157a <SetServoRegPosition>:
    157a:	ef 92       	push	r14
    157c:	ff 92       	push	r15
    157e:	0f 93       	push	r16
    1580:	1f 93       	push	r17
    1582:	cf 93       	push	r28
    1584:	df 93       	push	r29
    1586:	18 2f       	mov	r17, r24
    1588:	eb 01       	movw	r28, r22
    158a:	7a 01       	movw	r14, r20
    158c:	88 23       	and	r24, r24
    158e:	29 f1       	breq	.+74     	; 0x15da <SetServoRegPosition+0x60>
    1590:	08 2f       	mov	r16, r24
    1592:	02 95       	swap	r16
    1594:	0f 70       	andi	r16, 0x0F	; 15
    1596:	0e 30       	cpi	r16, 0x0E	; 14
    1598:	11 f0       	breq	.+4      	; 0x159e <SetServoRegPosition+0x24>
    159a:	8e 3f       	cpi	r24, 0xFE	; 254
    159c:	79 f4       	brne	.+30     	; 0x15bc <SetServoRegPosition+0x42>
    159e:	e0 91 71 07 	lds	r30, 0x0771
    15a2:	f0 91 72 07 	lds	r31, 0x0772
    15a6:	81 2f       	mov	r24, r17
    15a8:	80 5e       	subi	r24, 0xE0	; 224
    15aa:	be 01       	movw	r22, r28
    15ac:	a7 01       	movw	r20, r14
    15ae:	09 95       	icall
    15b0:	88 23       	and	r24, r24
    15b2:	a1 f0       	breq	.+40     	; 0x15dc <SetServoRegPosition+0x62>
    15b4:	0e 30       	cpi	r16, 0x0E	; 14
    15b6:	11 f4       	brne	.+4      	; 0x15bc <SetServoRegPosition+0x42>
    15b8:	1e 3f       	cpi	r17, 0xFE	; 254
    15ba:	79 f4       	brne	.+30     	; 0x15da <SetServoRegPosition+0x60>
    15bc:	e0 91 52 06 	lds	r30, 0x0652
    15c0:	f0 91 53 06 	lds	r31, 0x0653
    15c4:	81 2f       	mov	r24, r17
    15c6:	6e e1       	ldi	r22, 0x1E	; 30
    15c8:	ae 01       	movw	r20, r28
    15ca:	97 01       	movw	r18, r14
    15cc:	09 95       	icall
    15ce:	98 2f       	mov	r25, r24
    15d0:	81 11       	cpse	r24, r1
    15d2:	91 e0       	ldi	r25, 0x01	; 1
    15d4:	81 e0       	ldi	r24, 0x01	; 1
    15d6:	89 27       	eor	r24, r25
    15d8:	01 c0       	rjmp	.+2      	; 0x15dc <SetServoRegPosition+0x62>
    15da:	81 e0       	ldi	r24, 0x01	; 1
    15dc:	df 91       	pop	r29
    15de:	cf 91       	pop	r28
    15e0:	1f 91       	pop	r17
    15e2:	0f 91       	pop	r16
    15e4:	ff 90       	pop	r15
    15e6:	ef 90       	pop	r14
    15e8:	08 95       	ret

000015ea <SetServoPosition>:
    15ea:	df 92       	push	r13
    15ec:	ef 92       	push	r14
    15ee:	ff 92       	push	r15
    15f0:	0f 93       	push	r16
    15f2:	1f 93       	push	r17
    15f4:	cf 93       	push	r28
    15f6:	df 93       	push	r29
    15f8:	18 2f       	mov	r17, r24
    15fa:	eb 01       	movw	r28, r22
    15fc:	7a 01       	movw	r14, r20
    15fe:	88 23       	and	r24, r24
    1600:	89 f1       	breq	.+98     	; 0x1664 <SetServoPosition+0x7a>
    1602:	d8 2e       	mov	r13, r24
    1604:	d2 94       	swap	r13
    1606:	8f e0       	ldi	r24, 0x0F	; 15
    1608:	d8 22       	and	r13, r24
    160a:	8e e0       	ldi	r24, 0x0E	; 14
    160c:	d8 16       	cp	r13, r24
    160e:	11 f0       	breq	.+4      	; 0x1614 <SetServoPosition+0x2a>
    1610:	1e 3f       	cpi	r17, 0xFE	; 254
    1612:	c9 f4       	brne	.+50     	; 0x1646 <SetServoPosition+0x5c>
    1614:	01 2f       	mov	r16, r17
    1616:	00 5e       	subi	r16, 0xE0	; 224
    1618:	e0 91 71 07 	lds	r30, 0x0771
    161c:	f0 91 72 07 	lds	r31, 0x0772
    1620:	80 2f       	mov	r24, r16
    1622:	be 01       	movw	r22, r28
    1624:	a7 01       	movw	r20, r14
    1626:	09 95       	icall
    1628:	88 23       	and	r24, r24
    162a:	f1 f0       	breq	.+60     	; 0x1668 <SetServoPosition+0x7e>
    162c:	e0 91 73 07 	lds	r30, 0x0773
    1630:	f0 91 74 07 	lds	r31, 0x0774
    1634:	80 2f       	mov	r24, r16
    1636:	09 95       	icall
    1638:	88 23       	and	r24, r24
    163a:	b1 f0       	breq	.+44     	; 0x1668 <SetServoPosition+0x7e>
    163c:	8e e0       	ldi	r24, 0x0E	; 14
    163e:	d8 16       	cp	r13, r24
    1640:	11 f4       	brne	.+4      	; 0x1646 <SetServoPosition+0x5c>
    1642:	1e 3f       	cpi	r17, 0xFE	; 254
    1644:	79 f4       	brne	.+30     	; 0x1664 <SetServoPosition+0x7a>
    1646:	e0 91 54 06 	lds	r30, 0x0654
    164a:	f0 91 55 06 	lds	r31, 0x0655
    164e:	81 2f       	mov	r24, r17
    1650:	6e e1       	ldi	r22, 0x1E	; 30
    1652:	ae 01       	movw	r20, r28
    1654:	97 01       	movw	r18, r14
    1656:	09 95       	icall
    1658:	98 2f       	mov	r25, r24
    165a:	81 11       	cpse	r24, r1
    165c:	91 e0       	ldi	r25, 0x01	; 1
    165e:	81 e0       	ldi	r24, 0x01	; 1
    1660:	89 27       	eor	r24, r25
    1662:	03 c0       	rjmp	.+6      	; 0x166a <SetServoPosition+0x80>
    1664:	81 e0       	ldi	r24, 0x01	; 1
    1666:	01 c0       	rjmp	.+2      	; 0x166a <SetServoPosition+0x80>
    1668:	80 e0       	ldi	r24, 0x00	; 0
    166a:	df 91       	pop	r29
    166c:	cf 91       	pop	r28
    166e:	1f 91       	pop	r17
    1670:	0f 91       	pop	r16
    1672:	ff 90       	pop	r15
    1674:	ef 90       	pop	r14
    1676:	df 90       	pop	r13
    1678:	08 95       	ret

0000167a <SetServoSyncPosition>:
    167a:	cf 92       	push	r12
    167c:	df 92       	push	r13
    167e:	ef 92       	push	r14
    1680:	ff 92       	push	r15
    1682:	0f 93       	push	r16
    1684:	1f 93       	push	r17
    1686:	df 93       	push	r29
    1688:	cf 93       	push	r28
    168a:	0f 92       	push	r0
    168c:	cd b7       	in	r28, 0x3d	; 61
    168e:	de b7       	in	r29, 0x3e	; 62
    1690:	c8 2e       	mov	r12, r24
    1692:	8b 01       	movw	r16, r22
    1694:	7a 01       	movw	r14, r20
    1696:	82 95       	swap	r24
    1698:	8f 70       	andi	r24, 0x0F	; 15
    169a:	89 83       	std	Y+1, r24	; 0x01
    169c:	8e 30       	cpi	r24, 0x0E	; 14
    169e:	09 f4       	brne	.+2      	; 0x16a2 <SetServoSyncPosition+0x28>
    16a0:	91 c0       	rjmp	.+290    	; 0x17c4 <SetServoSyncPosition+0x14a>
    16a2:	8e ef       	ldi	r24, 0xFE	; 254
    16a4:	c8 16       	cp	r12, r24
    16a6:	a9 f4       	brne	.+42     	; 0x16d2 <SetServoSyncPosition+0x58>
    16a8:	80 91 4e 06 	lds	r24, 0x064E
    16ac:	e2 e2       	ldi	r30, 0x22	; 34
    16ae:	f3 e0       	ldi	r31, 0x03	; 3
    16b0:	90 e0       	ldi	r25, 0x00	; 0
    16b2:	88 0f       	add	r24, r24
    16b4:	99 1f       	adc	r25, r25
    16b6:	8e 0f       	add	r24, r30
    16b8:	9f 1f       	adc	r25, r31
    16ba:	07 c0       	rjmp	.+14     	; 0x16ca <SetServoSyncPosition+0x50>
    16bc:	11 83       	std	Z+1, r17	; 0x01
    16be:	00 83       	st	Z, r16
    16c0:	e0 5c       	subi	r30, 0xC0	; 192
    16c2:	ff 4f       	sbci	r31, 0xFF	; 255
    16c4:	f1 82       	std	Z+1, r15	; 0x01
    16c6:	e0 82       	st	Z, r14
    16c8:	fe 97       	sbiw	r30, 0x3e	; 62
    16ca:	e8 17       	cp	r30, r24
    16cc:	f9 07       	cpc	r31, r25
    16ce:	b1 f7       	brne	.-20     	; 0x16bc <SetServoSyncPosition+0x42>
    16d0:	53 c0       	rjmp	.+166    	; 0x1778 <SetServoSyncPosition+0xfe>
    16d2:	e0 91 71 06 	lds	r30, 0x0671
    16d6:	f0 91 72 06 	lds	r31, 0x0672
    16da:	80 91 4c 06 	lds	r24, 0x064C
    16de:	90 91 4d 06 	lds	r25, 0x064D
    16e2:	60 91 4e 06 	lds	r22, 0x064E
    16e6:	4c 2d       	mov	r20, r12
    16e8:	9e 01       	movw	r18, r28
    16ea:	2f 5f       	subi	r18, 0xFF	; 255
    16ec:	3f 4f       	sbci	r19, 0xFF	; 255
    16ee:	09 95       	icall
    16f0:	d8 2e       	mov	r13, r24
    16f2:	81 e0       	ldi	r24, 0x01	; 1
    16f4:	d8 16       	cp	r13, r24
    16f6:	09 f0       	breq	.+2      	; 0x16fa <SetServoSyncPosition+0x80>
    16f8:	59 c0       	rjmp	.+178    	; 0x17ac <SetServoSyncPosition+0x132>
    16fa:	e0 91 d4 07 	lds	r30, 0x07D4
    16fe:	f0 91 d5 07 	lds	r31, 0x07D5
    1702:	80 e0       	ldi	r24, 0x00	; 0
    1704:	09 95       	icall
    1706:	89 81       	ldd	r24, Y+1	; 0x01
    1708:	a8 2f       	mov	r26, r24
    170a:	b0 e0       	ldi	r27, 0x00	; 0
    170c:	fd 01       	movw	r30, r26
    170e:	ee 0f       	add	r30, r30
    1710:	ff 1f       	adc	r31, r31
    1712:	ee 5d       	subi	r30, 0xDE	; 222
    1714:	fc 4f       	sbci	r31, 0xFC	; 252
    1716:	80 81       	ld	r24, Z
    1718:	91 81       	ldd	r25, Z+1	; 0x01
    171a:	80 17       	cp	r24, r16
    171c:	91 07       	cpc	r25, r17
    171e:	61 f4       	brne	.+24     	; 0x1738 <SetServoSyncPosition+0xbe>
    1720:	fd 01       	movw	r30, r26
    1722:	ee 0f       	add	r30, r30
    1724:	ff 1f       	adc	r31, r31
    1726:	ee 59       	subi	r30, 0x9E	; 158
    1728:	fc 4f       	sbci	r31, 0xFC	; 252
    172a:	80 81       	ld	r24, Z
    172c:	91 81       	ldd	r25, Z+1	; 0x01
    172e:	8e 15       	cp	r24, r14
    1730:	9f 05       	cpc	r25, r15
    1732:	11 f4       	brne	.+4      	; 0x1738 <SetServoSyncPosition+0xbe>
    1734:	dd 24       	eor	r13, r13
    1736:	0b c0       	rjmp	.+22     	; 0x174e <SetServoSyncPosition+0xd4>
    1738:	aa 0f       	add	r26, r26
    173a:	bb 1f       	adc	r27, r27
    173c:	fd 01       	movw	r30, r26
    173e:	ee 5d       	subi	r30, 0xDE	; 222
    1740:	fc 4f       	sbci	r31, 0xFC	; 252
    1742:	11 83       	std	Z+1, r17	; 0x01
    1744:	00 83       	st	Z, r16
    1746:	ae 59       	subi	r26, 0x9E	; 158
    1748:	bc 4f       	sbci	r27, 0xFC	; 252
    174a:	ed 92       	st	X+, r14
    174c:	fc 92       	st	X, r15
    174e:	e0 91 d2 07 	lds	r30, 0x07D2
    1752:	f0 91 d3 07 	lds	r31, 0x07D3
    1756:	80 e0       	ldi	r24, 0x00	; 0
    1758:	09 95       	icall
    175a:	dd 20       	and	r13, r13
    175c:	39 f1       	breq	.+78     	; 0x17ac <SetServoSyncPosition+0x132>
    175e:	0c c0       	rjmp	.+24     	; 0x1778 <SetServoSyncPosition+0xfe>
    1760:	e0 91 73 07 	lds	r30, 0x0773
    1764:	f0 91 74 07 	lds	r31, 0x0774
    1768:	8d 2d       	mov	r24, r13
    176a:	09 95       	icall
    176c:	90 e0       	ldi	r25, 0x00	; 0
    176e:	88 23       	and	r24, r24
    1770:	09 f4       	brne	.+2      	; 0x1774 <SetServoSyncPosition+0xfa>
    1772:	91 e0       	ldi	r25, 0x01	; 1
    1774:	81 e0       	ldi	r24, 0x01	; 1
    1776:	18 c0       	rjmp	.+48     	; 0x17a8 <SetServoSyncPosition+0x12e>
    1778:	80 91 4f 06 	lds	r24, 0x064F
    177c:	81 30       	cpi	r24, 0x01	; 1
    177e:	49 f4       	brne	.+18     	; 0x1792 <SetServoSyncPosition+0x118>
    1780:	e0 91 5c 06 	lds	r30, 0x065C
    1784:	f0 91 5d 06 	lds	r31, 0x065D
    1788:	8e e1       	ldi	r24, 0x1E	; 30
    178a:	64 e0       	ldi	r22, 0x04	; 4
    178c:	09 95       	icall
    178e:	10 92 4f 06 	sts	0x064F, r1
    1792:	e0 91 5e 06 	lds	r30, 0x065E
    1796:	f0 91 5f 06 	lds	r31, 0x065F
    179a:	8c 2d       	mov	r24, r12
    179c:	b8 01       	movw	r22, r16
    179e:	a7 01       	movw	r20, r14
    17a0:	09 95       	icall
    17a2:	81 11       	cpse	r24, r1
    17a4:	81 e0       	ldi	r24, 0x01	; 1
    17a6:	91 e0       	ldi	r25, 0x01	; 1
    17a8:	98 27       	eor	r25, r24
    17aa:	01 c0       	rjmp	.+2      	; 0x17ae <SetServoSyncPosition+0x134>
    17ac:	91 e0       	ldi	r25, 0x01	; 1
    17ae:	89 2f       	mov	r24, r25
    17b0:	0f 90       	pop	r0
    17b2:	cf 91       	pop	r28
    17b4:	df 91       	pop	r29
    17b6:	1f 91       	pop	r17
    17b8:	0f 91       	pop	r16
    17ba:	ff 90       	pop	r15
    17bc:	ef 90       	pop	r14
    17be:	df 90       	pop	r13
    17c0:	cf 90       	pop	r12
    17c2:	08 95       	ret
    17c4:	90 e2       	ldi	r25, 0x20	; 32
    17c6:	d9 2e       	mov	r13, r25
    17c8:	dc 0c       	add	r13, r12
    17ca:	e0 91 71 07 	lds	r30, 0x0771
    17ce:	f0 91 72 07 	lds	r31, 0x0772
    17d2:	8d 2d       	mov	r24, r13
    17d4:	09 95       	icall
    17d6:	88 23       	and	r24, r24
    17d8:	19 f6       	brne	.-122    	; 0x1760 <SetServoSyncPosition+0xe6>
    17da:	90 e0       	ldi	r25, 0x00	; 0
    17dc:	e8 cf       	rjmp	.-48     	; 0x17ae <SetServoSyncPosition+0x134>

000017de <SetServoRegVelocity>:
    17de:	ef 92       	push	r14
    17e0:	ff 92       	push	r15
    17e2:	0f 93       	push	r16
    17e4:	1f 93       	push	r17
    17e6:	cf 93       	push	r28
    17e8:	df 93       	push	r29
    17ea:	18 2f       	mov	r17, r24
    17ec:	e6 2e       	mov	r14, r22
    17ee:	ea 01       	movw	r28, r20
    17f0:	88 23       	and	r24, r24
    17f2:	b9 f1       	breq	.+110    	; 0x1862 <SetServoRegVelocity+0x84>
    17f4:	f8 2e       	mov	r15, r24
    17f6:	f2 94       	swap	r15
    17f8:	7f e0       	ldi	r23, 0x0F	; 15
    17fa:	f7 22       	and	r15, r23
    17fc:	8e e0       	ldi	r24, 0x0E	; 14
    17fe:	f8 16       	cp	r15, r24
    1800:	11 f0       	breq	.+4      	; 0x1806 <SetServoRegVelocity+0x28>
    1802:	1e 3f       	cpi	r17, 0xFE	; 254
    1804:	d9 f4       	brne	.+54     	; 0x183c <SetServoRegVelocity+0x5e>
    1806:	01 2f       	mov	r16, r17
    1808:	00 5e       	subi	r16, 0xE0	; 224
    180a:	e0 91 6f 07 	lds	r30, 0x076F
    180e:	f0 91 70 07 	lds	r31, 0x0770
    1812:	80 2f       	mov	r24, r16
    1814:	6e 2d       	mov	r22, r14
    1816:	ae 01       	movw	r20, r28
    1818:	09 95       	icall
    181a:	88 23       	and	r24, r24
    181c:	21 f1       	breq	.+72     	; 0x1866 <SetServoRegVelocity+0x88>
    181e:	e0 91 6d 07 	lds	r30, 0x076D
    1822:	f0 91 6e 07 	lds	r31, 0x076E
    1826:	80 2f       	mov	r24, r16
    1828:	6f ef       	ldi	r22, 0xFF	; 255
    182a:	73 e0       	ldi	r23, 0x03	; 3
    182c:	09 95       	icall
    182e:	88 23       	and	r24, r24
    1830:	d1 f0       	breq	.+52     	; 0x1866 <SetServoRegVelocity+0x88>
    1832:	8e e0       	ldi	r24, 0x0E	; 14
    1834:	f8 16       	cp	r15, r24
    1836:	11 f4       	brne	.+4      	; 0x183c <SetServoRegVelocity+0x5e>
    1838:	1e 3f       	cpi	r17, 0xFE	; 254
    183a:	99 f4       	brne	.+38     	; 0x1862 <SetServoRegVelocity+0x84>
    183c:	5e 2d       	mov	r21, r14
    183e:	55 0f       	add	r21, r21
    1840:	55 0f       	add	r21, r21
    1842:	40 e0       	ldi	r20, 0x00	; 0
    1844:	4c 0f       	add	r20, r28
    1846:	5d 1f       	adc	r21, r29
    1848:	e0 91 56 06 	lds	r30, 0x0656
    184c:	f0 91 57 06 	lds	r31, 0x0657
    1850:	81 2f       	mov	r24, r17
    1852:	60 e2       	ldi	r22, 0x20	; 32
    1854:	09 95       	icall
    1856:	98 2f       	mov	r25, r24
    1858:	81 11       	cpse	r24, r1
    185a:	91 e0       	ldi	r25, 0x01	; 1
    185c:	81 e0       	ldi	r24, 0x01	; 1
    185e:	89 27       	eor	r24, r25
    1860:	03 c0       	rjmp	.+6      	; 0x1868 <SetServoRegVelocity+0x8a>
    1862:	81 e0       	ldi	r24, 0x01	; 1
    1864:	01 c0       	rjmp	.+2      	; 0x1868 <SetServoRegVelocity+0x8a>
    1866:	80 e0       	ldi	r24, 0x00	; 0
    1868:	df 91       	pop	r29
    186a:	cf 91       	pop	r28
    186c:	1f 91       	pop	r17
    186e:	0f 91       	pop	r16
    1870:	ff 90       	pop	r15
    1872:	ef 90       	pop	r14
    1874:	08 95       	ret

00001876 <SetServoVelocity>:
    1876:	ef 92       	push	r14
    1878:	ff 92       	push	r15
    187a:	0f 93       	push	r16
    187c:	1f 93       	push	r17
    187e:	cf 93       	push	r28
    1880:	df 93       	push	r29
    1882:	08 2f       	mov	r16, r24
    1884:	e6 2e       	mov	r14, r22
    1886:	ea 01       	movw	r28, r20
    1888:	88 23       	and	r24, r24
    188a:	e9 f1       	breq	.+122    	; 0x1906 <SetServoVelocity+0x90>
    188c:	f8 2e       	mov	r15, r24
    188e:	f2 94       	swap	r15
    1890:	ef e0       	ldi	r30, 0x0F	; 15
    1892:	fe 22       	and	r15, r30
    1894:	8e e0       	ldi	r24, 0x0E	; 14
    1896:	f8 16       	cp	r15, r24
    1898:	11 f0       	breq	.+4      	; 0x189e <SetServoVelocity+0x28>
    189a:	0e 3f       	cpi	r16, 0xFE	; 254
    189c:	09 f5       	brne	.+66     	; 0x18e0 <SetServoVelocity+0x6a>
    189e:	10 2f       	mov	r17, r16
    18a0:	10 5e       	subi	r17, 0xE0	; 224
    18a2:	e0 91 6f 07 	lds	r30, 0x076F
    18a6:	f0 91 70 07 	lds	r31, 0x0770
    18aa:	81 2f       	mov	r24, r17
    18ac:	6e 2d       	mov	r22, r14
    18ae:	ae 01       	movw	r20, r28
    18b0:	09 95       	icall
    18b2:	88 23       	and	r24, r24
    18b4:	51 f1       	breq	.+84     	; 0x190a <SetServoVelocity+0x94>
    18b6:	e0 91 6d 07 	lds	r30, 0x076D
    18ba:	f0 91 6e 07 	lds	r31, 0x076E
    18be:	81 2f       	mov	r24, r17
    18c0:	6f ef       	ldi	r22, 0xFF	; 255
    18c2:	73 e0       	ldi	r23, 0x03	; 3
    18c4:	09 95       	icall
    18c6:	88 23       	and	r24, r24
    18c8:	01 f1       	breq	.+64     	; 0x190a <SetServoVelocity+0x94>
    18ca:	e0 91 73 07 	lds	r30, 0x0773
    18ce:	f0 91 74 07 	lds	r31, 0x0774
    18d2:	81 2f       	mov	r24, r17
    18d4:	09 95       	icall
    18d6:	8e e0       	ldi	r24, 0x0E	; 14
    18d8:	f8 16       	cp	r15, r24
    18da:	11 f4       	brne	.+4      	; 0x18e0 <SetServoVelocity+0x6a>
    18dc:	0e 3f       	cpi	r16, 0xFE	; 254
    18de:	99 f4       	brne	.+38     	; 0x1906 <SetServoVelocity+0x90>
    18e0:	5e 2d       	mov	r21, r14
    18e2:	55 0f       	add	r21, r21
    18e4:	55 0f       	add	r21, r21
    18e6:	40 e0       	ldi	r20, 0x00	; 0
    18e8:	4c 0f       	add	r20, r28
    18ea:	5d 1f       	adc	r21, r29
    18ec:	e0 91 58 06 	lds	r30, 0x0658
    18f0:	f0 91 59 06 	lds	r31, 0x0659
    18f4:	80 2f       	mov	r24, r16
    18f6:	60 e2       	ldi	r22, 0x20	; 32
    18f8:	09 95       	icall
    18fa:	98 2f       	mov	r25, r24
    18fc:	81 11       	cpse	r24, r1
    18fe:	91 e0       	ldi	r25, 0x01	; 1
    1900:	81 e0       	ldi	r24, 0x01	; 1
    1902:	89 27       	eor	r24, r25
    1904:	03 c0       	rjmp	.+6      	; 0x190c <SetServoVelocity+0x96>
    1906:	81 e0       	ldi	r24, 0x01	; 1
    1908:	01 c0       	rjmp	.+2      	; 0x190c <SetServoVelocity+0x96>
    190a:	80 e0       	ldi	r24, 0x00	; 0
    190c:	df 91       	pop	r29
    190e:	cf 91       	pop	r28
    1910:	1f 91       	pop	r17
    1912:	0f 91       	pop	r16
    1914:	ff 90       	pop	r15
    1916:	ef 90       	pop	r14
    1918:	08 95       	ret

0000191a <SetServoSyncVelocity>:
    191a:	bf 92       	push	r11
    191c:	cf 92       	push	r12
    191e:	df 92       	push	r13
    1920:	ef 92       	push	r14
    1922:	ff 92       	push	r15
    1924:	0f 93       	push	r16
    1926:	1f 93       	push	r17
    1928:	df 93       	push	r29
    192a:	cf 93       	push	r28
    192c:	0f 92       	push	r0
    192e:	cd b7       	in	r28, 0x3d	; 61
    1930:	de b7       	in	r29, 0x3e	; 62
    1932:	e8 2e       	mov	r14, r24
    1934:	b6 2e       	mov	r11, r22
    1936:	6a 01       	movw	r12, r20
    1938:	f8 2e       	mov	r15, r24
    193a:	f2 94       	swap	r15
    193c:	1f e0       	ldi	r17, 0x0F	; 15
    193e:	f1 22       	and	r15, r17
    1940:	f9 82       	std	Y+1, r15	; 0x01
    1942:	8e e0       	ldi	r24, 0x0E	; 14
    1944:	f8 16       	cp	r15, r24
    1946:	09 f4       	brne	.+2      	; 0x194a <SetServoSyncVelocity+0x30>
    1948:	4e c0       	rjmp	.+156    	; 0x19e6 <SetServoSyncVelocity+0xcc>
    194a:	96 2f       	mov	r25, r22
    194c:	99 0f       	add	r25, r25
    194e:	99 0f       	add	r25, r25
    1950:	80 e0       	ldi	r24, 0x00	; 0
    1952:	8c 01       	movw	r16, r24
    1954:	04 0f       	add	r16, r20
    1956:	15 1f       	adc	r17, r21
    1958:	8e ef       	ldi	r24, 0xFE	; 254
    195a:	e8 16       	cp	r14, r24
    195c:	81 f4       	brne	.+32     	; 0x197e <SetServoSyncVelocity+0x64>
    195e:	80 91 4e 06 	lds	r24, 0x064E
    1962:	e2 e6       	ldi	r30, 0x62	; 98
    1964:	f3 e0       	ldi	r31, 0x03	; 3
    1966:	90 e0       	ldi	r25, 0x00	; 0
    1968:	88 0f       	add	r24, r24
    196a:	99 1f       	adc	r25, r25
    196c:	8e 0f       	add	r24, r30
    196e:	9f 1f       	adc	r25, r31
    1970:	02 c0       	rjmp	.+4      	; 0x1976 <SetServoSyncVelocity+0x5c>
    1972:	01 93       	st	Z+, r16
    1974:	11 93       	st	Z+, r17
    1976:	e8 17       	cp	r30, r24
    1978:	f9 07       	cpc	r31, r25
    197a:	d9 f7       	brne	.-10     	; 0x1972 <SetServoSyncVelocity+0x58>
    197c:	34 c0       	rjmp	.+104    	; 0x19e6 <SetServoSyncVelocity+0xcc>
    197e:	e0 91 71 06 	lds	r30, 0x0671
    1982:	f0 91 72 06 	lds	r31, 0x0672
    1986:	80 91 4c 06 	lds	r24, 0x064C
    198a:	90 91 4d 06 	lds	r25, 0x064D
    198e:	60 91 4e 06 	lds	r22, 0x064E
    1992:	4e 2d       	mov	r20, r14
    1994:	9e 01       	movw	r18, r28
    1996:	2f 5f       	subi	r18, 0xFF	; 255
    1998:	3f 4f       	sbci	r19, 0xFF	; 255
    199a:	09 95       	icall
    199c:	f8 2e       	mov	r15, r24
    199e:	81 e0       	ldi	r24, 0x01	; 1
    19a0:	f8 16       	cp	r15, r24
    19a2:	09 f0       	breq	.+2      	; 0x19a6 <SetServoSyncVelocity+0x8c>
    19a4:	65 c0       	rjmp	.+202    	; 0x1a70 <SetServoSyncVelocity+0x156>
    19a6:	e0 91 d4 07 	lds	r30, 0x07D4
    19aa:	f0 91 d5 07 	lds	r31, 0x07D5
    19ae:	80 e0       	ldi	r24, 0x00	; 0
    19b0:	09 95       	icall
    19b2:	89 81       	ldd	r24, Y+1	; 0x01
    19b4:	e8 2f       	mov	r30, r24
    19b6:	f0 e0       	ldi	r31, 0x00	; 0
    19b8:	ee 0f       	add	r30, r30
    19ba:	ff 1f       	adc	r31, r31
    19bc:	ee 59       	subi	r30, 0x9E	; 158
    19be:	fc 4f       	sbci	r31, 0xFC	; 252
    19c0:	80 81       	ld	r24, Z
    19c2:	91 81       	ldd	r25, Z+1	; 0x01
    19c4:	80 17       	cp	r24, r16
    19c6:	91 07       	cpc	r25, r17
    19c8:	11 f4       	brne	.+4      	; 0x19ce <SetServoSyncVelocity+0xb4>
    19ca:	ff 24       	eor	r15, r15
    19cc:	02 c0       	rjmp	.+4      	; 0x19d2 <SetServoSyncVelocity+0xb8>
    19ce:	11 83       	std	Z+1, r17	; 0x01
    19d0:	00 83       	st	Z, r16
    19d2:	e0 91 d2 07 	lds	r30, 0x07D2
    19d6:	f0 91 d3 07 	lds	r31, 0x07D3
    19da:	80 e0       	ldi	r24, 0x00	; 0
    19dc:	09 95       	icall
    19de:	ff 20       	and	r15, r15
    19e0:	09 f4       	brne	.+2      	; 0x19e4 <SetServoSyncVelocity+0xca>
    19e2:	46 c0       	rjmp	.+140    	; 0x1a70 <SetServoSyncVelocity+0x156>
    19e4:	24 c0       	rjmp	.+72     	; 0x1a2e <SetServoSyncVelocity+0x114>
    19e6:	1e 2d       	mov	r17, r14
    19e8:	10 5e       	subi	r17, 0xE0	; 224
    19ea:	e0 91 6f 07 	lds	r30, 0x076F
    19ee:	f0 91 70 07 	lds	r31, 0x0770
    19f2:	81 2f       	mov	r24, r17
    19f4:	6b 2d       	mov	r22, r11
    19f6:	a6 01       	movw	r20, r12
    19f8:	09 95       	icall
    19fa:	88 23       	and	r24, r24
    19fc:	d9 f1       	breq	.+118    	; 0x1a74 <SetServoSyncVelocity+0x15a>
    19fe:	e0 91 6d 07 	lds	r30, 0x076D
    1a02:	f0 91 6e 07 	lds	r31, 0x076E
    1a06:	81 2f       	mov	r24, r17
    1a08:	6f ef       	ldi	r22, 0xFF	; 255
    1a0a:	73 e0       	ldi	r23, 0x03	; 3
    1a0c:	09 95       	icall
    1a0e:	88 23       	and	r24, r24
    1a10:	89 f1       	breq	.+98     	; 0x1a74 <SetServoSyncVelocity+0x15a>
    1a12:	e0 91 73 07 	lds	r30, 0x0773
    1a16:	f0 91 74 07 	lds	r31, 0x0774
    1a1a:	81 2f       	mov	r24, r17
    1a1c:	09 95       	icall
    1a1e:	88 23       	and	r24, r24
    1a20:	49 f1       	breq	.+82     	; 0x1a74 <SetServoSyncVelocity+0x15a>
    1a22:	8e e0       	ldi	r24, 0x0E	; 14
    1a24:	f8 16       	cp	r15, r24
    1a26:	19 f4       	brne	.+6      	; 0x1a2e <SetServoSyncVelocity+0x114>
    1a28:	8e ef       	ldi	r24, 0xFE	; 254
    1a2a:	e8 16       	cp	r14, r24
    1a2c:	09 f5       	brne	.+66     	; 0x1a70 <SetServoSyncVelocity+0x156>
    1a2e:	80 91 4f 06 	lds	r24, 0x064F
    1a32:	81 30       	cpi	r24, 0x01	; 1
    1a34:	49 f4       	brne	.+18     	; 0x1a48 <SetServoSyncVelocity+0x12e>
    1a36:	e0 91 5c 06 	lds	r30, 0x065C
    1a3a:	f0 91 5d 06 	lds	r31, 0x065D
    1a3e:	8e e1       	ldi	r24, 0x1E	; 30
    1a40:	64 e0       	ldi	r22, 0x04	; 4
    1a42:	09 95       	icall
    1a44:	10 92 4f 06 	sts	0x064F, r1
    1a48:	5b 2d       	mov	r21, r11
    1a4a:	55 0f       	add	r21, r21
    1a4c:	55 0f       	add	r21, r21
    1a4e:	40 e0       	ldi	r20, 0x00	; 0
    1a50:	4c 0d       	add	r20, r12
    1a52:	5d 1d       	adc	r21, r13
    1a54:	e0 91 5e 06 	lds	r30, 0x065E
    1a58:	f0 91 5f 06 	lds	r31, 0x065F
    1a5c:	8e 2d       	mov	r24, r14
    1a5e:	60 e0       	ldi	r22, 0x00	; 0
    1a60:	72 e0       	ldi	r23, 0x02	; 2
    1a62:	09 95       	icall
    1a64:	98 2f       	mov	r25, r24
    1a66:	81 11       	cpse	r24, r1
    1a68:	91 e0       	ldi	r25, 0x01	; 1
    1a6a:	81 e0       	ldi	r24, 0x01	; 1
    1a6c:	89 27       	eor	r24, r25
    1a6e:	03 c0       	rjmp	.+6      	; 0x1a76 <SetServoSyncVelocity+0x15c>
    1a70:	81 e0       	ldi	r24, 0x01	; 1
    1a72:	01 c0       	rjmp	.+2      	; 0x1a76 <SetServoSyncVelocity+0x15c>
    1a74:	80 e0       	ldi	r24, 0x00	; 0
    1a76:	0f 90       	pop	r0
    1a78:	cf 91       	pop	r28
    1a7a:	df 91       	pop	r29
    1a7c:	1f 91       	pop	r17
    1a7e:	0f 91       	pop	r16
    1a80:	ff 90       	pop	r15
    1a82:	ef 90       	pop	r14
    1a84:	df 90       	pop	r13
    1a86:	cf 90       	pop	r12
    1a88:	bf 90       	pop	r11
    1a8a:	08 95       	ret

00001a8c <SetServoAngleLimit>:
    1a8c:	ef 92       	push	r14
    1a8e:	ff 92       	push	r15
    1a90:	0f 93       	push	r16
    1a92:	1f 93       	push	r17
    1a94:	cf 93       	push	r28
    1a96:	df 93       	push	r29
    1a98:	18 2f       	mov	r17, r24
    1a9a:	eb 01       	movw	r28, r22
    1a9c:	7a 01       	movw	r14, r20
    1a9e:	08 2f       	mov	r16, r24
    1aa0:	02 95       	swap	r16
    1aa2:	0f 70       	andi	r16, 0x0F	; 15
    1aa4:	0e 30       	cpi	r16, 0x0E	; 14
    1aa6:	11 f0       	breq	.+4      	; 0x1aac <SetServoAngleLimit+0x20>
    1aa8:	8e 3f       	cpi	r24, 0xFE	; 254
    1aaa:	89 f4       	brne	.+34     	; 0x1ace <SetServoAngleLimit+0x42>
    1aac:	e0 91 65 07 	lds	r30, 0x0765
    1ab0:	f0 91 66 07 	lds	r31, 0x0766
    1ab4:	81 2f       	mov	r24, r17
    1ab6:	80 5e       	subi	r24, 0xE0	; 224
    1ab8:	be 01       	movw	r22, r28
    1aba:	a7 01       	movw	r20, r14
    1abc:	09 95       	icall
    1abe:	88 23       	and	r24, r24
    1ac0:	a1 f0       	breq	.+40     	; 0x1aea <SetServoAngleLimit+0x5e>
    1ac2:	0e 30       	cpi	r16, 0x0E	; 14
    1ac4:	21 f4       	brne	.+8      	; 0x1ace <SetServoAngleLimit+0x42>
    1ac6:	1e 3f       	cpi	r17, 0xFE	; 254
    1ac8:	11 f0       	breq	.+4      	; 0x1ace <SetServoAngleLimit+0x42>
    1aca:	81 e0       	ldi	r24, 0x01	; 1
    1acc:	0e c0       	rjmp	.+28     	; 0x1aea <SetServoAngleLimit+0x5e>
    1ace:	e0 91 54 06 	lds	r30, 0x0654
    1ad2:	f0 91 55 06 	lds	r31, 0x0655
    1ad6:	81 2f       	mov	r24, r17
    1ad8:	66 e0       	ldi	r22, 0x06	; 6
    1ada:	ae 01       	movw	r20, r28
    1adc:	97 01       	movw	r18, r14
    1ade:	09 95       	icall
    1ae0:	98 2f       	mov	r25, r24
    1ae2:	81 11       	cpse	r24, r1
    1ae4:	91 e0       	ldi	r25, 0x01	; 1
    1ae6:	81 e0       	ldi	r24, 0x01	; 1
    1ae8:	89 27       	eor	r24, r25
    1aea:	df 91       	pop	r29
    1aec:	cf 91       	pop	r28
    1aee:	1f 91       	pop	r17
    1af0:	0f 91       	pop	r16
    1af2:	ff 90       	pop	r15
    1af4:	ef 90       	pop	r14
    1af6:	08 95       	ret

00001af8 <SetServoId>:
    1af8:	98 2f       	mov	r25, r24
    1afa:	46 2f       	mov	r20, r22
    1afc:	82 95       	swap	r24
    1afe:	8f 70       	andi	r24, 0x0F	; 15
    1b00:	8e 30       	cpi	r24, 0x0E	; 14
    1b02:	11 f4       	brne	.+4      	; 0x1b08 <SetServoId+0x10>
    1b04:	90 e0       	ldi	r25, 0x00	; 0
    1b06:	0b c0       	rjmp	.+22     	; 0x1b1e <SetServoId+0x26>
    1b08:	e0 91 5a 06 	lds	r30, 0x065A
    1b0c:	f0 91 5b 06 	lds	r31, 0x065B
    1b10:	89 2f       	mov	r24, r25
    1b12:	63 e0       	ldi	r22, 0x03	; 3
    1b14:	09 95       	icall
    1b16:	90 e0       	ldi	r25, 0x00	; 0
    1b18:	88 23       	and	r24, r24
    1b1a:	09 f4       	brne	.+2      	; 0x1b1e <SetServoId+0x26>
    1b1c:	91 e0       	ldi	r25, 0x01	; 1
    1b1e:	89 2f       	mov	r24, r25
    1b20:	08 95       	ret

00001b22 <GetServoPosition>:
    1b22:	1f 93       	push	r17
    1b24:	cf 93       	push	r28
    1b26:	df 93       	push	r29
    1b28:	18 2f       	mov	r17, r24
    1b2a:	eb 01       	movw	r28, r22
    1b2c:	82 95       	swap	r24
    1b2e:	8f 70       	andi	r24, 0x0F	; 15
    1b30:	8e 30       	cpi	r24, 0x0E	; 14
    1b32:	51 f4       	brne	.+20     	; 0x1b48 <GetServoPosition+0x26>
    1b34:	e0 91 69 07 	lds	r30, 0x0769
    1b38:	f0 91 6a 07 	lds	r31, 0x076A
    1b3c:	81 2f       	mov	r24, r17
    1b3e:	80 5e       	subi	r24, 0xE0	; 224
    1b40:	09 95       	icall
    1b42:	88 23       	and	r24, r24
    1b44:	91 f4       	brne	.+36     	; 0x1b6a <GetServoPosition+0x48>
    1b46:	0d c0       	rjmp	.+26     	; 0x1b62 <GetServoPosition+0x40>
    1b48:	e0 91 64 06 	lds	r30, 0x0664
    1b4c:	f0 91 65 06 	lds	r31, 0x0665
    1b50:	81 2f       	mov	r24, r17
    1b52:	64 e2       	ldi	r22, 0x24	; 36
    1b54:	ae 01       	movw	r20, r28
    1b56:	09 95       	icall
    1b58:	98 2f       	mov	r25, r24
    1b5a:	81 11       	cpse	r24, r1
    1b5c:	91 e0       	ldi	r25, 0x01	; 1
    1b5e:	81 e0       	ldi	r24, 0x01	; 1
    1b60:	89 27       	eor	r24, r25
    1b62:	df 91       	pop	r29
    1b64:	cf 91       	pop	r28
    1b66:	1f 91       	pop	r17
    1b68:	08 95       	ret
    1b6a:	1e 3f       	cpi	r17, 0xFE	; 254
    1b6c:	69 f3       	breq	.-38     	; 0x1b48 <GetServoPosition+0x26>
    1b6e:	81 e0       	ldi	r24, 0x01	; 1
    1b70:	f8 cf       	rjmp	.-16     	; 0x1b62 <GetServoPosition+0x40>

00001b72 <CalcServoVelocity>:
    1b72:	8f 92       	push	r8
    1b74:	9f 92       	push	r9
    1b76:	af 92       	push	r10
    1b78:	bf 92       	push	r11
    1b7a:	cf 92       	push	r12
    1b7c:	df 92       	push	r13
    1b7e:	ef 92       	push	r14
    1b80:	ff 92       	push	r15
    1b82:	0f 93       	push	r16
    1b84:	1f 93       	push	r17
    1b86:	df 93       	push	r29
    1b88:	cf 93       	push	r28
    1b8a:	0f 92       	push	r0
    1b8c:	cd b7       	in	r28, 0x3d	; 61
    1b8e:	de b7       	in	r29, 0x3e	; 62
    1b90:	a8 2f       	mov	r26, r24
    1b92:	7b 01       	movw	r14, r22
    1b94:	6a 01       	movw	r12, r20
    1b96:	49 01       	movw	r8, r18
    1b98:	58 01       	movw	r10, r16
    1b9a:	28 2f       	mov	r18, r24
    1b9c:	22 95       	swap	r18
    1b9e:	2f 70       	andi	r18, 0x0F	; 15
    1ba0:	2e 30       	cpi	r18, 0x0E	; 14
    1ba2:	09 f4       	brne	.+2      	; 0x1ba6 <CalcServoVelocity+0x34>
    1ba4:	5a c0       	rjmp	.+180    	; 0x1c5a <CalcServoVelocity+0xe8>
    1ba6:	8e 3f       	cpi	r24, 0xFE	; 254
    1ba8:	09 f4       	brne	.+2      	; 0x1bac <CalcServoVelocity+0x3a>
    1baa:	57 c0       	rjmp	.+174    	; 0x1c5a <CalcServoVelocity+0xe8>
    1bac:	e0 91 71 06 	lds	r30, 0x0671
    1bb0:	f0 91 72 06 	lds	r31, 0x0672
    1bb4:	80 91 4c 06 	lds	r24, 0x064C
    1bb8:	90 91 4d 06 	lds	r25, 0x064D
    1bbc:	60 91 4e 06 	lds	r22, 0x064E
    1bc0:	29 83       	std	Y+1, r18	; 0x01
    1bc2:	4a 2f       	mov	r20, r26
    1bc4:	9e 01       	movw	r18, r28
    1bc6:	2f 5f       	subi	r18, 0xFF	; 255
    1bc8:	3f 4f       	sbci	r19, 0xFF	; 255
    1bca:	09 95       	icall
    1bcc:	81 30       	cpi	r24, 0x01	; 1
    1bce:	09 f0       	breq	.+2      	; 0x1bd2 <CalcServoVelocity+0x60>
    1bd0:	53 c0       	rjmp	.+166    	; 0x1c78 <CalcServoVelocity+0x106>
    1bd2:	e9 81       	ldd	r30, Y+1	; 0x01
    1bd4:	f0 e0       	ldi	r31, 0x00	; 0
    1bd6:	ee 0f       	add	r30, r30
    1bd8:	ff 1f       	adc	r31, r31
    1bda:	ee 5d       	subi	r30, 0xDE	; 222
    1bdc:	fc 4f       	sbci	r31, 0xFC	; 252
    1bde:	60 81       	ld	r22, Z
    1be0:	71 81       	ldd	r23, Z+1	; 0x01
    1be2:	4c c0       	rjmp	.+152    	; 0x1c7c <CalcServoVelocity+0x10a>
    1be4:	e6 1a       	sub	r14, r22
    1be6:	f7 0a       	sbc	r15, r23
    1be8:	b7 01       	movw	r22, r14
    1bea:	05 c0       	rjmp	.+10     	; 0x1bf6 <CalcServoVelocity+0x84>
    1bec:	e6 16       	cp	r14, r22
    1bee:	f7 06       	cpc	r15, r23
    1bf0:	d8 f4       	brcc	.+54     	; 0x1c28 <CalcServoVelocity+0xb6>
    1bf2:	6e 19       	sub	r22, r14
    1bf4:	7f 09       	sbc	r23, r15
    1bf6:	80 e0       	ldi	r24, 0x00	; 0
    1bf8:	90 e0       	ldi	r25, 0x00	; 0
    1bfa:	7b 01       	movw	r14, r22
    1bfc:	8c 01       	movw	r16, r24
    1bfe:	8a e0       	ldi	r24, 0x0A	; 10
    1c00:	ee 0c       	add	r14, r14
    1c02:	ff 1c       	adc	r15, r15
    1c04:	00 1f       	adc	r16, r16
    1c06:	11 1f       	adc	r17, r17
    1c08:	8a 95       	dec	r24
    1c0a:	d1 f7       	brne	.-12     	; 0x1c00 <CalcServoVelocity+0x8e>
    1c0c:	96 01       	movw	r18, r12
    1c0e:	40 e0       	ldi	r20, 0x00	; 0
    1c10:	50 e0       	ldi	r21, 0x00	; 0
    1c12:	c8 01       	movw	r24, r16
    1c14:	b7 01       	movw	r22, r14
    1c16:	0e 94 a7 42 	call	0x854e	; 0x854e <__udivmodsi4>
    1c1a:	21 50       	subi	r18, 0x01	; 1
    1c1c:	30 40       	sbci	r19, 0x00	; 0
    1c1e:	f4 e0       	ldi	r31, 0x04	; 4
    1c20:	20 30       	cpi	r18, 0x00	; 0
    1c22:	3f 07       	cpc	r19, r31
    1c24:	40 f4       	brcc	.+16     	; 0x1c36 <CalcServoVelocity+0xc4>
    1c26:	04 c0       	rjmp	.+8      	; 0x1c30 <CalcServoVelocity+0xbe>
    1c28:	f5 01       	movw	r30, r10
    1c2a:	11 82       	std	Z+1, r1	; 0x01
    1c2c:	10 82       	st	Z, r1
    1c2e:	15 c0       	rjmp	.+42     	; 0x1c5a <CalcServoVelocity+0xe8>
    1c30:	8c 2d       	mov	r24, r12
    1c32:	4d 2d       	mov	r20, r13
    1c34:	0c c0       	rjmp	.+24     	; 0x1c4e <CalcServoVelocity+0xdc>
    1c36:	d8 01       	movw	r26, r16
    1c38:	c7 01       	movw	r24, r14
    1c3a:	0a e0       	ldi	r16, 0x0A	; 10
    1c3c:	b6 95       	lsr	r27
    1c3e:	a7 95       	ror	r26
    1c40:	97 95       	ror	r25
    1c42:	87 95       	ror	r24
    1c44:	0a 95       	dec	r16
    1c46:	d1 f7       	brne	.-12     	; 0x1c3c <CalcServoVelocity+0xca>
    1c48:	49 2f       	mov	r20, r25
    1c4a:	2f ef       	ldi	r18, 0xFF	; 255
    1c4c:	33 e0       	ldi	r19, 0x03	; 3
    1c4e:	f5 01       	movw	r30, r10
    1c50:	80 83       	st	Z, r24
    1c52:	41 83       	std	Z+1, r20	; 0x01
    1c54:	f4 01       	movw	r30, r8
    1c56:	31 83       	std	Z+1, r19	; 0x01
    1c58:	20 83       	st	Z, r18
    1c5a:	81 e0       	ldi	r24, 0x01	; 1
    1c5c:	0f 90       	pop	r0
    1c5e:	cf 91       	pop	r28
    1c60:	df 91       	pop	r29
    1c62:	1f 91       	pop	r17
    1c64:	0f 91       	pop	r16
    1c66:	ff 90       	pop	r15
    1c68:	ef 90       	pop	r14
    1c6a:	df 90       	pop	r13
    1c6c:	cf 90       	pop	r12
    1c6e:	bf 90       	pop	r11
    1c70:	af 90       	pop	r10
    1c72:	9f 90       	pop	r9
    1c74:	8f 90       	pop	r8
    1c76:	08 95       	ret
    1c78:	60 e0       	ldi	r22, 0x00	; 0
    1c7a:	70 e0       	ldi	r23, 0x00	; 0
    1c7c:	6e 15       	cp	r22, r14
    1c7e:	7f 05       	cpc	r23, r15
    1c80:	08 f4       	brcc	.+2      	; 0x1c84 <CalcServoVelocity+0x112>
    1c82:	b0 cf       	rjmp	.-160    	; 0x1be4 <CalcServoVelocity+0x72>
    1c84:	b3 cf       	rjmp	.-154    	; 0x1bec <CalcServoVelocity+0x7a>

00001c86 <GetServoLoad>:
    1c86:	98 2f       	mov	r25, r24
    1c88:	ab 01       	movw	r20, r22
    1c8a:	82 95       	swap	r24
    1c8c:	8f 70       	andi	r24, 0x0F	; 15
    1c8e:	8e 30       	cpi	r24, 0x0E	; 14
    1c90:	71 f0       	breq	.+28     	; 0x1cae <GetServoLoad+0x28>
    1c92:	9e 3f       	cpi	r25, 0xFE	; 254
    1c94:	61 f0       	breq	.+24     	; 0x1cae <GetServoLoad+0x28>
    1c96:	e0 91 64 06 	lds	r30, 0x0664
    1c9a:	f0 91 65 06 	lds	r31, 0x0665
    1c9e:	89 2f       	mov	r24, r25
    1ca0:	68 e2       	ldi	r22, 0x28	; 40
    1ca2:	09 95       	icall
    1ca4:	90 e0       	ldi	r25, 0x00	; 0
    1ca6:	88 23       	and	r24, r24
    1ca8:	19 f4       	brne	.+6      	; 0x1cb0 <GetServoLoad+0x2a>
    1caa:	91 e0       	ldi	r25, 0x01	; 1
    1cac:	01 c0       	rjmp	.+2      	; 0x1cb0 <GetServoLoad+0x2a>
    1cae:	90 e0       	ldi	r25, 0x00	; 0
    1cb0:	89 2f       	mov	r24, r25
    1cb2:	08 95       	ret

00001cb4 <GetServoAngleLimit>:
    1cb4:	98 2f       	mov	r25, r24
    1cb6:	db 01       	movw	r26, r22
    1cb8:	9a 01       	movw	r18, r20
    1cba:	82 95       	swap	r24
    1cbc:	8f 70       	andi	r24, 0x0F	; 15
    1cbe:	8e 30       	cpi	r24, 0x0E	; 14
    1cc0:	69 f4       	brne	.+26     	; 0x1cdc <GetServoAngleLimit+0x28>
    1cc2:	e0 91 67 07 	lds	r30, 0x0767
    1cc6:	f0 91 68 07 	lds	r31, 0x0768
    1cca:	89 2f       	mov	r24, r25
    1ccc:	80 5e       	subi	r24, 0xE0	; 224
    1cce:	09 95       	icall
    1cd0:	90 e0       	ldi	r25, 0x00	; 0
    1cd2:	88 23       	and	r24, r24
    1cd4:	09 f4       	brne	.+2      	; 0x1cd8 <GetServoAngleLimit+0x24>
    1cd6:	91 e0       	ldi	r25, 0x01	; 1
    1cd8:	81 e0       	ldi	r24, 0x01	; 1
    1cda:	0b c0       	rjmp	.+22     	; 0x1cf2 <GetServoAngleLimit+0x3e>
    1cdc:	e0 91 66 06 	lds	r30, 0x0666
    1ce0:	f0 91 67 06 	lds	r31, 0x0667
    1ce4:	89 2f       	mov	r24, r25
    1ce6:	66 e0       	ldi	r22, 0x06	; 6
    1ce8:	ad 01       	movw	r20, r26
    1cea:	09 95       	icall
    1cec:	81 11       	cpse	r24, r1
    1cee:	81 e0       	ldi	r24, 0x01	; 1
    1cf0:	91 e0       	ldi	r25, 0x01	; 1
    1cf2:	98 27       	eor	r25, r24
    1cf4:	89 2f       	mov	r24, r25
    1cf6:	08 95       	ret

00001cf8 <ActionServo>:
    1cf8:	e0 91 73 07 	lds	r30, 0x0773
    1cfc:	f0 91 74 07 	lds	r31, 0x0774
    1d00:	8e e1       	ldi	r24, 0x1E	; 30
    1d02:	09 95       	icall
    1d04:	88 23       	and	r24, r24
    1d06:	11 f4       	brne	.+4      	; 0x1d0c <ActionServo+0x14>
    1d08:	90 e0       	ldi	r25, 0x00	; 0
    1d0a:	09 c0       	rjmp	.+18     	; 0x1d1e <ActionServo+0x26>
    1d0c:	e0 91 62 06 	lds	r30, 0x0662
    1d10:	f0 91 63 06 	lds	r31, 0x0663
    1d14:	09 95       	icall
    1d16:	90 e0       	ldi	r25, 0x00	; 0
    1d18:	88 23       	and	r24, r24
    1d1a:	09 f4       	brne	.+2      	; 0x1d1e <ActionServo+0x26>
    1d1c:	91 e0       	ldi	r25, 0x01	; 1
    1d1e:	89 2f       	mov	r24, r25
    1d20:	08 95       	ret

00001d22 <ActionSyncServo>:
    1d22:	e0 91 60 06 	lds	r30, 0x0660
    1d26:	f0 91 61 06 	lds	r31, 0x0661
    1d2a:	09 95       	icall
    1d2c:	81 e0       	ldi	r24, 0x01	; 1
    1d2e:	80 93 4f 06 	sts	0x064F, r24
    1d32:	08 95       	ret

00001d34 <SetServoMode>:
    1d34:	df 92       	push	r13
    1d36:	ef 92       	push	r14
    1d38:	ff 92       	push	r15
    1d3a:	0f 93       	push	r16
    1d3c:	1f 93       	push	r17
    1d3e:	df 93       	push	r29
    1d40:	cf 93       	push	r28
    1d42:	00 d0       	rcall	.+0      	; 0x1d44 <SetServoMode+0x10>
    1d44:	00 d0       	rcall	.+0      	; 0x1d46 <SetServoMode+0x12>
    1d46:	cd b7       	in	r28, 0x3d	; 61
    1d48:	de b7       	in	r29, 0x3e	; 62
    1d4a:	08 2f       	mov	r16, r24
    1d4c:	e6 2e       	mov	r14, r22
    1d4e:	1a 82       	std	Y+2, r1	; 0x02
    1d50:	19 82       	std	Y+1, r1	; 0x01
    1d52:	1c 82       	std	Y+4, r1	; 0x04
    1d54:	1b 82       	std	Y+3, r1	; 0x03
    1d56:	8e 3f       	cpi	r24, 0xFE	; 254
    1d58:	11 f4       	brne	.+4      	; 0x1d5e <SetServoMode+0x2a>
    1d5a:	10 e0       	ldi	r17, 0x00	; 0
    1d5c:	1f c0       	rjmp	.+62     	; 0x1d9c <SetServoMode+0x68>
    1d5e:	60 e0       	ldi	r22, 0x00	; 0
    1d60:	0e 94 82 0a 	call	0x1504	; 0x1504 <SetServoTorqueEnable>
    1d64:	18 2f       	mov	r17, r24
    1d66:	88 23       	and	r24, r24
    1d68:	09 f4       	brne	.+2      	; 0x1d6c <SetServoMode+0x38>
    1d6a:	a0 c0       	rjmp	.+320    	; 0x1eac <SetServoMode+0x178>
    1d6c:	80 2f       	mov	r24, r16
    1d6e:	be 01       	movw	r22, r28
    1d70:	6f 5f       	subi	r22, 0xFF	; 255
    1d72:	7f 4f       	sbci	r23, 0xFF	; 255
    1d74:	ae 01       	movw	r20, r28
    1d76:	4d 5f       	subi	r20, 0xFD	; 253
    1d78:	5f 4f       	sbci	r21, 0xFF	; 255
    1d7a:	0e 94 5a 0e 	call	0x1cb4	; 0x1cb4 <GetServoAngleLimit>
    1d7e:	89 81       	ldd	r24, Y+1	; 0x01
    1d80:	9a 81       	ldd	r25, Y+2	; 0x02
    1d82:	89 2b       	or	r24, r25
    1d84:	41 f4       	brne	.+16     	; 0x1d96 <SetServoMode+0x62>
    1d86:	8b 81       	ldd	r24, Y+3	; 0x03
    1d88:	9c 81       	ldd	r25, Y+4	; 0x04
    1d8a:	89 2b       	or	r24, r25
    1d8c:	21 f4       	brne	.+8      	; 0x1d96 <SetServoMode+0x62>
    1d8e:	81 e0       	ldi	r24, 0x01	; 1
    1d90:	e8 16       	cp	r14, r24
    1d92:	21 f4       	brne	.+8      	; 0x1d9c <SetServoMode+0x68>
    1d94:	89 c0       	rjmp	.+274    	; 0x1ea8 <SetServoMode+0x174>
    1d96:	ee 20       	and	r14, r14
    1d98:	09 f4       	brne	.+2      	; 0x1d9c <SetServoMode+0x68>
    1d9a:	86 c0       	rjmp	.+268    	; 0x1ea8 <SetServoMode+0x174>
    1d9c:	d0 2e       	mov	r13, r16
    1d9e:	d2 94       	swap	r13
    1da0:	3f e0       	ldi	r19, 0x0F	; 15
    1da2:	d3 22       	and	r13, r19
    1da4:	8e e0       	ldi	r24, 0x0E	; 14
    1da6:	d8 16       	cp	r13, r24
    1da8:	19 f0       	breq	.+6      	; 0x1db0 <SetServoMode+0x7c>
    1daa:	0e 3f       	cpi	r16, 0xFE	; 254
    1dac:	09 f0       	breq	.+2      	; 0x1db0 <SetServoMode+0x7c>
    1dae:	45 c0       	rjmp	.+138    	; 0x1e3a <SetServoMode+0x106>
    1db0:	ee 20       	and	r14, r14
    1db2:	21 f0       	breq	.+8      	; 0x1dbc <SetServoMode+0x88>
    1db4:	81 e0       	ldi	r24, 0x01	; 1
    1db6:	e8 16       	cp	r14, r24
    1db8:	c1 f5       	brne	.+112    	; 0x1e2a <SetServoMode+0xf6>
    1dba:	0d c0       	rjmp	.+26     	; 0x1dd6 <SetServoMode+0xa2>
    1dbc:	e0 91 65 07 	lds	r30, 0x0765
    1dc0:	f0 91 66 07 	lds	r31, 0x0766
    1dc4:	80 2f       	mov	r24, r16
    1dc6:	80 5e       	subi	r24, 0xE0	; 224
    1dc8:	60 e0       	ldi	r22, 0x00	; 0
    1dca:	70 e0       	ldi	r23, 0x00	; 0
    1dcc:	4f ef       	ldi	r20, 0xFF	; 255
    1dce:	53 e0       	ldi	r21, 0x03	; 3
    1dd0:	09 95       	icall
    1dd2:	18 2f       	mov	r17, r24
    1dd4:	2a c0       	rjmp	.+84     	; 0x1e2a <SetServoMode+0xf6>
    1dd6:	20 e2       	ldi	r18, 0x20	; 32
    1dd8:	f2 2e       	mov	r15, r18
    1dda:	f0 0e       	add	r15, r16
    1ddc:	e0 91 65 07 	lds	r30, 0x0765
    1de0:	f0 91 66 07 	lds	r31, 0x0766
    1de4:	8f 2d       	mov	r24, r15
    1de6:	60 e0       	ldi	r22, 0x00	; 0
    1de8:	70 e0       	ldi	r23, 0x00	; 0
    1dea:	40 e0       	ldi	r20, 0x00	; 0
    1dec:	50 e0       	ldi	r21, 0x00	; 0
    1dee:	09 95       	icall
    1df0:	18 2f       	mov	r17, r24
    1df2:	88 23       	and	r24, r24
    1df4:	09 f4       	brne	.+2      	; 0x1df8 <SetServoMode+0xc4>
    1df6:	5a c0       	rjmp	.+180    	; 0x1eac <SetServoMode+0x178>
    1df8:	e0 91 6f 07 	lds	r30, 0x076F
    1dfc:	f0 91 70 07 	lds	r31, 0x0770
    1e00:	8f 2d       	mov	r24, r15
    1e02:	61 e0       	ldi	r22, 0x01	; 1
    1e04:	40 e0       	ldi	r20, 0x00	; 0
    1e06:	50 e0       	ldi	r21, 0x00	; 0
    1e08:	09 95       	icall
    1e0a:	88 e5       	ldi	r24, 0x58	; 88
    1e0c:	92 e0       	ldi	r25, 0x02	; 2
    1e0e:	20 e9       	ldi	r18, 0x90	; 144
    1e10:	31 e0       	ldi	r19, 0x01	; 1
    1e12:	f9 01       	movw	r30, r18
    1e14:	31 97       	sbiw	r30, 0x01	; 1
    1e16:	f1 f7       	brne	.-4      	; 0x1e14 <SetServoMode+0xe0>
    1e18:	01 97       	sbiw	r24, 0x01	; 1
    1e1a:	d9 f7       	brne	.-10     	; 0x1e12 <SetServoMode+0xde>
    1e1c:	e0 91 6b 07 	lds	r30, 0x076B
    1e20:	f0 91 6c 07 	lds	r31, 0x076C
    1e24:	8f 2d       	mov	r24, r15
    1e26:	09 95       	icall
    1e28:	03 c0       	rjmp	.+6      	; 0x1e30 <SetServoMode+0xfc>
    1e2a:	11 23       	and	r17, r17
    1e2c:	09 f4       	brne	.+2      	; 0x1e30 <SetServoMode+0xfc>
    1e2e:	3e c0       	rjmp	.+124    	; 0x1eac <SetServoMode+0x178>
    1e30:	8e e0       	ldi	r24, 0x0E	; 14
    1e32:	d8 16       	cp	r13, r24
    1e34:	11 f4       	brne	.+4      	; 0x1e3a <SetServoMode+0x106>
    1e36:	0e 3f       	cpi	r16, 0xFE	; 254
    1e38:	b9 f5       	brne	.+110    	; 0x1ea8 <SetServoMode+0x174>
    1e3a:	ee 20       	and	r14, r14
    1e3c:	21 f0       	breq	.+8      	; 0x1e46 <SetServoMode+0x112>
    1e3e:	81 e0       	ldi	r24, 0x01	; 1
    1e40:	e8 16       	cp	r14, r24
    1e42:	61 f5       	brne	.+88     	; 0x1e9c <SetServoMode+0x168>
    1e44:	16 c0       	rjmp	.+44     	; 0x1e72 <SetServoMode+0x13e>
    1e46:	e0 91 54 06 	lds	r30, 0x0654
    1e4a:	f0 91 55 06 	lds	r31, 0x0655
    1e4e:	80 2f       	mov	r24, r16
    1e50:	66 e0       	ldi	r22, 0x06	; 6
    1e52:	40 e0       	ldi	r20, 0x00	; 0
    1e54:	50 e0       	ldi	r21, 0x00	; 0
    1e56:	2f ef       	ldi	r18, 0xFF	; 255
    1e58:	33 e0       	ldi	r19, 0x03	; 3
    1e5a:	09 95       	icall
    1e5c:	18 2f       	mov	r17, r24
    1e5e:	88 ec       	ldi	r24, 0xC8	; 200
    1e60:	90 e0       	ldi	r25, 0x00	; 0
    1e62:	20 e9       	ldi	r18, 0x90	; 144
    1e64:	31 e0       	ldi	r19, 0x01	; 1
    1e66:	f9 01       	movw	r30, r18
    1e68:	31 97       	sbiw	r30, 0x01	; 1
    1e6a:	f1 f7       	brne	.-4      	; 0x1e68 <SetServoMode+0x134>
    1e6c:	01 97       	sbiw	r24, 0x01	; 1
    1e6e:	d9 f7       	brne	.-10     	; 0x1e66 <SetServoMode+0x132>
    1e70:	15 c0       	rjmp	.+42     	; 0x1e9c <SetServoMode+0x168>
    1e72:	e0 91 54 06 	lds	r30, 0x0654
    1e76:	f0 91 55 06 	lds	r31, 0x0655
    1e7a:	80 2f       	mov	r24, r16
    1e7c:	66 e0       	ldi	r22, 0x06	; 6
    1e7e:	40 e0       	ldi	r20, 0x00	; 0
    1e80:	50 e0       	ldi	r21, 0x00	; 0
    1e82:	20 e0       	ldi	r18, 0x00	; 0
    1e84:	30 e0       	ldi	r19, 0x00	; 0
    1e86:	09 95       	icall
    1e88:	18 2f       	mov	r17, r24
    1e8a:	88 ec       	ldi	r24, 0xC8	; 200
    1e8c:	90 e0       	ldi	r25, 0x00	; 0
    1e8e:	20 e9       	ldi	r18, 0x90	; 144
    1e90:	31 e0       	ldi	r19, 0x01	; 1
    1e92:	f9 01       	movw	r30, r18
    1e94:	31 97       	sbiw	r30, 0x01	; 1
    1e96:	f1 f7       	brne	.-4      	; 0x1e94 <SetServoMode+0x160>
    1e98:	01 97       	sbiw	r24, 0x01	; 1
    1e9a:	d9 f7       	brne	.-10     	; 0x1e92 <SetServoMode+0x15e>
    1e9c:	91 2f       	mov	r25, r17
    1e9e:	11 11       	cpse	r17, r1
    1ea0:	91 e0       	ldi	r25, 0x01	; 1
    1ea2:	81 e0       	ldi	r24, 0x01	; 1
    1ea4:	89 27       	eor	r24, r25
    1ea6:	03 c0       	rjmp	.+6      	; 0x1eae <SetServoMode+0x17a>
    1ea8:	81 e0       	ldi	r24, 0x01	; 1
    1eaa:	01 c0       	rjmp	.+2      	; 0x1eae <SetServoMode+0x17a>
    1eac:	80 e0       	ldi	r24, 0x00	; 0
    1eae:	0f 90       	pop	r0
    1eb0:	0f 90       	pop	r0
    1eb2:	0f 90       	pop	r0
    1eb4:	0f 90       	pop	r0
    1eb6:	cf 91       	pop	r28
    1eb8:	df 91       	pop	r29
    1eba:	1f 91       	pop	r17
    1ebc:	0f 91       	pop	r16
    1ebe:	ff 90       	pop	r15
    1ec0:	ef 90       	pop	r14
    1ec2:	df 90       	pop	r13
    1ec4:	08 95       	ret

00001ec6 <InitServoNodeBuffer>:
    1ec6:	ef 92       	push	r14
    1ec8:	ff 92       	push	r15
    1eca:	0f 93       	push	r16
    1ecc:	1f 93       	push	r17
    1ece:	cf 93       	push	r28
    1ed0:	df 93       	push	r29
    1ed2:	9c 01       	movw	r18, r24
    1ed4:	f6 2e       	mov	r15, r22
    1ed6:	80 e2       	ldi	r24, 0x20	; 32
    1ed8:	86 17       	cp	r24, r22
    1eda:	b0 f1       	brcs	.+108    	; 0x1f48 <InitServoNodeBuffer+0x82>
    1edc:	89 01       	movw	r16, r18
    1ede:	d9 01       	movw	r26, r18
    1ee0:	60 e0       	ldi	r22, 0x00	; 0
    1ee2:	e2 2e       	mov	r14, r18
    1ee4:	0f c0       	rjmp	.+30     	; 0x1f04 <InitServoNodeBuffer+0x3e>
    1ee6:	9c 91       	ld	r25, X
    1ee8:	89 2f       	mov	r24, r25
    1eea:	82 95       	swap	r24
    1eec:	8f 70       	andi	r24, 0x0F	; 15
    1eee:	8e 30       	cpi	r24, 0x0E	; 14
    1ef0:	41 f0       	breq	.+16     	; 0x1f02 <InitServoNodeBuffer+0x3c>
    1ef2:	9e 3f       	cpi	r25, 0xFE	; 254
    1ef4:	31 f0       	breq	.+12     	; 0x1f02 <InitServoNodeBuffer+0x3c>
    1ef6:	e6 2f       	mov	r30, r22
    1ef8:	f0 e0       	ldi	r31, 0x00	; 0
    1efa:	ee 55       	subi	r30, 0x5E	; 94
    1efc:	fc 4f       	sbci	r31, 0xFC	; 252
    1efe:	90 83       	st	Z, r25
    1f00:	6f 5f       	subi	r22, 0xFF	; 255
    1f02:	11 96       	adiw	r26, 0x01	; 1
    1f04:	8a 2f       	mov	r24, r26
    1f06:	8e 19       	sub	r24, r14
    1f08:	8f 15       	cp	r24, r15
    1f0a:	68 f3       	brcs	.-38     	; 0x1ee6 <InitServoNodeBuffer+0x20>
    1f0c:	e0 91 50 06 	lds	r30, 0x0650
    1f10:	f0 91 51 06 	lds	r31, 0x0651
    1f14:	82 ea       	ldi	r24, 0xA2	; 162
    1f16:	93 e0       	ldi	r25, 0x03	; 3
    1f18:	09 95       	icall
    1f1a:	c2 e2       	ldi	r28, 0x22	; 34
    1f1c:	d3 e0       	ldi	r29, 0x03	; 3
    1f1e:	10 c0       	rjmp	.+32     	; 0x1f40 <InitServoNodeBuffer+0x7a>
    1f20:	f8 01       	movw	r30, r16
    1f22:	80 81       	ld	r24, Z
    1f24:	be 01       	movw	r22, r28
    1f26:	0e 94 91 0d 	call	0x1b22	; 0x1b22 <GetServoPosition>
    1f2a:	88 23       	and	r24, r24
    1f2c:	11 f4       	brne	.+4      	; 0x1f32 <InitServoNodeBuffer+0x6c>
    1f2e:	19 82       	std	Y+1, r1	; 0x01
    1f30:	18 82       	st	Y, r1
    1f32:	c0 5c       	subi	r28, 0xC0	; 192
    1f34:	df 4f       	sbci	r29, 0xFF	; 255
    1f36:	19 82       	std	Y+1, r1	; 0x01
    1f38:	18 82       	st	Y, r1
    1f3a:	0f 5f       	subi	r16, 0xFF	; 255
    1f3c:	1f 4f       	sbci	r17, 0xFF	; 255
    1f3e:	ee 97       	sbiw	r28, 0x3e	; 62
    1f40:	80 2f       	mov	r24, r16
    1f42:	8e 19       	sub	r24, r14
    1f44:	8f 15       	cp	r24, r15
    1f46:	60 f3       	brcs	.-40     	; 0x1f20 <InitServoNodeBuffer+0x5a>
    1f48:	df 91       	pop	r29
    1f4a:	cf 91       	pop	r28
    1f4c:	1f 91       	pop	r17
    1f4e:	0f 91       	pop	r16
    1f50:	ff 90       	pop	r15
    1f52:	ef 90       	pop	r14
    1f54:	08 95       	ret

00001f56 <SetSignalRegisterByte>:
    1f56:	80 34       	cpi	r24, 0x40	; 64
    1f58:	10 f0       	brcs	.+4      	; 0x1f5e <SetSignalRegisterByte+0x8>
    1f5a:	80 e0       	ldi	r24, 0x00	; 0
    1f5c:	08 95       	ret
    1f5e:	e8 2f       	mov	r30, r24
    1f60:	f0 e0       	ldi	r31, 0x00	; 0
    1f62:	ea 51       	subi	r30, 0x1A	; 26
    1f64:	fc 4f       	sbci	r31, 0xFC	; 252
    1f66:	60 83       	st	Z, r22
    1f68:	81 e0       	ldi	r24, 0x01	; 1
    1f6a:	08 95       	ret

00001f6c <GetSignalRegisterByte>:
    1f6c:	db 01       	movw	r26, r22
    1f6e:	80 34       	cpi	r24, 0x40	; 64
    1f70:	10 f0       	brcs	.+4      	; 0x1f76 <GetSignalRegisterByte+0xa>
    1f72:	80 e0       	ldi	r24, 0x00	; 0
    1f74:	08 95       	ret
    1f76:	e8 2f       	mov	r30, r24
    1f78:	f0 e0       	ldi	r31, 0x00	; 0
    1f7a:	ea 51       	subi	r30, 0x1A	; 26
    1f7c:	fc 4f       	sbci	r31, 0xFC	; 252
    1f7e:	80 81       	ld	r24, Z
    1f80:	8c 93       	st	X, r24
    1f82:	81 e0       	ldi	r24, 0x01	; 1
    1f84:	08 95       	ret

00001f86 <InitSignalRegister>:
    1f86:	e6 ee       	ldi	r30, 0xE6	; 230
    1f88:	f3 e0       	ldi	r31, 0x03	; 3
    1f8a:	11 92       	st	Z+, r1
    1f8c:	84 e0       	ldi	r24, 0x04	; 4
    1f8e:	e6 32       	cpi	r30, 0x26	; 38
    1f90:	f8 07       	cpc	r31, r24
    1f92:	d9 f7       	brne	.-10     	; 0x1f8a <InitSignalRegister+0x4>
    1f94:	8b ea       	ldi	r24, 0xAB	; 171
    1f96:	9f e0       	ldi	r25, 0x0F	; 15
    1f98:	93 83       	std	Z+3, r25	; 0x03
    1f9a:	82 83       	std	Z+2, r24	; 0x02
    1f9c:	86 eb       	ldi	r24, 0xB6	; 182
    1f9e:	9f e0       	ldi	r25, 0x0F	; 15
    1fa0:	95 83       	std	Z+5, r25	; 0x05
    1fa2:	84 83       	std	Z+4, r24	; 0x04
    1fa4:	08 95       	ret

00001fa6 <WriteTtlBusRegWord2>:
    1fa6:	cf 92       	push	r12
    1fa8:	df 92       	push	r13
    1faa:	ef 92       	push	r14
    1fac:	ff 92       	push	r15
    1fae:	0f 93       	push	r16
    1fb0:	1f 93       	push	r17
    1fb2:	18 2f       	mov	r17, r24
    1fb4:	06 2f       	mov	r16, r22
    1fb6:	d4 2e       	mov	r13, r20
    1fb8:	f5 2e       	mov	r15, r21
    1fba:	c2 2e       	mov	r12, r18
    1fbc:	e3 2e       	mov	r14, r19
    1fbe:	e0 91 d4 07 	lds	r30, 0x07D4
    1fc2:	f0 91 d5 07 	lds	r31, 0x07D5
    1fc6:	80 e0       	ldi	r24, 0x00	; 0
    1fc8:	09 95       	icall
    1fca:	10 93 93 05 	sts	0x0593, r17
    1fce:	84 e0       	ldi	r24, 0x04	; 4
    1fd0:	80 93 94 05 	sts	0x0594, r24
    1fd4:	00 93 95 05 	sts	0x0595, r16
    1fd8:	80 93 97 05 	sts	0x0597, r24
    1fdc:	f0 92 99 05 	sts	0x0599, r15
    1fe0:	d0 92 98 05 	sts	0x0598, r13
    1fe4:	e0 92 9b 05 	sts	0x059B, r14
    1fe8:	c0 92 9a 05 	sts	0x059A, r12
    1fec:	e0 91 4a 06 	lds	r30, 0x064A
    1ff0:	f0 91 4b 06 	lds	r31, 0x064B
    1ff4:	07 8c       	ldd	r0, Z+31	; 0x1f
    1ff6:	f0 a1       	ldd	r31, Z+32	; 0x20
    1ff8:	e0 2d       	mov	r30, r0
    1ffa:	09 95       	icall
    1ffc:	60 91 4a 06 	lds	r22, 0x064A
    2000:	70 91 4b 06 	lds	r23, 0x064B
    2004:	e0 91 6d 06 	lds	r30, 0x066D
    2008:	f0 91 6e 06 	lds	r31, 0x066E
    200c:	83 e9       	ldi	r24, 0x93	; 147
    200e:	95 e0       	ldi	r25, 0x05	; 5
    2010:	09 95       	icall
    2012:	18 2f       	mov	r17, r24
    2014:	88 23       	and	r24, r24
    2016:	c1 f4       	brne	.+48     	; 0x2048 <WriteTtlBusRegWord2+0xa2>
    2018:	60 91 4a 06 	lds	r22, 0x064A
    201c:	70 91 4b 06 	lds	r23, 0x064B
    2020:	e0 91 6b 06 	lds	r30, 0x066B
    2024:	f0 91 6c 06 	lds	r31, 0x066C
    2028:	81 e8       	ldi	r24, 0x81	; 129
    202a:	95 e0       	ldi	r25, 0x05	; 5
    202c:	09 95       	icall
    202e:	18 2f       	mov	r17, r24
    2030:	88 23       	and	r24, r24
    2032:	51 f4       	brne	.+20     	; 0x2048 <WriteTtlBusRegWord2+0xa2>
    2034:	90 91 81 05 	lds	r25, 0x0581
    2038:	80 91 93 05 	lds	r24, 0x0593
    203c:	98 17       	cp	r25, r24
    203e:	21 f4       	brne	.+8      	; 0x2048 <WriteTtlBusRegWord2+0xa2>
    2040:	80 91 82 05 	lds	r24, 0x0582
    2044:	80 93 6a 06 	sts	0x066A, r24
    2048:	e0 91 d2 07 	lds	r30, 0x07D2
    204c:	f0 91 d3 07 	lds	r31, 0x07D3
    2050:	80 e0       	ldi	r24, 0x00	; 0
    2052:	09 95       	icall
    2054:	81 2f       	mov	r24, r17
    2056:	1f 91       	pop	r17
    2058:	0f 91       	pop	r16
    205a:	ff 90       	pop	r15
    205c:	ef 90       	pop	r14
    205e:	df 90       	pop	r13
    2060:	cf 90       	pop	r12
    2062:	08 95       	ret

00002064 <WriteTtlBusWord2>:
    2064:	cf 92       	push	r12
    2066:	df 92       	push	r13
    2068:	ef 92       	push	r14
    206a:	ff 92       	push	r15
    206c:	0f 93       	push	r16
    206e:	1f 93       	push	r17
    2070:	18 2f       	mov	r17, r24
    2072:	06 2f       	mov	r16, r22
    2074:	d4 2e       	mov	r13, r20
    2076:	f5 2e       	mov	r15, r21
    2078:	c2 2e       	mov	r12, r18
    207a:	e3 2e       	mov	r14, r19
    207c:	e0 91 d4 07 	lds	r30, 0x07D4
    2080:	f0 91 d5 07 	lds	r31, 0x07D5
    2084:	80 e0       	ldi	r24, 0x00	; 0
    2086:	09 95       	icall
    2088:	10 93 93 05 	sts	0x0593, r17
    208c:	83 e0       	ldi	r24, 0x03	; 3
    208e:	80 93 94 05 	sts	0x0594, r24
    2092:	00 93 95 05 	sts	0x0595, r16
    2096:	84 e0       	ldi	r24, 0x04	; 4
    2098:	80 93 97 05 	sts	0x0597, r24
    209c:	f0 92 99 05 	sts	0x0599, r15
    20a0:	d0 92 98 05 	sts	0x0598, r13
    20a4:	e0 92 9b 05 	sts	0x059B, r14
    20a8:	c0 92 9a 05 	sts	0x059A, r12
    20ac:	e0 91 4a 06 	lds	r30, 0x064A
    20b0:	f0 91 4b 06 	lds	r31, 0x064B
    20b4:	07 8c       	ldd	r0, Z+31	; 0x1f
    20b6:	f0 a1       	ldd	r31, Z+32	; 0x20
    20b8:	e0 2d       	mov	r30, r0
    20ba:	09 95       	icall
    20bc:	60 91 4a 06 	lds	r22, 0x064A
    20c0:	70 91 4b 06 	lds	r23, 0x064B
    20c4:	e0 91 6d 06 	lds	r30, 0x066D
    20c8:	f0 91 6e 06 	lds	r31, 0x066E
    20cc:	83 e9       	ldi	r24, 0x93	; 147
    20ce:	95 e0       	ldi	r25, 0x05	; 5
    20d0:	09 95       	icall
    20d2:	18 2f       	mov	r17, r24
    20d4:	88 23       	and	r24, r24
    20d6:	c1 f4       	brne	.+48     	; 0x2108 <WriteTtlBusWord2+0xa4>
    20d8:	60 91 4a 06 	lds	r22, 0x064A
    20dc:	70 91 4b 06 	lds	r23, 0x064B
    20e0:	e0 91 6b 06 	lds	r30, 0x066B
    20e4:	f0 91 6c 06 	lds	r31, 0x066C
    20e8:	81 e8       	ldi	r24, 0x81	; 129
    20ea:	95 e0       	ldi	r25, 0x05	; 5
    20ec:	09 95       	icall
    20ee:	18 2f       	mov	r17, r24
    20f0:	88 23       	and	r24, r24
    20f2:	51 f4       	brne	.+20     	; 0x2108 <WriteTtlBusWord2+0xa4>
    20f4:	90 91 81 05 	lds	r25, 0x0581
    20f8:	80 91 93 05 	lds	r24, 0x0593
    20fc:	98 17       	cp	r25, r24
    20fe:	21 f4       	brne	.+8      	; 0x2108 <WriteTtlBusWord2+0xa4>
    2100:	80 91 82 05 	lds	r24, 0x0582
    2104:	80 93 6a 06 	sts	0x066A, r24
    2108:	e0 91 d2 07 	lds	r30, 0x07D2
    210c:	f0 91 d3 07 	lds	r31, 0x07D3
    2110:	80 e0       	ldi	r24, 0x00	; 0
    2112:	09 95       	icall
    2114:	81 2f       	mov	r24, r17
    2116:	1f 91       	pop	r17
    2118:	0f 91       	pop	r16
    211a:	ff 90       	pop	r15
    211c:	ef 90       	pop	r14
    211e:	df 90       	pop	r13
    2120:	cf 90       	pop	r12
    2122:	08 95       	ret

00002124 <WriteTtlBusRegWord>:
    2124:	ef 92       	push	r14
    2126:	ff 92       	push	r15
    2128:	0f 93       	push	r16
    212a:	1f 93       	push	r17
    212c:	18 2f       	mov	r17, r24
    212e:	06 2f       	mov	r16, r22
    2130:	7a 01       	movw	r14, r20
    2132:	e0 91 d4 07 	lds	r30, 0x07D4
    2136:	f0 91 d5 07 	lds	r31, 0x07D5
    213a:	80 e0       	ldi	r24, 0x00	; 0
    213c:	09 95       	icall
    213e:	10 93 93 05 	sts	0x0593, r17
    2142:	84 e0       	ldi	r24, 0x04	; 4
    2144:	80 93 94 05 	sts	0x0594, r24
    2148:	00 93 95 05 	sts	0x0595, r16
    214c:	82 e0       	ldi	r24, 0x02	; 2
    214e:	80 93 97 05 	sts	0x0597, r24
    2152:	f0 92 99 05 	sts	0x0599, r15
    2156:	e0 92 98 05 	sts	0x0598, r14
    215a:	e0 91 4a 06 	lds	r30, 0x064A
    215e:	f0 91 4b 06 	lds	r31, 0x064B
    2162:	07 8c       	ldd	r0, Z+31	; 0x1f
    2164:	f0 a1       	ldd	r31, Z+32	; 0x20
    2166:	e0 2d       	mov	r30, r0
    2168:	09 95       	icall
    216a:	60 91 4a 06 	lds	r22, 0x064A
    216e:	70 91 4b 06 	lds	r23, 0x064B
    2172:	e0 91 6d 06 	lds	r30, 0x066D
    2176:	f0 91 6e 06 	lds	r31, 0x066E
    217a:	83 e9       	ldi	r24, 0x93	; 147
    217c:	95 e0       	ldi	r25, 0x05	; 5
    217e:	09 95       	icall
    2180:	18 2f       	mov	r17, r24
    2182:	88 23       	and	r24, r24
    2184:	c1 f4       	brne	.+48     	; 0x21b6 <WriteTtlBusRegWord+0x92>
    2186:	60 91 4a 06 	lds	r22, 0x064A
    218a:	70 91 4b 06 	lds	r23, 0x064B
    218e:	e0 91 6b 06 	lds	r30, 0x066B
    2192:	f0 91 6c 06 	lds	r31, 0x066C
    2196:	81 e8       	ldi	r24, 0x81	; 129
    2198:	95 e0       	ldi	r25, 0x05	; 5
    219a:	09 95       	icall
    219c:	18 2f       	mov	r17, r24
    219e:	88 23       	and	r24, r24
    21a0:	51 f4       	brne	.+20     	; 0x21b6 <WriteTtlBusRegWord+0x92>
    21a2:	90 91 81 05 	lds	r25, 0x0581
    21a6:	80 91 93 05 	lds	r24, 0x0593
    21aa:	98 17       	cp	r25, r24
    21ac:	21 f4       	brne	.+8      	; 0x21b6 <WriteTtlBusRegWord+0x92>
    21ae:	80 91 82 05 	lds	r24, 0x0582
    21b2:	80 93 6a 06 	sts	0x066A, r24
    21b6:	e0 91 d2 07 	lds	r30, 0x07D2
    21ba:	f0 91 d3 07 	lds	r31, 0x07D3
    21be:	80 e0       	ldi	r24, 0x00	; 0
    21c0:	09 95       	icall
    21c2:	81 2f       	mov	r24, r17
    21c4:	1f 91       	pop	r17
    21c6:	0f 91       	pop	r16
    21c8:	ff 90       	pop	r15
    21ca:	ef 90       	pop	r14
    21cc:	08 95       	ret

000021ce <WriteTtlBusWord>:
    21ce:	ef 92       	push	r14
    21d0:	ff 92       	push	r15
    21d2:	0f 93       	push	r16
    21d4:	1f 93       	push	r17
    21d6:	18 2f       	mov	r17, r24
    21d8:	06 2f       	mov	r16, r22
    21da:	7a 01       	movw	r14, r20
    21dc:	e0 91 d4 07 	lds	r30, 0x07D4
    21e0:	f0 91 d5 07 	lds	r31, 0x07D5
    21e4:	80 e0       	ldi	r24, 0x00	; 0
    21e6:	09 95       	icall
    21e8:	10 93 93 05 	sts	0x0593, r17
    21ec:	83 e0       	ldi	r24, 0x03	; 3
    21ee:	80 93 94 05 	sts	0x0594, r24
    21f2:	00 93 95 05 	sts	0x0595, r16
    21f6:	82 e0       	ldi	r24, 0x02	; 2
    21f8:	80 93 97 05 	sts	0x0597, r24
    21fc:	f0 92 99 05 	sts	0x0599, r15
    2200:	e0 92 98 05 	sts	0x0598, r14
    2204:	e0 91 4a 06 	lds	r30, 0x064A
    2208:	f0 91 4b 06 	lds	r31, 0x064B
    220c:	07 8c       	ldd	r0, Z+31	; 0x1f
    220e:	f0 a1       	ldd	r31, Z+32	; 0x20
    2210:	e0 2d       	mov	r30, r0
    2212:	09 95       	icall
    2214:	60 91 4a 06 	lds	r22, 0x064A
    2218:	70 91 4b 06 	lds	r23, 0x064B
    221c:	e0 91 6d 06 	lds	r30, 0x066D
    2220:	f0 91 6e 06 	lds	r31, 0x066E
    2224:	83 e9       	ldi	r24, 0x93	; 147
    2226:	95 e0       	ldi	r25, 0x05	; 5
    2228:	09 95       	icall
    222a:	18 2f       	mov	r17, r24
    222c:	88 23       	and	r24, r24
    222e:	c1 f4       	brne	.+48     	; 0x2260 <WriteTtlBusWord+0x92>
    2230:	60 91 4a 06 	lds	r22, 0x064A
    2234:	70 91 4b 06 	lds	r23, 0x064B
    2238:	e0 91 6b 06 	lds	r30, 0x066B
    223c:	f0 91 6c 06 	lds	r31, 0x066C
    2240:	81 e8       	ldi	r24, 0x81	; 129
    2242:	95 e0       	ldi	r25, 0x05	; 5
    2244:	09 95       	icall
    2246:	18 2f       	mov	r17, r24
    2248:	88 23       	and	r24, r24
    224a:	51 f4       	brne	.+20     	; 0x2260 <WriteTtlBusWord+0x92>
    224c:	90 91 81 05 	lds	r25, 0x0581
    2250:	80 91 93 05 	lds	r24, 0x0593
    2254:	98 17       	cp	r25, r24
    2256:	21 f4       	brne	.+8      	; 0x2260 <WriteTtlBusWord+0x92>
    2258:	80 91 82 05 	lds	r24, 0x0582
    225c:	80 93 6a 06 	sts	0x066A, r24
    2260:	e0 91 d2 07 	lds	r30, 0x07D2
    2264:	f0 91 d3 07 	lds	r31, 0x07D3
    2268:	80 e0       	ldi	r24, 0x00	; 0
    226a:	09 95       	icall
    226c:	81 2f       	mov	r24, r17
    226e:	1f 91       	pop	r17
    2270:	0f 91       	pop	r16
    2272:	ff 90       	pop	r15
    2274:	ef 90       	pop	r14
    2276:	08 95       	ret

00002278 <WriteTtlBusByte>:
    2278:	ff 92       	push	r15
    227a:	0f 93       	push	r16
    227c:	1f 93       	push	r17
    227e:	18 2f       	mov	r17, r24
    2280:	06 2f       	mov	r16, r22
    2282:	f4 2e       	mov	r15, r20
    2284:	e0 91 d4 07 	lds	r30, 0x07D4
    2288:	f0 91 d5 07 	lds	r31, 0x07D5
    228c:	80 e0       	ldi	r24, 0x00	; 0
    228e:	09 95       	icall
    2290:	10 93 93 05 	sts	0x0593, r17
    2294:	83 e0       	ldi	r24, 0x03	; 3
    2296:	80 93 94 05 	sts	0x0594, r24
    229a:	00 93 95 05 	sts	0x0595, r16
    229e:	81 e0       	ldi	r24, 0x01	; 1
    22a0:	80 93 97 05 	sts	0x0597, r24
    22a4:	f0 92 98 05 	sts	0x0598, r15
    22a8:	e0 91 4a 06 	lds	r30, 0x064A
    22ac:	f0 91 4b 06 	lds	r31, 0x064B
    22b0:	07 8c       	ldd	r0, Z+31	; 0x1f
    22b2:	f0 a1       	ldd	r31, Z+32	; 0x20
    22b4:	e0 2d       	mov	r30, r0
    22b6:	09 95       	icall
    22b8:	60 91 4a 06 	lds	r22, 0x064A
    22bc:	70 91 4b 06 	lds	r23, 0x064B
    22c0:	e0 91 6d 06 	lds	r30, 0x066D
    22c4:	f0 91 6e 06 	lds	r31, 0x066E
    22c8:	83 e9       	ldi	r24, 0x93	; 147
    22ca:	95 e0       	ldi	r25, 0x05	; 5
    22cc:	09 95       	icall
    22ce:	18 2f       	mov	r17, r24
    22d0:	88 23       	and	r24, r24
    22d2:	c1 f4       	brne	.+48     	; 0x2304 <WriteTtlBusByte+0x8c>
    22d4:	60 91 4a 06 	lds	r22, 0x064A
    22d8:	70 91 4b 06 	lds	r23, 0x064B
    22dc:	e0 91 6b 06 	lds	r30, 0x066B
    22e0:	f0 91 6c 06 	lds	r31, 0x066C
    22e4:	81 e8       	ldi	r24, 0x81	; 129
    22e6:	95 e0       	ldi	r25, 0x05	; 5
    22e8:	09 95       	icall
    22ea:	18 2f       	mov	r17, r24
    22ec:	88 23       	and	r24, r24
    22ee:	51 f4       	brne	.+20     	; 0x2304 <WriteTtlBusByte+0x8c>
    22f0:	90 91 81 05 	lds	r25, 0x0581
    22f4:	80 91 93 05 	lds	r24, 0x0593
    22f8:	98 17       	cp	r25, r24
    22fa:	21 f4       	brne	.+8      	; 0x2304 <WriteTtlBusByte+0x8c>
    22fc:	80 91 82 05 	lds	r24, 0x0582
    2300:	80 93 6a 06 	sts	0x066A, r24
    2304:	e0 91 d2 07 	lds	r30, 0x07D2
    2308:	f0 91 d3 07 	lds	r31, 0x07D3
    230c:	80 e0       	ldi	r24, 0x00	; 0
    230e:	09 95       	icall
    2310:	81 2f       	mov	r24, r17
    2312:	1f 91       	pop	r17
    2314:	0f 91       	pop	r16
    2316:	ff 90       	pop	r15
    2318:	08 95       	ret

0000231a <WriteTtlBusSyncControl>:
    231a:	0f 93       	push	r16
    231c:	1f 93       	push	r17
    231e:	18 2f       	mov	r17, r24
    2320:	06 2f       	mov	r16, r22
    2322:	e0 91 d4 07 	lds	r30, 0x07D4
    2326:	f0 91 d5 07 	lds	r31, 0x07D5
    232a:	80 e0       	ldi	r24, 0x00	; 0
    232c:	09 95       	icall
    232e:	10 93 c8 05 	sts	0x05C8, r17
    2332:	00 93 c9 05 	sts	0x05C9, r16
    2336:	e0 91 d2 07 	lds	r30, 0x07D2
    233a:	f0 91 d3 07 	lds	r31, 0x07D3
    233e:	80 e0       	ldi	r24, 0x00	; 0
    2340:	09 95       	icall
    2342:	1f 91       	pop	r17
    2344:	0f 91       	pop	r16
    2346:	08 95       	ret

00002348 <WriteTtlBusSyncWord2>:
    2348:	df 92       	push	r13
    234a:	ef 92       	push	r14
    234c:	ff 92       	push	r15
    234e:	0f 93       	push	r16
    2350:	1f 93       	push	r17
    2352:	df 93       	push	r29
    2354:	cf 93       	push	r28
    2356:	0f 92       	push	r0
    2358:	cd b7       	in	r28, 0x3d	; 61
    235a:	de b7       	in	r29, 0x3e	; 62
    235c:	18 2f       	mov	r17, r24
    235e:	f6 2e       	mov	r15, r22
    2360:	07 2f       	mov	r16, r23
    2362:	d4 2e       	mov	r13, r20
    2364:	e5 2e       	mov	r14, r21
    2366:	19 82       	std	Y+1, r1	; 0x01
    2368:	e0 91 d4 07 	lds	r30, 0x07D4
    236c:	f0 91 d5 07 	lds	r31, 0x07D5
    2370:	80 e0       	ldi	r24, 0x00	; 0
    2372:	09 95       	icall
    2374:	e0 91 71 06 	lds	r30, 0x0671
    2378:	f0 91 72 06 	lds	r31, 0x0672
    237c:	80 91 4c 06 	lds	r24, 0x064C
    2380:	90 91 4d 06 	lds	r25, 0x064D
    2384:	60 91 4e 06 	lds	r22, 0x064E
    2388:	41 2f       	mov	r20, r17
    238a:	9e 01       	movw	r18, r28
    238c:	2f 5f       	subi	r18, 0xFF	; 255
    238e:	3f 4f       	sbci	r19, 0xFF	; 255
    2390:	09 95       	icall
    2392:	81 30       	cpi	r24, 0x01	; 1
    2394:	11 f0       	breq	.+4      	; 0x239a <WriteTtlBusSyncWord2+0x52>
    2396:	13 e0       	ldi	r17, 0x03	; 3
    2398:	2b c0       	rjmp	.+86     	; 0x23f0 <WriteTtlBusSyncWord2+0xa8>
    239a:	20 91 a7 05 	lds	r18, 0x05A7
    239e:	a9 81       	ldd	r26, Y+1	; 0x01
    23a0:	e8 ea       	ldi	r30, 0xA8	; 168
    23a2:	f5 e0       	ldi	r31, 0x05	; 5
    23a4:	90 e0       	ldi	r25, 0x00	; 0
    23a6:	04 c0       	rjmp	.+8      	; 0x23b0 <WriteTtlBusSyncWord2+0x68>
    23a8:	81 91       	ld	r24, Z+
    23aa:	a8 17       	cp	r26, r24
    23ac:	21 f0       	breq	.+8      	; 0x23b6 <WriteTtlBusSyncWord2+0x6e>
    23ae:	9f 5f       	subi	r25, 0xFF	; 255
    23b0:	92 17       	cp	r25, r18
    23b2:	d0 f3       	brcs	.-12     	; 0x23a8 <WriteTtlBusSyncWord2+0x60>
    23b4:	2d c0       	rjmp	.+90     	; 0x2410 <WriteTtlBusSyncWord2+0xc8>
    23b6:	b0 e0       	ldi	r27, 0x00	; 0
    23b8:	fd 01       	movw	r30, r26
    23ba:	ee 0f       	add	r30, r30
    23bc:	ff 1f       	adc	r31, r31
    23be:	ee 0f       	add	r30, r30
    23c0:	ff 1f       	adc	r31, r31
    23c2:	eb 55       	subi	r30, 0x5B	; 91
    23c4:	fa 4f       	sbci	r31, 0xFA	; 250
    23c6:	06 a3       	std	Z+38, r16	; 0x26
    23c8:	fd 01       	movw	r30, r26
    23ca:	ee 0f       	add	r30, r30
    23cc:	ff 1f       	adc	r31, r31
    23ce:	ee 0f       	add	r30, r30
    23d0:	ff 1f       	adc	r31, r31
    23d2:	e6 53       	subi	r30, 0x36	; 54
    23d4:	fa 4f       	sbci	r31, 0xFA	; 250
    23d6:	f0 82       	st	Z, r15
    23d8:	aa 0f       	add	r26, r26
    23da:	bb 1f       	adc	r27, r27
    23dc:	aa 0f       	add	r26, r26
    23de:	bb 1f       	adc	r27, r27
    23e0:	fd 01       	movw	r30, r26
    23e2:	e3 53       	subi	r30, 0x33	; 51
    23e4:	fa 4f       	sbci	r31, 0xFA	; 250
    23e6:	e0 82       	st	Z, r14
    23e8:	a4 53       	subi	r26, 0x34	; 52
    23ea:	ba 4f       	sbci	r27, 0xFA	; 250
    23ec:	dc 92       	st	X, r13
    23ee:	10 e0       	ldi	r17, 0x00	; 0
    23f0:	e0 91 d2 07 	lds	r30, 0x07D2
    23f4:	f0 91 d3 07 	lds	r31, 0x07D3
    23f8:	80 e0       	ldi	r24, 0x00	; 0
    23fa:	09 95       	icall
    23fc:	81 2f       	mov	r24, r17
    23fe:	0f 90       	pop	r0
    2400:	cf 91       	pop	r28
    2402:	df 91       	pop	r29
    2404:	1f 91       	pop	r17
    2406:	0f 91       	pop	r16
    2408:	ff 90       	pop	r15
    240a:	ef 90       	pop	r14
    240c:	df 90       	pop	r13
    240e:	08 95       	ret
    2410:	e2 2f       	mov	r30, r18
    2412:	f0 e0       	ldi	r31, 0x00	; 0
    2414:	ef 57       	subi	r30, 0x7F	; 127
    2416:	fa 4f       	sbci	r31, 0xFA	; 250
    2418:	a7 a3       	std	Z+39, r26	; 0x27
    241a:	2f 5f       	subi	r18, 0xFF	; 255
    241c:	20 93 a7 05 	sts	0x05A7, r18
    2420:	ca cf       	rjmp	.-108    	; 0x23b6 <WriteTtlBusSyncWord2+0x6e>

00002422 <ActionTtlBusSync>:
    2422:	e0 91 d4 07 	lds	r30, 0x07D4
    2426:	f0 91 d5 07 	lds	r31, 0x07D5
    242a:	80 e0       	ldi	r24, 0x00	; 0
    242c:	09 95       	icall
    242e:	60 91 4c 06 	lds	r22, 0x064C
    2432:	70 91 4d 06 	lds	r23, 0x064D
    2436:	40 91 4a 06 	lds	r20, 0x064A
    243a:	50 91 4b 06 	lds	r21, 0x064B
    243e:	e0 91 6f 06 	lds	r30, 0x066F
    2442:	f0 91 70 06 	lds	r31, 0x0670
    2446:	87 ea       	ldi	r24, 0xA7	; 167
    2448:	95 e0       	ldi	r25, 0x05	; 5
    244a:	09 95       	icall
    244c:	e0 91 d2 07 	lds	r30, 0x07D2
    2450:	f0 91 d3 07 	lds	r31, 0x07D3
    2454:	80 e0       	ldi	r24, 0x00	; 0
    2456:	09 95       	icall
    2458:	08 95       	ret

0000245a <ActionTtlBus>:
    245a:	1f 93       	push	r17
    245c:	e0 91 d4 07 	lds	r30, 0x07D4
    2460:	f0 91 d5 07 	lds	r31, 0x07D5
    2464:	80 e0       	ldi	r24, 0x00	; 0
    2466:	09 95       	icall
    2468:	8e ef       	ldi	r24, 0xFE	; 254
    246a:	80 93 93 05 	sts	0x0593, r24
    246e:	85 e0       	ldi	r24, 0x05	; 5
    2470:	80 93 94 05 	sts	0x0594, r24
    2474:	60 91 4a 06 	lds	r22, 0x064A
    2478:	70 91 4b 06 	lds	r23, 0x064B
    247c:	e0 91 6d 06 	lds	r30, 0x066D
    2480:	f0 91 6e 06 	lds	r31, 0x066E
    2484:	83 e9       	ldi	r24, 0x93	; 147
    2486:	95 e0       	ldi	r25, 0x05	; 5
    2488:	09 95       	icall
    248a:	18 2f       	mov	r17, r24
    248c:	e0 91 d2 07 	lds	r30, 0x07D2
    2490:	f0 91 d3 07 	lds	r31, 0x07D3
    2494:	80 e0       	ldi	r24, 0x00	; 0
    2496:	09 95       	icall
    2498:	81 2f       	mov	r24, r17
    249a:	1f 91       	pop	r17
    249c:	08 95       	ret

0000249e <ReadTtlBusWord>:
    249e:	0f 93       	push	r16
    24a0:	1f 93       	push	r17
    24a2:	cf 93       	push	r28
    24a4:	df 93       	push	r29
    24a6:	18 2f       	mov	r17, r24
    24a8:	06 2f       	mov	r16, r22
    24aa:	ea 01       	movw	r28, r20
    24ac:	e0 91 d4 07 	lds	r30, 0x07D4
    24b0:	f0 91 d5 07 	lds	r31, 0x07D5
    24b4:	80 e0       	ldi	r24, 0x00	; 0
    24b6:	09 95       	icall
    24b8:	10 93 93 05 	sts	0x0593, r17
    24bc:	82 e0       	ldi	r24, 0x02	; 2
    24be:	80 93 94 05 	sts	0x0594, r24
    24c2:	00 93 95 05 	sts	0x0595, r16
    24c6:	80 93 96 05 	sts	0x0596, r24
    24ca:	e0 91 4a 06 	lds	r30, 0x064A
    24ce:	f0 91 4b 06 	lds	r31, 0x064B
    24d2:	07 8c       	ldd	r0, Z+31	; 0x1f
    24d4:	f0 a1       	ldd	r31, Z+32	; 0x20
    24d6:	e0 2d       	mov	r30, r0
    24d8:	09 95       	icall
    24da:	60 91 4a 06 	lds	r22, 0x064A
    24de:	70 91 4b 06 	lds	r23, 0x064B
    24e2:	e0 91 6d 06 	lds	r30, 0x066D
    24e6:	f0 91 6e 06 	lds	r31, 0x066E
    24ea:	83 e9       	ldi	r24, 0x93	; 147
    24ec:	95 e0       	ldi	r25, 0x05	; 5
    24ee:	09 95       	icall
    24f0:	18 2f       	mov	r17, r24
    24f2:	88 23       	and	r24, r24
    24f4:	41 f5       	brne	.+80     	; 0x2546 <ReadTtlBusWord+0xa8>
    24f6:	60 91 4a 06 	lds	r22, 0x064A
    24fa:	70 91 4b 06 	lds	r23, 0x064B
    24fe:	e0 91 6b 06 	lds	r30, 0x066B
    2502:	f0 91 6c 06 	lds	r31, 0x066C
    2506:	81 e8       	ldi	r24, 0x81	; 129
    2508:	95 e0       	ldi	r25, 0x05	; 5
    250a:	09 95       	icall
    250c:	18 2f       	mov	r17, r24
    250e:	88 23       	and	r24, r24
    2510:	d1 f4       	brne	.+52     	; 0x2546 <ReadTtlBusWord+0xa8>
    2512:	90 91 81 05 	lds	r25, 0x0581
    2516:	80 91 93 05 	lds	r24, 0x0593
    251a:	98 17       	cp	r25, r24
    251c:	a1 f4       	brne	.+40     	; 0x2546 <ReadTtlBusWord+0xa8>
    251e:	80 91 83 05 	lds	r24, 0x0583
    2522:	82 30       	cpi	r24, 0x02	; 2
    2524:	11 f0       	breq	.+4      	; 0x252a <ReadTtlBusWord+0x8c>
    2526:	13 e0       	ldi	r17, 0x03	; 3
    2528:	0e c0       	rjmp	.+28     	; 0x2546 <ReadTtlBusWord+0xa8>
    252a:	80 91 82 05 	lds	r24, 0x0582
    252e:	80 93 6a 06 	sts	0x066A, r24
    2532:	90 91 85 05 	lds	r25, 0x0585
    2536:	80 e0       	ldi	r24, 0x00	; 0
    2538:	20 91 84 05 	lds	r18, 0x0584
    253c:	30 e0       	ldi	r19, 0x00	; 0
    253e:	82 2b       	or	r24, r18
    2540:	93 2b       	or	r25, r19
    2542:	99 83       	std	Y+1, r25	; 0x01
    2544:	88 83       	st	Y, r24
    2546:	e0 91 d2 07 	lds	r30, 0x07D2
    254a:	f0 91 d3 07 	lds	r31, 0x07D3
    254e:	80 e0       	ldi	r24, 0x00	; 0
    2550:	09 95       	icall
    2552:	81 2f       	mov	r24, r17
    2554:	df 91       	pop	r29
    2556:	cf 91       	pop	r28
    2558:	1f 91       	pop	r17
    255a:	0f 91       	pop	r16
    255c:	08 95       	ret

0000255e <ReadTtlBusWord2>:
    255e:	ef 92       	push	r14
    2560:	ff 92       	push	r15
    2562:	0f 93       	push	r16
    2564:	1f 93       	push	r17
    2566:	cf 93       	push	r28
    2568:	df 93       	push	r29
    256a:	18 2f       	mov	r17, r24
    256c:	06 2f       	mov	r16, r22
    256e:	ea 01       	movw	r28, r20
    2570:	79 01       	movw	r14, r18
    2572:	e0 91 d4 07 	lds	r30, 0x07D4
    2576:	f0 91 d5 07 	lds	r31, 0x07D5
    257a:	80 e0       	ldi	r24, 0x00	; 0
    257c:	09 95       	icall
    257e:	10 93 93 05 	sts	0x0593, r17
    2582:	82 e0       	ldi	r24, 0x02	; 2
    2584:	80 93 94 05 	sts	0x0594, r24
    2588:	00 93 95 05 	sts	0x0595, r16
    258c:	84 e0       	ldi	r24, 0x04	; 4
    258e:	80 93 96 05 	sts	0x0596, r24
    2592:	e0 91 4a 06 	lds	r30, 0x064A
    2596:	f0 91 4b 06 	lds	r31, 0x064B
    259a:	07 8c       	ldd	r0, Z+31	; 0x1f
    259c:	f0 a1       	ldd	r31, Z+32	; 0x20
    259e:	e0 2d       	mov	r30, r0
    25a0:	09 95       	icall
    25a2:	60 91 4a 06 	lds	r22, 0x064A
    25a6:	70 91 4b 06 	lds	r23, 0x064B
    25aa:	e0 91 6d 06 	lds	r30, 0x066D
    25ae:	f0 91 6e 06 	lds	r31, 0x066E
    25b2:	83 e9       	ldi	r24, 0x93	; 147
    25b4:	95 e0       	ldi	r25, 0x05	; 5
    25b6:	09 95       	icall
    25b8:	18 2f       	mov	r17, r24
    25ba:	88 23       	and	r24, r24
    25bc:	a1 f5       	brne	.+104    	; 0x2626 <ReadTtlBusWord2+0xc8>
    25be:	60 91 4a 06 	lds	r22, 0x064A
    25c2:	70 91 4b 06 	lds	r23, 0x064B
    25c6:	e0 91 6b 06 	lds	r30, 0x066B
    25ca:	f0 91 6c 06 	lds	r31, 0x066C
    25ce:	81 e8       	ldi	r24, 0x81	; 129
    25d0:	95 e0       	ldi	r25, 0x05	; 5
    25d2:	09 95       	icall
    25d4:	18 2f       	mov	r17, r24
    25d6:	88 23       	and	r24, r24
    25d8:	31 f5       	brne	.+76     	; 0x2626 <ReadTtlBusWord2+0xc8>
    25da:	90 91 81 05 	lds	r25, 0x0581
    25de:	80 91 93 05 	lds	r24, 0x0593
    25e2:	98 17       	cp	r25, r24
    25e4:	01 f5       	brne	.+64     	; 0x2626 <ReadTtlBusWord2+0xc8>
    25e6:	80 91 83 05 	lds	r24, 0x0583
    25ea:	84 30       	cpi	r24, 0x04	; 4
    25ec:	11 f0       	breq	.+4      	; 0x25f2 <ReadTtlBusWord2+0x94>
    25ee:	13 e0       	ldi	r17, 0x03	; 3
    25f0:	1a c0       	rjmp	.+52     	; 0x2626 <ReadTtlBusWord2+0xc8>
    25f2:	80 91 82 05 	lds	r24, 0x0582
    25f6:	80 93 6a 06 	sts	0x066A, r24
    25fa:	40 91 86 05 	lds	r20, 0x0586
    25fe:	60 91 87 05 	lds	r22, 0x0587
    2602:	90 91 85 05 	lds	r25, 0x0585
    2606:	80 e0       	ldi	r24, 0x00	; 0
    2608:	20 91 84 05 	lds	r18, 0x0584
    260c:	30 e0       	ldi	r19, 0x00	; 0
    260e:	82 2b       	or	r24, r18
    2610:	93 2b       	or	r25, r19
    2612:	99 83       	std	Y+1, r25	; 0x01
    2614:	88 83       	st	Y, r24
    2616:	96 2f       	mov	r25, r22
    2618:	80 e0       	ldi	r24, 0x00	; 0
    261a:	50 e0       	ldi	r21, 0x00	; 0
    261c:	84 2b       	or	r24, r20
    261e:	95 2b       	or	r25, r21
    2620:	f7 01       	movw	r30, r14
    2622:	91 83       	std	Z+1, r25	; 0x01
    2624:	80 83       	st	Z, r24
    2626:	e0 91 d2 07 	lds	r30, 0x07D2
    262a:	f0 91 d3 07 	lds	r31, 0x07D3
    262e:	80 e0       	ldi	r24, 0x00	; 0
    2630:	09 95       	icall
    2632:	81 2f       	mov	r24, r17
    2634:	df 91       	pop	r29
    2636:	cf 91       	pop	r28
    2638:	1f 91       	pop	r17
    263a:	0f 91       	pop	r16
    263c:	ff 90       	pop	r15
    263e:	ef 90       	pop	r14
    2640:	08 95       	ret

00002642 <PingTtlBus>:
    2642:	1f 93       	push	r17
    2644:	cf 93       	push	r28
    2646:	df 93       	push	r29
    2648:	18 2f       	mov	r17, r24
    264a:	eb 01       	movw	r28, r22
    264c:	e0 91 d4 07 	lds	r30, 0x07D4
    2650:	f0 91 d5 07 	lds	r31, 0x07D5
    2654:	80 e0       	ldi	r24, 0x00	; 0
    2656:	09 95       	icall
    2658:	10 93 93 05 	sts	0x0593, r17
    265c:	81 e0       	ldi	r24, 0x01	; 1
    265e:	80 93 94 05 	sts	0x0594, r24
    2662:	e0 91 4a 06 	lds	r30, 0x064A
    2666:	f0 91 4b 06 	lds	r31, 0x064B
    266a:	07 8c       	ldd	r0, Z+31	; 0x1f
    266c:	f0 a1       	ldd	r31, Z+32	; 0x20
    266e:	e0 2d       	mov	r30, r0
    2670:	09 95       	icall
    2672:	60 91 4a 06 	lds	r22, 0x064A
    2676:	70 91 4b 06 	lds	r23, 0x064B
    267a:	e0 91 6d 06 	lds	r30, 0x066D
    267e:	f0 91 6e 06 	lds	r31, 0x066E
    2682:	83 e9       	ldi	r24, 0x93	; 147
    2684:	95 e0       	ldi	r25, 0x05	; 5
    2686:	09 95       	icall
    2688:	18 2f       	mov	r17, r24
    268a:	88 23       	and	r24, r24
    268c:	a9 f4       	brne	.+42     	; 0x26b8 <PingTtlBus+0x76>
    268e:	60 91 4a 06 	lds	r22, 0x064A
    2692:	70 91 4b 06 	lds	r23, 0x064B
    2696:	e0 91 6b 06 	lds	r30, 0x066B
    269a:	f0 91 6c 06 	lds	r31, 0x066C
    269e:	81 e8       	ldi	r24, 0x81	; 129
    26a0:	95 e0       	ldi	r25, 0x05	; 5
    26a2:	09 95       	icall
    26a4:	18 2f       	mov	r17, r24
    26a6:	88 23       	and	r24, r24
    26a8:	39 f4       	brne	.+14     	; 0x26b8 <PingTtlBus+0x76>
    26aa:	80 91 81 05 	lds	r24, 0x0581
    26ae:	88 83       	st	Y, r24
    26b0:	80 91 82 05 	lds	r24, 0x0582
    26b4:	80 93 6a 06 	sts	0x066A, r24
    26b8:	e0 91 d2 07 	lds	r30, 0x07D2
    26bc:	f0 91 d3 07 	lds	r31, 0x07D3
    26c0:	80 e0       	ldi	r24, 0x00	; 0
    26c2:	09 95       	icall
    26c4:	81 2f       	mov	r24, r17
    26c6:	df 91       	pop	r29
    26c8:	cf 91       	pop	r28
    26ca:	1f 91       	pop	r17
    26cc:	08 95       	ret

000026ce <InitTtlBusSync>:
    26ce:	61 32       	cpi	r22, 0x21	; 33
    26d0:	10 f0       	brcs	.+4      	; 0x26d6 <InitTtlBusSync+0x8>
    26d2:	80 e0       	ldi	r24, 0x00	; 0
    26d4:	08 95       	ret
    26d6:	90 93 4d 06 	sts	0x064D, r25
    26da:	80 93 4c 06 	sts	0x064C, r24
    26de:	10 92 a7 05 	sts	0x05A7, r1
    26e2:	60 93 4e 06 	sts	0x064E, r22
    26e6:	81 e0       	ldi	r24, 0x01	; 1
    26e8:	80 93 4f 06 	sts	0x064F, r24
    26ec:	08 95       	ret

000026ee <TxBsuSyncPacket>:
    26ee:	6f 92       	push	r6
    26f0:	7f 92       	push	r7
    26f2:	8f 92       	push	r8
    26f4:	9f 92       	push	r9
    26f6:	bf 92       	push	r11
    26f8:	cf 92       	push	r12
    26fa:	df 92       	push	r13
    26fc:	ef 92       	push	r14
    26fe:	ff 92       	push	r15
    2700:	0f 93       	push	r16
    2702:	1f 93       	push	r17
    2704:	df 93       	push	r29
    2706:	cf 93       	push	r28
    2708:	0f 92       	push	r0
    270a:	cd b7       	in	r28, 0x3d	; 61
    270c:	de b7       	in	r29, 0x3e	; 62
    270e:	3c 01       	movw	r6, r24
    2710:	4b 01       	movw	r8, r22
    2712:	6a 01       	movw	r12, r20
    2714:	dc 01       	movw	r26, r24
    2716:	8c 91       	ld	r24, X
    2718:	88 23       	and	r24, r24
    271a:	11 f4       	brne	.+4      	; 0x2720 <TxBsuSyncPacket+0x32>
    271c:	83 e0       	ldi	r24, 0x03	; 3
    271e:	88 c0       	rjmp	.+272    	; 0x2830 <TxBsuSyncPacket+0x142>
    2720:	da 01       	movw	r26, r20
    2722:	59 96       	adiw	r26, 0x19	; 25
    2724:	ed 91       	ld	r30, X+
    2726:	fc 91       	ld	r31, X
    2728:	5a 97       	sbiw	r26, 0x1a	; 26
    272a:	8f ef       	ldi	r24, 0xFF	; 255
    272c:	09 95       	icall
    272e:	d6 01       	movw	r26, r12
    2730:	59 96       	adiw	r26, 0x19	; 25
    2732:	ed 91       	ld	r30, X+
    2734:	fc 91       	ld	r31, X
    2736:	5a 97       	sbiw	r26, 0x1a	; 26
    2738:	8f ef       	ldi	r24, 0xFF	; 255
    273a:	09 95       	icall
    273c:	d6 01       	movw	r26, r12
    273e:	59 96       	adiw	r26, 0x19	; 25
    2740:	ed 91       	ld	r30, X+
    2742:	fc 91       	ld	r31, X
    2744:	5a 97       	sbiw	r26, 0x1a	; 26
    2746:	8e ef       	ldi	r24, 0xFE	; 254
    2748:	09 95       	icall
    274a:	f3 01       	movw	r30, r6
    274c:	12 a1       	ldd	r17, Z+34	; 0x22
    274e:	1f 5f       	subi	r17, 0xFF	; 255
    2750:	80 81       	ld	r24, Z
    2752:	18 9f       	mul	r17, r24
    2754:	10 2d       	mov	r17, r0
    2756:	11 24       	eor	r1, r1
    2758:	1c 5f       	subi	r17, 0xFC	; 252
    275a:	d6 01       	movw	r26, r12
    275c:	59 96       	adiw	r26, 0x19	; 25
    275e:	ed 91       	ld	r30, X+
    2760:	fc 91       	ld	r31, X
    2762:	5a 97       	sbiw	r26, 0x1a	; 26
    2764:	81 2f       	mov	r24, r17
    2766:	09 95       	icall
    2768:	d6 01       	movw	r26, r12
    276a:	59 96       	adiw	r26, 0x19	; 25
    276c:	ed 91       	ld	r30, X+
    276e:	fc 91       	ld	r31, X
    2770:	5a 97       	sbiw	r26, 0x1a	; 26
    2772:	83 e8       	ldi	r24, 0x83	; 131
    2774:	09 95       	icall
    2776:	d6 01       	movw	r26, r12
    2778:	59 96       	adiw	r26, 0x19	; 25
    277a:	ed 91       	ld	r30, X+
    277c:	fc 91       	ld	r31, X
    277e:	5a 97       	sbiw	r26, 0x1a	; 26
    2780:	d3 01       	movw	r26, r6
    2782:	91 96       	adiw	r26, 0x21	; 33
    2784:	8c 91       	ld	r24, X
    2786:	09 95       	icall
    2788:	f3 01       	movw	r30, r6
    278a:	01 a1       	ldd	r16, Z+33	; 0x21
    278c:	d6 01       	movw	r26, r12
    278e:	59 96       	adiw	r26, 0x19	; 25
    2790:	ed 91       	ld	r30, X+
    2792:	fc 91       	ld	r31, X
    2794:	5a 97       	sbiw	r26, 0x1a	; 26
    2796:	d3 01       	movw	r26, r6
    2798:	92 96       	adiw	r26, 0x22	; 34
    279a:	8c 91       	ld	r24, X
    279c:	09 95       	icall
    279e:	f3 01       	movw	r30, r6
    27a0:	82 a1       	ldd	r24, Z+34	; 0x22
    27a2:	08 0f       	add	r16, r24
    27a4:	0f 57       	subi	r16, 0x7F	; 127
    27a6:	01 0f       	add	r16, r17
    27a8:	bb 24       	eor	r11, r11
    27aa:	2e c0       	rjmp	.+92     	; 0x2808 <TxBsuSyncPacket+0x11a>
    27ac:	f3 01       	movw	r30, r6
    27ae:	eb 0d       	add	r30, r11
    27b0:	f1 1d       	adc	r31, r1
    27b2:	7f 01       	movw	r14, r30
    27b4:	08 94       	sec
    27b6:	e1 1c       	adc	r14, r1
    27b8:	f1 1c       	adc	r15, r1
    27ba:	81 81       	ldd	r24, Z+1	; 0x01
    27bc:	f4 01       	movw	r30, r8
    27be:	e8 0f       	add	r30, r24
    27c0:	f1 1d       	adc	r31, r1
    27c2:	10 81       	ld	r17, Z
    27c4:	81 2f       	mov	r24, r17
    27c6:	f9 01       	movw	r30, r18
    27c8:	09 95       	icall
    27ca:	01 0f       	add	r16, r17
    27cc:	90 e0       	ldi	r25, 0x00	; 0
    27ce:	17 c0       	rjmp	.+46     	; 0x27fe <TxBsuSyncPacket+0x110>
    27d0:	d7 01       	movw	r26, r14
    27d2:	ec 91       	ld	r30, X
    27d4:	f0 e0       	ldi	r31, 0x00	; 0
    27d6:	ee 0f       	add	r30, r30
    27d8:	ff 1f       	adc	r31, r31
    27da:	ee 0f       	add	r30, r30
    27dc:	ff 1f       	adc	r31, r31
    27de:	e6 0d       	add	r30, r6
    27e0:	f7 1d       	adc	r31, r7
    27e2:	e9 0f       	add	r30, r25
    27e4:	f1 1d       	adc	r31, r1
    27e6:	13 a1       	ldd	r17, Z+35	; 0x23
    27e8:	d6 01       	movw	r26, r12
    27ea:	59 96       	adiw	r26, 0x19	; 25
    27ec:	ed 91       	ld	r30, X+
    27ee:	fc 91       	ld	r31, X
    27f0:	5a 97       	sbiw	r26, 0x1a	; 26
    27f2:	81 2f       	mov	r24, r17
    27f4:	99 83       	std	Y+1, r25	; 0x01
    27f6:	09 95       	icall
    27f8:	01 0f       	add	r16, r17
    27fa:	99 81       	ldd	r25, Y+1	; 0x01
    27fc:	9f 5f       	subi	r25, 0xFF	; 255
    27fe:	f3 01       	movw	r30, r6
    2800:	82 a1       	ldd	r24, Z+34	; 0x22
    2802:	98 17       	cp	r25, r24
    2804:	28 f3       	brcs	.-54     	; 0x27d0 <TxBsuSyncPacket+0xe2>
    2806:	b3 94       	inc	r11
    2808:	d3 01       	movw	r26, r6
    280a:	8c 91       	ld	r24, X
    280c:	f6 01       	movw	r30, r12
    280e:	21 8d       	ldd	r18, Z+25	; 0x19
    2810:	32 8d       	ldd	r19, Z+26	; 0x1a
    2812:	b8 16       	cp	r11, r24
    2814:	58 f2       	brcs	.-106    	; 0x27ac <TxBsuSyncPacket+0xbe>
    2816:	80 2f       	mov	r24, r16
    2818:	80 95       	com	r24
    281a:	f9 01       	movw	r30, r18
    281c:	09 95       	icall
    281e:	d3 01       	movw	r26, r6
    2820:	1c 92       	st	X, r1
    2822:	d6 01       	movw	r26, r12
    2824:	5b 96       	adiw	r26, 0x1b	; 27
    2826:	ed 91       	ld	r30, X+
    2828:	fc 91       	ld	r31, X
    282a:	5c 97       	sbiw	r26, 0x1c	; 28
    282c:	09 95       	icall
    282e:	80 e0       	ldi	r24, 0x00	; 0
    2830:	0f 90       	pop	r0
    2832:	cf 91       	pop	r28
    2834:	df 91       	pop	r29
    2836:	1f 91       	pop	r17
    2838:	0f 91       	pop	r16
    283a:	ff 90       	pop	r15
    283c:	ef 90       	pop	r14
    283e:	df 90       	pop	r13
    2840:	cf 90       	pop	r12
    2842:	bf 90       	pop	r11
    2844:	9f 90       	pop	r9
    2846:	8f 90       	pop	r8
    2848:	7f 90       	pop	r7
    284a:	6f 90       	pop	r6
    284c:	08 95       	ret

0000284e <RxBsuPacket>:
    284e:	8f 92       	push	r8
    2850:	9f 92       	push	r9
    2852:	af 92       	push	r10
    2854:	bf 92       	push	r11
    2856:	df 92       	push	r13
    2858:	ef 92       	push	r14
    285a:	ff 92       	push	r15
    285c:	0f 93       	push	r16
    285e:	1f 93       	push	r17
    2860:	df 93       	push	r29
    2862:	cf 93       	push	r28
    2864:	0f 92       	push	r0
    2866:	cd b7       	in	r28, 0x3d	; 61
    2868:	de b7       	in	r29, 0x3e	; 62
    286a:	7c 01       	movw	r14, r24
    286c:	5b 01       	movw	r10, r22
    286e:	19 82       	std	Y+1, r1	; 0x01
    2870:	dd 24       	eor	r13, r13
    2872:	d3 94       	inc	r13
    2874:	4e 01       	movw	r8, r28
    2876:	08 94       	sec
    2878:	81 1c       	adc	r8, r1
    287a:	91 1c       	adc	r9, r1
    287c:	08 c0       	rjmp	.+16     	; 0x288e <RxBsuPacket+0x40>
    287e:	0f 5f       	subi	r16, 0xFF	; 255
    2880:	1f 4f       	sbci	r17, 0xFF	; 255
    2882:	82 e0       	ldi	r24, 0x02	; 2
    2884:	0d 3b       	cpi	r16, 0xBD	; 189
    2886:	18 07       	cpc	r17, r24
    2888:	21 f4       	brne	.+8      	; 0x2892 <RxBsuPacket+0x44>
    288a:	84 e0       	ldi	r24, 0x04	; 4
    288c:	68 c0       	rjmp	.+208    	; 0x295e <RxBsuPacket+0x110>
    288e:	00 e0       	ldi	r16, 0x00	; 0
    2890:	10 e0       	ldi	r17, 0x00	; 0
    2892:	d5 01       	movw	r26, r10
    2894:	5d 96       	adiw	r26, 0x1d	; 29
    2896:	ed 91       	ld	r30, X+
    2898:	fc 91       	ld	r31, X
    289a:	5e 97       	sbiw	r26, 0x1e	; 30
    289c:	09 95       	icall
    289e:	88 23       	and	r24, r24
    28a0:	71 f3       	breq	.-36     	; 0x287e <RxBsuPacket+0x30>
    28a2:	d5 01       	movw	r26, r10
    28a4:	57 96       	adiw	r26, 0x17	; 23
    28a6:	ed 91       	ld	r30, X+
    28a8:	fc 91       	ld	r31, X
    28aa:	58 97       	sbiw	r26, 0x18	; 24
    28ac:	c4 01       	movw	r24, r8
    28ae:	09 95       	icall
    28b0:	b3 e0       	ldi	r27, 0x03	; 3
    28b2:	db 16       	cp	r13, r27
    28b4:	a1 f0       	breq	.+40     	; 0x28de <RxBsuPacket+0x90>
    28b6:	bd 15       	cp	r27, r13
    28b8:	38 f0       	brcs	.+14     	; 0x28c8 <RxBsuPacket+0x7a>
    28ba:	e1 e0       	ldi	r30, 0x01	; 1
    28bc:	de 16       	cp	r13, r30
    28be:	59 f0       	breq	.+22     	; 0x28d6 <RxBsuPacket+0x88>
    28c0:	f2 e0       	ldi	r31, 0x02	; 2
    28c2:	df 16       	cp	r13, r31
    28c4:	e1 f4       	brne	.+56     	; 0x28fe <RxBsuPacket+0xb0>
    28c6:	07 c0       	rjmp	.+14     	; 0x28d6 <RxBsuPacket+0x88>
    28c8:	84 e0       	ldi	r24, 0x04	; 4
    28ca:	d8 16       	cp	r13, r24
    28cc:	59 f0       	breq	.+22     	; 0x28e4 <RxBsuPacket+0x96>
    28ce:	a5 e0       	ldi	r26, 0x05	; 5
    28d0:	da 16       	cp	r13, r26
    28d2:	a9 f4       	brne	.+42     	; 0x28fe <RxBsuPacket+0xb0>
    28d4:	10 c0       	rjmp	.+32     	; 0x28f6 <RxBsuPacket+0xa8>
    28d6:	89 81       	ldd	r24, Y+1	; 0x01
    28d8:	8f 3f       	cpi	r24, 0xFF	; 255
    28da:	d1 f5       	brne	.+116    	; 0x2950 <RxBsuPacket+0x102>
    28dc:	3a c0       	rjmp	.+116    	; 0x2952 <RxBsuPacket+0x104>
    28de:	89 81       	ldd	r24, Y+1	; 0x01
    28e0:	f7 01       	movw	r30, r14
    28e2:	1c c0       	rjmp	.+56     	; 0x291c <RxBsuPacket+0xce>
    28e4:	89 81       	ldd	r24, Y+1	; 0x01
    28e6:	82 50       	subi	r24, 0x02	; 2
    28e8:	d7 01       	movw	r26, r14
    28ea:	12 96       	adiw	r26, 0x02	; 2
    28ec:	8c 93       	st	X, r24
    28ee:	80 31       	cpi	r24, 0x10	; 16
    28f0:	80 f1       	brcs	.+96     	; 0x2952 <RxBsuPacket+0x104>
    28f2:	82 e0       	ldi	r24, 0x02	; 2
    28f4:	34 c0       	rjmp	.+104    	; 0x295e <RxBsuPacket+0x110>
    28f6:	89 81       	ldd	r24, Y+1	; 0x01
    28f8:	f7 01       	movw	r30, r14
    28fa:	81 83       	std	Z+1, r24	; 0x01
    28fc:	2a c0       	rjmp	.+84     	; 0x2952 <RxBsuPacket+0x104>
    28fe:	d7 01       	movw	r26, r14
    2900:	12 96       	adiw	r26, 0x02	; 2
    2902:	3c 91       	ld	r19, X
    2904:	ed 2d       	mov	r30, r13
    2906:	f0 e0       	ldi	r31, 0x00	; 0
    2908:	83 2f       	mov	r24, r19
    290a:	90 e0       	ldi	r25, 0x00	; 0
    290c:	05 96       	adiw	r24, 0x05	; 5
    290e:	8e 17       	cp	r24, r30
    2910:	9f 07       	cpc	r25, r31
    2912:	34 f0       	brlt	.+12     	; 0x2920 <RxBsuPacket+0xd2>
    2914:	ee 0d       	add	r30, r14
    2916:	ff 1d       	adc	r31, r15
    2918:	33 97       	sbiw	r30, 0x03	; 3
    291a:	89 81       	ldd	r24, Y+1	; 0x01
    291c:	80 83       	st	Z, r24
    291e:	19 c0       	rjmp	.+50     	; 0x2952 <RxBsuPacket+0x104>
    2920:	f7 01       	movw	r30, r14
    2922:	90 81       	ld	r25, Z
    2924:	81 81       	ldd	r24, Z+1	; 0x01
    2926:	98 0f       	add	r25, r24
    2928:	9e 5f       	subi	r25, 0xFE	; 254
    292a:	93 0f       	add	r25, r19
    292c:	20 e0       	ldi	r18, 0x00	; 0
    292e:	06 c0       	rjmp	.+12     	; 0x293c <RxBsuPacket+0xee>
    2930:	f7 01       	movw	r30, r14
    2932:	e2 0f       	add	r30, r18
    2934:	f1 1d       	adc	r31, r1
    2936:	83 81       	ldd	r24, Z+3	; 0x03
    2938:	98 0f       	add	r25, r24
    293a:	2f 5f       	subi	r18, 0xFF	; 255
    293c:	23 17       	cp	r18, r19
    293e:	c0 f3       	brcs	.-16     	; 0x2930 <RxBsuPacket+0xe2>
    2940:	90 95       	com	r25
    2942:	89 81       	ldd	r24, Y+1	; 0x01
    2944:	98 17       	cp	r25, r24
    2946:	11 f4       	brne	.+4      	; 0x294c <RxBsuPacket+0xfe>
    2948:	80 e0       	ldi	r24, 0x00	; 0
    294a:	09 c0       	rjmp	.+18     	; 0x295e <RxBsuPacket+0x110>
    294c:	84 e1       	ldi	r24, 0x14	; 20
    294e:	07 c0       	rjmp	.+14     	; 0x295e <RxBsuPacket+0x110>
    2950:	dd 24       	eor	r13, r13
    2952:	d3 94       	inc	r13
    2954:	f5 e1       	ldi	r31, 0x15	; 21
    2956:	fd 15       	cp	r31, r13
    2958:	08 f0       	brcs	.+2      	; 0x295c <RxBsuPacket+0x10e>
    295a:	99 cf       	rjmp	.-206    	; 0x288e <RxBsuPacket+0x40>
    295c:	85 e0       	ldi	r24, 0x05	; 5
    295e:	0f 90       	pop	r0
    2960:	cf 91       	pop	r28
    2962:	df 91       	pop	r29
    2964:	1f 91       	pop	r17
    2966:	0f 91       	pop	r16
    2968:	ff 90       	pop	r15
    296a:	ef 90       	pop	r14
    296c:	df 90       	pop	r13
    296e:	bf 90       	pop	r11
    2970:	af 90       	pop	r10
    2972:	9f 90       	pop	r9
    2974:	8f 90       	pop	r8
    2976:	08 95       	ret

00002978 <TxBsuPacket>:
    2978:	af 92       	push	r10
    297a:	bf 92       	push	r11
    297c:	cf 92       	push	r12
    297e:	df 92       	push	r13
    2980:	ef 92       	push	r14
    2982:	ff 92       	push	r15
    2984:	0f 93       	push	r16
    2986:	1f 93       	push	r17
    2988:	df 93       	push	r29
    298a:	cf 93       	push	r28
    298c:	0f 92       	push	r0
    298e:	cd b7       	in	r28, 0x3d	; 61
    2990:	de b7       	in	r29, 0x3e	; 62
    2992:	5c 01       	movw	r10, r24
    2994:	8b 01       	movw	r16, r22
    2996:	db 01       	movw	r26, r22
    2998:	59 96       	adiw	r26, 0x19	; 25
    299a:	ed 91       	ld	r30, X+
    299c:	fc 91       	ld	r31, X
    299e:	5a 97       	sbiw	r26, 0x1a	; 26
    29a0:	8f ef       	ldi	r24, 0xFF	; 255
    29a2:	09 95       	icall
    29a4:	d8 01       	movw	r26, r16
    29a6:	59 96       	adiw	r26, 0x19	; 25
    29a8:	ed 91       	ld	r30, X+
    29aa:	fc 91       	ld	r31, X
    29ac:	5a 97       	sbiw	r26, 0x1a	; 26
    29ae:	8f ef       	ldi	r24, 0xFF	; 255
    29b0:	09 95       	icall
    29b2:	d8 01       	movw	r26, r16
    29b4:	59 96       	adiw	r26, 0x19	; 25
    29b6:	ed 91       	ld	r30, X+
    29b8:	fc 91       	ld	r31, X
    29ba:	5a 97       	sbiw	r26, 0x1a	; 26
    29bc:	d5 01       	movw	r26, r10
    29be:	8c 91       	ld	r24, X
    29c0:	09 95       	icall
    29c2:	f5 01       	movw	r30, r10
    29c4:	81 81       	ldd	r24, Z+1	; 0x01
    29c6:	83 30       	cpi	r24, 0x03	; 3
    29c8:	e1 f1       	breq	.+120    	; 0x2a42 <TxBsuPacket+0xca>
    29ca:	84 30       	cpi	r24, 0x04	; 4
    29cc:	30 f4       	brcc	.+12     	; 0x29da <TxBsuPacket+0x62>
    29ce:	81 30       	cpi	r24, 0x01	; 1
    29d0:	09 f4       	brne	.+2      	; 0x29d4 <TxBsuPacket+0x5c>
    29d2:	c5 c0       	rjmp	.+394    	; 0x2b5e <TxBsuPacket+0x1e6>
    29d4:	82 30       	cpi	r24, 0x02	; 2
    29d6:	39 f4       	brne	.+14     	; 0x29e6 <TxBsuPacket+0x6e>
    29d8:	08 c0       	rjmp	.+16     	; 0x29ea <TxBsuPacket+0x72>
    29da:	84 30       	cpi	r24, 0x04	; 4
    29dc:	09 f4       	brne	.+2      	; 0x29e0 <TxBsuPacket+0x68>
    29de:	75 c0       	rjmp	.+234    	; 0x2aca <TxBsuPacket+0x152>
    29e0:	85 30       	cpi	r24, 0x05	; 5
    29e2:	09 f4       	brne	.+2      	; 0x29e6 <TxBsuPacket+0x6e>
    29e4:	bc c0       	rjmp	.+376    	; 0x2b5e <TxBsuPacket+0x1e6>
    29e6:	83 e0       	ldi	r24, 0x03	; 3
    29e8:	dd c0       	rjmp	.+442    	; 0x2ba4 <TxBsuPacket+0x22c>
    29ea:	d8 01       	movw	r26, r16
    29ec:	59 96       	adiw	r26, 0x19	; 25
    29ee:	ed 91       	ld	r30, X+
    29f0:	fc 91       	ld	r31, X
    29f2:	5a 97       	sbiw	r26, 0x1a	; 26
    29f4:	84 e0       	ldi	r24, 0x04	; 4
    29f6:	09 95       	icall
    29f8:	d8 01       	movw	r26, r16
    29fa:	59 96       	adiw	r26, 0x19	; 25
    29fc:	ed 91       	ld	r30, X+
    29fe:	fc 91       	ld	r31, X
    2a00:	5a 97       	sbiw	r26, 0x1a	; 26
    2a02:	d5 01       	movw	r26, r10
    2a04:	11 96       	adiw	r26, 0x01	; 1
    2a06:	8c 91       	ld	r24, X
    2a08:	09 95       	icall
    2a0a:	d8 01       	movw	r26, r16
    2a0c:	59 96       	adiw	r26, 0x19	; 25
    2a0e:	ed 91       	ld	r30, X+
    2a10:	fc 91       	ld	r31, X
    2a12:	5a 97       	sbiw	r26, 0x1a	; 26
    2a14:	d5 01       	movw	r26, r10
    2a16:	12 96       	adiw	r26, 0x02	; 2
    2a18:	8c 91       	ld	r24, X
    2a1a:	09 95       	icall
    2a1c:	d8 01       	movw	r26, r16
    2a1e:	59 96       	adiw	r26, 0x19	; 25
    2a20:	ed 91       	ld	r30, X+
    2a22:	fc 91       	ld	r31, X
    2a24:	5a 97       	sbiw	r26, 0x1a	; 26
    2a26:	d5 01       	movw	r26, r10
    2a28:	13 96       	adiw	r26, 0x03	; 3
    2a2a:	8c 91       	ld	r24, X
    2a2c:	09 95       	icall
    2a2e:	f5 01       	movw	r30, r10
    2a30:	80 81       	ld	r24, Z
    2a32:	91 81       	ldd	r25, Z+1	; 0x01
    2a34:	89 0f       	add	r24, r25
    2a36:	8c 5f       	subi	r24, 0xFC	; 252
    2a38:	92 81       	ldd	r25, Z+2	; 0x02
    2a3a:	89 0f       	add	r24, r25
    2a3c:	93 81       	ldd	r25, Z+3	; 0x03
    2a3e:	89 0f       	add	r24, r25
    2a40:	a3 c0       	rjmp	.+326    	; 0x2b88 <TxBsuPacket+0x210>
    2a42:	f5 01       	movw	r30, r10
    2a44:	84 81       	ldd	r24, Z+4	; 0x04
    2a46:	d8 01       	movw	r26, r16
    2a48:	59 96       	adiw	r26, 0x19	; 25
    2a4a:	ed 91       	ld	r30, X+
    2a4c:	fc 91       	ld	r31, X
    2a4e:	5a 97       	sbiw	r26, 0x1a	; 26
    2a50:	8d 5f       	subi	r24, 0xFD	; 253
    2a52:	09 95       	icall
    2a54:	d8 01       	movw	r26, r16
    2a56:	59 96       	adiw	r26, 0x19	; 25
    2a58:	ed 91       	ld	r30, X+
    2a5a:	fc 91       	ld	r31, X
    2a5c:	5a 97       	sbiw	r26, 0x1a	; 26
    2a5e:	d5 01       	movw	r26, r10
    2a60:	11 96       	adiw	r26, 0x01	; 1
    2a62:	8c 91       	ld	r24, X
    2a64:	09 95       	icall
    2a66:	d8 01       	movw	r26, r16
    2a68:	59 96       	adiw	r26, 0x19	; 25
    2a6a:	ed 91       	ld	r30, X+
    2a6c:	fc 91       	ld	r31, X
    2a6e:	5a 97       	sbiw	r26, 0x1a	; 26
    2a70:	d5 01       	movw	r26, r10
    2a72:	12 96       	adiw	r26, 0x02	; 2
    2a74:	8c 91       	ld	r24, X
    2a76:	09 95       	icall
    2a78:	f5 01       	movw	r30, r10
    2a7a:	c0 80       	ld	r12, Z
    2a7c:	f4 80       	ldd	r15, Z+4	; 0x04
    2a7e:	d1 80       	ldd	r13, Z+1	; 0x01
    2a80:	e2 80       	ldd	r14, Z+2	; 0x02
    2a82:	90 e0       	ldi	r25, 0x00	; 0
    2a84:	0e c0       	rjmp	.+28     	; 0x2aa2 <TxBsuPacket+0x12a>
    2a86:	f5 01       	movw	r30, r10
    2a88:	e9 0f       	add	r30, r25
    2a8a:	f1 1d       	adc	r31, r1
    2a8c:	d8 01       	movw	r26, r16
    2a8e:	59 96       	adiw	r26, 0x19	; 25
    2a90:	2d 91       	ld	r18, X+
    2a92:	3c 91       	ld	r19, X
    2a94:	5a 97       	sbiw	r26, 0x1a	; 26
    2a96:	85 81       	ldd	r24, Z+5	; 0x05
    2a98:	99 83       	std	Y+1, r25	; 0x01
    2a9a:	f9 01       	movw	r30, r18
    2a9c:	09 95       	icall
    2a9e:	99 81       	ldd	r25, Y+1	; 0x01
    2aa0:	9f 5f       	subi	r25, 0xFF	; 255
    2aa2:	f5 01       	movw	r30, r10
    2aa4:	34 81       	ldd	r19, Z+4	; 0x04
    2aa6:	93 17       	cp	r25, r19
    2aa8:	70 f3       	brcs	.-36     	; 0x2a86 <TxBsuPacket+0x10e>
    2aaa:	9c 2d       	mov	r25, r12
    2aac:	9f 0d       	add	r25, r15
    2aae:	9d 5f       	subi	r25, 0xFD	; 253
    2ab0:	9d 0d       	add	r25, r13
    2ab2:	9e 0d       	add	r25, r14
    2ab4:	20 e0       	ldi	r18, 0x00	; 0
    2ab6:	06 c0       	rjmp	.+12     	; 0x2ac4 <TxBsuPacket+0x14c>
    2ab8:	f5 01       	movw	r30, r10
    2aba:	e2 0f       	add	r30, r18
    2abc:	f1 1d       	adc	r31, r1
    2abe:	85 81       	ldd	r24, Z+5	; 0x05
    2ac0:	98 0f       	add	r25, r24
    2ac2:	2f 5f       	subi	r18, 0xFF	; 255
    2ac4:	23 17       	cp	r18, r19
    2ac6:	c0 f3       	brcs	.-16     	; 0x2ab8 <TxBsuPacket+0x140>
    2ac8:	43 c0       	rjmp	.+134    	; 0x2b50 <TxBsuPacket+0x1d8>
    2aca:	f5 01       	movw	r30, r10
    2acc:	84 81       	ldd	r24, Z+4	; 0x04
    2ace:	d8 01       	movw	r26, r16
    2ad0:	59 96       	adiw	r26, 0x19	; 25
    2ad2:	ed 91       	ld	r30, X+
    2ad4:	fc 91       	ld	r31, X
    2ad6:	5a 97       	sbiw	r26, 0x1a	; 26
    2ad8:	8d 5f       	subi	r24, 0xFD	; 253
    2ada:	09 95       	icall
    2adc:	d8 01       	movw	r26, r16
    2ade:	59 96       	adiw	r26, 0x19	; 25
    2ae0:	ed 91       	ld	r30, X+
    2ae2:	fc 91       	ld	r31, X
    2ae4:	5a 97       	sbiw	r26, 0x1a	; 26
    2ae6:	d5 01       	movw	r26, r10
    2ae8:	11 96       	adiw	r26, 0x01	; 1
    2aea:	8c 91       	ld	r24, X
    2aec:	09 95       	icall
    2aee:	d8 01       	movw	r26, r16
    2af0:	59 96       	adiw	r26, 0x19	; 25
    2af2:	ed 91       	ld	r30, X+
    2af4:	fc 91       	ld	r31, X
    2af6:	5a 97       	sbiw	r26, 0x1a	; 26
    2af8:	d5 01       	movw	r26, r10
    2afa:	12 96       	adiw	r26, 0x02	; 2
    2afc:	8c 91       	ld	r24, X
    2afe:	09 95       	icall
    2b00:	f5 01       	movw	r30, r10
    2b02:	c0 80       	ld	r12, Z
    2b04:	f4 80       	ldd	r15, Z+4	; 0x04
    2b06:	d1 80       	ldd	r13, Z+1	; 0x01
    2b08:	e2 80       	ldd	r14, Z+2	; 0x02
    2b0a:	90 e0       	ldi	r25, 0x00	; 0
    2b0c:	0e c0       	rjmp	.+28     	; 0x2b2a <TxBsuPacket+0x1b2>
    2b0e:	f5 01       	movw	r30, r10
    2b10:	e9 0f       	add	r30, r25
    2b12:	f1 1d       	adc	r31, r1
    2b14:	d8 01       	movw	r26, r16
    2b16:	59 96       	adiw	r26, 0x19	; 25
    2b18:	2d 91       	ld	r18, X+
    2b1a:	3c 91       	ld	r19, X
    2b1c:	5a 97       	sbiw	r26, 0x1a	; 26
    2b1e:	85 81       	ldd	r24, Z+5	; 0x05
    2b20:	99 83       	std	Y+1, r25	; 0x01
    2b22:	f9 01       	movw	r30, r18
    2b24:	09 95       	icall
    2b26:	99 81       	ldd	r25, Y+1	; 0x01
    2b28:	9f 5f       	subi	r25, 0xFF	; 255
    2b2a:	f5 01       	movw	r30, r10
    2b2c:	34 81       	ldd	r19, Z+4	; 0x04
    2b2e:	93 17       	cp	r25, r19
    2b30:	70 f3       	brcs	.-36     	; 0x2b0e <TxBsuPacket+0x196>
    2b32:	9c 2d       	mov	r25, r12
    2b34:	9f 0d       	add	r25, r15
    2b36:	9d 5f       	subi	r25, 0xFD	; 253
    2b38:	9d 0d       	add	r25, r13
    2b3a:	9e 0d       	add	r25, r14
    2b3c:	20 e0       	ldi	r18, 0x00	; 0
    2b3e:	06 c0       	rjmp	.+12     	; 0x2b4c <TxBsuPacket+0x1d4>
    2b40:	f5 01       	movw	r30, r10
    2b42:	e2 0f       	add	r30, r18
    2b44:	f1 1d       	adc	r31, r1
    2b46:	85 81       	ldd	r24, Z+5	; 0x05
    2b48:	98 0f       	add	r25, r24
    2b4a:	2f 5f       	subi	r18, 0xFF	; 255
    2b4c:	23 17       	cp	r18, r19
    2b4e:	c0 f3       	brcs	.-16     	; 0x2b40 <TxBsuPacket+0x1c8>
    2b50:	d8 01       	movw	r26, r16
    2b52:	59 96       	adiw	r26, 0x19	; 25
    2b54:	ed 91       	ld	r30, X+
    2b56:	fc 91       	ld	r31, X
    2b58:	5a 97       	sbiw	r26, 0x1a	; 26
    2b5a:	89 2f       	mov	r24, r25
    2b5c:	1a c0       	rjmp	.+52     	; 0x2b92 <TxBsuPacket+0x21a>
    2b5e:	d8 01       	movw	r26, r16
    2b60:	59 96       	adiw	r26, 0x19	; 25
    2b62:	ed 91       	ld	r30, X+
    2b64:	fc 91       	ld	r31, X
    2b66:	5a 97       	sbiw	r26, 0x1a	; 26
    2b68:	82 e0       	ldi	r24, 0x02	; 2
    2b6a:	09 95       	icall
    2b6c:	d8 01       	movw	r26, r16
    2b6e:	59 96       	adiw	r26, 0x19	; 25
    2b70:	ed 91       	ld	r30, X+
    2b72:	fc 91       	ld	r31, X
    2b74:	5a 97       	sbiw	r26, 0x1a	; 26
    2b76:	d5 01       	movw	r26, r10
    2b78:	11 96       	adiw	r26, 0x01	; 1
    2b7a:	8c 91       	ld	r24, X
    2b7c:	09 95       	icall
    2b7e:	f5 01       	movw	r30, r10
    2b80:	80 81       	ld	r24, Z
    2b82:	91 81       	ldd	r25, Z+1	; 0x01
    2b84:	89 0f       	add	r24, r25
    2b86:	8e 5f       	subi	r24, 0xFE	; 254
    2b88:	d8 01       	movw	r26, r16
    2b8a:	59 96       	adiw	r26, 0x19	; 25
    2b8c:	ed 91       	ld	r30, X+
    2b8e:	fc 91       	ld	r31, X
    2b90:	5a 97       	sbiw	r26, 0x1a	; 26
    2b92:	80 95       	com	r24
    2b94:	09 95       	icall
    2b96:	d8 01       	movw	r26, r16
    2b98:	5b 96       	adiw	r26, 0x1b	; 27
    2b9a:	ed 91       	ld	r30, X+
    2b9c:	fc 91       	ld	r31, X
    2b9e:	5c 97       	sbiw	r26, 0x1c	; 28
    2ba0:	09 95       	icall
    2ba2:	80 e0       	ldi	r24, 0x00	; 0
    2ba4:	0f 90       	pop	r0
    2ba6:	cf 91       	pop	r28
    2ba8:	df 91       	pop	r29
    2baa:	1f 91       	pop	r17
    2bac:	0f 91       	pop	r16
    2bae:	ff 90       	pop	r15
    2bb0:	ef 90       	pop	r14
    2bb2:	df 90       	pop	r13
    2bb4:	cf 90       	pop	r12
    2bb6:	bf 90       	pop	r11
    2bb8:	af 90       	pop	r10
    2bba:	08 95       	ret

00002bbc <Inverse1DimArray>:
    2bbc:	d9 01       	movw	r26, r18
    2bbe:	fc 01       	movw	r30, r24
    2bc0:	90 e0       	ldi	r25, 0x00	; 0
    2bc2:	07 c0       	rjmp	.+14     	; 0x2bd2 <Inverse1DimArray+0x16>
    2bc4:	81 91       	ld	r24, Z+
    2bc6:	48 17       	cp	r20, r24
    2bc8:	19 f4       	brne	.+6      	; 0x2bd0 <Inverse1DimArray+0x14>
    2bca:	9c 93       	st	X, r25
    2bcc:	81 e0       	ldi	r24, 0x01	; 1
    2bce:	08 95       	ret
    2bd0:	9f 5f       	subi	r25, 0xFF	; 255
    2bd2:	96 17       	cp	r25, r22
    2bd4:	b8 f3       	brcs	.-18     	; 0x2bc4 <Inverse1DimArray+0x8>
    2bd6:	80 e0       	ldi	r24, 0x00	; 0
    2bd8:	08 95       	ret

00002bda <TestEmptyBufferQueue>:
    2bda:	fc 01       	movw	r30, r24
    2bdc:	40 e0       	ldi	r20, 0x00	; 0
    2bde:	26 81       	ldd	r18, Z+6	; 0x06
    2be0:	37 81       	ldd	r19, Z+7	; 0x07
    2be2:	84 81       	ldd	r24, Z+4	; 0x04
    2be4:	95 81       	ldd	r25, Z+5	; 0x05
    2be6:	28 17       	cp	r18, r24
    2be8:	39 07       	cpc	r19, r25
    2bea:	09 f4       	brne	.+2      	; 0x2bee <TestEmptyBufferQueue+0x14>
    2bec:	41 e0       	ldi	r20, 0x01	; 1
    2bee:	84 2f       	mov	r24, r20
    2bf0:	08 95       	ret

00002bf2 <AddBufferQueue>:
    2bf2:	dc 01       	movw	r26, r24
    2bf4:	16 96       	adiw	r26, 0x06	; 6
    2bf6:	ed 91       	ld	r30, X+
    2bf8:	fc 91       	ld	r31, X
    2bfa:	17 97       	sbiw	r26, 0x07	; 7
    2bfc:	60 83       	st	Z, r22
    2bfe:	16 96       	adiw	r26, 0x06	; 6
    2c00:	2d 91       	ld	r18, X+
    2c02:	3c 91       	ld	r19, X
    2c04:	17 97       	sbiw	r26, 0x07	; 7
    2c06:	2f 5f       	subi	r18, 0xFF	; 255
    2c08:	3f 4f       	sbci	r19, 0xFF	; 255
    2c0a:	17 96       	adiw	r26, 0x07	; 7
    2c0c:	3c 93       	st	X, r19
    2c0e:	2e 93       	st	-X, r18
    2c10:	16 97       	sbiw	r26, 0x06	; 6
    2c12:	12 96       	adiw	r26, 0x02	; 2
    2c14:	4d 91       	ld	r20, X+
    2c16:	5c 91       	ld	r21, X
    2c18:	13 97       	sbiw	r26, 0x03	; 3
    2c1a:	11 96       	adiw	r26, 0x01	; 1
    2c1c:	8c 91       	ld	r24, X
    2c1e:	11 97       	sbiw	r26, 0x01	; 1
    2c20:	ba 01       	movw	r22, r20
    2c22:	68 0f       	add	r22, r24
    2c24:	71 1d       	adc	r23, r1
    2c26:	26 17       	cp	r18, r22
    2c28:	37 07       	cpc	r19, r23
    2c2a:	20 f0       	brcs	.+8      	; 0x2c34 <AddBufferQueue+0x42>
    2c2c:	17 96       	adiw	r26, 0x07	; 7
    2c2e:	5c 93       	st	X, r21
    2c30:	4e 93       	st	-X, r20
    2c32:	16 97       	sbiw	r26, 0x06	; 6
    2c34:	16 96       	adiw	r26, 0x06	; 6
    2c36:	2d 91       	ld	r18, X+
    2c38:	3c 91       	ld	r19, X
    2c3a:	17 97       	sbiw	r26, 0x07	; 7
    2c3c:	14 96       	adiw	r26, 0x04	; 4
    2c3e:	8d 91       	ld	r24, X+
    2c40:	9c 91       	ld	r25, X
    2c42:	15 97       	sbiw	r26, 0x05	; 5
    2c44:	28 17       	cp	r18, r24
    2c46:	39 07       	cpc	r19, r25
    2c48:	21 f4       	brne	.+8      	; 0x2c52 <AddBufferQueue+0x60>
    2c4a:	8c 91       	ld	r24, X
    2c4c:	80 7c       	andi	r24, 0xC0	; 192
    2c4e:	8d 60       	ori	r24, 0x0D	; 13
    2c50:	8c 93       	st	X, r24
    2c52:	08 95       	ret

00002c54 <OutBufferQueue>:
    2c54:	cf 93       	push	r28
    2c56:	df 93       	push	r29
    2c58:	fc 01       	movw	r30, r24
    2c5a:	eb 01       	movw	r28, r22
    2c5c:	a4 81       	ldd	r26, Z+4	; 0x04
    2c5e:	b5 81       	ldd	r27, Z+5	; 0x05
    2c60:	86 81       	ldd	r24, Z+6	; 0x06
    2c62:	97 81       	ldd	r25, Z+7	; 0x07
    2c64:	8a 17       	cp	r24, r26
    2c66:	9b 07       	cpc	r25, r27
    2c68:	11 f4       	brne	.+4      	; 0x2c6e <OutBufferQueue+0x1a>
    2c6a:	80 e0       	ldi	r24, 0x00	; 0
    2c6c:	14 c0       	rjmp	.+40     	; 0x2c96 <OutBufferQueue+0x42>
    2c6e:	8c 91       	ld	r24, X
    2c70:	88 83       	st	Y, r24
    2c72:	24 81       	ldd	r18, Z+4	; 0x04
    2c74:	35 81       	ldd	r19, Z+5	; 0x05
    2c76:	2f 5f       	subi	r18, 0xFF	; 255
    2c78:	3f 4f       	sbci	r19, 0xFF	; 255
    2c7a:	35 83       	std	Z+5, r19	; 0x05
    2c7c:	24 83       	std	Z+4, r18	; 0x04
    2c7e:	42 81       	ldd	r20, Z+2	; 0x02
    2c80:	53 81       	ldd	r21, Z+3	; 0x03
    2c82:	81 81       	ldd	r24, Z+1	; 0x01
    2c84:	ba 01       	movw	r22, r20
    2c86:	68 0f       	add	r22, r24
    2c88:	71 1d       	adc	r23, r1
    2c8a:	26 17       	cp	r18, r22
    2c8c:	37 07       	cpc	r19, r23
    2c8e:	10 f0       	brcs	.+4      	; 0x2c94 <OutBufferQueue+0x40>
    2c90:	55 83       	std	Z+5, r21	; 0x05
    2c92:	44 83       	std	Z+4, r20	; 0x04
    2c94:	81 e0       	ldi	r24, 0x01	; 1
    2c96:	df 91       	pop	r29
    2c98:	cf 91       	pop	r28
    2c9a:	08 95       	ret

00002c9c <CheckBufferQueueLength>:
    2c9c:	fc 01       	movw	r30, r24
    2c9e:	26 81       	ldd	r18, Z+6	; 0x06
    2ca0:	37 81       	ldd	r19, Z+7	; 0x07
    2ca2:	84 81       	ldd	r24, Z+4	; 0x04
    2ca4:	95 81       	ldd	r25, Z+5	; 0x05
    2ca6:	28 17       	cp	r18, r24
    2ca8:	39 07       	cpc	r19, r25
    2caa:	10 f0       	brcs	.+4      	; 0x2cb0 <CheckBufferQueueLength+0x14>
    2cac:	92 2f       	mov	r25, r18
    2cae:	02 c0       	rjmp	.+4      	; 0x2cb4 <CheckBufferQueueLength+0x18>
    2cb0:	82 1b       	sub	r24, r18
    2cb2:	91 81       	ldd	r25, Z+1	; 0x01
    2cb4:	98 1b       	sub	r25, r24
    2cb6:	89 2f       	mov	r24, r25
    2cb8:	08 95       	ret

00002cba <CheckBufferQueueState>:
    2cba:	fc 01       	movw	r30, r24
    2cbc:	80 81       	ld	r24, Z
    2cbe:	08 95       	ret

00002cc0 <ClearBufferQueue>:
    2cc0:	fc 01       	movw	r30, r24
    2cc2:	84 81       	ldd	r24, Z+4	; 0x04
    2cc4:	95 81       	ldd	r25, Z+5	; 0x05
    2cc6:	97 83       	std	Z+7, r25	; 0x07
    2cc8:	86 83       	std	Z+6, r24	; 0x06
    2cca:	80 e8       	ldi	r24, 0x80	; 128
    2ccc:	80 83       	st	Z, r24
    2cce:	08 95       	ret

00002cd0 <InitBufferQueue>:
    2cd0:	cf 93       	push	r28
    2cd2:	df 93       	push	r29
    2cd4:	ec 01       	movw	r28, r24
    2cd6:	18 82       	st	Y, r1
    2cd8:	66 23       	and	r22, r22
    2cda:	11 f4       	brne	.+4      	; 0x2ce0 <InitBufferQueue+0x10>
    2cdc:	83 e0       	ldi	r24, 0x03	; 3
    2cde:	14 c0       	rjmp	.+40     	; 0x2d08 <InitBufferQueue+0x38>
    2ce0:	69 83       	std	Y+1, r22	; 0x01
    2ce2:	86 2f       	mov	r24, r22
    2ce4:	90 e0       	ldi	r25, 0x00	; 0
    2ce6:	0e 94 dd 42 	call	0x85ba	; 0x85ba <malloc>
    2cea:	9c 01       	movw	r18, r24
    2cec:	88 81       	ld	r24, Y
    2cee:	21 15       	cp	r18, r1
    2cf0:	31 05       	cpc	r19, r1
    2cf2:	19 f4       	brne	.+6      	; 0x2cfa <InitBufferQueue+0x2a>
    2cf4:	80 7c       	andi	r24, 0xC0	; 192
    2cf6:	89 60       	ori	r24, 0x09	; 9
    2cf8:	07 c0       	rjmp	.+14     	; 0x2d08 <InitBufferQueue+0x38>
    2cfa:	3b 83       	std	Y+3, r19	; 0x03
    2cfc:	2a 83       	std	Y+2, r18	; 0x02
    2cfe:	3f 83       	std	Y+7, r19	; 0x07
    2d00:	2e 83       	std	Y+6, r18	; 0x06
    2d02:	3d 83       	std	Y+5, r19	; 0x05
    2d04:	2c 83       	std	Y+4, r18	; 0x04
    2d06:	80 68       	ori	r24, 0x80	; 128
    2d08:	88 83       	st	Y, r24
    2d0a:	df 91       	pop	r29
    2d0c:	cf 91       	pop	r28
    2d0e:	08 95       	ret

00002d10 <UpRobotSlaveRxPacket>:
    2d10:	8f 92       	push	r8
    2d12:	9f 92       	push	r9
    2d14:	af 92       	push	r10
    2d16:	bf 92       	push	r11
    2d18:	cf 92       	push	r12
    2d1a:	df 92       	push	r13
    2d1c:	ff 92       	push	r15
    2d1e:	0f 93       	push	r16
    2d20:	1f 93       	push	r17
    2d22:	df 93       	push	r29
    2d24:	cf 93       	push	r28
    2d26:	0f 92       	push	r0
    2d28:	cd b7       	in	r28, 0x3d	; 61
    2d2a:	de b7       	in	r29, 0x3e	; 62
    2d2c:	6c 01       	movw	r12, r24
    2d2e:	5b 01       	movw	r10, r22
    2d30:	19 82       	std	Y+1, r1	; 0x01
    2d32:	ff 24       	eor	r15, r15
    2d34:	f3 94       	inc	r15
    2d36:	4e 01       	movw	r8, r28
    2d38:	08 94       	sec
    2d3a:	81 1c       	adc	r8, r1
    2d3c:	91 1c       	adc	r9, r1
    2d3e:	08 c0       	rjmp	.+16     	; 0x2d50 <UpRobotSlaveRxPacket+0x40>
    2d40:	0f 5f       	subi	r16, 0xFF	; 255
    2d42:	1f 4f       	sbci	r17, 0xFF	; 255
    2d44:	85 e0       	ldi	r24, 0x05	; 5
    2d46:	09 37       	cpi	r16, 0x79	; 121
    2d48:	18 07       	cpc	r17, r24
    2d4a:	21 f4       	brne	.+8      	; 0x2d54 <UpRobotSlaveRxPacket+0x44>
    2d4c:	84 e0       	ldi	r24, 0x04	; 4
    2d4e:	58 c0       	rjmp	.+176    	; 0x2e00 <UpRobotSlaveRxPacket+0xf0>
    2d50:	00 e0       	ldi	r16, 0x00	; 0
    2d52:	10 e0       	ldi	r17, 0x00	; 0
    2d54:	d5 01       	movw	r26, r10
    2d56:	5d 96       	adiw	r26, 0x1d	; 29
    2d58:	ed 91       	ld	r30, X+
    2d5a:	fc 91       	ld	r31, X
    2d5c:	5e 97       	sbiw	r26, 0x1e	; 30
    2d5e:	09 95       	icall
    2d60:	88 23       	and	r24, r24
    2d62:	71 f3       	breq	.-36     	; 0x2d40 <UpRobotSlaveRxPacket+0x30>
    2d64:	d5 01       	movw	r26, r10
    2d66:	57 96       	adiw	r26, 0x17	; 23
    2d68:	ed 91       	ld	r30, X+
    2d6a:	fc 91       	ld	r31, X
    2d6c:	58 97       	sbiw	r26, 0x18	; 24
    2d6e:	c4 01       	movw	r24, r8
    2d70:	09 95       	icall
    2d72:	b3 e0       	ldi	r27, 0x03	; 3
    2d74:	fb 16       	cp	r15, r27
    2d76:	d1 f0       	breq	.+52     	; 0x2dac <UpRobotSlaveRxPacket+0x9c>
    2d78:	bf 15       	cp	r27, r15
    2d7a:	38 f0       	brcs	.+14     	; 0x2d8a <UpRobotSlaveRxPacket+0x7a>
    2d7c:	e1 e0       	ldi	r30, 0x01	; 1
    2d7e:	fe 16       	cp	r15, r30
    2d80:	69 f0       	breq	.+26     	; 0x2d9c <UpRobotSlaveRxPacket+0x8c>
    2d82:	f2 e0       	ldi	r31, 0x02	; 2
    2d84:	ff 16       	cp	r15, r31
    2d86:	19 f5       	brne	.+70     	; 0x2dce <UpRobotSlaveRxPacket+0xbe>
    2d88:	0d c0       	rjmp	.+26     	; 0x2da4 <UpRobotSlaveRxPacket+0x94>
    2d8a:	85 e0       	ldi	r24, 0x05	; 5
    2d8c:	f8 16       	cp	r15, r24
    2d8e:	b1 f0       	breq	.+44     	; 0x2dbc <UpRobotSlaveRxPacket+0xac>
    2d90:	f8 16       	cp	r15, r24
    2d92:	78 f0       	brcs	.+30     	; 0x2db2 <UpRobotSlaveRxPacket+0xa2>
    2d94:	a6 e0       	ldi	r26, 0x06	; 6
    2d96:	fa 16       	cp	r15, r26
    2d98:	d1 f4       	brne	.+52     	; 0x2dce <UpRobotSlaveRxPacket+0xbe>
    2d9a:	14 c0       	rjmp	.+40     	; 0x2dc4 <UpRobotSlaveRxPacket+0xb4>
    2d9c:	89 81       	ldd	r24, Y+1	; 0x01
    2d9e:	85 35       	cpi	r24, 0x55	; 85
    2da0:	41 f5       	brne	.+80     	; 0x2df2 <UpRobotSlaveRxPacket+0xe2>
    2da2:	28 c0       	rjmp	.+80     	; 0x2df4 <UpRobotSlaveRxPacket+0xe4>
    2da4:	89 81       	ldd	r24, Y+1	; 0x01
    2da6:	8a 3a       	cpi	r24, 0xAA	; 170
    2da8:	21 f5       	brne	.+72     	; 0x2df2 <UpRobotSlaveRxPacket+0xe2>
    2daa:	24 c0       	rjmp	.+72     	; 0x2df4 <UpRobotSlaveRxPacket+0xe4>
    2dac:	89 81       	ldd	r24, Y+1	; 0x01
    2dae:	f6 01       	movw	r30, r12
    2db0:	1e c0       	rjmp	.+60     	; 0x2dee <UpRobotSlaveRxPacket+0xde>
    2db2:	89 81       	ldd	r24, Y+1	; 0x01
    2db4:	d6 01       	movw	r26, r12
    2db6:	13 96       	adiw	r26, 0x03	; 3
    2db8:	8c 93       	st	X, r24
    2dba:	1c c0       	rjmp	.+56     	; 0x2df4 <UpRobotSlaveRxPacket+0xe4>
    2dbc:	89 81       	ldd	r24, Y+1	; 0x01
    2dbe:	f6 01       	movw	r30, r12
    2dc0:	81 83       	std	Z+1, r24	; 0x01
    2dc2:	18 c0       	rjmp	.+48     	; 0x2df4 <UpRobotSlaveRxPacket+0xe4>
    2dc4:	89 81       	ldd	r24, Y+1	; 0x01
    2dc6:	d6 01       	movw	r26, r12
    2dc8:	12 96       	adiw	r26, 0x02	; 2
    2dca:	8c 93       	st	X, r24
    2dcc:	13 c0       	rjmp	.+38     	; 0x2df4 <UpRobotSlaveRxPacket+0xe4>
    2dce:	ef 2d       	mov	r30, r15
    2dd0:	f0 e0       	ldi	r31, 0x00	; 0
    2dd2:	d6 01       	movw	r26, r12
    2dd4:	13 96       	adiw	r26, 0x03	; 3
    2dd6:	8c 91       	ld	r24, X
    2dd8:	90 e0       	ldi	r25, 0x00	; 0
    2dda:	06 96       	adiw	r24, 0x06	; 6
    2ddc:	8e 17       	cp	r24, r30
    2dde:	9f 07       	cpc	r25, r31
    2de0:	14 f4       	brge	.+4      	; 0x2de6 <UpRobotSlaveRxPacket+0xd6>
    2de2:	80 e0       	ldi	r24, 0x00	; 0
    2de4:	0d c0       	rjmp	.+26     	; 0x2e00 <UpRobotSlaveRxPacket+0xf0>
    2de6:	ec 0d       	add	r30, r12
    2de8:	fd 1d       	adc	r31, r13
    2dea:	33 97       	sbiw	r30, 0x03	; 3
    2dec:	89 81       	ldd	r24, Y+1	; 0x01
    2dee:	80 83       	st	Z, r24
    2df0:	01 c0       	rjmp	.+2      	; 0x2df4 <UpRobotSlaveRxPacket+0xe4>
    2df2:	ff 24       	eor	r15, r15
    2df4:	f3 94       	inc	r15
    2df6:	bd e9       	ldi	r27, 0x9D	; 157
    2df8:	bf 15       	cp	r27, r15
    2dfa:	08 f0       	brcs	.+2      	; 0x2dfe <UpRobotSlaveRxPacket+0xee>
    2dfc:	a9 cf       	rjmp	.-174    	; 0x2d50 <UpRobotSlaveRxPacket+0x40>
    2dfe:	85 e0       	ldi	r24, 0x05	; 5
    2e00:	0f 90       	pop	r0
    2e02:	cf 91       	pop	r28
    2e04:	df 91       	pop	r29
    2e06:	1f 91       	pop	r17
    2e08:	0f 91       	pop	r16
    2e0a:	ff 90       	pop	r15
    2e0c:	df 90       	pop	r13
    2e0e:	cf 90       	pop	r12
    2e10:	bf 90       	pop	r11
    2e12:	af 90       	pop	r10
    2e14:	9f 90       	pop	r9
    2e16:	8f 90       	pop	r8
    2e18:	08 95       	ret

00002e1a <UpRobotSlaveTxPacket>:
    2e1a:	ef 92       	push	r14
    2e1c:	ff 92       	push	r15
    2e1e:	0f 93       	push	r16
    2e20:	1f 93       	push	r17
    2e22:	df 93       	push	r29
    2e24:	cf 93       	push	r28
    2e26:	0f 92       	push	r0
    2e28:	cd b7       	in	r28, 0x3d	; 61
    2e2a:	de b7       	in	r29, 0x3e	; 62
    2e2c:	7c 01       	movw	r14, r24
    2e2e:	8b 01       	movw	r16, r22
    2e30:	db 01       	movw	r26, r22
    2e32:	59 96       	adiw	r26, 0x19	; 25
    2e34:	ed 91       	ld	r30, X+
    2e36:	fc 91       	ld	r31, X
    2e38:	5a 97       	sbiw	r26, 0x1a	; 26
    2e3a:	85 e5       	ldi	r24, 0x55	; 85
    2e3c:	09 95       	icall
    2e3e:	d8 01       	movw	r26, r16
    2e40:	59 96       	adiw	r26, 0x19	; 25
    2e42:	ed 91       	ld	r30, X+
    2e44:	fc 91       	ld	r31, X
    2e46:	5a 97       	sbiw	r26, 0x1a	; 26
    2e48:	8a ea       	ldi	r24, 0xAA	; 170
    2e4a:	09 95       	icall
    2e4c:	d8 01       	movw	r26, r16
    2e4e:	59 96       	adiw	r26, 0x19	; 25
    2e50:	ed 91       	ld	r30, X+
    2e52:	fc 91       	ld	r31, X
    2e54:	5a 97       	sbiw	r26, 0x1a	; 26
    2e56:	d7 01       	movw	r26, r14
    2e58:	8c 91       	ld	r24, X
    2e5a:	09 95       	icall
    2e5c:	d8 01       	movw	r26, r16
    2e5e:	59 96       	adiw	r26, 0x19	; 25
    2e60:	ed 91       	ld	r30, X+
    2e62:	fc 91       	ld	r31, X
    2e64:	5a 97       	sbiw	r26, 0x1a	; 26
    2e66:	d7 01       	movw	r26, r14
    2e68:	14 96       	adiw	r26, 0x04	; 4
    2e6a:	8c 91       	ld	r24, X
    2e6c:	09 95       	icall
    2e6e:	d8 01       	movw	r26, r16
    2e70:	59 96       	adiw	r26, 0x19	; 25
    2e72:	ed 91       	ld	r30, X+
    2e74:	fc 91       	ld	r31, X
    2e76:	5a 97       	sbiw	r26, 0x1a	; 26
    2e78:	d7 01       	movw	r26, r14
    2e7a:	11 96       	adiw	r26, 0x01	; 1
    2e7c:	8c 91       	ld	r24, X
    2e7e:	09 95       	icall
    2e80:	d8 01       	movw	r26, r16
    2e82:	59 96       	adiw	r26, 0x19	; 25
    2e84:	ed 91       	ld	r30, X+
    2e86:	fc 91       	ld	r31, X
    2e88:	5a 97       	sbiw	r26, 0x1a	; 26
    2e8a:	d7 01       	movw	r26, r14
    2e8c:	12 96       	adiw	r26, 0x02	; 2
    2e8e:	8c 91       	ld	r24, X
    2e90:	09 95       	icall
    2e92:	d8 01       	movw	r26, r16
    2e94:	59 96       	adiw	r26, 0x19	; 25
    2e96:	ed 91       	ld	r30, X+
    2e98:	fc 91       	ld	r31, X
    2e9a:	5a 97       	sbiw	r26, 0x1a	; 26
    2e9c:	d7 01       	movw	r26, r14
    2e9e:	13 96       	adiw	r26, 0x03	; 3
    2ea0:	8c 91       	ld	r24, X
    2ea2:	09 95       	icall
    2ea4:	90 e0       	ldi	r25, 0x00	; 0
    2ea6:	0e c0       	rjmp	.+28     	; 0x2ec4 <UpRobotSlaveTxPacket+0xaa>
    2ea8:	f7 01       	movw	r30, r14
    2eaa:	e9 0f       	add	r30, r25
    2eac:	f1 1d       	adc	r31, r1
    2eae:	d8 01       	movw	r26, r16
    2eb0:	59 96       	adiw	r26, 0x19	; 25
    2eb2:	2d 91       	ld	r18, X+
    2eb4:	3c 91       	ld	r19, X
    2eb6:	5a 97       	sbiw	r26, 0x1a	; 26
    2eb8:	85 81       	ldd	r24, Z+5	; 0x05
    2eba:	99 83       	std	Y+1, r25	; 0x01
    2ebc:	f9 01       	movw	r30, r18
    2ebe:	09 95       	icall
    2ec0:	99 81       	ldd	r25, Y+1	; 0x01
    2ec2:	9f 5f       	subi	r25, 0xFF	; 255
    2ec4:	f7 01       	movw	r30, r14
    2ec6:	34 81       	ldd	r19, Z+4	; 0x04
    2ec8:	93 17       	cp	r25, r19
    2eca:	70 f3       	brcs	.-36     	; 0x2ea8 <UpRobotSlaveTxPacket+0x8e>
    2ecc:	90 81       	ld	r25, Z
    2ece:	81 81       	ldd	r24, Z+1	; 0x01
    2ed0:	98 0f       	add	r25, r24
    2ed2:	91 50       	subi	r25, 0x01	; 1
    2ed4:	82 81       	ldd	r24, Z+2	; 0x02
    2ed6:	98 0f       	add	r25, r24
    2ed8:	83 81       	ldd	r24, Z+3	; 0x03
    2eda:	98 0f       	add	r25, r24
    2edc:	93 0f       	add	r25, r19
    2ede:	20 e0       	ldi	r18, 0x00	; 0
    2ee0:	06 c0       	rjmp	.+12     	; 0x2eee <UpRobotSlaveTxPacket+0xd4>
    2ee2:	f7 01       	movw	r30, r14
    2ee4:	e2 0f       	add	r30, r18
    2ee6:	f1 1d       	adc	r31, r1
    2ee8:	85 81       	ldd	r24, Z+5	; 0x05
    2eea:	98 0f       	add	r25, r24
    2eec:	2f 5f       	subi	r18, 0xFF	; 255
    2eee:	23 17       	cp	r18, r19
    2ef0:	c0 f3       	brcs	.-16     	; 0x2ee2 <UpRobotSlaveTxPacket+0xc8>
    2ef2:	d8 01       	movw	r26, r16
    2ef4:	59 96       	adiw	r26, 0x19	; 25
    2ef6:	ed 91       	ld	r30, X+
    2ef8:	fc 91       	ld	r31, X
    2efa:	5a 97       	sbiw	r26, 0x1a	; 26
    2efc:	89 2f       	mov	r24, r25
    2efe:	09 95       	icall
    2f00:	d8 01       	movw	r26, r16
    2f02:	5b 96       	adiw	r26, 0x1b	; 27
    2f04:	ed 91       	ld	r30, X+
    2f06:	fc 91       	ld	r31, X
    2f08:	5c 97       	sbiw	r26, 0x1c	; 28
    2f0a:	09 95       	icall
    2f0c:	80 e0       	ldi	r24, 0x00	; 0
    2f0e:	0f 90       	pop	r0
    2f10:	cf 91       	pop	r28
    2f12:	df 91       	pop	r29
    2f14:	1f 91       	pop	r17
    2f16:	0f 91       	pop	r16
    2f18:	ff 90       	pop	r15
    2f1a:	ef 90       	pop	r14
    2f1c:	08 95       	ret

00002f1e <UpRobotMasterRxPacket>:
    2f1e:	8f 92       	push	r8
    2f20:	9f 92       	push	r9
    2f22:	af 92       	push	r10
    2f24:	bf 92       	push	r11
    2f26:	df 92       	push	r13
    2f28:	ef 92       	push	r14
    2f2a:	ff 92       	push	r15
    2f2c:	0f 93       	push	r16
    2f2e:	1f 93       	push	r17
    2f30:	df 93       	push	r29
    2f32:	cf 93       	push	r28
    2f34:	0f 92       	push	r0
    2f36:	cd b7       	in	r28, 0x3d	; 61
    2f38:	de b7       	in	r29, 0x3e	; 62
    2f3a:	7c 01       	movw	r14, r24
    2f3c:	5b 01       	movw	r10, r22
    2f3e:	19 82       	std	Y+1, r1	; 0x01
    2f40:	dd 24       	eor	r13, r13
    2f42:	d3 94       	inc	r13
    2f44:	4e 01       	movw	r8, r28
    2f46:	08 94       	sec
    2f48:	81 1c       	adc	r8, r1
    2f4a:	91 1c       	adc	r9, r1
    2f4c:	08 c0       	rjmp	.+16     	; 0x2f5e <UpRobotMasterRxPacket+0x40>
    2f4e:	0f 5f       	subi	r16, 0xFF	; 255
    2f50:	1f 4f       	sbci	r17, 0xFF	; 255
    2f52:	85 e0       	ldi	r24, 0x05	; 5
    2f54:	09 37       	cpi	r16, 0x79	; 121
    2f56:	18 07       	cpc	r17, r24
    2f58:	21 f4       	brne	.+8      	; 0x2f62 <UpRobotMasterRxPacket+0x44>
    2f5a:	84 e0       	ldi	r24, 0x04	; 4
    2f5c:	69 c0       	rjmp	.+210    	; 0x3030 <UpRobotMasterRxPacket+0x112>
    2f5e:	00 e0       	ldi	r16, 0x00	; 0
    2f60:	10 e0       	ldi	r17, 0x00	; 0
    2f62:	d5 01       	movw	r26, r10
    2f64:	5d 96       	adiw	r26, 0x1d	; 29
    2f66:	ed 91       	ld	r30, X+
    2f68:	fc 91       	ld	r31, X
    2f6a:	5e 97       	sbiw	r26, 0x1e	; 30
    2f6c:	09 95       	icall
    2f6e:	88 23       	and	r24, r24
    2f70:	71 f3       	breq	.-36     	; 0x2f4e <UpRobotMasterRxPacket+0x30>
    2f72:	f8 94       	cli
    2f74:	d5 01       	movw	r26, r10
    2f76:	57 96       	adiw	r26, 0x17	; 23
    2f78:	ed 91       	ld	r30, X+
    2f7a:	fc 91       	ld	r31, X
    2f7c:	58 97       	sbiw	r26, 0x18	; 24
    2f7e:	c4 01       	movw	r24, r8
    2f80:	09 95       	icall
    2f82:	78 94       	sei
    2f84:	b3 e0       	ldi	r27, 0x03	; 3
    2f86:	db 16       	cp	r13, r27
    2f88:	c1 f0       	breq	.+48     	; 0x2fba <UpRobotMasterRxPacket+0x9c>
    2f8a:	bd 15       	cp	r27, r13
    2f8c:	38 f0       	brcs	.+14     	; 0x2f9c <UpRobotMasterRxPacket+0x7e>
    2f8e:	e1 e0       	ldi	r30, 0x01	; 1
    2f90:	de 16       	cp	r13, r30
    2f92:	59 f0       	breq	.+22     	; 0x2faa <UpRobotMasterRxPacket+0x8c>
    2f94:	f2 e0       	ldi	r31, 0x02	; 2
    2f96:	df 16       	cp	r13, r31
    2f98:	e1 f4       	brne	.+56     	; 0x2fd2 <UpRobotMasterRxPacket+0xb4>
    2f9a:	0b c0       	rjmp	.+22     	; 0x2fb2 <UpRobotMasterRxPacket+0x94>
    2f9c:	84 e0       	ldi	r24, 0x04	; 4
    2f9e:	d8 16       	cp	r13, r24
    2fa0:	79 f0       	breq	.+30     	; 0x2fc0 <UpRobotMasterRxPacket+0xa2>
    2fa2:	a5 e0       	ldi	r26, 0x05	; 5
    2fa4:	da 16       	cp	r13, r26
    2fa6:	a9 f4       	brne	.+42     	; 0x2fd2 <UpRobotMasterRxPacket+0xb4>
    2fa8:	10 c0       	rjmp	.+32     	; 0x2fca <UpRobotMasterRxPacket+0xac>
    2faa:	89 81       	ldd	r24, Y+1	; 0x01
    2fac:	85 35       	cpi	r24, 0x55	; 85
    2fae:	c9 f5       	brne	.+114    	; 0x3022 <UpRobotMasterRxPacket+0x104>
    2fb0:	39 c0       	rjmp	.+114    	; 0x3024 <UpRobotMasterRxPacket+0x106>
    2fb2:	89 81       	ldd	r24, Y+1	; 0x01
    2fb4:	8a 3a       	cpi	r24, 0xAA	; 170
    2fb6:	a9 f5       	brne	.+106    	; 0x3022 <UpRobotMasterRxPacket+0x104>
    2fb8:	35 c0       	rjmp	.+106    	; 0x3024 <UpRobotMasterRxPacket+0x106>
    2fba:	89 81       	ldd	r24, Y+1	; 0x01
    2fbc:	f7 01       	movw	r30, r14
    2fbe:	18 c0       	rjmp	.+48     	; 0x2ff0 <UpRobotMasterRxPacket+0xd2>
    2fc0:	89 81       	ldd	r24, Y+1	; 0x01
    2fc2:	d7 01       	movw	r26, r14
    2fc4:	14 96       	adiw	r26, 0x04	; 4
    2fc6:	8c 93       	st	X, r24
    2fc8:	2d c0       	rjmp	.+90     	; 0x3024 <UpRobotMasterRxPacket+0x106>
    2fca:	89 81       	ldd	r24, Y+1	; 0x01
    2fcc:	f7 01       	movw	r30, r14
    2fce:	83 83       	std	Z+3, r24	; 0x03
    2fd0:	29 c0       	rjmp	.+82     	; 0x3024 <UpRobotMasterRxPacket+0x106>
    2fd2:	d7 01       	movw	r26, r14
    2fd4:	14 96       	adiw	r26, 0x04	; 4
    2fd6:	3c 91       	ld	r19, X
    2fd8:	ed 2d       	mov	r30, r13
    2fda:	f0 e0       	ldi	r31, 0x00	; 0
    2fdc:	83 2f       	mov	r24, r19
    2fde:	90 e0       	ldi	r25, 0x00	; 0
    2fe0:	05 96       	adiw	r24, 0x05	; 5
    2fe2:	8e 17       	cp	r24, r30
    2fe4:	9f 07       	cpc	r25, r31
    2fe6:	34 f0       	brlt	.+12     	; 0x2ff4 <UpRobotMasterRxPacket+0xd6>
    2fe8:	ee 0d       	add	r30, r14
    2fea:	ff 1d       	adc	r31, r15
    2fec:	32 97       	sbiw	r30, 0x02	; 2
    2fee:	89 81       	ldd	r24, Y+1	; 0x01
    2ff0:	80 83       	st	Z, r24
    2ff2:	18 c0       	rjmp	.+48     	; 0x3024 <UpRobotMasterRxPacket+0x106>
    2ff4:	f7 01       	movw	r30, r14
    2ff6:	90 81       	ld	r25, Z
    2ff8:	83 81       	ldd	r24, Z+3	; 0x03
    2ffa:	98 0f       	add	r25, r24
    2ffc:	91 50       	subi	r25, 0x01	; 1
    2ffe:	93 0f       	add	r25, r19
    3000:	20 e0       	ldi	r18, 0x00	; 0
    3002:	06 c0       	rjmp	.+12     	; 0x3010 <UpRobotMasterRxPacket+0xf2>
    3004:	f7 01       	movw	r30, r14
    3006:	e2 0f       	add	r30, r18
    3008:	f1 1d       	adc	r31, r1
    300a:	85 81       	ldd	r24, Z+5	; 0x05
    300c:	98 0f       	add	r25, r24
    300e:	2f 5f       	subi	r18, 0xFF	; 255
    3010:	23 17       	cp	r18, r19
    3012:	c0 f3       	brcs	.-16     	; 0x3004 <UpRobotMasterRxPacket+0xe6>
    3014:	89 81       	ldd	r24, Y+1	; 0x01
    3016:	98 17       	cp	r25, r24
    3018:	11 f0       	breq	.+4      	; 0x301e <UpRobotMasterRxPacket+0x100>
    301a:	84 e1       	ldi	r24, 0x14	; 20
    301c:	09 c0       	rjmp	.+18     	; 0x3030 <UpRobotMasterRxPacket+0x112>
    301e:	80 e0       	ldi	r24, 0x00	; 0
    3020:	07 c0       	rjmp	.+14     	; 0x3030 <UpRobotMasterRxPacket+0x112>
    3022:	dd 24       	eor	r13, r13
    3024:	d3 94       	inc	r13
    3026:	ff e0       	ldi	r31, 0x0F	; 15
    3028:	fd 15       	cp	r31, r13
    302a:	08 f0       	brcs	.+2      	; 0x302e <UpRobotMasterRxPacket+0x110>
    302c:	98 cf       	rjmp	.-208    	; 0x2f5e <UpRobotMasterRxPacket+0x40>
    302e:	85 e0       	ldi	r24, 0x05	; 5
    3030:	0f 90       	pop	r0
    3032:	cf 91       	pop	r28
    3034:	df 91       	pop	r29
    3036:	1f 91       	pop	r17
    3038:	0f 91       	pop	r16
    303a:	ff 90       	pop	r15
    303c:	ef 90       	pop	r14
    303e:	df 90       	pop	r13
    3040:	bf 90       	pop	r11
    3042:	af 90       	pop	r10
    3044:	9f 90       	pop	r9
    3046:	8f 90       	pop	r8
    3048:	08 95       	ret

0000304a <UpRobotMasterTxPacket>:
    304a:	ef 92       	push	r14
    304c:	ff 92       	push	r15
    304e:	0f 93       	push	r16
    3050:	1f 93       	push	r17
    3052:	df 93       	push	r29
    3054:	cf 93       	push	r28
    3056:	0f 92       	push	r0
    3058:	cd b7       	in	r28, 0x3d	; 61
    305a:	de b7       	in	r29, 0x3e	; 62
    305c:	7c 01       	movw	r14, r24
    305e:	8b 01       	movw	r16, r22
    3060:	db 01       	movw	r26, r22
    3062:	59 96       	adiw	r26, 0x19	; 25
    3064:	ed 91       	ld	r30, X+
    3066:	fc 91       	ld	r31, X
    3068:	5a 97       	sbiw	r26, 0x1a	; 26
    306a:	85 e5       	ldi	r24, 0x55	; 85
    306c:	09 95       	icall
    306e:	d8 01       	movw	r26, r16
    3070:	59 96       	adiw	r26, 0x19	; 25
    3072:	ed 91       	ld	r30, X+
    3074:	fc 91       	ld	r31, X
    3076:	5a 97       	sbiw	r26, 0x1a	; 26
    3078:	8a ea       	ldi	r24, 0xAA	; 170
    307a:	09 95       	icall
    307c:	d8 01       	movw	r26, r16
    307e:	59 96       	adiw	r26, 0x19	; 25
    3080:	ed 91       	ld	r30, X+
    3082:	fc 91       	ld	r31, X
    3084:	5a 97       	sbiw	r26, 0x1a	; 26
    3086:	d7 01       	movw	r26, r14
    3088:	8c 91       	ld	r24, X
    308a:	09 95       	icall
    308c:	d8 01       	movw	r26, r16
    308e:	59 96       	adiw	r26, 0x19	; 25
    3090:	ed 91       	ld	r30, X+
    3092:	fc 91       	ld	r31, X
    3094:	5a 97       	sbiw	r26, 0x1a	; 26
    3096:	d7 01       	movw	r26, r14
    3098:	13 96       	adiw	r26, 0x03	; 3
    309a:	8c 91       	ld	r24, X
    309c:	09 95       	icall
    309e:	d8 01       	movw	r26, r16
    30a0:	59 96       	adiw	r26, 0x19	; 25
    30a2:	ed 91       	ld	r30, X+
    30a4:	fc 91       	ld	r31, X
    30a6:	5a 97       	sbiw	r26, 0x1a	; 26
    30a8:	d7 01       	movw	r26, r14
    30aa:	11 96       	adiw	r26, 0x01	; 1
    30ac:	8c 91       	ld	r24, X
    30ae:	09 95       	icall
    30b0:	d8 01       	movw	r26, r16
    30b2:	59 96       	adiw	r26, 0x19	; 25
    30b4:	ed 91       	ld	r30, X+
    30b6:	fc 91       	ld	r31, X
    30b8:	5a 97       	sbiw	r26, 0x1a	; 26
    30ba:	d7 01       	movw	r26, r14
    30bc:	12 96       	adiw	r26, 0x02	; 2
    30be:	8c 91       	ld	r24, X
    30c0:	09 95       	icall
    30c2:	90 e0       	ldi	r25, 0x00	; 0
    30c4:	0e c0       	rjmp	.+28     	; 0x30e2 <UpRobotMasterTxPacket+0x98>
    30c6:	f7 01       	movw	r30, r14
    30c8:	e9 0f       	add	r30, r25
    30ca:	f1 1d       	adc	r31, r1
    30cc:	d8 01       	movw	r26, r16
    30ce:	59 96       	adiw	r26, 0x19	; 25
    30d0:	2d 91       	ld	r18, X+
    30d2:	3c 91       	ld	r19, X
    30d4:	5a 97       	sbiw	r26, 0x1a	; 26
    30d6:	84 81       	ldd	r24, Z+4	; 0x04
    30d8:	99 83       	std	Y+1, r25	; 0x01
    30da:	f9 01       	movw	r30, r18
    30dc:	09 95       	icall
    30de:	99 81       	ldd	r25, Y+1	; 0x01
    30e0:	9f 5f       	subi	r25, 0xFF	; 255
    30e2:	f7 01       	movw	r30, r14
    30e4:	33 81       	ldd	r19, Z+3	; 0x03
    30e6:	93 17       	cp	r25, r19
    30e8:	70 f3       	brcs	.-36     	; 0x30c6 <UpRobotMasterTxPacket+0x7c>
    30ea:	90 81       	ld	r25, Z
    30ec:	81 81       	ldd	r24, Z+1	; 0x01
    30ee:	98 0f       	add	r25, r24
    30f0:	91 50       	subi	r25, 0x01	; 1
    30f2:	82 81       	ldd	r24, Z+2	; 0x02
    30f4:	98 0f       	add	r25, r24
    30f6:	93 0f       	add	r25, r19
    30f8:	20 e0       	ldi	r18, 0x00	; 0
    30fa:	06 c0       	rjmp	.+12     	; 0x3108 <UpRobotMasterTxPacket+0xbe>
    30fc:	f7 01       	movw	r30, r14
    30fe:	e2 0f       	add	r30, r18
    3100:	f1 1d       	adc	r31, r1
    3102:	84 81       	ldd	r24, Z+4	; 0x04
    3104:	98 0f       	add	r25, r24
    3106:	2f 5f       	subi	r18, 0xFF	; 255
    3108:	23 17       	cp	r18, r19
    310a:	c0 f3       	brcs	.-16     	; 0x30fc <UpRobotMasterTxPacket+0xb2>
    310c:	d8 01       	movw	r26, r16
    310e:	59 96       	adiw	r26, 0x19	; 25
    3110:	ed 91       	ld	r30, X+
    3112:	fc 91       	ld	r31, X
    3114:	5a 97       	sbiw	r26, 0x1a	; 26
    3116:	89 2f       	mov	r24, r25
    3118:	09 95       	icall
    311a:	d8 01       	movw	r26, r16
    311c:	5b 96       	adiw	r26, 0x1b	; 27
    311e:	ed 91       	ld	r30, X+
    3120:	fc 91       	ld	r31, X
    3122:	5c 97       	sbiw	r26, 0x1c	; 28
    3124:	09 95       	icall
    3126:	80 e0       	ldi	r24, 0x00	; 0
    3128:	0f 90       	pop	r0
    312a:	cf 91       	pop	r28
    312c:	df 91       	pop	r29
    312e:	1f 91       	pop	r17
    3130:	0f 91       	pop	r16
    3132:	ff 90       	pop	r15
    3134:	ef 90       	pop	r14
    3136:	08 95       	ret

00003138 <GetAdcRegValue>:
    3138:	fc 01       	movw	r30, r24
    313a:	34 99       	sbic	0x06, 4	; 6
    313c:	02 c0       	rjmp	.+4      	; 0x3142 <GetAdcRegValue+0xa>
    313e:	80 e0       	ldi	r24, 0x00	; 0
    3140:	08 95       	ret
    3142:	84 b1       	in	r24, 0x04	; 4
    3144:	45 b1       	in	r20, 0x05	; 5
    3146:	34 2f       	mov	r19, r20
    3148:	20 e0       	ldi	r18, 0x00	; 0
    314a:	90 e0       	ldi	r25, 0x00	; 0
    314c:	28 2b       	or	r18, r24
    314e:	39 2b       	or	r19, r25
    3150:	31 83       	std	Z+1, r19	; 0x01
    3152:	20 83       	st	Z, r18
    3154:	34 9a       	sbi	0x06, 4	; 6
    3156:	81 e0       	ldi	r24, 0x01	; 1
    3158:	08 95       	ret

0000315a <GetAdcValue>:
    315a:	e8 2f       	mov	r30, r24
    315c:	db 01       	movw	r26, r22
    315e:	88 30       	cpi	r24, 0x08	; 8
    3160:	90 f4       	brcc	.+36     	; 0x3186 <GetAdcValue+0x2c>
    3162:	80 91 89 06 	lds	r24, 0x0689
    3166:	90 e0       	ldi	r25, 0x00	; 0
    3168:	8f 73       	andi	r24, 0x3F	; 63
    316a:	90 70       	andi	r25, 0x00	; 0
    316c:	89 2b       	or	r24, r25
    316e:	59 f4       	brne	.+22     	; 0x3186 <GetAdcValue+0x2c>
    3170:	f0 e0       	ldi	r31, 0x00	; 0
    3172:	ee 0f       	add	r30, r30
    3174:	ff 1f       	adc	r31, r31
    3176:	ed 56       	subi	r30, 0x6D	; 109
    3178:	f9 4f       	sbci	r31, 0xF9	; 249
    317a:	80 81       	ld	r24, Z
    317c:	91 81       	ldd	r25, Z+1	; 0x01
    317e:	8d 93       	st	X+, r24
    3180:	9c 93       	st	X, r25
    3182:	81 e0       	ldi	r24, 0x01	; 1
    3184:	08 95       	ret
    3186:	80 e0       	ldi	r24, 0x00	; 0
    3188:	08 95       	ret

0000318a <StartAdc>:
    318a:	e9 e8       	ldi	r30, 0x89	; 137
    318c:	f6 e0       	ldi	r31, 0x06	; 6
    318e:	e8 0f       	add	r30, r24
    3190:	f1 1d       	adc	r31, r1
    3192:	82 81       	ldd	r24, Z+2	; 0x02
    3194:	8f 71       	andi	r24, 0x1F	; 31
    3196:	87 b9       	out	0x07, r24	; 7
    3198:	36 9a       	sbi	0x06, 6	; 6
    319a:	08 95       	ret

0000319c <IsrAdcSampling>:
    319c:	1f 93       	push	r17
    319e:	80 91 8a 06 	lds	r24, 0x068A
    31a2:	18 2f       	mov	r17, r24
    31a4:	1f 5f       	subi	r17, 0xFF	; 255
    31a6:	90 e0       	ldi	r25, 0x00	; 0
    31a8:	88 0f       	add	r24, r24
    31aa:	99 1f       	adc	r25, r25
    31ac:	e0 91 a7 06 	lds	r30, 0x06A7
    31b0:	f0 91 a8 06 	lds	r31, 0x06A8
    31b4:	8d 56       	subi	r24, 0x6D	; 109
    31b6:	99 4f       	sbci	r25, 0xF9	; 249
    31b8:	09 95       	icall
    31ba:	88 23       	and	r24, r24
    31bc:	31 f4       	brne	.+12     	; 0x31ca <IsrAdcSampling+0x2e>
    31be:	80 91 89 06 	lds	r24, 0x0689
    31c2:	80 7c       	andi	r24, 0xC0	; 192
    31c4:	89 60       	ori	r24, 0x09	; 9
    31c6:	80 93 89 06 	sts	0x0689, r24
    31ca:	18 30       	cpi	r17, 0x08	; 8
    31cc:	08 f0       	brcs	.+2      	; 0x31d0 <IsrAdcSampling+0x34>
    31ce:	10 e0       	ldi	r17, 0x00	; 0
    31d0:	e0 91 a5 06 	lds	r30, 0x06A5
    31d4:	f0 91 a6 06 	lds	r31, 0x06A6
    31d8:	81 2f       	mov	r24, r17
    31da:	09 95       	icall
    31dc:	10 93 8a 06 	sts	0x068A, r17
    31e0:	1f 91       	pop	r17
    31e2:	08 95       	ret

000031e4 <InitAdc>:
    31e4:	10 92 61 00 	sts	0x0061, r1
    31e8:	10 92 62 00 	sts	0x0062, r1
    31ec:	17 b8       	out	0x07, r1	; 7
    31ee:	87 e8       	ldi	r24, 0x87	; 135
    31f0:	86 b9       	out	0x06, r24	; 6
    31f2:	36 9a       	sbi	0x06, 6	; 6
    31f4:	87 e0       	ldi	r24, 0x07	; 7
    31f6:	80 93 8b 06 	sts	0x068B, r24
    31fa:	10 92 8c 06 	sts	0x068C, r1
    31fe:	81 e0       	ldi	r24, 0x01	; 1
    3200:	80 93 8d 06 	sts	0x068D, r24
    3204:	82 e0       	ldi	r24, 0x02	; 2
    3206:	80 93 8e 06 	sts	0x068E, r24
    320a:	83 e0       	ldi	r24, 0x03	; 3
    320c:	80 93 8f 06 	sts	0x068F, r24
    3210:	84 e0       	ldi	r24, 0x04	; 4
    3212:	80 93 90 06 	sts	0x0690, r24
    3216:	85 e0       	ldi	r24, 0x05	; 5
    3218:	80 93 91 06 	sts	0x0691, r24
    321c:	86 e0       	ldi	r24, 0x06	; 6
    321e:	80 93 92 06 	sts	0x0692, r24
    3222:	85 ec       	ldi	r24, 0xC5	; 197
    3224:	98 e1       	ldi	r25, 0x18	; 24
    3226:	90 93 a6 06 	sts	0x06A6, r25
    322a:	80 93 a5 06 	sts	0x06A5, r24
    322e:	8c e9       	ldi	r24, 0x9C	; 156
    3230:	98 e1       	ldi	r25, 0x18	; 24
    3232:	90 93 a8 06 	sts	0x06A8, r25
    3236:	80 93 a7 06 	sts	0x06A7, r24
    323a:	8d ea       	ldi	r24, 0xAD	; 173
    323c:	98 e1       	ldi	r25, 0x18	; 24
    323e:	90 93 aa 06 	sts	0x06AA, r25
    3242:	80 93 a9 06 	sts	0x06A9, r24
    3246:	10 92 8a 06 	sts	0x068A, r1
    324a:	80 e8       	ldi	r24, 0x80	; 128
    324c:	80 93 89 06 	sts	0x0689, r24
    3250:	08 95       	ret

00003252 <SetExtIntMode>:
    3252:	70 e0       	ldi	r23, 0x00	; 0
    3254:	84 30       	cpi	r24, 0x04	; 4
    3256:	c0 f0       	brcs	.+48     	; 0x3288 <SetExtIntMode+0x36>
    3258:	4a b7       	in	r20, 0x3a	; 58
    325a:	84 50       	subi	r24, 0x04	; 4
    325c:	28 2f       	mov	r18, r24
    325e:	30 e0       	ldi	r19, 0x00	; 0
    3260:	22 0f       	add	r18, r18
    3262:	33 1f       	adc	r19, r19
    3264:	83 e0       	ldi	r24, 0x03	; 3
    3266:	90 e0       	ldi	r25, 0x00	; 0
    3268:	02 2e       	mov	r0, r18
    326a:	02 c0       	rjmp	.+4      	; 0x3270 <SetExtIntMode+0x1e>
    326c:	88 0f       	add	r24, r24
    326e:	99 1f       	adc	r25, r25
    3270:	0a 94       	dec	r0
    3272:	e2 f7       	brpl	.-8      	; 0x326c <SetExtIntMode+0x1a>
    3274:	80 95       	com	r24
    3276:	84 23       	and	r24, r20
    3278:	02 c0       	rjmp	.+4      	; 0x327e <SetExtIntMode+0x2c>
    327a:	66 0f       	add	r22, r22
    327c:	77 1f       	adc	r23, r23
    327e:	2a 95       	dec	r18
    3280:	e2 f7       	brpl	.-8      	; 0x327a <SetExtIntMode+0x28>
    3282:	86 2b       	or	r24, r22
    3284:	8a bf       	out	0x3a, r24	; 58
    3286:	08 95       	ret
    3288:	40 91 6a 00 	lds	r20, 0x006A
    328c:	28 2f       	mov	r18, r24
    328e:	30 e0       	ldi	r19, 0x00	; 0
    3290:	22 0f       	add	r18, r18
    3292:	33 1f       	adc	r19, r19
    3294:	83 e0       	ldi	r24, 0x03	; 3
    3296:	90 e0       	ldi	r25, 0x00	; 0
    3298:	02 2e       	mov	r0, r18
    329a:	02 c0       	rjmp	.+4      	; 0x32a0 <SetExtIntMode+0x4e>
    329c:	88 0f       	add	r24, r24
    329e:	99 1f       	adc	r25, r25
    32a0:	0a 94       	dec	r0
    32a2:	e2 f7       	brpl	.-8      	; 0x329c <SetExtIntMode+0x4a>
    32a4:	80 95       	com	r24
    32a6:	84 23       	and	r24, r20
    32a8:	02 c0       	rjmp	.+4      	; 0x32ae <SetExtIntMode+0x5c>
    32aa:	66 0f       	add	r22, r22
    32ac:	77 1f       	adc	r23, r23
    32ae:	2a 95       	dec	r18
    32b0:	e2 f7       	brpl	.-8      	; 0x32aa <SetExtIntMode+0x58>
    32b2:	86 2b       	or	r24, r22
    32b4:	80 93 6a 00 	sts	0x006A, r24
    32b8:	08 95       	ret

000032ba <EnableExtIntInterrupt>:
    32ba:	99 b7       	in	r25, 0x39	; 57
    32bc:	21 e0       	ldi	r18, 0x01	; 1
    32be:	30 e0       	ldi	r19, 0x00	; 0
    32c0:	02 c0       	rjmp	.+4      	; 0x32c6 <EnableExtIntInterrupt+0xc>
    32c2:	22 0f       	add	r18, r18
    32c4:	33 1f       	adc	r19, r19
    32c6:	8a 95       	dec	r24
    32c8:	e2 f7       	brpl	.-8      	; 0x32c2 <EnableExtIntInterrupt+0x8>
    32ca:	92 2b       	or	r25, r18
    32cc:	99 bf       	out	0x39, r25	; 57
    32ce:	08 95       	ret

000032d0 <DisableExtIntInterrupt>:
    32d0:	99 b7       	in	r25, 0x39	; 57
    32d2:	21 e0       	ldi	r18, 0x01	; 1
    32d4:	30 e0       	ldi	r19, 0x00	; 0
    32d6:	02 c0       	rjmp	.+4      	; 0x32dc <DisableExtIntInterrupt+0xc>
    32d8:	22 0f       	add	r18, r18
    32da:	33 1f       	adc	r19, r19
    32dc:	8a 95       	dec	r24
    32de:	e2 f7       	brpl	.-8      	; 0x32d8 <DisableExtIntInterrupt+0x8>
    32e0:	20 95       	com	r18
    32e2:	29 23       	and	r18, r25
    32e4:	29 bf       	out	0x39, r18	; 57
    32e6:	08 95       	ret

000032e8 <InitExtInt>:
    32e8:	10 92 ab 06 	sts	0x06AB, r1
    32ec:	88 98       	cbi	0x11, 0	; 17
    32ee:	90 98       	cbi	0x12, 0	; 18
    32f0:	80 e0       	ldi	r24, 0x00	; 0
    32f2:	63 e0       	ldi	r22, 0x03	; 3
    32f4:	0e 94 29 19 	call	0x3252	; 0x3252 <SetExtIntMode>
    32f8:	89 b7       	in	r24, 0x39	; 57
    32fa:	81 60       	ori	r24, 0x01	; 1
    32fc:	89 bf       	out	0x39, r24	; 57
    32fe:	89 e2       	ldi	r24, 0x29	; 41
    3300:	99 e1       	ldi	r25, 0x19	; 25
    3302:	90 93 af 06 	sts	0x06AF, r25
    3306:	80 93 ae 06 	sts	0x06AE, r24
    330a:	8d e5       	ldi	r24, 0x5D	; 93
    330c:	99 e1       	ldi	r25, 0x19	; 25
    330e:	90 93 b1 06 	sts	0x06B1, r25
    3312:	80 93 b0 06 	sts	0x06B0, r24
    3316:	88 e6       	ldi	r24, 0x68	; 104
    3318:	99 e1       	ldi	r25, 0x19	; 25
    331a:	90 93 b3 06 	sts	0x06B3, r25
    331e:	80 93 b2 06 	sts	0x06B2, r24
    3322:	80 91 ab 06 	lds	r24, 0x06AB
    3326:	80 68       	ori	r24, 0x80	; 128
    3328:	80 93 ab 06 	sts	0x06AB, r24
    332c:	08 95       	ret

0000332e <SetGpioDdr>:
    332e:	cf 92       	push	r12
    3330:	df 92       	push	r13
    3332:	ef 92       	push	r14
    3334:	ff 92       	push	r15
    3336:	0f 93       	push	r16
    3338:	1f 93       	push	r17
    333a:	cf 93       	push	r28
    333c:	df 93       	push	r29
    333e:	8c 01       	movw	r16, r24
    3340:	c5 ee       	ldi	r28, 0xE5	; 229
    3342:	d6 e0       	ldi	r29, 0x06	; 6
    3344:	de 01       	movw	r26, r28
    3346:	58 96       	adiw	r26, 0x18	; 24
    3348:	be 01       	movw	r22, r28
    334a:	60 53       	subi	r22, 0x30	; 48
    334c:	70 40       	sbci	r23, 0x00	; 0
    334e:	40 e0       	ldi	r20, 0x00	; 0
    3350:	50 e0       	ldi	r21, 0x00	; 0
    3352:	81 e0       	ldi	r24, 0x01	; 1
    3354:	e8 2e       	mov	r14, r24
    3356:	f1 2c       	mov	r15, r1
    3358:	c7 01       	movw	r24, r14
    335a:	04 2e       	mov	r0, r20
    335c:	02 c0       	rjmp	.+4      	; 0x3362 <SetGpioDdr+0x34>
    335e:	88 0f       	add	r24, r24
    3360:	99 1f       	adc	r25, r25
    3362:	0a 94       	dec	r0
    3364:	e2 f7       	brpl	.-8      	; 0x335e <SetGpioDdr+0x30>
    3366:	80 23       	and	r24, r16
    3368:	91 23       	and	r25, r17
    336a:	e8 81       	ld	r30, Y
    336c:	f9 81       	ldd	r31, Y+1	; 0x01
    336e:	3c 91       	ld	r19, X
    3370:	89 2b       	or	r24, r25
    3372:	c9 f0       	breq	.+50     	; 0x33a6 <SetGpioDdr+0x78>
    3374:	20 81       	ld	r18, Z
    3376:	c7 01       	movw	r24, r14
    3378:	02 c0       	rjmp	.+4      	; 0x337e <SetGpioDdr+0x50>
    337a:	88 0f       	add	r24, r24
    337c:	99 1f       	adc	r25, r25
    337e:	3a 95       	dec	r19
    3380:	e2 f7       	brpl	.-8      	; 0x337a <SetGpioDdr+0x4c>
    3382:	28 2b       	or	r18, r24
    3384:	20 83       	st	Z, r18
    3386:	fb 01       	movw	r30, r22
    3388:	c0 80       	ld	r12, Z
    338a:	d1 80       	ldd	r13, Z+1	; 0x01
    338c:	f6 01       	movw	r30, r12
    338e:	20 81       	ld	r18, Z
    3390:	c7 01       	movw	r24, r14
    3392:	0c 90       	ld	r0, X
    3394:	02 c0       	rjmp	.+4      	; 0x339a <SetGpioDdr+0x6c>
    3396:	88 0f       	add	r24, r24
    3398:	99 1f       	adc	r25, r25
    339a:	0a 94       	dec	r0
    339c:	e2 f7       	brpl	.-8      	; 0x3396 <SetGpioDdr+0x68>
    339e:	80 95       	com	r24
    33a0:	82 23       	and	r24, r18
    33a2:	80 83       	st	Z, r24
    33a4:	18 c0       	rjmp	.+48     	; 0x33d6 <SetGpioDdr+0xa8>
    33a6:	20 81       	ld	r18, Z
    33a8:	c7 01       	movw	r24, r14
    33aa:	02 c0       	rjmp	.+4      	; 0x33b0 <SetGpioDdr+0x82>
    33ac:	88 0f       	add	r24, r24
    33ae:	99 1f       	adc	r25, r25
    33b0:	3a 95       	dec	r19
    33b2:	e2 f7       	brpl	.-8      	; 0x33ac <SetGpioDdr+0x7e>
    33b4:	80 95       	com	r24
    33b6:	82 23       	and	r24, r18
    33b8:	80 83       	st	Z, r24
    33ba:	fb 01       	movw	r30, r22
    33bc:	c0 80       	ld	r12, Z
    33be:	d1 80       	ldd	r13, Z+1	; 0x01
    33c0:	f6 01       	movw	r30, r12
    33c2:	20 81       	ld	r18, Z
    33c4:	c7 01       	movw	r24, r14
    33c6:	0c 90       	ld	r0, X
    33c8:	02 c0       	rjmp	.+4      	; 0x33ce <SetGpioDdr+0xa0>
    33ca:	88 0f       	add	r24, r24
    33cc:	99 1f       	adc	r25, r25
    33ce:	0a 94       	dec	r0
    33d0:	e2 f7       	brpl	.-8      	; 0x33ca <SetGpioDdr+0x9c>
    33d2:	28 2b       	or	r18, r24
    33d4:	20 83       	st	Z, r18
    33d6:	4f 5f       	subi	r20, 0xFF	; 255
    33d8:	5f 4f       	sbci	r21, 0xFF	; 255
    33da:	22 96       	adiw	r28, 0x02	; 2
    33dc:	11 96       	adiw	r26, 0x01	; 1
    33de:	6e 5f       	subi	r22, 0xFE	; 254
    33e0:	7f 4f       	sbci	r23, 0xFF	; 255
    33e2:	4c 30       	cpi	r20, 0x0C	; 12
    33e4:	51 05       	cpc	r21, r1
    33e6:	09 f0       	breq	.+2      	; 0x33ea <SetGpioDdr+0xbc>
    33e8:	b7 cf       	rjmp	.-146    	; 0x3358 <SetGpioDdr+0x2a>
    33ea:	1f 70       	andi	r17, 0x0F	; 15
    33ec:	10 93 3b 07 	sts	0x073B, r17
    33f0:	00 93 3a 07 	sts	0x073A, r16
    33f4:	df 91       	pop	r29
    33f6:	cf 91       	pop	r28
    33f8:	1f 91       	pop	r17
    33fa:	0f 91       	pop	r16
    33fc:	ff 90       	pop	r15
    33fe:	ef 90       	pop	r14
    3400:	df 90       	pop	r13
    3402:	cf 90       	pop	r12
    3404:	08 95       	ret

00003406 <SetGpioPort>:
    3406:	0f 93       	push	r16
    3408:	1f 93       	push	r17
    340a:	cf 93       	push	r28
    340c:	df 93       	push	r29
    340e:	8c 01       	movw	r16, r24
    3410:	c5 eb       	ldi	r28, 0xB5	; 181
    3412:	d6 e0       	ldi	r29, 0x06	; 6
    3414:	ad ef       	ldi	r26, 0xFD	; 253
    3416:	b6 e0       	ldi	r27, 0x06	; 6
    3418:	40 e0       	ldi	r20, 0x00	; 0
    341a:	50 e0       	ldi	r21, 0x00	; 0
    341c:	61 e0       	ldi	r22, 0x01	; 1
    341e:	70 e0       	ldi	r23, 0x00	; 0
    3420:	cb 01       	movw	r24, r22
    3422:	04 2e       	mov	r0, r20
    3424:	02 c0       	rjmp	.+4      	; 0x342a <SetGpioPort+0x24>
    3426:	88 0f       	add	r24, r24
    3428:	99 1f       	adc	r25, r25
    342a:	0a 94       	dec	r0
    342c:	e2 f7       	brpl	.-8      	; 0x3426 <SetGpioPort+0x20>
    342e:	80 23       	and	r24, r16
    3430:	91 23       	and	r25, r17
    3432:	e8 81       	ld	r30, Y
    3434:	f9 81       	ldd	r31, Y+1	; 0x01
    3436:	3c 91       	ld	r19, X
    3438:	89 2b       	or	r24, r25
    343a:	51 f0       	breq	.+20     	; 0x3450 <SetGpioPort+0x4a>
    343c:	20 81       	ld	r18, Z
    343e:	cb 01       	movw	r24, r22
    3440:	02 c0       	rjmp	.+4      	; 0x3446 <SetGpioPort+0x40>
    3442:	88 0f       	add	r24, r24
    3444:	99 1f       	adc	r25, r25
    3446:	3a 95       	dec	r19
    3448:	e2 f7       	brpl	.-8      	; 0x3442 <SetGpioPort+0x3c>
    344a:	28 2b       	or	r18, r24
    344c:	20 83       	st	Z, r18
    344e:	0a c0       	rjmp	.+20     	; 0x3464 <SetGpioPort+0x5e>
    3450:	20 81       	ld	r18, Z
    3452:	cb 01       	movw	r24, r22
    3454:	02 c0       	rjmp	.+4      	; 0x345a <SetGpioPort+0x54>
    3456:	88 0f       	add	r24, r24
    3458:	99 1f       	adc	r25, r25
    345a:	3a 95       	dec	r19
    345c:	e2 f7       	brpl	.-8      	; 0x3456 <SetGpioPort+0x50>
    345e:	80 95       	com	r24
    3460:	82 23       	and	r24, r18
    3462:	80 83       	st	Z, r24
    3464:	4f 5f       	subi	r20, 0xFF	; 255
    3466:	5f 4f       	sbci	r21, 0xFF	; 255
    3468:	22 96       	adiw	r28, 0x02	; 2
    346a:	11 96       	adiw	r26, 0x01	; 1
    346c:	4c 30       	cpi	r20, 0x0C	; 12
    346e:	51 05       	cpc	r21, r1
    3470:	b9 f6       	brne	.-82     	; 0x3420 <SetGpioPort+0x1a>
    3472:	df 91       	pop	r29
    3474:	cf 91       	pop	r28
    3476:	1f 91       	pop	r17
    3478:	0f 91       	pop	r16
    347a:	08 95       	ret

0000347c <SetOutputPort>:
    347c:	20 91 3a 07 	lds	r18, 0x073A
    3480:	30 91 3b 07 	lds	r19, 0x073B
    3484:	82 23       	and	r24, r18
    3486:	93 23       	and	r25, r19
    3488:	0e 94 03 1a 	call	0x3406	; 0x3406 <SetGpioPort>
    348c:	08 95       	ret

0000348e <SetOutputBit>:
    348e:	8c 30       	cpi	r24, 0x0C	; 12
    3490:	f0 f5       	brcc	.+124    	; 0x350e <SetOutputBit+0x80>
    3492:	a8 2f       	mov	r26, r24
    3494:	b0 e0       	ldi	r27, 0x00	; 0
    3496:	41 e0       	ldi	r20, 0x01	; 1
    3498:	50 e0       	ldi	r21, 0x00	; 0
    349a:	ca 01       	movw	r24, r20
    349c:	0a 2e       	mov	r0, r26
    349e:	02 c0       	rjmp	.+4      	; 0x34a4 <SetOutputBit+0x16>
    34a0:	88 0f       	add	r24, r24
    34a2:	99 1f       	adc	r25, r25
    34a4:	0a 94       	dec	r0
    34a6:	e2 f7       	brpl	.-8      	; 0x34a0 <SetOutputBit+0x12>
    34a8:	20 91 3a 07 	lds	r18, 0x073A
    34ac:	30 91 3b 07 	lds	r19, 0x073B
    34b0:	82 23       	and	r24, r18
    34b2:	93 23       	and	r25, r19
    34b4:	89 2b       	or	r24, r25
    34b6:	59 f1       	breq	.+86     	; 0x350e <SetOutputBit+0x80>
    34b8:	fd 01       	movw	r30, r26
    34ba:	ee 0f       	add	r30, r30
    34bc:	ff 1f       	adc	r31, r31
    34be:	ac 54       	subi	r26, 0x4C	; 76
    34c0:	b9 4f       	sbci	r27, 0xF9	; 249
    34c2:	66 23       	and	r22, r22
    34c4:	81 f0       	breq	.+32     	; 0x34e6 <SetOutputBit+0x58>
    34c6:	ec 54       	subi	r30, 0x4C	; 76
    34c8:	f9 4f       	sbci	r31, 0xF9	; 249
    34ca:	01 80       	ldd	r0, Z+1	; 0x01
    34cc:	f2 81       	ldd	r31, Z+2	; 0x02
    34ce:	e0 2d       	mov	r30, r0
    34d0:	80 81       	ld	r24, Z
    34d2:	a7 5b       	subi	r26, 0xB7	; 183
    34d4:	bf 4f       	sbci	r27, 0xFF	; 255
    34d6:	0c 90       	ld	r0, X
    34d8:	02 c0       	rjmp	.+4      	; 0x34de <SetOutputBit+0x50>
    34da:	44 0f       	add	r20, r20
    34dc:	55 1f       	adc	r21, r21
    34de:	0a 94       	dec	r0
    34e0:	e2 f7       	brpl	.-8      	; 0x34da <SetOutputBit+0x4c>
    34e2:	84 2b       	or	r24, r20
    34e4:	11 c0       	rjmp	.+34     	; 0x3508 <SetOutputBit+0x7a>
    34e6:	ec 54       	subi	r30, 0x4C	; 76
    34e8:	f9 4f       	sbci	r31, 0xF9	; 249
    34ea:	01 80       	ldd	r0, Z+1	; 0x01
    34ec:	f2 81       	ldd	r31, Z+2	; 0x02
    34ee:	e0 2d       	mov	r30, r0
    34f0:	90 81       	ld	r25, Z
    34f2:	a7 5b       	subi	r26, 0xB7	; 183
    34f4:	bf 4f       	sbci	r27, 0xFF	; 255
    34f6:	0c 90       	ld	r0, X
    34f8:	02 c0       	rjmp	.+4      	; 0x34fe <SetOutputBit+0x70>
    34fa:	44 0f       	add	r20, r20
    34fc:	55 1f       	adc	r21, r21
    34fe:	0a 94       	dec	r0
    3500:	e2 f7       	brpl	.-8      	; 0x34fa <SetOutputBit+0x6c>
    3502:	84 2f       	mov	r24, r20
    3504:	80 95       	com	r24
    3506:	89 23       	and	r24, r25
    3508:	80 83       	st	Z, r24
    350a:	81 e0       	ldi	r24, 0x01	; 1
    350c:	08 95       	ret
    350e:	80 e0       	ldi	r24, 0x00	; 0
    3510:	08 95       	ret

00003512 <GetGpioPort>:
    3512:	0f 93       	push	r16
    3514:	1f 93       	push	r17
    3516:	cf 93       	push	r28
    3518:	df 93       	push	r29
    351a:	ec 01       	movw	r28, r24
    351c:	ad ec       	ldi	r26, 0xCD	; 205
    351e:	b6 e0       	ldi	r27, 0x06	; 6
    3520:	40 e0       	ldi	r20, 0x00	; 0
    3522:	50 e0       	ldi	r21, 0x00	; 0
    3524:	20 e0       	ldi	r18, 0x00	; 0
    3526:	30 e0       	ldi	r19, 0x00	; 0
    3528:	01 e0       	ldi	r16, 0x01	; 1
    352a:	10 e0       	ldi	r17, 0x00	; 0
    352c:	ed 91       	ld	r30, X+
    352e:	fc 91       	ld	r31, X
    3530:	11 97       	sbiw	r26, 0x01	; 1
    3532:	80 81       	ld	r24, Z
    3534:	90 e0       	ldi	r25, 0x00	; 0
    3536:	f9 01       	movw	r30, r18
    3538:	e3 50       	subi	r30, 0x03	; 3
    353a:	f9 4f       	sbci	r31, 0xF9	; 249
    353c:	00 80       	ld	r0, Z
    353e:	02 c0       	rjmp	.+4      	; 0x3544 <GetGpioPort+0x32>
    3540:	95 95       	asr	r25
    3542:	87 95       	ror	r24
    3544:	0a 94       	dec	r0
    3546:	e2 f7       	brpl	.-8      	; 0x3540 <GetGpioPort+0x2e>
    3548:	80 ff       	sbrs	r24, 0
    354a:	0a c0       	rjmp	.+20     	; 0x3560 <GetGpioPort+0x4e>
    354c:	c8 01       	movw	r24, r16
    354e:	02 2e       	mov	r0, r18
    3550:	02 c0       	rjmp	.+4      	; 0x3556 <GetGpioPort+0x44>
    3552:	88 0f       	add	r24, r24
    3554:	99 1f       	adc	r25, r25
    3556:	0a 94       	dec	r0
    3558:	e2 f7       	brpl	.-8      	; 0x3552 <GetGpioPort+0x40>
    355a:	48 2b       	or	r20, r24
    355c:	59 2b       	or	r21, r25
    355e:	0b c0       	rjmp	.+22     	; 0x3576 <GetGpioPort+0x64>
    3560:	c8 01       	movw	r24, r16
    3562:	02 2e       	mov	r0, r18
    3564:	02 c0       	rjmp	.+4      	; 0x356a <GetGpioPort+0x58>
    3566:	88 0f       	add	r24, r24
    3568:	99 1f       	adc	r25, r25
    356a:	0a 94       	dec	r0
    356c:	e2 f7       	brpl	.-8      	; 0x3566 <GetGpioPort+0x54>
    356e:	80 95       	com	r24
    3570:	90 95       	com	r25
    3572:	48 23       	and	r20, r24
    3574:	59 23       	and	r21, r25
    3576:	2f 5f       	subi	r18, 0xFF	; 255
    3578:	3f 4f       	sbci	r19, 0xFF	; 255
    357a:	12 96       	adiw	r26, 0x02	; 2
    357c:	2c 30       	cpi	r18, 0x0C	; 12
    357e:	31 05       	cpc	r19, r1
    3580:	a9 f6       	brne	.-86     	; 0x352c <GetGpioPort+0x1a>
    3582:	59 83       	std	Y+1, r21	; 0x01
    3584:	48 83       	st	Y, r20
    3586:	df 91       	pop	r29
    3588:	cf 91       	pop	r28
    358a:	1f 91       	pop	r17
    358c:	0f 91       	pop	r16
    358e:	08 95       	ret

00003590 <GetInputPort>:
    3590:	0f 93       	push	r16
    3592:	1f 93       	push	r17
    3594:	df 93       	push	r29
    3596:	cf 93       	push	r28
    3598:	00 d0       	rcall	.+0      	; 0x359a <GetInputPort+0xa>
    359a:	cd b7       	in	r28, 0x3d	; 61
    359c:	de b7       	in	r29, 0x3e	; 62
    359e:	8c 01       	movw	r16, r24
    35a0:	1a 82       	std	Y+2, r1	; 0x02
    35a2:	19 82       	std	Y+1, r1	; 0x01
    35a4:	ce 01       	movw	r24, r28
    35a6:	01 96       	adiw	r24, 0x01	; 1
    35a8:	0e 94 89 1a 	call	0x3512	; 0x3512 <GetGpioPort>
    35ac:	80 91 3a 07 	lds	r24, 0x073A
    35b0:	90 91 3b 07 	lds	r25, 0x073B
    35b4:	80 95       	com	r24
    35b6:	90 95       	com	r25
    35b8:	29 81       	ldd	r18, Y+1	; 0x01
    35ba:	3a 81       	ldd	r19, Y+2	; 0x02
    35bc:	82 23       	and	r24, r18
    35be:	93 23       	and	r25, r19
    35c0:	f8 01       	movw	r30, r16
    35c2:	91 83       	std	Z+1, r25	; 0x01
    35c4:	80 83       	st	Z, r24
    35c6:	0f 90       	pop	r0
    35c8:	0f 90       	pop	r0
    35ca:	cf 91       	pop	r28
    35cc:	df 91       	pop	r29
    35ce:	1f 91       	pop	r17
    35d0:	0f 91       	pop	r16
    35d2:	08 95       	ret

000035d4 <GetInputBit>:
    35d4:	cf 93       	push	r28
    35d6:	df 93       	push	r29
    35d8:	eb 01       	movw	r28, r22
    35da:	8c 30       	cpi	r24, 0x0C	; 12
    35dc:	78 f5       	brcc	.+94     	; 0x363c <GetInputBit+0x68>
    35de:	a8 2f       	mov	r26, r24
    35e0:	b0 e0       	ldi	r27, 0x00	; 0
    35e2:	41 e0       	ldi	r20, 0x01	; 1
    35e4:	50 e0       	ldi	r21, 0x00	; 0
    35e6:	ca 01       	movw	r24, r20
    35e8:	0a 2e       	mov	r0, r26
    35ea:	02 c0       	rjmp	.+4      	; 0x35f0 <GetInputBit+0x1c>
    35ec:	88 0f       	add	r24, r24
    35ee:	99 1f       	adc	r25, r25
    35f0:	0a 94       	dec	r0
    35f2:	e2 f7       	brpl	.-8      	; 0x35ec <GetInputBit+0x18>
    35f4:	20 91 3a 07 	lds	r18, 0x073A
    35f8:	30 91 3b 07 	lds	r19, 0x073B
    35fc:	82 23       	and	r24, r18
    35fe:	93 23       	and	r25, r19
    3600:	89 2b       	or	r24, r25
    3602:	e1 f4       	brne	.+56     	; 0x363c <GetInputBit+0x68>
    3604:	fd 01       	movw	r30, r26
    3606:	ee 0f       	add	r30, r30
    3608:	ff 1f       	adc	r31, r31
    360a:	ec 54       	subi	r30, 0x4C	; 76
    360c:	f9 4f       	sbci	r31, 0xF9	; 249
    360e:	01 8c       	ldd	r0, Z+25	; 0x19
    3610:	f2 8d       	ldd	r31, Z+26	; 0x1a
    3612:	e0 2d       	mov	r30, r0
    3614:	80 81       	ld	r24, Z
    3616:	a3 50       	subi	r26, 0x03	; 3
    3618:	b9 4f       	sbci	r27, 0xF9	; 249
    361a:	2c 91       	ld	r18, X
    361c:	02 2e       	mov	r0, r18
    361e:	02 c0       	rjmp	.+4      	; 0x3624 <GetInputBit+0x50>
    3620:	44 0f       	add	r20, r20
    3622:	55 1f       	adc	r21, r21
    3624:	0a 94       	dec	r0
    3626:	e2 f7       	brpl	.-8      	; 0x3620 <GetInputBit+0x4c>
    3628:	84 23       	and	r24, r20
    362a:	90 e0       	ldi	r25, 0x00	; 0
    362c:	02 c0       	rjmp	.+4      	; 0x3632 <GetInputBit+0x5e>
    362e:	95 95       	asr	r25
    3630:	87 95       	ror	r24
    3632:	2a 95       	dec	r18
    3634:	e2 f7       	brpl	.-8      	; 0x362e <GetInputBit+0x5a>
    3636:	88 83       	st	Y, r24
    3638:	81 e0       	ldi	r24, 0x01	; 1
    363a:	01 c0       	rjmp	.+2      	; 0x363e <GetInputBit+0x6a>
    363c:	80 e0       	ldi	r24, 0x00	; 0
    363e:	df 91       	pop	r29
    3640:	cf 91       	pop	r28
    3642:	08 95       	ret

00003644 <IsrGpioSampling>:
    3644:	80 91 21 07 	lds	r24, 0x0721
    3648:	8f 5f       	subi	r24, 0xFF	; 255
    364a:	80 93 21 07 	sts	0x0721, r24
    364e:	88 30       	cpi	r24, 0x08	; 8
    3650:	10 f0       	brcs	.+4      	; 0x3656 <IsrGpioSampling+0x12>
    3652:	10 92 21 07 	sts	0x0721, r1
    3656:	e0 91 21 07 	lds	r30, 0x0721
    365a:	f0 e0       	ldi	r31, 0x00	; 0
    365c:	86 b3       	in	r24, 0x16	; 22
    365e:	ec 54       	subi	r30, 0x4C	; 76
    3660:	f9 4f       	sbci	r31, 0xF9	; 249
    3662:	eb 5a       	subi	r30, 0xAB	; 171
    3664:	ff 4f       	sbci	r31, 0xFF	; 255
    3666:	80 83       	st	Z, r24
    3668:	80 b3       	in	r24, 0x10	; 16
    366a:	38 96       	adiw	r30, 0x08	; 8
    366c:	80 83       	st	Z, r24
    366e:	81 b1       	in	r24, 0x01	; 1
    3670:	38 96       	adiw	r30, 0x08	; 8
    3672:	80 83       	st	Z, r24
    3674:	08 95       	ret

00003676 <GetInputFilte>:
    3676:	af 92       	push	r10
    3678:	bf 92       	push	r11
    367a:	cf 92       	push	r12
    367c:	df 92       	push	r13
    367e:	ef 92       	push	r14
    3680:	ff 92       	push	r15
    3682:	0f 93       	push	r16
    3684:	1f 93       	push	r17
    3686:	df 93       	push	r29
    3688:	cf 93       	push	r28
    368a:	cd b7       	in	r28, 0x3d	; 61
    368c:	de b7       	in	r29, 0x3e	; 62
    368e:	2c 97       	sbiw	r28, 0x0c	; 12
    3690:	0f b6       	in	r0, 0x3f	; 63
    3692:	f8 94       	cli
    3694:	de bf       	out	0x3e, r29	; 62
    3696:	0f be       	out	0x3f, r0	; 63
    3698:	cd bf       	out	0x3d, r28	; 61
    369a:	6c 01       	movw	r12, r24
    369c:	fe 01       	movw	r30, r28
    369e:	31 96       	adiw	r30, 0x01	; 1
    36a0:	8c e0       	ldi	r24, 0x0C	; 12
    36a2:	df 01       	movw	r26, r30
    36a4:	1d 92       	st	X+, r1
    36a6:	8a 95       	dec	r24
    36a8:	e9 f7       	brne	.-6      	; 0x36a4 <GetInputFilte+0x2e>
    36aa:	60 91 21 07 	lds	r22, 0x0721
    36ae:	06 2f       	mov	r16, r22
    36b0:	10 e0       	ldi	r17, 0x00	; 0
    36b2:	09 5f       	subi	r16, 0xF9	; 249
    36b4:	1f 4f       	sbci	r17, 0xFF	; 255
    36b6:	5f 01       	movw	r10, r30
    36b8:	2c c0       	rjmp	.+88     	; 0x3712 <GetInputFilte+0x9c>
    36ba:	68 30       	cpi	r22, 0x08	; 8
    36bc:	10 f4       	brcc	.+4      	; 0x36c2 <GetInputFilte+0x4c>
    36be:	76 2f       	mov	r23, r22
    36c0:	02 c0       	rjmp	.+4      	; 0x36c6 <GetInputFilte+0x50>
    36c2:	76 2f       	mov	r23, r22
    36c4:	78 50       	subi	r23, 0x08	; 8
    36c6:	22 e2       	ldi	r18, 0x22	; 34
    36c8:	37 e0       	ldi	r19, 0x07	; 7
    36ca:	a9 01       	movw	r20, r18
    36cc:	45 52       	subi	r20, 0x25	; 37
    36ce:	50 40       	sbci	r21, 0x00	; 0
    36d0:	d5 01       	movw	r26, r10
    36d2:	e7 2e       	mov	r14, r23
    36d4:	ff 24       	eor	r15, r15
    36d6:	f9 01       	movw	r30, r18
    36d8:	80 81       	ld	r24, Z
    36da:	91 81       	ldd	r25, Z+1	; 0x01
    36dc:	8e 0d       	add	r24, r14
    36de:	9f 1d       	adc	r25, r15
    36e0:	fc 01       	movw	r30, r24
    36e2:	80 81       	ld	r24, Z
    36e4:	90 e0       	ldi	r25, 0x00	; 0
    36e6:	fa 01       	movw	r30, r20
    36e8:	00 80       	ld	r0, Z
    36ea:	02 c0       	rjmp	.+4      	; 0x36f0 <GetInputFilte+0x7a>
    36ec:	95 95       	asr	r25
    36ee:	87 95       	ror	r24
    36f0:	0a 94       	dec	r0
    36f2:	e2 f7       	brpl	.-8      	; 0x36ec <GetInputFilte+0x76>
    36f4:	80 ff       	sbrs	r24, 0
    36f6:	03 c0       	rjmp	.+6      	; 0x36fe <GetInputFilte+0x88>
    36f8:	8c 91       	ld	r24, X
    36fa:	8f 5f       	subi	r24, 0xFF	; 255
    36fc:	8c 93       	st	X, r24
    36fe:	2e 5f       	subi	r18, 0xFE	; 254
    3700:	3f 4f       	sbci	r19, 0xFF	; 255
    3702:	4f 5f       	subi	r20, 0xFF	; 255
    3704:	5f 4f       	sbci	r21, 0xFF	; 255
    3706:	11 96       	adiw	r26, 0x01	; 1
    3708:	f7 e0       	ldi	r31, 0x07	; 7
    370a:	2a 33       	cpi	r18, 0x3A	; 58
    370c:	3f 07       	cpc	r19, r31
    370e:	19 f7       	brne	.-58     	; 0x36d6 <GetInputFilte+0x60>
    3710:	6f 5f       	subi	r22, 0xFF	; 255
    3712:	86 2f       	mov	r24, r22
    3714:	90 e0       	ldi	r25, 0x00	; 0
    3716:	08 17       	cp	r16, r24
    3718:	19 07       	cpc	r17, r25
    371a:	7c f6       	brge	.-98     	; 0x36ba <GetInputFilte+0x44>
    371c:	40 e0       	ldi	r20, 0x00	; 0
    371e:	50 e0       	ldi	r21, 0x00	; 0
    3720:	20 e0       	ldi	r18, 0x00	; 0
    3722:	30 e0       	ldi	r19, 0x00	; 0
    3724:	de 01       	movw	r26, r28
    3726:	11 96       	adiw	r26, 0x01	; 1
    3728:	61 e0       	ldi	r22, 0x01	; 1
    372a:	70 e0       	ldi	r23, 0x00	; 0
    372c:	fd 01       	movw	r30, r26
    372e:	e2 0f       	add	r30, r18
    3730:	f3 1f       	adc	r31, r19
    3732:	80 81       	ld	r24, Z
    3734:	85 30       	cpi	r24, 0x05	; 5
    3736:	48 f0       	brcs	.+18     	; 0x374a <GetInputFilte+0xd4>
    3738:	fb 01       	movw	r30, r22
    373a:	02 2e       	mov	r0, r18
    373c:	02 c0       	rjmp	.+4      	; 0x3742 <GetInputFilte+0xcc>
    373e:	ee 0f       	add	r30, r30
    3740:	ff 1f       	adc	r31, r31
    3742:	0a 94       	dec	r0
    3744:	e2 f7       	brpl	.-8      	; 0x373e <GetInputFilte+0xc8>
    3746:	4e 2b       	or	r20, r30
    3748:	5f 2b       	or	r21, r31
    374a:	2f 5f       	subi	r18, 0xFF	; 255
    374c:	3f 4f       	sbci	r19, 0xFF	; 255
    374e:	2c 30       	cpi	r18, 0x0C	; 12
    3750:	31 05       	cpc	r19, r1
    3752:	61 f7       	brne	.-40     	; 0x372c <GetInputFilte+0xb6>
    3754:	d6 01       	movw	r26, r12
    3756:	4d 93       	st	X+, r20
    3758:	5c 93       	st	X, r21
    375a:	2c 96       	adiw	r28, 0x0c	; 12
    375c:	0f b6       	in	r0, 0x3f	; 63
    375e:	f8 94       	cli
    3760:	de bf       	out	0x3e, r29	; 62
    3762:	0f be       	out	0x3f, r0	; 63
    3764:	cd bf       	out	0x3d, r28	; 61
    3766:	cf 91       	pop	r28
    3768:	df 91       	pop	r29
    376a:	1f 91       	pop	r17
    376c:	0f 91       	pop	r16
    376e:	ff 90       	pop	r15
    3770:	ef 90       	pop	r14
    3772:	df 90       	pop	r13
    3774:	cf 90       	pop	r12
    3776:	bf 90       	pop	r11
    3778:	af 90       	pop	r10
    377a:	08 95       	ret

0000377c <GetInputFilteBit>:
    377c:	cf 93       	push	r28
    377e:	df 93       	push	r29
    3780:	8c 30       	cpi	r24, 0x0C	; 12
    3782:	10 f0       	brcs	.+4      	; 0x3788 <GetInputFilteBit+0xc>
    3784:	80 e0       	ldi	r24, 0x00	; 0
    3786:	33 c0       	rjmp	.+102    	; 0x37ee <GetInputFilteBit+0x72>
    3788:	20 91 21 07 	lds	r18, 0x0721
    378c:	30 e0       	ldi	r19, 0x00	; 0
    378e:	42 2f       	mov	r20, r18
    3790:	50 e0       	ldi	r21, 0x00	; 0
    3792:	49 5f       	subi	r20, 0xF9	; 249
    3794:	5f 4f       	sbci	r21, 0xFF	; 255
    3796:	90 e0       	ldi	r25, 0x00	; 0
    3798:	dc 01       	movw	r26, r24
    379a:	aa 0f       	add	r26, r26
    379c:	bb 1f       	adc	r27, r27
    379e:	ae 5d       	subi	r26, 0xDE	; 222
    37a0:	b8 4f       	sbci	r27, 0xF8	; 248
    37a2:	ec 01       	movw	r28, r24
    37a4:	c3 50       	subi	r28, 0x03	; 3
    37a6:	d9 4f       	sbci	r29, 0xF9	; 249
    37a8:	16 c0       	rjmp	.+44     	; 0x37d6 <GetInputFilteBit+0x5a>
    37aa:	28 30       	cpi	r18, 0x08	; 8
    37ac:	10 f4       	brcc	.+4      	; 0x37b2 <GetInputFilteBit+0x36>
    37ae:	82 2f       	mov	r24, r18
    37b0:	02 c0       	rjmp	.+4      	; 0x37b6 <GetInputFilteBit+0x3a>
    37b2:	82 2f       	mov	r24, r18
    37b4:	88 50       	subi	r24, 0x08	; 8
    37b6:	ed 91       	ld	r30, X+
    37b8:	fc 91       	ld	r31, X
    37ba:	11 97       	sbiw	r26, 0x01	; 1
    37bc:	e8 0f       	add	r30, r24
    37be:	f1 1d       	adc	r31, r1
    37c0:	80 81       	ld	r24, Z
    37c2:	90 e0       	ldi	r25, 0x00	; 0
    37c4:	08 80       	ld	r0, Y
    37c6:	02 c0       	rjmp	.+4      	; 0x37cc <GetInputFilteBit+0x50>
    37c8:	95 95       	asr	r25
    37ca:	87 95       	ror	r24
    37cc:	0a 94       	dec	r0
    37ce:	e2 f7       	brpl	.-8      	; 0x37c8 <GetInputFilteBit+0x4c>
    37d0:	80 fd       	sbrc	r24, 0
    37d2:	3f 5f       	subi	r19, 0xFF	; 255
    37d4:	2f 5f       	subi	r18, 0xFF	; 255
    37d6:	82 2f       	mov	r24, r18
    37d8:	90 e0       	ldi	r25, 0x00	; 0
    37da:	48 17       	cp	r20, r24
    37dc:	59 07       	cpc	r21, r25
    37de:	2c f7       	brge	.-54     	; 0x37aa <GetInputFilteBit+0x2e>
    37e0:	fb 01       	movw	r30, r22
    37e2:	10 82       	st	Z, r1
    37e4:	35 30       	cpi	r19, 0x05	; 5
    37e6:	10 f0       	brcs	.+4      	; 0x37ec <GetInputFilteBit+0x70>
    37e8:	81 e0       	ldi	r24, 0x01	; 1
    37ea:	80 83       	st	Z, r24
    37ec:	81 e0       	ldi	r24, 0x01	; 1
    37ee:	df 91       	pop	r29
    37f0:	cf 91       	pop	r28
    37f2:	08 95       	ret

000037f4 <InitGpio>:
    37f4:	10 92 b4 06 	sts	0x06B4, r1
    37f8:	83 e2       	ldi	r24, 0x23	; 35
    37fa:	90 e0       	ldi	r25, 0x00	; 0
    37fc:	90 93 b6 06 	sts	0x06B6, r25
    3800:	80 93 b5 06 	sts	0x06B5, r24
    3804:	90 93 b8 06 	sts	0x06B8, r25
    3808:	80 93 b7 06 	sts	0x06B7, r24
    380c:	90 93 ba 06 	sts	0x06BA, r25
    3810:	80 93 b9 06 	sts	0x06B9, r24
    3814:	90 93 bc 06 	sts	0x06BC, r25
    3818:	80 93 bb 06 	sts	0x06BB, r24
    381c:	28 e3       	ldi	r18, 0x38	; 56
    381e:	30 e0       	ldi	r19, 0x00	; 0
    3820:	30 93 be 06 	sts	0x06BE, r19
    3824:	20 93 bd 06 	sts	0x06BD, r18
    3828:	30 93 c0 06 	sts	0x06C0, r19
    382c:	20 93 bf 06 	sts	0x06BF, r18
    3830:	90 93 c2 06 	sts	0x06C2, r25
    3834:	80 93 c1 06 	sts	0x06C1, r24
    3838:	90 93 c4 06 	sts	0x06C4, r25
    383c:	80 93 c3 06 	sts	0x06C3, r24
    3840:	82 e3       	ldi	r24, 0x32	; 50
    3842:	90 e0       	ldi	r25, 0x00	; 0
    3844:	90 93 c6 06 	sts	0x06C6, r25
    3848:	80 93 c5 06 	sts	0x06C5, r24
    384c:	90 93 c8 06 	sts	0x06C8, r25
    3850:	80 93 c7 06 	sts	0x06C7, r24
    3854:	30 93 ca 06 	sts	0x06CA, r19
    3858:	20 93 c9 06 	sts	0x06C9, r18
    385c:	90 93 cc 06 	sts	0x06CC, r25
    3860:	80 93 cb 06 	sts	0x06CB, r24
    3864:	81 e2       	ldi	r24, 0x21	; 33
    3866:	90 e0       	ldi	r25, 0x00	; 0
    3868:	90 93 ce 06 	sts	0x06CE, r25
    386c:	80 93 cd 06 	sts	0x06CD, r24
    3870:	90 93 d0 06 	sts	0x06D0, r25
    3874:	80 93 cf 06 	sts	0x06CF, r24
    3878:	90 93 d2 06 	sts	0x06D2, r25
    387c:	80 93 d1 06 	sts	0x06D1, r24
    3880:	90 93 d4 06 	sts	0x06D4, r25
    3884:	80 93 d3 06 	sts	0x06D3, r24
    3888:	26 e3       	ldi	r18, 0x36	; 54
    388a:	30 e0       	ldi	r19, 0x00	; 0
    388c:	30 93 d6 06 	sts	0x06D6, r19
    3890:	20 93 d5 06 	sts	0x06D5, r18
    3894:	30 93 d8 06 	sts	0x06D8, r19
    3898:	20 93 d7 06 	sts	0x06D7, r18
    389c:	90 93 da 06 	sts	0x06DA, r25
    38a0:	80 93 d9 06 	sts	0x06D9, r24
    38a4:	90 93 dc 06 	sts	0x06DC, r25
    38a8:	80 93 db 06 	sts	0x06DB, r24
    38ac:	80 e3       	ldi	r24, 0x30	; 48
    38ae:	90 e0       	ldi	r25, 0x00	; 0
    38b0:	90 93 de 06 	sts	0x06DE, r25
    38b4:	80 93 dd 06 	sts	0x06DD, r24
    38b8:	90 93 e0 06 	sts	0x06E0, r25
    38bc:	80 93 df 06 	sts	0x06DF, r24
    38c0:	30 93 e2 06 	sts	0x06E2, r19
    38c4:	20 93 e1 06 	sts	0x06E1, r18
    38c8:	90 93 e4 06 	sts	0x06E4, r25
    38cc:	80 93 e3 06 	sts	0x06E3, r24
    38d0:	82 e2       	ldi	r24, 0x22	; 34
    38d2:	90 e0       	ldi	r25, 0x00	; 0
    38d4:	90 93 e6 06 	sts	0x06E6, r25
    38d8:	80 93 e5 06 	sts	0x06E5, r24
    38dc:	90 93 e8 06 	sts	0x06E8, r25
    38e0:	80 93 e7 06 	sts	0x06E7, r24
    38e4:	90 93 ea 06 	sts	0x06EA, r25
    38e8:	80 93 e9 06 	sts	0x06E9, r24
    38ec:	90 93 ec 06 	sts	0x06EC, r25
    38f0:	80 93 eb 06 	sts	0x06EB, r24
    38f4:	27 e3       	ldi	r18, 0x37	; 55
    38f6:	30 e0       	ldi	r19, 0x00	; 0
    38f8:	30 93 ee 06 	sts	0x06EE, r19
    38fc:	20 93 ed 06 	sts	0x06ED, r18
    3900:	30 93 f0 06 	sts	0x06F0, r19
    3904:	20 93 ef 06 	sts	0x06EF, r18
    3908:	e4 eb       	ldi	r30, 0xB4	; 180
    390a:	f6 e0       	ldi	r31, 0x06	; 6
    390c:	96 af       	std	Z+62, r25	; 0x3e
    390e:	85 af       	std	Z+61, r24	; 0x3d
    3910:	90 93 f4 06 	sts	0x06F4, r25
    3914:	80 93 f3 06 	sts	0x06F3, r24
    3918:	81 e3       	ldi	r24, 0x31	; 49
    391a:	90 e0       	ldi	r25, 0x00	; 0
    391c:	90 93 f6 06 	sts	0x06F6, r25
    3920:	80 93 f5 06 	sts	0x06F5, r24
    3924:	90 93 f8 06 	sts	0x06F8, r25
    3928:	80 93 f7 06 	sts	0x06F7, r24
    392c:	30 93 fa 06 	sts	0x06FA, r19
    3930:	20 93 f9 06 	sts	0x06F9, r18
    3934:	90 93 fc 06 	sts	0x06FC, r25
    3938:	80 93 fb 06 	sts	0x06FB, r24
    393c:	85 e0       	ldi	r24, 0x05	; 5
    393e:	80 93 fd 06 	sts	0x06FD, r24
    3942:	24 e0       	ldi	r18, 0x04	; 4
    3944:	20 93 fe 06 	sts	0x06FE, r18
    3948:	37 e0       	ldi	r19, 0x07	; 7
    394a:	30 93 ff 06 	sts	0x06FF, r19
    394e:	96 e0       	ldi	r25, 0x06	; 6
    3950:	90 93 00 07 	sts	0x0700, r25
    3954:	80 93 01 07 	sts	0x0701, r24
    3958:	90 93 02 07 	sts	0x0702, r25
    395c:	83 e0       	ldi	r24, 0x03	; 3
    395e:	80 93 03 07 	sts	0x0703, r24
    3962:	82 e0       	ldi	r24, 0x02	; 2
    3964:	80 93 04 07 	sts	0x0704, r24
    3968:	20 93 05 07 	sts	0x0705, r18
    396c:	81 e0       	ldi	r24, 0x01	; 1
    396e:	80 93 06 07 	sts	0x0706, r24
    3972:	30 93 07 07 	sts	0x0707, r19
    3976:	90 93 08 07 	sts	0x0708, r25
    397a:	89 e1       	ldi	r24, 0x19	; 25
    397c:	97 e0       	ldi	r25, 0x07	; 7
    397e:	90 93 23 07 	sts	0x0723, r25
    3982:	80 93 22 07 	sts	0x0722, r24
    3986:	90 93 25 07 	sts	0x0725, r25
    398a:	80 93 24 07 	sts	0x0724, r24
    398e:	90 93 27 07 	sts	0x0727, r25
    3992:	80 93 26 07 	sts	0x0726, r24
    3996:	90 93 29 07 	sts	0x0729, r25
    399a:	80 93 28 07 	sts	0x0728, r24
    399e:	29 e0       	ldi	r18, 0x09	; 9
    39a0:	37 e0       	ldi	r19, 0x07	; 7
    39a2:	30 93 2b 07 	sts	0x072B, r19
    39a6:	20 93 2a 07 	sts	0x072A, r18
    39aa:	30 93 2d 07 	sts	0x072D, r19
    39ae:	20 93 2c 07 	sts	0x072C, r18
    39b2:	90 93 2f 07 	sts	0x072F, r25
    39b6:	80 93 2e 07 	sts	0x072E, r24
    39ba:	90 93 31 07 	sts	0x0731, r25
    39be:	80 93 30 07 	sts	0x0730, r24
    39c2:	81 e1       	ldi	r24, 0x11	; 17
    39c4:	97 e0       	ldi	r25, 0x07	; 7
    39c6:	90 93 33 07 	sts	0x0733, r25
    39ca:	80 93 32 07 	sts	0x0732, r24
    39ce:	90 93 35 07 	sts	0x0735, r25
    39d2:	80 93 34 07 	sts	0x0734, r24
    39d6:	30 93 37 07 	sts	0x0737, r19
    39da:	20 93 36 07 	sts	0x0736, r18
    39de:	90 93 39 07 	sts	0x0739, r25
    39e2:	80 93 38 07 	sts	0x0738, r24
    39e6:	80 e0       	ldi	r24, 0x00	; 0
    39e8:	90 e0       	ldi	r25, 0x00	; 0
    39ea:	0e 94 97 19 	call	0x332e	; 0x332e <SetGpioDdr>
    39ee:	80 e0       	ldi	r24, 0x00	; 0
    39f0:	90 e0       	ldi	r25, 0x00	; 0
    39f2:	0e 94 03 1a 	call	0x3406	; 0x3406 <SetGpioPort>
    39f6:	10 92 21 07 	sts	0x0721, r1
    39fa:	87 e9       	ldi	r24, 0x97	; 151
    39fc:	99 e1       	ldi	r25, 0x19	; 25
    39fe:	90 93 3d 07 	sts	0x073D, r25
    3a02:	80 93 3c 07 	sts	0x073C, r24
    3a06:	83 e0       	ldi	r24, 0x03	; 3
    3a08:	9a e1       	ldi	r25, 0x1A	; 26
    3a0a:	90 93 3f 07 	sts	0x073F, r25
    3a0e:	80 93 3e 07 	sts	0x073E, r24
    3a12:	8e e3       	ldi	r24, 0x3E	; 62
    3a14:	9a e1       	ldi	r25, 0x1A	; 26
    3a16:	90 93 41 07 	sts	0x0741, r25
    3a1a:	80 93 40 07 	sts	0x0740, r24
    3a1e:	87 e4       	ldi	r24, 0x47	; 71
    3a20:	9a e1       	ldi	r25, 0x1A	; 26
    3a22:	90 93 43 07 	sts	0x0743, r25
    3a26:	80 93 42 07 	sts	0x0742, r24
    3a2a:	89 e8       	ldi	r24, 0x89	; 137
    3a2c:	9a e1       	ldi	r25, 0x1A	; 26
    3a2e:	90 93 45 07 	sts	0x0745, r25
    3a32:	80 93 44 07 	sts	0x0744, r24
    3a36:	88 ec       	ldi	r24, 0xC8	; 200
    3a38:	9a e1       	ldi	r25, 0x1A	; 26
    3a3a:	90 93 47 07 	sts	0x0747, r25
    3a3e:	80 93 46 07 	sts	0x0746, r24
    3a42:	8a ee       	ldi	r24, 0xEA	; 234
    3a44:	9a e1       	ldi	r25, 0x1A	; 26
    3a46:	90 93 49 07 	sts	0x0749, r25
    3a4a:	80 93 48 07 	sts	0x0748, r24
    3a4e:	8e eb       	ldi	r24, 0xBE	; 190
    3a50:	9b e1       	ldi	r25, 0x1B	; 27
    3a52:	90 93 4b 07 	sts	0x074B, r25
    3a56:	80 93 4a 07 	sts	0x074A, r24
    3a5a:	8b e3       	ldi	r24, 0x3B	; 59
    3a5c:	9b e1       	ldi	r25, 0x1B	; 27
    3a5e:	90 93 4d 07 	sts	0x074D, r25
    3a62:	80 93 4c 07 	sts	0x074C, r24
    3a66:	80 91 b4 06 	lds	r24, 0x06B4
    3a6a:	80 68       	ori	r24, 0x80	; 128
    3a6c:	80 93 b4 06 	sts	0x06B4, r24
    3a70:	08 95       	ret

00003a72 <__vector_16>:
    3a72:	78 94       	sei
    3a74:	1f 92       	push	r1
    3a76:	0f 92       	push	r0
    3a78:	0f b6       	in	r0, 0x3f	; 63
    3a7a:	0f 92       	push	r0
    3a7c:	0b b6       	in	r0, 0x3b	; 59
    3a7e:	0f 92       	push	r0
    3a80:	11 24       	eor	r1, r1
    3a82:	2f 93       	push	r18
    3a84:	3f 93       	push	r19
    3a86:	4f 93       	push	r20
    3a88:	5f 93       	push	r21
    3a8a:	6f 93       	push	r22
    3a8c:	7f 93       	push	r23
    3a8e:	8f 93       	push	r24
    3a90:	9f 93       	push	r25
    3a92:	af 93       	push	r26
    3a94:	bf 93       	push	r27
    3a96:	ef 93       	push	r30
    3a98:	ff 93       	push	r31
    3a9a:	e0 91 ce 07 	lds	r30, 0x07CE
    3a9e:	f0 91 cf 07 	lds	r31, 0x07CF
    3aa2:	80 e0       	ldi	r24, 0x00	; 0
    3aa4:	09 95       	icall
    3aa6:	e0 91 c8 07 	lds	r30, 0x07C8
    3aaa:	f0 91 c9 07 	lds	r31, 0x07C9
    3aae:	83 e8       	ldi	r24, 0x83	; 131
    3ab0:	09 95       	icall
    3ab2:	80 91 67 0c 	lds	r24, 0x0C67
    3ab6:	8f 5f       	subi	r24, 0xFF	; 255
    3ab8:	80 93 67 0c 	sts	0x0C67, r24
    3abc:	85 31       	cpi	r24, 0x15	; 21
    3abe:	40 f0       	brcs	.+16     	; 0x3ad0 <__vector_16+0x5e>
    3ac0:	10 92 67 0c 	sts	0x0C67, r1
    3ac4:	e0 91 59 07 	lds	r30, 0x0759
    3ac8:	f0 91 5a 07 	lds	r31, 0x075A
    3acc:	81 e0       	ldi	r24, 0x01	; 1
    3ace:	09 95       	icall
    3ad0:	0e 94 0e 42 	call	0x841c	; 0x841c <SystemClockTick>
    3ad4:	e0 91 ce 07 	lds	r30, 0x07CE
    3ad8:	f0 91 cf 07 	lds	r31, 0x07CF
    3adc:	86 e0       	ldi	r24, 0x06	; 6
    3ade:	09 95       	icall
    3ae0:	ff 91       	pop	r31
    3ae2:	ef 91       	pop	r30
    3ae4:	bf 91       	pop	r27
    3ae6:	af 91       	pop	r26
    3ae8:	9f 91       	pop	r25
    3aea:	8f 91       	pop	r24
    3aec:	7f 91       	pop	r23
    3aee:	6f 91       	pop	r22
    3af0:	5f 91       	pop	r21
    3af2:	4f 91       	pop	r20
    3af4:	3f 91       	pop	r19
    3af6:	2f 91       	pop	r18
    3af8:	0f 90       	pop	r0
    3afa:	0b be       	out	0x3b, r0	; 59
    3afc:	0f 90       	pop	r0
    3afe:	0f be       	out	0x3f, r0	; 63
    3b00:	0f 90       	pop	r0
    3b02:	1f 90       	pop	r1
    3b04:	18 95       	reti

00003b06 <__vector_1>:
    3b06:	1f 92       	push	r1
    3b08:	0f 92       	push	r0
    3b0a:	0f b6       	in	r0, 0x3f	; 63
    3b0c:	0f 92       	push	r0
    3b0e:	0b b6       	in	r0, 0x3b	; 59
    3b10:	0f 92       	push	r0
    3b12:	11 24       	eor	r1, r1
    3b14:	2f 93       	push	r18
    3b16:	3f 93       	push	r19
    3b18:	4f 93       	push	r20
    3b1a:	5f 93       	push	r21
    3b1c:	6f 93       	push	r22
    3b1e:	7f 93       	push	r23
    3b20:	8f 93       	push	r24
    3b22:	9f 93       	push	r25
    3b24:	af 93       	push	r26
    3b26:	bf 93       	push	r27
    3b28:	ef 93       	push	r30
    3b2a:	ff 93       	push	r31
    3b2c:	e0 91 59 07 	lds	r30, 0x0759
    3b30:	f0 91 5a 07 	lds	r31, 0x075A
    3b34:	80 e0       	ldi	r24, 0x00	; 0
    3b36:	09 95       	icall
    3b38:	0e 94 90 24 	call	0x4920	; 0x4920 <IsrSpiProcessExtInt>
    3b3c:	ff 91       	pop	r31
    3b3e:	ef 91       	pop	r30
    3b40:	bf 91       	pop	r27
    3b42:	af 91       	pop	r26
    3b44:	9f 91       	pop	r25
    3b46:	8f 91       	pop	r24
    3b48:	7f 91       	pop	r23
    3b4a:	6f 91       	pop	r22
    3b4c:	5f 91       	pop	r21
    3b4e:	4f 91       	pop	r20
    3b50:	3f 91       	pop	r19
    3b52:	2f 91       	pop	r18
    3b54:	0f 90       	pop	r0
    3b56:	0b be       	out	0x3b, r0	; 59
    3b58:	0f 90       	pop	r0
    3b5a:	0f be       	out	0x3f, r0	; 63
    3b5c:	0f 90       	pop	r0
    3b5e:	1f 90       	pop	r1
    3b60:	18 95       	reti

00003b62 <__vector_29>:
    3b62:	78 94       	sei
    3b64:	1f 92       	push	r1
    3b66:	0f 92       	push	r0
    3b68:	0f b6       	in	r0, 0x3f	; 63
    3b6a:	0f 92       	push	r0
    3b6c:	0b b6       	in	r0, 0x3b	; 59
    3b6e:	0f 92       	push	r0
    3b70:	11 24       	eor	r1, r1
    3b72:	2f 93       	push	r18
    3b74:	3f 93       	push	r19
    3b76:	4f 93       	push	r20
    3b78:	5f 93       	push	r21
    3b7a:	6f 93       	push	r22
    3b7c:	7f 93       	push	r23
    3b7e:	8f 93       	push	r24
    3b80:	9f 93       	push	r25
    3b82:	af 93       	push	r26
    3b84:	bf 93       	push	r27
    3b86:	ef 93       	push	r30
    3b88:	ff 93       	push	r31
    3b8a:	e0 91 d4 07 	lds	r30, 0x07D4
    3b8e:	f0 91 d5 07 	lds	r31, 0x07D5
    3b92:	80 e0       	ldi	r24, 0x00	; 0
    3b94:	09 95       	icall
    3b96:	0e 94 ce 18 	call	0x319c	; 0x319c <IsrAdcSampling>
    3b9a:	0e 94 56 22 	call	0x44ac	; 0x44ac <IsrPpmOverFlow>
    3b9e:	0e 94 22 1b 	call	0x3644	; 0x3644 <IsrGpioSampling>
    3ba2:	0e 94 a1 24 	call	0x4942	; 0x4942 <IsrSpiProcessTimerInt>
    3ba6:	e0 91 d2 07 	lds	r30, 0x07D2
    3baa:	f0 91 d3 07 	lds	r31, 0x07D3
    3bae:	80 e0       	ldi	r24, 0x00	; 0
    3bb0:	09 95       	icall
    3bb2:	ff 91       	pop	r31
    3bb4:	ef 91       	pop	r30
    3bb6:	bf 91       	pop	r27
    3bb8:	af 91       	pop	r26
    3bba:	9f 91       	pop	r25
    3bbc:	8f 91       	pop	r24
    3bbe:	7f 91       	pop	r23
    3bc0:	6f 91       	pop	r22
    3bc2:	5f 91       	pop	r21
    3bc4:	4f 91       	pop	r20
    3bc6:	3f 91       	pop	r19
    3bc8:	2f 91       	pop	r18
    3bca:	0f 90       	pop	r0
    3bcc:	0b be       	out	0x3b, r0	; 59
    3bce:	0f 90       	pop	r0
    3bd0:	0f be       	out	0x3f, r0	; 63
    3bd2:	0f 90       	pop	r0
    3bd4:	1f 90       	pop	r1
    3bd6:	18 95       	reti

00003bd8 <SetLedBit>:
    3bd8:	4b b3       	in	r20, 0x1b	; 27
    3bda:	90 e0       	ldi	r25, 0x00	; 0
    3bdc:	04 96       	adiw	r24, 0x04	; 4
    3bde:	21 e0       	ldi	r18, 0x01	; 1
    3be0:	30 e0       	ldi	r19, 0x00	; 0
    3be2:	02 c0       	rjmp	.+4      	; 0x3be8 <SetLedBit+0x10>
    3be4:	22 0f       	add	r18, r18
    3be6:	33 1f       	adc	r19, r19
    3be8:	8a 95       	dec	r24
    3bea:	e2 f7       	brpl	.-8      	; 0x3be4 <SetLedBit+0xc>
    3bec:	42 2b       	or	r20, r18
    3bee:	4b bb       	out	0x1b, r20	; 27
    3bf0:	08 95       	ret

00003bf2 <ClrLedBit>:
    3bf2:	4b b3       	in	r20, 0x1b	; 27
    3bf4:	90 e0       	ldi	r25, 0x00	; 0
    3bf6:	04 96       	adiw	r24, 0x04	; 4
    3bf8:	21 e0       	ldi	r18, 0x01	; 1
    3bfa:	30 e0       	ldi	r19, 0x00	; 0
    3bfc:	02 c0       	rjmp	.+4      	; 0x3c02 <ClrLedBit+0x10>
    3bfe:	22 0f       	add	r18, r18
    3c00:	33 1f       	adc	r19, r19
    3c02:	8a 95       	dec	r24
    3c04:	e2 f7       	brpl	.-8      	; 0x3bfe <ClrLedBit+0xc>
    3c06:	20 95       	com	r18
    3c08:	24 23       	and	r18, r20
    3c0a:	2b bb       	out	0x1b, r18	; 27
    3c0c:	08 95       	ret

00003c0e <ChangeLedBit>:
    3c0e:	4b b3       	in	r20, 0x1b	; 27
    3c10:	90 e0       	ldi	r25, 0x00	; 0
    3c12:	04 96       	adiw	r24, 0x04	; 4
    3c14:	21 e0       	ldi	r18, 0x01	; 1
    3c16:	30 e0       	ldi	r19, 0x00	; 0
    3c18:	02 c0       	rjmp	.+4      	; 0x3c1e <ChangeLedBit+0x10>
    3c1a:	22 0f       	add	r18, r18
    3c1c:	33 1f       	adc	r19, r19
    3c1e:	8a 95       	dec	r24
    3c20:	e2 f7       	brpl	.-8      	; 0x3c1a <ChangeLedBit+0xc>
    3c22:	42 27       	eor	r20, r18
    3c24:	4b bb       	out	0x1b, r20	; 27
    3c26:	08 95       	ret

00003c28 <SetLedGroup>:
    3c28:	90 e0       	ldi	r25, 0x00	; 0
    3c2a:	24 e0       	ldi	r18, 0x04	; 4
    3c2c:	88 0f       	add	r24, r24
    3c2e:	99 1f       	adc	r25, r25
    3c30:	2a 95       	dec	r18
    3c32:	e1 f7       	brne	.-8      	; 0x3c2c <SetLedGroup+0x4>
    3c34:	8b bb       	out	0x1b, r24	; 27
    3c36:	08 95       	ret

00003c38 <InitLed>:
    3c38:	10 92 50 07 	sts	0x0750, r1
    3c3c:	8a b3       	in	r24, 0x1a	; 26
    3c3e:	80 6f       	ori	r24, 0xF0	; 240
    3c40:	8a bb       	out	0x1a, r24	; 26
    3c42:	8b b3       	in	r24, 0x1b	; 27
    3c44:	8f 70       	andi	r24, 0x0F	; 15
    3c46:	8b bb       	out	0x1b, r24	; 27
    3c48:	84 e1       	ldi	r24, 0x14	; 20
    3c4a:	9e e1       	ldi	r25, 0x1E	; 30
    3c4c:	90 93 54 07 	sts	0x0754, r25
    3c50:	80 93 53 07 	sts	0x0753, r24
    3c54:	89 ef       	ldi	r24, 0xF9	; 249
    3c56:	9d e1       	ldi	r25, 0x1D	; 29
    3c58:	90 93 56 07 	sts	0x0756, r25
    3c5c:	80 93 55 07 	sts	0x0755, r24
    3c60:	8c ee       	ldi	r24, 0xEC	; 236
    3c62:	9d e1       	ldi	r25, 0x1D	; 29
    3c64:	90 93 58 07 	sts	0x0758, r25
    3c68:	80 93 57 07 	sts	0x0757, r24
    3c6c:	87 e0       	ldi	r24, 0x07	; 7
    3c6e:	9e e1       	ldi	r25, 0x1E	; 30
    3c70:	90 93 5a 07 	sts	0x075A, r25
    3c74:	80 93 59 07 	sts	0x0759, r24
    3c78:	80 91 50 07 	lds	r24, 0x0750
    3c7c:	80 68       	ori	r24, 0x80	; 128
    3c7e:	80 93 50 07 	sts	0x0750, r24
    3c82:	08 95       	ret

00003c84 <SetPpmPosition>:
    3c84:	ef 92       	push	r14
    3c86:	ff 92       	push	r15
    3c88:	0f 93       	push	r16
    3c8a:	1f 93       	push	r17
    3c8c:	cf 93       	push	r28
    3c8e:	df 93       	push	r29
    3c90:	8b 01       	movw	r16, r22
    3c92:	7a 01       	movw	r14, r20
    3c94:	8e 31       	cpi	r24, 0x1E	; 30
    3c96:	09 f0       	breq	.+2      	; 0x3c9a <SetPpmPosition+0x16>
    3c98:	4e c0       	rjmp	.+156    	; 0x3d36 <SetPpmPosition+0xb2>
    3c9a:	c0 e0       	ldi	r28, 0x00	; 0
    3c9c:	d0 e0       	ldi	r29, 0x00	; 0
    3c9e:	fe 01       	movw	r30, r28
    3ca0:	ee 0f       	add	r30, r30
    3ca2:	ff 1f       	adc	r31, r31
    3ca4:	ec 0f       	add	r30, r28
    3ca6:	fd 1f       	adc	r31, r29
    3ca8:	ee 0f       	add	r30, r30
    3caa:	ff 1f       	adc	r31, r31
    3cac:	ee 0f       	add	r30, r30
    3cae:	ff 1f       	adc	r31, r31
    3cb0:	e8 53       	subi	r30, 0x38	; 56
    3cb2:	f3 4f       	sbci	r31, 0xF3	; 243
    3cb4:	82 85       	ldd	r24, Z+10	; 0x0a
    3cb6:	8f 30       	cpi	r24, 0x0F	; 15
    3cb8:	09 f0       	breq	.+2      	; 0x3cbc <SetPpmPosition+0x38>
    3cba:	8d c0       	rjmp	.+282    	; 0x3dd6 <SetPpmPosition+0x152>
    3cbc:	84 e0       	ldi	r24, 0x04	; 4
    3cbe:	00 30       	cpi	r16, 0x00	; 0
    3cc0:	18 07       	cpc	r17, r24
    3cc2:	10 f0       	brcs	.+4      	; 0x3cc8 <SetPpmPosition+0x44>
    3cc4:	0f ef       	ldi	r16, 0xFF	; 255
    3cc6:	13 e0       	ldi	r17, 0x03	; 3
    3cc8:	80 e0       	ldi	r24, 0x00	; 0
    3cca:	e8 16       	cp	r14, r24
    3ccc:	84 e0       	ldi	r24, 0x04	; 4
    3cce:	f8 06       	cpc	r15, r24
    3cd0:	20 f0       	brcs	.+8      	; 0x3cda <SetPpmPosition+0x56>
    3cd2:	3f ef       	ldi	r19, 0xFF	; 255
    3cd4:	e3 2e       	mov	r14, r19
    3cd6:	33 e0       	ldi	r19, 0x03	; 3
    3cd8:	f3 2e       	mov	r15, r19
    3cda:	b8 01       	movw	r22, r16
    3cdc:	80 e0       	ldi	r24, 0x00	; 0
    3cde:	90 e0       	ldi	r25, 0x00	; 0
    3ce0:	24 ef       	ldi	r18, 0xF4	; 244
    3ce2:	31 e0       	ldi	r19, 0x01	; 1
    3ce4:	40 e0       	ldi	r20, 0x00	; 0
    3ce6:	50 e0       	ldi	r21, 0x00	; 0
    3ce8:	0e 94 69 42 	call	0x84d2	; 0x84d2 <__mulsi3>
    3cec:	24 e0       	ldi	r18, 0x04	; 4
    3cee:	96 95       	lsr	r25
    3cf0:	87 95       	ror	r24
    3cf2:	77 95       	ror	r23
    3cf4:	67 95       	ror	r22
    3cf6:	2a 95       	dec	r18
    3cf8:	d1 f7       	brne	.-12     	; 0x3cee <SetPpmPosition+0x6a>
    3cfa:	60 5c       	subi	r22, 0xC0	; 192
    3cfc:	70 4e       	sbci	r23, 0xE0	; 224
    3cfe:	fe 01       	movw	r30, r28
    3d00:	ee 0f       	add	r30, r30
    3d02:	ff 1f       	adc	r31, r31
    3d04:	ec 0f       	add	r30, r28
    3d06:	fd 1f       	adc	r31, r29
    3d08:	ee 0f       	add	r30, r30
    3d0a:	ff 1f       	adc	r31, r31
    3d0c:	ee 0f       	add	r30, r30
    3d0e:	ff 1f       	adc	r31, r31
    3d10:	df 01       	movw	r26, r30
    3d12:	a6 53       	subi	r26, 0x36	; 54
    3d14:	b3 4f       	sbci	r27, 0xF3	; 243
    3d16:	11 96       	adiw	r26, 0x01	; 1
    3d18:	7c 93       	st	X, r23
    3d1a:	6e 93       	st	-X, r22
    3d1c:	c7 01       	movw	r24, r14
    3d1e:	88 0f       	add	r24, r24
    3d20:	99 1f       	adc	r25, r25
    3d22:	e8 53       	subi	r30, 0x38	; 56
    3d24:	f3 4f       	sbci	r31, 0xF3	; 243
    3d26:	91 83       	std	Z+1, r25	; 0x01
    3d28:	80 83       	st	Z, r24
    3d2a:	21 96       	adiw	r28, 0x01	; 1
    3d2c:	c8 30       	cpi	r28, 0x08	; 8
    3d2e:	d1 05       	cpc	r29, r1
    3d30:	09 f0       	breq	.+2      	; 0x3d34 <SetPpmPosition+0xb0>
    3d32:	b5 cf       	rjmp	.-150    	; 0x3c9e <SetPpmPosition+0x1a>
    3d34:	4e c0       	rjmp	.+156    	; 0x3dd2 <SetPpmPosition+0x14e>
    3d36:	88 30       	cpi	r24, 0x08	; 8
    3d38:	08 f0       	brcs	.+2      	; 0x3d3c <SetPpmPosition+0xb8>
    3d3a:	4d c0       	rjmp	.+154    	; 0x3dd6 <SetPpmPosition+0x152>
    3d3c:	c8 2f       	mov	r28, r24
    3d3e:	d0 e0       	ldi	r29, 0x00	; 0
    3d40:	fe 01       	movw	r30, r28
    3d42:	ee 0f       	add	r30, r30
    3d44:	ff 1f       	adc	r31, r31
    3d46:	ec 0f       	add	r30, r28
    3d48:	fd 1f       	adc	r31, r29
    3d4a:	ee 0f       	add	r30, r30
    3d4c:	ff 1f       	adc	r31, r31
    3d4e:	ee 0f       	add	r30, r30
    3d50:	ff 1f       	adc	r31, r31
    3d52:	e8 53       	subi	r30, 0x38	; 56
    3d54:	f3 4f       	sbci	r31, 0xF3	; 243
    3d56:	82 85       	ldd	r24, Z+10	; 0x0a
    3d58:	8f 30       	cpi	r24, 0x0F	; 15
    3d5a:	e9 f5       	brne	.+122    	; 0x3dd6 <SetPpmPosition+0x152>
    3d5c:	b8 01       	movw	r22, r16
    3d5e:	84 e0       	ldi	r24, 0x04	; 4
    3d60:	00 30       	cpi	r16, 0x00	; 0
    3d62:	18 07       	cpc	r17, r24
    3d64:	10 f0       	brcs	.+4      	; 0x3d6a <SetPpmPosition+0xe6>
    3d66:	6f ef       	ldi	r22, 0xFF	; 255
    3d68:	73 e0       	ldi	r23, 0x03	; 3
    3d6a:	80 e0       	ldi	r24, 0x00	; 0
    3d6c:	90 e0       	ldi	r25, 0x00	; 0
    3d6e:	24 ef       	ldi	r18, 0xF4	; 244
    3d70:	31 e0       	ldi	r19, 0x01	; 1
    3d72:	40 e0       	ldi	r20, 0x00	; 0
    3d74:	50 e0       	ldi	r21, 0x00	; 0
    3d76:	0e 94 69 42 	call	0x84d2	; 0x84d2 <__mulsi3>
    3d7a:	54 e0       	ldi	r21, 0x04	; 4
    3d7c:	96 95       	lsr	r25
    3d7e:	87 95       	ror	r24
    3d80:	77 95       	ror	r23
    3d82:	67 95       	ror	r22
    3d84:	5a 95       	dec	r21
    3d86:	d1 f7       	brne	.-12     	; 0x3d7c <SetPpmPosition+0xf8>
    3d88:	60 5c       	subi	r22, 0xC0	; 192
    3d8a:	70 4e       	sbci	r23, 0xE0	; 224
    3d8c:	fe 01       	movw	r30, r28
    3d8e:	ee 0f       	add	r30, r30
    3d90:	ff 1f       	adc	r31, r31
    3d92:	ec 0f       	add	r30, r28
    3d94:	fd 1f       	adc	r31, r29
    3d96:	ee 0f       	add	r30, r30
    3d98:	ff 1f       	adc	r31, r31
    3d9a:	ee 0f       	add	r30, r30
    3d9c:	ff 1f       	adc	r31, r31
    3d9e:	e6 53       	subi	r30, 0x36	; 54
    3da0:	f3 4f       	sbci	r31, 0xF3	; 243
    3da2:	71 83       	std	Z+1, r23	; 0x01
    3da4:	60 83       	st	Z, r22
    3da6:	a7 01       	movw	r20, r14
    3da8:	84 e0       	ldi	r24, 0x04	; 4
    3daa:	40 30       	cpi	r20, 0x00	; 0
    3dac:	58 07       	cpc	r21, r24
    3dae:	10 f0       	brcs	.+4      	; 0x3db4 <SetPpmPosition+0x130>
    3db0:	4f ef       	ldi	r20, 0xFF	; 255
    3db2:	53 e0       	ldi	r21, 0x03	; 3
    3db4:	44 0f       	add	r20, r20
    3db6:	55 1f       	adc	r21, r21
    3db8:	fe 01       	movw	r30, r28
    3dba:	ee 0f       	add	r30, r30
    3dbc:	ff 1f       	adc	r31, r31
    3dbe:	ec 0f       	add	r30, r28
    3dc0:	fd 1f       	adc	r31, r29
    3dc2:	ee 0f       	add	r30, r30
    3dc4:	ff 1f       	adc	r31, r31
    3dc6:	ee 0f       	add	r30, r30
    3dc8:	ff 1f       	adc	r31, r31
    3dca:	e8 53       	subi	r30, 0x38	; 56
    3dcc:	f3 4f       	sbci	r31, 0xF3	; 243
    3dce:	51 83       	std	Z+1, r21	; 0x01
    3dd0:	40 83       	st	Z, r20
    3dd2:	81 e0       	ldi	r24, 0x01	; 1
    3dd4:	01 c0       	rjmp	.+2      	; 0x3dd8 <SetPpmPosition+0x154>
    3dd6:	80 e0       	ldi	r24, 0x00	; 0
    3dd8:	df 91       	pop	r29
    3dda:	cf 91       	pop	r28
    3ddc:	1f 91       	pop	r17
    3dde:	0f 91       	pop	r16
    3de0:	ff 90       	pop	r15
    3de2:	ef 90       	pop	r14
    3de4:	08 95       	ret

00003de6 <SetPpmAcceleration>:
    3de6:	8e 31       	cpi	r24, 0x1E	; 30
    3de8:	09 f5       	brne	.+66     	; 0x3e2c <SetPpmAcceleration+0x46>
    3dea:	9b 01       	movw	r18, r22
    3dec:	84 e0       	ldi	r24, 0x04	; 4
    3dee:	60 30       	cpi	r22, 0x00	; 0
    3df0:	78 07       	cpc	r23, r24
    3df2:	10 f0       	brcs	.+4      	; 0x3df8 <SetPpmAcceleration+0x12>
    3df4:	2f ef       	ldi	r18, 0xFF	; 255
    3df6:	33 e0       	ldi	r19, 0x03	; 3
    3df8:	22 0f       	add	r18, r18
    3dfa:	33 1f       	adc	r19, r19
    3dfc:	40 e0       	ldi	r20, 0x00	; 0
    3dfe:	50 e0       	ldi	r21, 0x00	; 0
    3e00:	fa 01       	movw	r30, r20
    3e02:	ee 0f       	add	r30, r30
    3e04:	ff 1f       	adc	r31, r31
    3e06:	e4 0f       	add	r30, r20
    3e08:	f5 1f       	adc	r31, r21
    3e0a:	ee 0f       	add	r30, r30
    3e0c:	ff 1f       	adc	r31, r31
    3e0e:	ee 0f       	add	r30, r30
    3e10:	ff 1f       	adc	r31, r31
    3e12:	e8 53       	subi	r30, 0x38	; 56
    3e14:	f3 4f       	sbci	r31, 0xF3	; 243
    3e16:	82 85       	ldd	r24, Z+10	; 0x0a
    3e18:	80 3f       	cpi	r24, 0xF0	; 240
    3e1a:	11 f4       	brne	.+4      	; 0x3e20 <SetPpmAcceleration+0x3a>
    3e1c:	31 83       	std	Z+1, r19	; 0x01
    3e1e:	20 83       	st	Z, r18
    3e20:	4f 5f       	subi	r20, 0xFF	; 255
    3e22:	5f 4f       	sbci	r21, 0xFF	; 255
    3e24:	48 30       	cpi	r20, 0x08	; 8
    3e26:	51 05       	cpc	r21, r1
    3e28:	59 f7       	brne	.-42     	; 0x3e00 <SetPpmAcceleration+0x1a>
    3e2a:	28 c0       	rjmp	.+80     	; 0x3e7c <SetPpmAcceleration+0x96>
    3e2c:	88 30       	cpi	r24, 0x08	; 8
    3e2e:	40 f5       	brcc	.+80     	; 0x3e80 <SetPpmAcceleration+0x9a>
    3e30:	48 2f       	mov	r20, r24
    3e32:	50 e0       	ldi	r21, 0x00	; 0
    3e34:	fa 01       	movw	r30, r20
    3e36:	ee 0f       	add	r30, r30
    3e38:	ff 1f       	adc	r31, r31
    3e3a:	e4 0f       	add	r30, r20
    3e3c:	f5 1f       	adc	r31, r21
    3e3e:	ee 0f       	add	r30, r30
    3e40:	ff 1f       	adc	r31, r31
    3e42:	ee 0f       	add	r30, r30
    3e44:	ff 1f       	adc	r31, r31
    3e46:	e8 53       	subi	r30, 0x38	; 56
    3e48:	f3 4f       	sbci	r31, 0xF3	; 243
    3e4a:	82 85       	ldd	r24, Z+10	; 0x0a
    3e4c:	80 3f       	cpi	r24, 0xF0	; 240
    3e4e:	c1 f4       	brne	.+48     	; 0x3e80 <SetPpmAcceleration+0x9a>
    3e50:	9b 01       	movw	r18, r22
    3e52:	84 e0       	ldi	r24, 0x04	; 4
    3e54:	60 30       	cpi	r22, 0x00	; 0
    3e56:	78 07       	cpc	r23, r24
    3e58:	10 f0       	brcs	.+4      	; 0x3e5e <SetPpmAcceleration+0x78>
    3e5a:	2f ef       	ldi	r18, 0xFF	; 255
    3e5c:	33 e0       	ldi	r19, 0x03	; 3
    3e5e:	22 0f       	add	r18, r18
    3e60:	33 1f       	adc	r19, r19
    3e62:	fa 01       	movw	r30, r20
    3e64:	ee 0f       	add	r30, r30
    3e66:	ff 1f       	adc	r31, r31
    3e68:	e4 0f       	add	r30, r20
    3e6a:	f5 1f       	adc	r31, r21
    3e6c:	ee 0f       	add	r30, r30
    3e6e:	ff 1f       	adc	r31, r31
    3e70:	ee 0f       	add	r30, r30
    3e72:	ff 1f       	adc	r31, r31
    3e74:	e8 53       	subi	r30, 0x38	; 56
    3e76:	f3 4f       	sbci	r31, 0xF3	; 243
    3e78:	31 83       	std	Z+1, r19	; 0x01
    3e7a:	20 83       	st	Z, r18
    3e7c:	81 e0       	ldi	r24, 0x01	; 1
    3e7e:	08 95       	ret
    3e80:	80 e0       	ldi	r24, 0x00	; 0
    3e82:	08 95       	ret

00003e84 <SetPpmVelocity>:
    3e84:	ff 92       	push	r15
    3e86:	0f 93       	push	r16
    3e88:	1f 93       	push	r17
    3e8a:	cf 93       	push	r28
    3e8c:	df 93       	push	r29
    3e8e:	f6 2e       	mov	r15, r22
    3e90:	8e 31       	cpi	r24, 0x1E	; 30
    3e92:	09 f0       	breq	.+2      	; 0x3e96 <SetPpmVelocity+0x12>
    3e94:	5c c0       	rjmp	.+184    	; 0x3f4e <SetPpmVelocity+0xca>
    3e96:	9a 01       	movw	r18, r20
    3e98:	84 e0       	ldi	r24, 0x04	; 4
    3e9a:	40 30       	cpi	r20, 0x00	; 0
    3e9c:	58 07       	cpc	r21, r24
    3e9e:	10 f0       	brcs	.+4      	; 0x3ea4 <SetPpmVelocity+0x20>
    3ea0:	2f ef       	ldi	r18, 0xFF	; 255
    3ea2:	33 e0       	ldi	r19, 0x03	; 3
    3ea4:	89 01       	movw	r16, r18
    3ea6:	16 95       	lsr	r17
    3ea8:	07 95       	ror	r16
    3eaa:	00 50       	subi	r16, 0x00	; 0
    3eac:	1e 4f       	sbci	r17, 0xFE	; 254
    3eae:	b8 01       	movw	r22, r16
    3eb0:	80 e0       	ldi	r24, 0x00	; 0
    3eb2:	90 e0       	ldi	r25, 0x00	; 0
    3eb4:	00 50       	subi	r16, 0x00	; 0
    3eb6:	12 40       	sbci	r17, 0x02	; 2
    3eb8:	24 ef       	ldi	r18, 0xF4	; 244
    3eba:	31 e0       	ldi	r19, 0x01	; 1
    3ebc:	40 e0       	ldi	r20, 0x00	; 0
    3ebe:	50 e0       	ldi	r21, 0x00	; 0
    3ec0:	0e 94 69 42 	call	0x84d2	; 0x84d2 <__mulsi3>
    3ec4:	e4 e0       	ldi	r30, 0x04	; 4
    3ec6:	96 95       	lsr	r25
    3ec8:	87 95       	ror	r24
    3eca:	77 95       	ror	r23
    3ecc:	67 95       	ror	r22
    3ece:	ea 95       	dec	r30
    3ed0:	d1 f7       	brne	.-12     	; 0x3ec6 <SetPpmVelocity+0x42>
    3ed2:	eb 01       	movw	r28, r22
    3ed4:	c0 5c       	subi	r28, 0xC0	; 192
    3ed6:	d0 4e       	sbci	r29, 0xE0	; 224
    3ed8:	60 e0       	ldi	r22, 0x00	; 0
    3eda:	72 e0       	ldi	r23, 0x02	; 2
    3edc:	60 1b       	sub	r22, r16
    3ede:	71 0b       	sbc	r23, r17
    3ee0:	80 e0       	ldi	r24, 0x00	; 0
    3ee2:	90 e0       	ldi	r25, 0x00	; 0
    3ee4:	0e 94 69 42 	call	0x84d2	; 0x84d2 <__mulsi3>
    3ee8:	14 e0       	ldi	r17, 0x04	; 4
    3eea:	96 95       	lsr	r25
    3eec:	87 95       	ror	r24
    3eee:	77 95       	ror	r23
    3ef0:	67 95       	ror	r22
    3ef2:	1a 95       	dec	r17
    3ef4:	d1 f7       	brne	.-12     	; 0x3eea <SetPpmVelocity+0x66>
    3ef6:	60 5c       	subi	r22, 0xC0	; 192
    3ef8:	70 4e       	sbci	r23, 0xE0	; 224
    3efa:	40 e0       	ldi	r20, 0x00	; 0
    3efc:	50 e0       	ldi	r21, 0x00	; 0
    3efe:	9a 01       	movw	r18, r20
    3f00:	22 0f       	add	r18, r18
    3f02:	33 1f       	adc	r19, r19
    3f04:	24 0f       	add	r18, r20
    3f06:	35 1f       	adc	r19, r21
    3f08:	f9 01       	movw	r30, r18
    3f0a:	ee 0f       	add	r30, r30
    3f0c:	ff 1f       	adc	r31, r31
    3f0e:	ee 0f       	add	r30, r30
    3f10:	ff 1f       	adc	r31, r31
    3f12:	e8 53       	subi	r30, 0x38	; 56
    3f14:	f3 4f       	sbci	r31, 0xF3	; 243
    3f16:	82 85       	ldd	r24, Z+10	; 0x0a
    3f18:	80 3f       	cpi	r24, 0xF0	; 240
    3f1a:	09 f0       	breq	.+2      	; 0x3f1e <SetPpmVelocity+0x9a>
    3f1c:	5e c0       	rjmp	.+188    	; 0x3fda <SetPpmVelocity+0x156>
    3f1e:	f9 01       	movw	r30, r18
    3f20:	ee 0f       	add	r30, r30
    3f22:	ff 1f       	adc	r31, r31
    3f24:	ff 20       	and	r15, r15
    3f26:	39 f4       	brne	.+14     	; 0x3f36 <SetPpmVelocity+0xb2>
    3f28:	ee 0f       	add	r30, r30
    3f2a:	ff 1f       	adc	r31, r31
    3f2c:	e6 53       	subi	r30, 0x36	; 54
    3f2e:	f3 4f       	sbci	r31, 0xF3	; 243
    3f30:	71 83       	std	Z+1, r23	; 0x01
    3f32:	60 83       	st	Z, r22
    3f34:	06 c0       	rjmp	.+12     	; 0x3f42 <SetPpmVelocity+0xbe>
    3f36:	ee 0f       	add	r30, r30
    3f38:	ff 1f       	adc	r31, r31
    3f3a:	e6 53       	subi	r30, 0x36	; 54
    3f3c:	f3 4f       	sbci	r31, 0xF3	; 243
    3f3e:	d1 83       	std	Z+1, r29	; 0x01
    3f40:	c0 83       	st	Z, r28
    3f42:	4f 5f       	subi	r20, 0xFF	; 255
    3f44:	5f 4f       	sbci	r21, 0xFF	; 255
    3f46:	48 30       	cpi	r20, 0x08	; 8
    3f48:	51 05       	cpc	r21, r1
    3f4a:	c9 f6       	brne	.-78     	; 0x3efe <SetPpmVelocity+0x7a>
    3f4c:	40 c0       	rjmp	.+128    	; 0x3fce <SetPpmVelocity+0x14a>
    3f4e:	88 30       	cpi	r24, 0x08	; 8
    3f50:	08 f0       	brcs	.+2      	; 0x3f54 <SetPpmVelocity+0xd0>
    3f52:	43 c0       	rjmp	.+134    	; 0x3fda <SetPpmVelocity+0x156>
    3f54:	08 2f       	mov	r16, r24
    3f56:	10 e0       	ldi	r17, 0x00	; 0
    3f58:	f8 01       	movw	r30, r16
    3f5a:	ee 0f       	add	r30, r30
    3f5c:	ff 1f       	adc	r31, r31
    3f5e:	e0 0f       	add	r30, r16
    3f60:	f1 1f       	adc	r31, r17
    3f62:	ee 0f       	add	r30, r30
    3f64:	ff 1f       	adc	r31, r31
    3f66:	ee 0f       	add	r30, r30
    3f68:	ff 1f       	adc	r31, r31
    3f6a:	e8 53       	subi	r30, 0x38	; 56
    3f6c:	f3 4f       	sbci	r31, 0xF3	; 243
    3f6e:	82 85       	ldd	r24, Z+10	; 0x0a
    3f70:	80 3f       	cpi	r24, 0xF0	; 240
    3f72:	99 f5       	brne	.+102    	; 0x3fda <SetPpmVelocity+0x156>
    3f74:	9a 01       	movw	r18, r20
    3f76:	84 e0       	ldi	r24, 0x04	; 4
    3f78:	40 30       	cpi	r20, 0x00	; 0
    3f7a:	58 07       	cpc	r21, r24
    3f7c:	10 f0       	brcs	.+4      	; 0x3f82 <SetPpmVelocity+0xfe>
    3f7e:	2f ef       	ldi	r18, 0xFF	; 255
    3f80:	33 e0       	ldi	r19, 0x03	; 3
    3f82:	e8 01       	movw	r28, r16
    3f84:	cc 0f       	add	r28, r28
    3f86:	dd 1f       	adc	r29, r29
    3f88:	36 95       	lsr	r19
    3f8a:	27 95       	ror	r18
    3f8c:	ff 20       	and	r15, r15
    3f8e:	09 f5       	brne	.+66     	; 0x3fd2 <SetPpmVelocity+0x14e>
    3f90:	60 e0       	ldi	r22, 0x00	; 0
    3f92:	72 e0       	ldi	r23, 0x02	; 2
    3f94:	62 1b       	sub	r22, r18
    3f96:	73 0b       	sbc	r23, r19
    3f98:	80 e0       	ldi	r24, 0x00	; 0
    3f9a:	90 e0       	ldi	r25, 0x00	; 0
    3f9c:	24 ef       	ldi	r18, 0xF4	; 244
    3f9e:	31 e0       	ldi	r19, 0x01	; 1
    3fa0:	40 e0       	ldi	r20, 0x00	; 0
    3fa2:	50 e0       	ldi	r21, 0x00	; 0
    3fa4:	0e 94 69 42 	call	0x84d2	; 0x84d2 <__mulsi3>
    3fa8:	e4 e0       	ldi	r30, 0x04	; 4
    3faa:	96 95       	lsr	r25
    3fac:	87 95       	ror	r24
    3fae:	77 95       	ror	r23
    3fb0:	67 95       	ror	r22
    3fb2:	ea 95       	dec	r30
    3fb4:	d1 f7       	brne	.-12     	; 0x3faa <SetPpmVelocity+0x126>
    3fb6:	60 5c       	subi	r22, 0xC0	; 192
    3fb8:	70 4e       	sbci	r23, 0xE0	; 224
    3fba:	c0 0f       	add	r28, r16
    3fbc:	d1 1f       	adc	r29, r17
    3fbe:	cc 0f       	add	r28, r28
    3fc0:	dd 1f       	adc	r29, r29
    3fc2:	cc 0f       	add	r28, r28
    3fc4:	dd 1f       	adc	r29, r29
    3fc6:	c6 53       	subi	r28, 0x36	; 54
    3fc8:	d3 4f       	sbci	r29, 0xF3	; 243
    3fca:	79 83       	std	Y+1, r23	; 0x01
    3fcc:	68 83       	st	Y, r22
    3fce:	81 e0       	ldi	r24, 0x01	; 1
    3fd0:	05 c0       	rjmp	.+10     	; 0x3fdc <SetPpmVelocity+0x158>
    3fd2:	20 50       	subi	r18, 0x00	; 0
    3fd4:	3e 4f       	sbci	r19, 0xFE	; 254
    3fd6:	b9 01       	movw	r22, r18
    3fd8:	df cf       	rjmp	.-66     	; 0x3f98 <SetPpmVelocity+0x114>
    3fda:	80 e0       	ldi	r24, 0x00	; 0
    3fdc:	df 91       	pop	r29
    3fde:	cf 91       	pop	r28
    3fe0:	1f 91       	pop	r17
    3fe2:	0f 91       	pop	r16
    3fe4:	ff 90       	pop	r15
    3fe6:	08 95       	ret

00003fe8 <SetPpmLimit>:
    3fe8:	ef 92       	push	r14
    3fea:	ff 92       	push	r15
    3fec:	0f 93       	push	r16
    3fee:	1f 93       	push	r17
    3ff0:	cf 93       	push	r28
    3ff2:	df 93       	push	r29
    3ff4:	e8 2f       	mov	r30, r24
    3ff6:	7b 01       	movw	r14, r22
    3ff8:	84 e0       	ldi	r24, 0x04	; 4
    3ffa:	60 30       	cpi	r22, 0x00	; 0
    3ffc:	78 07       	cpc	r23, r24
    3ffe:	20 f0       	brcs	.+8      	; 0x4008 <SetPpmLimit+0x20>
    4000:	ff ef       	ldi	r31, 0xFF	; 255
    4002:	ef 2e       	mov	r14, r31
    4004:	f3 e0       	ldi	r31, 0x03	; 3
    4006:	ff 2e       	mov	r15, r31
    4008:	ea 01       	movw	r28, r20
    400a:	f4 e0       	ldi	r31, 0x04	; 4
    400c:	40 30       	cpi	r20, 0x00	; 0
    400e:	5f 07       	cpc	r21, r31
    4010:	10 f0       	brcs	.+4      	; 0x4016 <SetPpmLimit+0x2e>
    4012:	cf ef       	ldi	r28, 0xFF	; 255
    4014:	d3 e0       	ldi	r29, 0x03	; 3
    4016:	ce 15       	cp	r28, r14
    4018:	df 05       	cpc	r29, r15
    401a:	08 f4       	brcc	.+2      	; 0x401e <SetPpmLimit+0x36>
    401c:	af c0       	rjmp	.+350    	; 0x417c <SetPpmLimit+0x194>
    401e:	ee 31       	cpi	r30, 0x1E	; 30
    4020:	09 f0       	breq	.+2      	; 0x4024 <SetPpmLimit+0x3c>
    4022:	54 c0       	rjmp	.+168    	; 0x40cc <SetPpmLimit+0xe4>
    4024:	b7 01       	movw	r22, r14
    4026:	80 e0       	ldi	r24, 0x00	; 0
    4028:	90 e0       	ldi	r25, 0x00	; 0
    402a:	24 ef       	ldi	r18, 0xF4	; 244
    402c:	31 e0       	ldi	r19, 0x01	; 1
    402e:	40 e0       	ldi	r20, 0x00	; 0
    4030:	50 e0       	ldi	r21, 0x00	; 0
    4032:	0e 94 69 42 	call	0x84d2	; 0x84d2 <__mulsi3>
    4036:	e4 e0       	ldi	r30, 0x04	; 4
    4038:	96 95       	lsr	r25
    403a:	87 95       	ror	r24
    403c:	77 95       	ror	r23
    403e:	67 95       	ror	r22
    4040:	ea 95       	dec	r30
    4042:	d1 f7       	brne	.-12     	; 0x4038 <SetPpmLimit+0x50>
    4044:	8b 01       	movw	r16, r22
    4046:	00 5c       	subi	r16, 0xC0	; 192
    4048:	10 4e       	sbci	r17, 0xE0	; 224
    404a:	be 01       	movw	r22, r28
    404c:	80 e0       	ldi	r24, 0x00	; 0
    404e:	90 e0       	ldi	r25, 0x00	; 0
    4050:	0e 94 69 42 	call	0x84d2	; 0x84d2 <__mulsi3>
    4054:	24 e0       	ldi	r18, 0x04	; 4
    4056:	96 95       	lsr	r25
    4058:	87 95       	ror	r24
    405a:	77 95       	ror	r23
    405c:	67 95       	ror	r22
    405e:	2a 95       	dec	r18
    4060:	d1 f7       	brne	.-12     	; 0x4056 <SetPpmLimit+0x6e>
    4062:	60 5c       	subi	r22, 0xC0	; 192
    4064:	70 4e       	sbci	r23, 0xE0	; 224
    4066:	80 e0       	ldi	r24, 0x00	; 0
    4068:	90 e0       	ldi	r25, 0x00	; 0
    406a:	bf e0       	ldi	r27, 0x0F	; 15
    406c:	a0 ef       	ldi	r26, 0xF0	; 240
    406e:	40 e4       	ldi	r20, 0x40	; 64
    4070:	5f e1       	ldi	r21, 0x1F	; 31
    4072:	20 e2       	ldi	r18, 0x20	; 32
    4074:	3c e9       	ldi	r19, 0x9C	; 156
    4076:	e1 14       	cp	r14, r1
    4078:	f1 04       	cpc	r15, r1
    407a:	99 f4       	brne	.+38     	; 0x40a2 <SetPpmLimit+0xba>
    407c:	20 97       	sbiw	r28, 0x00	; 0
    407e:	89 f4       	brne	.+34     	; 0x40a2 <SetPpmLimit+0xba>
    4080:	fc 01       	movw	r30, r24
    4082:	ee 0f       	add	r30, r30
    4084:	ff 1f       	adc	r31, r31
    4086:	e8 0f       	add	r30, r24
    4088:	f9 1f       	adc	r31, r25
    408a:	ee 0f       	add	r30, r30
    408c:	ff 1f       	adc	r31, r31
    408e:	ee 0f       	add	r30, r30
    4090:	ff 1f       	adc	r31, r31
    4092:	e8 53       	subi	r30, 0x38	; 56
    4094:	f3 4f       	sbci	r31, 0xF3	; 243
    4096:	a2 87       	std	Z+10, r26	; 0x0a
    4098:	57 83       	std	Z+7, r21	; 0x07
    409a:	46 83       	std	Z+6, r20	; 0x06
    409c:	31 87       	std	Z+9, r19	; 0x09
    409e:	20 87       	std	Z+8, r18	; 0x08
    40a0:	10 c0       	rjmp	.+32     	; 0x40c2 <SetPpmLimit+0xda>
    40a2:	fc 01       	movw	r30, r24
    40a4:	ee 0f       	add	r30, r30
    40a6:	ff 1f       	adc	r31, r31
    40a8:	e8 0f       	add	r30, r24
    40aa:	f9 1f       	adc	r31, r25
    40ac:	ee 0f       	add	r30, r30
    40ae:	ff 1f       	adc	r31, r31
    40b0:	ee 0f       	add	r30, r30
    40b2:	ff 1f       	adc	r31, r31
    40b4:	e8 53       	subi	r30, 0x38	; 56
    40b6:	f3 4f       	sbci	r31, 0xF3	; 243
    40b8:	b2 87       	std	Z+10, r27	; 0x0a
    40ba:	17 83       	std	Z+7, r17	; 0x07
    40bc:	06 83       	std	Z+6, r16	; 0x06
    40be:	71 87       	std	Z+9, r23	; 0x09
    40c0:	60 87       	std	Z+8, r22	; 0x08
    40c2:	01 96       	adiw	r24, 0x01	; 1
    40c4:	88 30       	cpi	r24, 0x08	; 8
    40c6:	91 05       	cpc	r25, r1
    40c8:	b1 f6       	brne	.-84     	; 0x4076 <SetPpmLimit+0x8e>
    40ca:	56 c0       	rjmp	.+172    	; 0x4178 <SetPpmLimit+0x190>
    40cc:	e8 30       	cpi	r30, 0x08	; 8
    40ce:	08 f0       	brcs	.+2      	; 0x40d2 <SetPpmLimit+0xea>
    40d0:	55 c0       	rjmp	.+170    	; 0x417c <SetPpmLimit+0x194>
    40d2:	e1 14       	cp	r14, r1
    40d4:	f1 04       	cpc	r15, r1
    40d6:	d1 f4       	brne	.+52     	; 0x410c <SetPpmLimit+0x124>
    40d8:	20 97       	sbiw	r28, 0x00	; 0
    40da:	c1 f4       	brne	.+48     	; 0x410c <SetPpmLimit+0x124>
    40dc:	8e 2f       	mov	r24, r30
    40de:	90 e0       	ldi	r25, 0x00	; 0
    40e0:	fc 01       	movw	r30, r24
    40e2:	ee 0f       	add	r30, r30
    40e4:	ff 1f       	adc	r31, r31
    40e6:	e8 0f       	add	r30, r24
    40e8:	f9 1f       	adc	r31, r25
    40ea:	ee 0f       	add	r30, r30
    40ec:	ff 1f       	adc	r31, r31
    40ee:	ee 0f       	add	r30, r30
    40f0:	ff 1f       	adc	r31, r31
    40f2:	e8 53       	subi	r30, 0x38	; 56
    40f4:	f3 4f       	sbci	r31, 0xF3	; 243
    40f6:	80 ef       	ldi	r24, 0xF0	; 240
    40f8:	82 87       	std	Z+10, r24	; 0x0a
    40fa:	80 e4       	ldi	r24, 0x40	; 64
    40fc:	9f e1       	ldi	r25, 0x1F	; 31
    40fe:	97 83       	std	Z+7, r25	; 0x07
    4100:	86 83       	std	Z+6, r24	; 0x06
    4102:	80 e2       	ldi	r24, 0x20	; 32
    4104:	9c e9       	ldi	r25, 0x9C	; 156
    4106:	91 87       	std	Z+9, r25	; 0x09
    4108:	80 87       	std	Z+8, r24	; 0x08
    410a:	36 c0       	rjmp	.+108    	; 0x4178 <SetPpmLimit+0x190>
    410c:	8e 2f       	mov	r24, r30
    410e:	90 e0       	ldi	r25, 0x00	; 0
    4110:	8c 01       	movw	r16, r24
    4112:	00 0f       	add	r16, r16
    4114:	11 1f       	adc	r17, r17
    4116:	08 0f       	add	r16, r24
    4118:	19 1f       	adc	r17, r25
    411a:	00 0f       	add	r16, r16
    411c:	11 1f       	adc	r17, r17
    411e:	00 0f       	add	r16, r16
    4120:	11 1f       	adc	r17, r17
    4122:	08 53       	subi	r16, 0x38	; 56
    4124:	13 4f       	sbci	r17, 0xF3	; 243
    4126:	8f e0       	ldi	r24, 0x0F	; 15
    4128:	f8 01       	movw	r30, r16
    412a:	82 87       	std	Z+10, r24	; 0x0a
    412c:	b7 01       	movw	r22, r14
    412e:	80 e0       	ldi	r24, 0x00	; 0
    4130:	90 e0       	ldi	r25, 0x00	; 0
    4132:	24 ef       	ldi	r18, 0xF4	; 244
    4134:	31 e0       	ldi	r19, 0x01	; 1
    4136:	40 e0       	ldi	r20, 0x00	; 0
    4138:	50 e0       	ldi	r21, 0x00	; 0
    413a:	0e 94 69 42 	call	0x84d2	; 0x84d2 <__mulsi3>
    413e:	b4 e0       	ldi	r27, 0x04	; 4
    4140:	96 95       	lsr	r25
    4142:	87 95       	ror	r24
    4144:	77 95       	ror	r23
    4146:	67 95       	ror	r22
    4148:	ba 95       	dec	r27
    414a:	d1 f7       	brne	.-12     	; 0x4140 <SetPpmLimit+0x158>
    414c:	60 5c       	subi	r22, 0xC0	; 192
    414e:	70 4e       	sbci	r23, 0xE0	; 224
    4150:	f8 01       	movw	r30, r16
    4152:	77 83       	std	Z+7, r23	; 0x07
    4154:	66 83       	std	Z+6, r22	; 0x06
    4156:	be 01       	movw	r22, r28
    4158:	80 e0       	ldi	r24, 0x00	; 0
    415a:	90 e0       	ldi	r25, 0x00	; 0
    415c:	0e 94 69 42 	call	0x84d2	; 0x84d2 <__mulsi3>
    4160:	a4 e0       	ldi	r26, 0x04	; 4
    4162:	96 95       	lsr	r25
    4164:	87 95       	ror	r24
    4166:	77 95       	ror	r23
    4168:	67 95       	ror	r22
    416a:	aa 95       	dec	r26
    416c:	d1 f7       	brne	.-12     	; 0x4162 <SetPpmLimit+0x17a>
    416e:	60 5c       	subi	r22, 0xC0	; 192
    4170:	70 4e       	sbci	r23, 0xE0	; 224
    4172:	f8 01       	movw	r30, r16
    4174:	71 87       	std	Z+9, r23	; 0x09
    4176:	60 87       	std	Z+8, r22	; 0x08
    4178:	81 e0       	ldi	r24, 0x01	; 1
    417a:	01 c0       	rjmp	.+2      	; 0x417e <SetPpmLimit+0x196>
    417c:	80 e0       	ldi	r24, 0x00	; 0
    417e:	df 91       	pop	r29
    4180:	cf 91       	pop	r28
    4182:	1f 91       	pop	r17
    4184:	0f 91       	pop	r16
    4186:	ff 90       	pop	r15
    4188:	ef 90       	pop	r14
    418a:	08 95       	ret

0000418c <GetPpmLimit>:
    418c:	ef 92       	push	r14
    418e:	ff 92       	push	r15
    4190:	0f 93       	push	r16
    4192:	1f 93       	push	r17
    4194:	cf 93       	push	r28
    4196:	df 93       	push	r29
    4198:	7b 01       	movw	r14, r22
    419a:	8a 01       	movw	r16, r20
    419c:	88 30       	cpi	r24, 0x08	; 8
    419e:	10 f0       	brcs	.+4      	; 0x41a4 <GetPpmLimit+0x18>
    41a0:	80 e0       	ldi	r24, 0x00	; 0
    41a2:	3f c0       	rjmp	.+126    	; 0x4222 <GetPpmLimit+0x96>
    41a4:	90 e0       	ldi	r25, 0x00	; 0
    41a6:	ec 01       	movw	r28, r24
    41a8:	cc 0f       	add	r28, r28
    41aa:	dd 1f       	adc	r29, r29
    41ac:	c8 0f       	add	r28, r24
    41ae:	d9 1f       	adc	r29, r25
    41b0:	cc 0f       	add	r28, r28
    41b2:	dd 1f       	adc	r29, r29
    41b4:	cc 0f       	add	r28, r28
    41b6:	dd 1f       	adc	r29, r29
    41b8:	c8 53       	subi	r28, 0x38	; 56
    41ba:	d3 4f       	sbci	r29, 0xF3	; 243
    41bc:	8a 85       	ldd	r24, Y+10	; 0x0a
    41be:	80 3f       	cpi	r24, 0xF0	; 240
    41c0:	39 f4       	brne	.+14     	; 0x41d0 <GetPpmLimit+0x44>
    41c2:	fa 01       	movw	r30, r20
    41c4:	11 82       	std	Z+1, r1	; 0x01
    41c6:	10 82       	st	Z, r1
    41c8:	fb 01       	movw	r30, r22
    41ca:	11 82       	std	Z+1, r1	; 0x01
    41cc:	10 82       	st	Z, r1
    41ce:	28 c0       	rjmp	.+80     	; 0x4220 <GetPpmLimit+0x94>
    41d0:	68 85       	ldd	r22, Y+8	; 0x08
    41d2:	79 85       	ldd	r23, Y+9	; 0x09
    41d4:	60 54       	subi	r22, 0x40	; 64
    41d6:	7f 41       	sbci	r23, 0x1F	; 31
    41d8:	80 e0       	ldi	r24, 0x00	; 0
    41da:	90 e0       	ldi	r25, 0x00	; 0
    41dc:	22 e8       	ldi	r18, 0x82	; 130
    41de:	30 e0       	ldi	r19, 0x00	; 0
    41e0:	40 e0       	ldi	r20, 0x00	; 0
    41e2:	50 e0       	ldi	r21, 0x00	; 0
    41e4:	0e 94 69 42 	call	0x84d2	; 0x84d2 <__mulsi3>
    41e8:	bc e0       	ldi	r27, 0x0C	; 12
    41ea:	96 95       	lsr	r25
    41ec:	87 95       	ror	r24
    41ee:	77 95       	ror	r23
    41f0:	67 95       	ror	r22
    41f2:	ba 95       	dec	r27
    41f4:	d1 f7       	brne	.-12     	; 0x41ea <GetPpmLimit+0x5e>
    41f6:	f8 01       	movw	r30, r16
    41f8:	71 83       	std	Z+1, r23	; 0x01
    41fa:	60 83       	st	Z, r22
    41fc:	6e 81       	ldd	r22, Y+6	; 0x06
    41fe:	7f 81       	ldd	r23, Y+7	; 0x07
    4200:	60 54       	subi	r22, 0x40	; 64
    4202:	7f 41       	sbci	r23, 0x1F	; 31
    4204:	80 e0       	ldi	r24, 0x00	; 0
    4206:	90 e0       	ldi	r25, 0x00	; 0
    4208:	0e 94 69 42 	call	0x84d2	; 0x84d2 <__mulsi3>
    420c:	ac e0       	ldi	r26, 0x0C	; 12
    420e:	96 95       	lsr	r25
    4210:	87 95       	ror	r24
    4212:	77 95       	ror	r23
    4214:	67 95       	ror	r22
    4216:	aa 95       	dec	r26
    4218:	d1 f7       	brne	.-12     	; 0x420e <GetPpmLimit+0x82>
    421a:	f7 01       	movw	r30, r14
    421c:	71 83       	std	Z+1, r23	; 0x01
    421e:	60 83       	st	Z, r22
    4220:	81 e0       	ldi	r24, 0x01	; 1
    4222:	df 91       	pop	r29
    4224:	cf 91       	pop	r28
    4226:	1f 91       	pop	r17
    4228:	0f 91       	pop	r16
    422a:	ff 90       	pop	r15
    422c:	ef 90       	pop	r14
    422e:	08 95       	ret

00004230 <GetPpmPosition>:
    4230:	cf 93       	push	r28
    4232:	df 93       	push	r29
    4234:	eb 01       	movw	r28, r22
    4236:	88 30       	cpi	r24, 0x08	; 8
    4238:	10 f0       	brcs	.+4      	; 0x423e <GetPpmPosition+0xe>
    423a:	80 e0       	ldi	r24, 0x00	; 0
    423c:	22 c0       	rjmp	.+68     	; 0x4282 <GetPpmPosition+0x52>
    423e:	90 e0       	ldi	r25, 0x00	; 0
    4240:	fc 01       	movw	r30, r24
    4242:	ee 0f       	add	r30, r30
    4244:	ff 1f       	adc	r31, r31
    4246:	e8 0f       	add	r30, r24
    4248:	f9 1f       	adc	r31, r25
    424a:	ee 0f       	add	r30, r30
    424c:	ff 1f       	adc	r31, r31
    424e:	ee 0f       	add	r30, r30
    4250:	ff 1f       	adc	r31, r31
    4252:	e4 53       	subi	r30, 0x34	; 52
    4254:	f3 4f       	sbci	r31, 0xF3	; 243
    4256:	60 81       	ld	r22, Z
    4258:	71 81       	ldd	r23, Z+1	; 0x01
    425a:	60 54       	subi	r22, 0x40	; 64
    425c:	7f 41       	sbci	r23, 0x1F	; 31
    425e:	80 e0       	ldi	r24, 0x00	; 0
    4260:	90 e0       	ldi	r25, 0x00	; 0
    4262:	22 e8       	ldi	r18, 0x82	; 130
    4264:	30 e0       	ldi	r19, 0x00	; 0
    4266:	40 e0       	ldi	r20, 0x00	; 0
    4268:	50 e0       	ldi	r21, 0x00	; 0
    426a:	0e 94 69 42 	call	0x84d2	; 0x84d2 <__mulsi3>
    426e:	3c e0       	ldi	r19, 0x0C	; 12
    4270:	96 95       	lsr	r25
    4272:	87 95       	ror	r24
    4274:	77 95       	ror	r23
    4276:	67 95       	ror	r22
    4278:	3a 95       	dec	r19
    427a:	d1 f7       	brne	.-12     	; 0x4270 <GetPpmPosition+0x40>
    427c:	79 83       	std	Y+1, r23	; 0x01
    427e:	68 83       	st	Y, r22
    4280:	81 e0       	ldi	r24, 0x01	; 1
    4282:	df 91       	pop	r29
    4284:	cf 91       	pop	r28
    4286:	08 95       	ret

00004288 <RunPpm>:
    4288:	cf 93       	push	r28
    428a:	df 93       	push	r29
    428c:	8e 31       	cpi	r24, 0x1E	; 30
    428e:	09 f0       	breq	.+2      	; 0x4292 <RunPpm+0xa>
    4290:	6d c0       	rjmp	.+218    	; 0x436c <RunPpm+0xe4>
    4292:	40 e0       	ldi	r20, 0x00	; 0
    4294:	50 e0       	ldi	r21, 0x00	; 0
    4296:	61 e0       	ldi	r22, 0x01	; 1
    4298:	ca 01       	movw	r24, r20
    429a:	88 0f       	add	r24, r24
    429c:	99 1f       	adc	r25, r25
    429e:	84 0f       	add	r24, r20
    42a0:	95 1f       	adc	r25, r21
    42a2:	88 0f       	add	r24, r24
    42a4:	99 1f       	adc	r25, r25
    42a6:	88 0f       	add	r24, r24
    42a8:	99 1f       	adc	r25, r25
    42aa:	dc 01       	movw	r26, r24
    42ac:	12 96       	adiw	r26, 0x02	; 2
    42ae:	fd 01       	movw	r30, r26
    42b0:	e8 53       	subi	r30, 0x38	; 56
    42b2:	f3 4f       	sbci	r31, 0xF3	; 243
    42b4:	20 81       	ld	r18, Z
    42b6:	31 81       	ldd	r19, Z+1	; 0x01
    42b8:	fc 01       	movw	r30, r24
    42ba:	e8 53       	subi	r30, 0x38	; 56
    42bc:	f3 4f       	sbci	r31, 0xF3	; 243
    42be:	80 85       	ldd	r24, Z+8	; 0x08
    42c0:	91 85       	ldd	r25, Z+9	; 0x09
    42c2:	82 17       	cp	r24, r18
    42c4:	93 07       	cpc	r25, r19
    42c6:	38 f4       	brcc	.+14     	; 0x42d6 <RunPpm+0x4e>
    42c8:	80 85       	ldd	r24, Z+8	; 0x08
    42ca:	91 85       	ldd	r25, Z+9	; 0x09
    42cc:	a8 59       	subi	r26, 0x98	; 152
    42ce:	b3 4f       	sbci	r27, 0xF3	; 243
    42d0:	11 96       	adiw	r26, 0x01	; 1
    42d2:	9c 93       	st	X, r25
    42d4:	8e 93       	st	-X, r24
    42d6:	ca 01       	movw	r24, r20
    42d8:	88 0f       	add	r24, r24
    42da:	99 1f       	adc	r25, r25
    42dc:	84 0f       	add	r24, r20
    42de:	95 1f       	adc	r25, r21
    42e0:	88 0f       	add	r24, r24
    42e2:	99 1f       	adc	r25, r25
    42e4:	88 0f       	add	r24, r24
    42e6:	99 1f       	adc	r25, r25
    42e8:	dc 01       	movw	r26, r24
    42ea:	12 96       	adiw	r26, 0x02	; 2
    42ec:	fd 01       	movw	r30, r26
    42ee:	e8 53       	subi	r30, 0x38	; 56
    42f0:	f3 4f       	sbci	r31, 0xF3	; 243
    42f2:	20 81       	ld	r18, Z
    42f4:	31 81       	ldd	r19, Z+1	; 0x01
    42f6:	fc 01       	movw	r30, r24
    42f8:	e8 53       	subi	r30, 0x38	; 56
    42fa:	f3 4f       	sbci	r31, 0xF3	; 243
    42fc:	86 81       	ldd	r24, Z+6	; 0x06
    42fe:	97 81       	ldd	r25, Z+7	; 0x07
    4300:	28 17       	cp	r18, r24
    4302:	39 07       	cpc	r19, r25
    4304:	38 f4       	brcc	.+14     	; 0x4314 <RunPpm+0x8c>
    4306:	86 81       	ldd	r24, Z+6	; 0x06
    4308:	97 81       	ldd	r25, Z+7	; 0x07
    430a:	a8 59       	subi	r26, 0x98	; 152
    430c:	b3 4f       	sbci	r27, 0xF3	; 243
    430e:	11 96       	adiw	r26, 0x01	; 1
    4310:	9c 93       	st	X, r25
    4312:	8e 93       	st	-X, r24
    4314:	fa 01       	movw	r30, r20
    4316:	ee 0f       	add	r30, r30
    4318:	ff 1f       	adc	r31, r31
    431a:	e4 0f       	add	r30, r20
    431c:	f5 1f       	adc	r31, r21
    431e:	df 01       	movw	r26, r30
    4320:	aa 0f       	add	r26, r26
    4322:	bb 1f       	adc	r27, r27
    4324:	aa 0f       	add	r26, r26
    4326:	bb 1f       	adc	r27, r27
    4328:	9d 01       	movw	r18, r26
    432a:	28 53       	subi	r18, 0x38	; 56
    432c:	33 4f       	sbci	r19, 0xF3	; 243
    432e:	e9 01       	movw	r28, r18
    4330:	88 81       	ld	r24, Y
    4332:	99 81       	ldd	r25, Y+1	; 0x01
    4334:	a8 59       	subi	r26, 0x98	; 152
    4336:	b3 4f       	sbci	r27, 0xF3	; 243
    4338:	11 96       	adiw	r26, 0x01	; 1
    433a:	9c 93       	st	X, r25
    433c:	8e 93       	st	-X, r24
    433e:	ee 0f       	add	r30, r30
    4340:	ff 1f       	adc	r31, r31
    4342:	ee 0f       	add	r30, r30
    4344:	ff 1f       	adc	r31, r31
    4346:	32 96       	adiw	r30, 0x02	; 2
    4348:	df 01       	movw	r26, r30
    434a:	a8 53       	subi	r26, 0x38	; 56
    434c:	b3 4f       	sbci	r27, 0xF3	; 243
    434e:	8d 91       	ld	r24, X+
    4350:	9c 91       	ld	r25, X
    4352:	e8 59       	subi	r30, 0x98	; 152
    4354:	f3 4f       	sbci	r31, 0xF3	; 243
    4356:	91 83       	std	Z+1, r25	; 0x01
    4358:	80 83       	st	Z, r24
    435a:	6b 87       	std	Y+11, r22	; 0x0b
    435c:	4f 5f       	subi	r20, 0xFF	; 255
    435e:	5f 4f       	sbci	r21, 0xFF	; 255
    4360:	48 30       	cpi	r20, 0x08	; 8
    4362:	51 05       	cpc	r21, r1
    4364:	09 f0       	breq	.+2      	; 0x4368 <RunPpm+0xe0>
    4366:	98 cf       	rjmp	.-208    	; 0x4298 <RunPpm+0x10>
    4368:	81 e0       	ldi	r24, 0x01	; 1
    436a:	69 c0       	rjmp	.+210    	; 0x443e <RunPpm+0x1b6>
    436c:	88 30       	cpi	r24, 0x08	; 8
    436e:	10 f0       	brcs	.+4      	; 0x4374 <RunPpm+0xec>
    4370:	80 e0       	ldi	r24, 0x00	; 0
    4372:	65 c0       	rjmp	.+202    	; 0x443e <RunPpm+0x1b6>
    4374:	48 2f       	mov	r20, r24
    4376:	50 e0       	ldi	r21, 0x00	; 0
    4378:	ca 01       	movw	r24, r20
    437a:	88 0f       	add	r24, r24
    437c:	99 1f       	adc	r25, r25
    437e:	84 0f       	add	r24, r20
    4380:	95 1f       	adc	r25, r21
    4382:	88 0f       	add	r24, r24
    4384:	99 1f       	adc	r25, r25
    4386:	88 0f       	add	r24, r24
    4388:	99 1f       	adc	r25, r25
    438a:	dc 01       	movw	r26, r24
    438c:	12 96       	adiw	r26, 0x02	; 2
    438e:	fd 01       	movw	r30, r26
    4390:	e8 53       	subi	r30, 0x38	; 56
    4392:	f3 4f       	sbci	r31, 0xF3	; 243
    4394:	20 81       	ld	r18, Z
    4396:	31 81       	ldd	r19, Z+1	; 0x01
    4398:	fc 01       	movw	r30, r24
    439a:	e8 53       	subi	r30, 0x38	; 56
    439c:	f3 4f       	sbci	r31, 0xF3	; 243
    439e:	80 85       	ldd	r24, Z+8	; 0x08
    43a0:	91 85       	ldd	r25, Z+9	; 0x09
    43a2:	82 17       	cp	r24, r18
    43a4:	93 07       	cpc	r25, r19
    43a6:	38 f4       	brcc	.+14     	; 0x43b6 <RunPpm+0x12e>
    43a8:	80 85       	ldd	r24, Z+8	; 0x08
    43aa:	91 85       	ldd	r25, Z+9	; 0x09
    43ac:	a8 59       	subi	r26, 0x98	; 152
    43ae:	b3 4f       	sbci	r27, 0xF3	; 243
    43b0:	11 96       	adiw	r26, 0x01	; 1
    43b2:	9c 93       	st	X, r25
    43b4:	8e 93       	st	-X, r24
    43b6:	ca 01       	movw	r24, r20
    43b8:	88 0f       	add	r24, r24
    43ba:	99 1f       	adc	r25, r25
    43bc:	84 0f       	add	r24, r20
    43be:	95 1f       	adc	r25, r21
    43c0:	88 0f       	add	r24, r24
    43c2:	99 1f       	adc	r25, r25
    43c4:	88 0f       	add	r24, r24
    43c6:	99 1f       	adc	r25, r25
    43c8:	dc 01       	movw	r26, r24
    43ca:	12 96       	adiw	r26, 0x02	; 2
    43cc:	fd 01       	movw	r30, r26
    43ce:	e8 53       	subi	r30, 0x38	; 56
    43d0:	f3 4f       	sbci	r31, 0xF3	; 243
    43d2:	20 81       	ld	r18, Z
    43d4:	31 81       	ldd	r19, Z+1	; 0x01
    43d6:	fc 01       	movw	r30, r24
    43d8:	e8 53       	subi	r30, 0x38	; 56
    43da:	f3 4f       	sbci	r31, 0xF3	; 243
    43dc:	86 81       	ldd	r24, Z+6	; 0x06
    43de:	97 81       	ldd	r25, Z+7	; 0x07
    43e0:	28 17       	cp	r18, r24
    43e2:	39 07       	cpc	r19, r25
    43e4:	38 f4       	brcc	.+14     	; 0x43f4 <RunPpm+0x16c>
    43e6:	86 81       	ldd	r24, Z+6	; 0x06
    43e8:	97 81       	ldd	r25, Z+7	; 0x07
    43ea:	a8 59       	subi	r26, 0x98	; 152
    43ec:	b3 4f       	sbci	r27, 0xF3	; 243
    43ee:	11 96       	adiw	r26, 0x01	; 1
    43f0:	9c 93       	st	X, r25
    43f2:	8e 93       	st	-X, r24
    43f4:	fa 01       	movw	r30, r20
    43f6:	ee 0f       	add	r30, r30
    43f8:	ff 1f       	adc	r31, r31
    43fa:	e4 0f       	add	r30, r20
    43fc:	f5 1f       	adc	r31, r21
    43fe:	df 01       	movw	r26, r30
    4400:	aa 0f       	add	r26, r26
    4402:	bb 1f       	adc	r27, r27
    4404:	aa 0f       	add	r26, r26
    4406:	bb 1f       	adc	r27, r27
    4408:	9d 01       	movw	r18, r26
    440a:	28 53       	subi	r18, 0x38	; 56
    440c:	33 4f       	sbci	r19, 0xF3	; 243
    440e:	e9 01       	movw	r28, r18
    4410:	88 81       	ld	r24, Y
    4412:	99 81       	ldd	r25, Y+1	; 0x01
    4414:	a8 59       	subi	r26, 0x98	; 152
    4416:	b3 4f       	sbci	r27, 0xF3	; 243
    4418:	11 96       	adiw	r26, 0x01	; 1
    441a:	9c 93       	st	X, r25
    441c:	8e 93       	st	-X, r24
    441e:	ee 0f       	add	r30, r30
    4420:	ff 1f       	adc	r31, r31
    4422:	ee 0f       	add	r30, r30
    4424:	ff 1f       	adc	r31, r31
    4426:	32 96       	adiw	r30, 0x02	; 2
    4428:	df 01       	movw	r26, r30
    442a:	a8 53       	subi	r26, 0x38	; 56
    442c:	b3 4f       	sbci	r27, 0xF3	; 243
    442e:	8d 91       	ld	r24, X+
    4430:	9c 91       	ld	r25, X
    4432:	e8 59       	subi	r30, 0x98	; 152
    4434:	f3 4f       	sbci	r31, 0xF3	; 243
    4436:	91 83       	std	Z+1, r25	; 0x01
    4438:	80 83       	st	Z, r24
    443a:	81 e0       	ldi	r24, 0x01	; 1
    443c:	8b 87       	std	Y+11, r24	; 0x0b
    443e:	df 91       	pop	r29
    4440:	cf 91       	pop	r28
    4442:	08 95       	ret

00004444 <StopPpm>:
    4444:	8e 31       	cpi	r24, 0x1E	; 30
    4446:	a1 f4       	brne	.+40     	; 0x4470 <StopPpm+0x2c>
    4448:	80 e0       	ldi	r24, 0x00	; 0
    444a:	90 e0       	ldi	r25, 0x00	; 0
    444c:	fc 01       	movw	r30, r24
    444e:	ee 0f       	add	r30, r30
    4450:	ff 1f       	adc	r31, r31
    4452:	e8 0f       	add	r30, r24
    4454:	f9 1f       	adc	r31, r25
    4456:	ee 0f       	add	r30, r30
    4458:	ff 1f       	adc	r31, r31
    445a:	ee 0f       	add	r30, r30
    445c:	ff 1f       	adc	r31, r31
    445e:	e8 53       	subi	r30, 0x38	; 56
    4460:	f3 4f       	sbci	r31, 0xF3	; 243
    4462:	13 86       	std	Z+11, r1	; 0x0b
    4464:	01 96       	adiw	r24, 0x01	; 1
    4466:	88 30       	cpi	r24, 0x08	; 8
    4468:	91 05       	cpc	r25, r1
    446a:	81 f7       	brne	.-32     	; 0x444c <StopPpm+0x8>
    446c:	81 e0       	ldi	r24, 0x01	; 1
    446e:	08 95       	ret
    4470:	88 30       	cpi	r24, 0x08	; 8
    4472:	10 f0       	brcs	.+4      	; 0x4478 <StopPpm+0x34>
    4474:	80 e0       	ldi	r24, 0x00	; 0
    4476:	08 95       	ret
    4478:	90 e0       	ldi	r25, 0x00	; 0
    447a:	fc 01       	movw	r30, r24
    447c:	ee 0f       	add	r30, r30
    447e:	ff 1f       	adc	r31, r31
    4480:	e8 0f       	add	r30, r24
    4482:	f9 1f       	adc	r31, r25
    4484:	ee 0f       	add	r30, r30
    4486:	ff 1f       	adc	r31, r31
    4488:	ee 0f       	add	r30, r30
    448a:	ff 1f       	adc	r31, r31
    448c:	e8 53       	subi	r30, 0x38	; 56
    448e:	f3 4f       	sbci	r31, 0xF3	; 243
    4490:	13 86       	std	Z+11, r1	; 0x0b
    4492:	81 e0       	ldi	r24, 0x01	; 1
    4494:	08 95       	ret

00004496 <__vector_26>:
    4496:	1f 92       	push	r1
    4498:	0f 92       	push	r0
    449a:	0f b6       	in	r0, 0x3f	; 63
    449c:	0f 92       	push	r0
    449e:	11 24       	eor	r1, r1
    44a0:	15 ba       	out	0x15, r1	; 21
    44a2:	0f 90       	pop	r0
    44a4:	0f be       	out	0x3f, r0	; 63
    44a6:	0f 90       	pop	r0
    44a8:	1f 90       	pop	r1
    44aa:	18 95       	reti

000044ac <IsrPpmOverFlow>:
    44ac:	1f 93       	push	r17
    44ae:	cf 93       	push	r28
    44b0:	df 93       	push	r29
    44b2:	10 91 5c 07 	lds	r17, 0x075C
    44b6:	1f 5f       	subi	r17, 0xFF	; 255
    44b8:	18 30       	cpi	r17, 0x08	; 8
    44ba:	08 f0       	brcs	.+2      	; 0x44be <IsrPpmOverFlow+0x12>
    44bc:	10 e0       	ldi	r17, 0x00	; 0
    44be:	15 ba       	out	0x15, r1	; 21
    44c0:	61 2f       	mov	r22, r17
    44c2:	70 e0       	ldi	r23, 0x00	; 0
    44c4:	fb 01       	movw	r30, r22
    44c6:	ee 0f       	add	r30, r30
    44c8:	ff 1f       	adc	r31, r31
    44ca:	e6 0f       	add	r30, r22
    44cc:	f7 1f       	adc	r31, r23
    44ce:	ee 0f       	add	r30, r30
    44d0:	ff 1f       	adc	r31, r31
    44d2:	ee 0f       	add	r30, r30
    44d4:	ff 1f       	adc	r31, r31
    44d6:	e8 53       	subi	r30, 0x38	; 56
    44d8:	f3 4f       	sbci	r31, 0xF3	; 243
    44da:	83 85       	ldd	r24, Z+11	; 0x0b
    44dc:	81 30       	cpi	r24, 0x01	; 1
    44de:	71 f4       	brne	.+28     	; 0x44fc <IsrPpmOverFlow+0x50>
    44e0:	25 b3       	in	r18, 0x15	; 21
    44e2:	fb 01       	movw	r30, r22
    44e4:	e5 5a       	subi	r30, 0xA5	; 165
    44e6:	f8 4f       	sbci	r31, 0xF8	; 248
    44e8:	32 81       	ldd	r19, Z+2	; 0x02
    44ea:	81 e0       	ldi	r24, 0x01	; 1
    44ec:	90 e0       	ldi	r25, 0x00	; 0
    44ee:	02 c0       	rjmp	.+4      	; 0x44f4 <IsrPpmOverFlow+0x48>
    44f0:	88 0f       	add	r24, r24
    44f2:	99 1f       	adc	r25, r25
    44f4:	3a 95       	dec	r19
    44f6:	e2 f7       	brpl	.-8      	; 0x44f0 <IsrPpmOverFlow+0x44>
    44f8:	28 2b       	or	r18, r24
    44fa:	25 bb       	out	0x15, r18	; 21
    44fc:	9b 01       	movw	r18, r22
    44fe:	22 0f       	add	r18, r18
    4500:	33 1f       	adc	r19, r19
    4502:	26 0f       	add	r18, r22
    4504:	37 1f       	adc	r19, r23
    4506:	e9 01       	movw	r28, r18
    4508:	cc 0f       	add	r28, r28
    450a:	dd 1f       	adc	r29, r29
    450c:	cc 0f       	add	r28, r28
    450e:	dd 1f       	adc	r29, r29
    4510:	c6 59       	subi	r28, 0x96	; 150
    4512:	d3 4f       	sbci	r29, 0xF3	; 243
    4514:	48 81       	ld	r20, Y
    4516:	59 81       	ldd	r21, Y+1	; 0x01
    4518:	d9 01       	movw	r26, r18
    451a:	aa 0f       	add	r26, r26
    451c:	bb 1f       	adc	r27, r27
    451e:	aa 0f       	add	r26, r26
    4520:	bb 1f       	adc	r27, r27
    4522:	a4 59       	subi	r26, 0x94	; 148
    4524:	b3 4f       	sbci	r27, 0xF3	; 243
    4526:	8d 91       	ld	r24, X+
    4528:	9c 91       	ld	r25, X
    452a:	11 97       	sbiw	r26, 0x01	; 1
    452c:	48 1b       	sub	r20, r24
    452e:	59 0b       	sbc	r21, r25
    4530:	14 16       	cp	r1, r20
    4532:	15 06       	cpc	r1, r21
    4534:	a4 f4       	brge	.+40     	; 0x455e <IsrPpmOverFlow+0xb2>
    4536:	f9 01       	movw	r30, r18
    4538:	ee 0f       	add	r30, r30
    453a:	ff 1f       	adc	r31, r31
    453c:	ee 0f       	add	r30, r30
    453e:	ff 1f       	adc	r31, r31
    4540:	e8 59       	subi	r30, 0x98	; 152
    4542:	f3 4f       	sbci	r31, 0xF3	; 243
    4544:	80 81       	ld	r24, Z
    4546:	91 81       	ldd	r25, Z+1	; 0x01
    4548:	84 17       	cp	r24, r20
    454a:	95 07       	cpc	r25, r21
    454c:	d8 f4       	brcc	.+54     	; 0x4584 <IsrPpmOverFlow+0xd8>
    454e:	2d 91       	ld	r18, X+
    4550:	3c 91       	ld	r19, X
    4552:	11 97       	sbiw	r26, 0x01	; 1
    4554:	80 81       	ld	r24, Z
    4556:	91 81       	ldd	r25, Z+1	; 0x01
    4558:	82 0f       	add	r24, r18
    455a:	93 1f       	adc	r25, r19
    455c:	1d c0       	rjmp	.+58     	; 0x4598 <IsrPpmOverFlow+0xec>
    455e:	41 15       	cp	r20, r1
    4560:	51 05       	cpc	r21, r1
    4562:	e9 f0       	breq	.+58     	; 0x459e <IsrPpmOverFlow+0xf2>
    4564:	f9 01       	movw	r30, r18
    4566:	ee 0f       	add	r30, r30
    4568:	ff 1f       	adc	r31, r31
    456a:	ee 0f       	add	r30, r30
    456c:	ff 1f       	adc	r31, r31
    456e:	e8 59       	subi	r30, 0x98	; 152
    4570:	f3 4f       	sbci	r31, 0xF3	; 243
    4572:	20 81       	ld	r18, Z
    4574:	31 81       	ldd	r19, Z+1	; 0x01
    4576:	88 27       	eor	r24, r24
    4578:	99 27       	eor	r25, r25
    457a:	84 1b       	sub	r24, r20
    457c:	95 0b       	sbc	r25, r21
    457e:	28 17       	cp	r18, r24
    4580:	39 07       	cpc	r19, r25
    4582:	18 f0       	brcs	.+6      	; 0x458a <IsrPpmOverFlow+0xde>
    4584:	88 81       	ld	r24, Y
    4586:	99 81       	ldd	r25, Y+1	; 0x01
    4588:	07 c0       	rjmp	.+14     	; 0x4598 <IsrPpmOverFlow+0xec>
    458a:	8d 91       	ld	r24, X+
    458c:	9c 91       	ld	r25, X
    458e:	11 97       	sbiw	r26, 0x01	; 1
    4590:	20 81       	ld	r18, Z
    4592:	31 81       	ldd	r19, Z+1	; 0x01
    4594:	82 1b       	sub	r24, r18
    4596:	93 0b       	sbc	r25, r19
    4598:	11 96       	adiw	r26, 0x01	; 1
    459a:	9c 93       	st	X, r25
    459c:	8e 93       	st	-X, r24
    459e:	fb 01       	movw	r30, r22
    45a0:	ee 0f       	add	r30, r30
    45a2:	ff 1f       	adc	r31, r31
    45a4:	e6 0f       	add	r30, r22
    45a6:	f7 1f       	adc	r31, r23
    45a8:	31 96       	adiw	r30, 0x01	; 1
    45aa:	ee 0f       	add	r30, r30
    45ac:	ff 1f       	adc	r31, r31
    45ae:	ee 0f       	add	r30, r30
    45b0:	ff 1f       	adc	r31, r31
    45b2:	df 01       	movw	r26, r30
    45b4:	a8 59       	subi	r26, 0x98	; 152
    45b6:	b3 4f       	sbci	r27, 0xF3	; 243
    45b8:	8d 91       	ld	r24, X+
    45ba:	9c 91       	ld	r25, X
    45bc:	11 97       	sbiw	r26, 0x01	; 1
    45be:	e8 53       	subi	r30, 0x38	; 56
    45c0:	f3 4f       	sbci	r31, 0xF3	; 243
    45c2:	91 83       	std	Z+1, r25	; 0x01
    45c4:	80 83       	st	Z, r24
    45c6:	8d 91       	ld	r24, X+
    45c8:	9c 91       	ld	r25, X
    45ca:	e0 91 af 07 	lds	r30, 0x07AF
    45ce:	f0 91 b0 07 	lds	r31, 0x07B0
    45d2:	09 95       	icall
    45d4:	10 93 5c 07 	sts	0x075C, r17
    45d8:	df 91       	pop	r29
    45da:	cf 91       	pop	r28
    45dc:	1f 91       	pop	r17
    45de:	08 95       	ret

000045e0 <InitPpm>:
    45e0:	df 92       	push	r13
    45e2:	ef 92       	push	r14
    45e4:	ff 92       	push	r15
    45e6:	0f 93       	push	r16
    45e8:	1f 93       	push	r17
    45ea:	cf 93       	push	r28
    45ec:	df 93       	push	r29
    45ee:	10 92 5b 07 	sts	0x075B, r1
    45f2:	80 91 aa 07 	lds	r24, 0x07AA
    45f6:	87 fd       	sbrc	r24, 7
    45f8:	09 c0       	rjmp	.+18     	; 0x460c <InitPpm+0x2c>
    45fa:	80 91 5b 07 	lds	r24, 0x075B
    45fe:	80 7c       	andi	r24, 0xC0	; 192
    4600:	80 93 5b 07 	sts	0x075B, r24
    4604:	80 91 5b 07 	lds	r24, 0x075B
    4608:	8b 61       	ori	r24, 0x1B	; 27
    460a:	99 c0       	rjmp	.+306    	; 0x473e <InitPpm+0x15e>
    460c:	40 e0       	ldi	r20, 0x00	; 0
    460e:	50 e0       	ldi	r21, 0x00	; 0
    4610:	c4 e5       	ldi	r28, 0x54	; 84
    4612:	d8 e0       	ldi	r29, 0x08	; 8
    4614:	60 ec       	ldi	r22, 0xC0	; 192
    4616:	7d e5       	ldi	r23, 0x5D	; 93
    4618:	20 e4       	ldi	r18, 0x40	; 64
    461a:	e2 2e       	mov	r14, r18
    461c:	2f e1       	ldi	r18, 0x1F	; 31
    461e:	f2 2e       	mov	r15, r18
    4620:	06 e3       	ldi	r16, 0x36	; 54
    4622:	1c e9       	ldi	r17, 0x9C	; 156
    4624:	9f e0       	ldi	r25, 0x0F	; 15
    4626:	d9 2e       	mov	r13, r25
    4628:	da 01       	movw	r26, r20
    462a:	aa 0f       	add	r26, r26
    462c:	bb 1f       	adc	r27, r27
    462e:	a4 0f       	add	r26, r20
    4630:	b5 1f       	adc	r27, r21
    4632:	cd 01       	movw	r24, r26
    4634:	88 0f       	add	r24, r24
    4636:	99 1f       	adc	r25, r25
    4638:	88 0f       	add	r24, r24
    463a:	99 1f       	adc	r25, r25
    463c:	fc 01       	movw	r30, r24
    463e:	e8 59       	subi	r30, 0x98	; 152
    4640:	f3 4f       	sbci	r31, 0xF3	; 243
    4642:	d1 83       	std	Z+1, r29	; 0x01
    4644:	c0 83       	st	Z, r28
    4646:	9c 01       	movw	r18, r24
    4648:	2e 5f       	subi	r18, 0xFE	; 254
    464a:	3f 4f       	sbci	r19, 0xFF	; 255
    464c:	f9 01       	movw	r30, r18
    464e:	e8 59       	subi	r30, 0x98	; 152
    4650:	f3 4f       	sbci	r31, 0xF3	; 243
    4652:	71 83       	std	Z+1, r23	; 0x01
    4654:	60 83       	st	Z, r22
    4656:	11 96       	adiw	r26, 0x01	; 1
    4658:	aa 0f       	add	r26, r26
    465a:	bb 1f       	adc	r27, r27
    465c:	aa 0f       	add	r26, r26
    465e:	bb 1f       	adc	r27, r27
    4660:	fd 01       	movw	r30, r26
    4662:	e8 59       	subi	r30, 0x98	; 152
    4664:	f3 4f       	sbci	r31, 0xF3	; 243
    4666:	71 83       	std	Z+1, r23	; 0x01
    4668:	60 83       	st	Z, r22
    466a:	88 53       	subi	r24, 0x38	; 56
    466c:	93 4f       	sbci	r25, 0xF3	; 243
    466e:	fc 01       	movw	r30, r24
    4670:	f7 82       	std	Z+7, r15	; 0x07
    4672:	e6 82       	std	Z+6, r14	; 0x06
    4674:	11 87       	std	Z+9, r17	; 0x09
    4676:	00 87       	std	Z+8, r16	; 0x08
    4678:	d1 83       	std	Z+1, r29	; 0x01
    467a:	c0 83       	st	Z, r28
    467c:	28 53       	subi	r18, 0x38	; 56
    467e:	33 4f       	sbci	r19, 0xF3	; 243
    4680:	f9 01       	movw	r30, r18
    4682:	71 83       	std	Z+1, r23	; 0x01
    4684:	60 83       	st	Z, r22
    4686:	a8 53       	subi	r26, 0x38	; 56
    4688:	b3 4f       	sbci	r27, 0xF3	; 243
    468a:	11 96       	adiw	r26, 0x01	; 1
    468c:	7c 93       	st	X, r23
    468e:	6e 93       	st	-X, r22
    4690:	fc 01       	movw	r30, r24
    4692:	13 86       	std	Z+11, r1	; 0x0b
    4694:	d2 86       	std	Z+10, r13	; 0x0a
    4696:	4f 5f       	subi	r20, 0xFF	; 255
    4698:	5f 4f       	sbci	r21, 0xFF	; 255
    469a:	48 30       	cpi	r20, 0x08	; 8
    469c:	51 05       	cpc	r21, r1
    469e:	21 f6       	brne	.-120    	; 0x4628 <InitPpm+0x48>
    46a0:	81 e0       	ldi	r24, 0x01	; 1
    46a2:	80 93 5d 07 	sts	0x075D, r24
    46a6:	10 92 5e 07 	sts	0x075E, r1
    46aa:	83 e0       	ldi	r24, 0x03	; 3
    46ac:	80 93 5f 07 	sts	0x075F, r24
    46b0:	82 e0       	ldi	r24, 0x02	; 2
    46b2:	80 93 60 07 	sts	0x0760, r24
    46b6:	85 e0       	ldi	r24, 0x05	; 5
    46b8:	80 93 61 07 	sts	0x0761, r24
    46bc:	84 e0       	ldi	r24, 0x04	; 4
    46be:	80 93 62 07 	sts	0x0762, r24
    46c2:	87 e0       	ldi	r24, 0x07	; 7
    46c4:	80 93 63 07 	sts	0x0763, r24
    46c8:	86 e0       	ldi	r24, 0x06	; 6
    46ca:	80 93 64 07 	sts	0x0764, r24
    46ce:	10 92 5c 07 	sts	0x075C, r1
    46d2:	8f ef       	ldi	r24, 0xFF	; 255
    46d4:	84 bb       	out	0x14, r24	; 20
    46d6:	15 ba       	out	0x15, r1	; 21
    46d8:	82 e4       	ldi	r24, 0x42	; 66
    46da:	9e e1       	ldi	r25, 0x1E	; 30
    46dc:	90 93 72 07 	sts	0x0772, r25
    46e0:	80 93 71 07 	sts	0x0771, r24
    46e4:	84 e4       	ldi	r24, 0x44	; 68
    46e6:	91 e2       	ldi	r25, 0x21	; 33
    46e8:	90 93 74 07 	sts	0x0774, r25
    46ec:	80 93 73 07 	sts	0x0773, r24
    46f0:	84 ef       	ldi	r24, 0xF4	; 244
    46f2:	9f e1       	ldi	r25, 0x1F	; 31
    46f4:	90 93 66 07 	sts	0x0766, r25
    46f8:	80 93 65 07 	sts	0x0765, r24
    46fc:	86 ec       	ldi	r24, 0xC6	; 198
    46fe:	90 e2       	ldi	r25, 0x20	; 32
    4700:	90 93 68 07 	sts	0x0768, r25
    4704:	80 93 67 07 	sts	0x0767, r24
    4708:	88 e1       	ldi	r24, 0x18	; 24
    470a:	91 e2       	ldi	r25, 0x21	; 33
    470c:	90 93 6a 07 	sts	0x076A, r25
    4710:	80 93 69 07 	sts	0x0769, r24
    4714:	82 e2       	ldi	r24, 0x22	; 34
    4716:	92 e2       	ldi	r25, 0x22	; 34
    4718:	90 93 6c 07 	sts	0x076C, r25
    471c:	80 93 6b 07 	sts	0x076B, r24
    4720:	83 ef       	ldi	r24, 0xF3	; 243
    4722:	9e e1       	ldi	r25, 0x1E	; 30
    4724:	90 93 6e 07 	sts	0x076E, r25
    4728:	80 93 6d 07 	sts	0x076D, r24
    472c:	82 e4       	ldi	r24, 0x42	; 66
    472e:	9f e1       	ldi	r25, 0x1F	; 31
    4730:	90 93 70 07 	sts	0x0770, r25
    4734:	80 93 6f 07 	sts	0x076F, r24
    4738:	80 91 5b 07 	lds	r24, 0x075B
    473c:	80 68       	ori	r24, 0x80	; 128
    473e:	80 93 5b 07 	sts	0x075B, r24
    4742:	df 91       	pop	r29
    4744:	cf 91       	pop	r28
    4746:	1f 91       	pop	r17
    4748:	0f 91       	pop	r16
    474a:	ff 90       	pop	r15
    474c:	ef 90       	pop	r14
    474e:	df 90       	pop	r13
    4750:	08 95       	ret

00004752 <EnableExtRam>:
    4752:	10 92 6d 00 	sts	0x006D, r1
    4756:	10 92 6c 00 	sts	0x006C, r1
    475a:	8f ef       	ldi	r24, 0xFF	; 255
    475c:	84 bb       	out	0x14, r24	; 20
    475e:	15 ba       	out	0x15, r1	; 21
    4760:	85 b7       	in	r24, 0x35	; 53
    4762:	80 68       	ori	r24, 0x80	; 128
    4764:	85 bf       	out	0x35, r24	; 53
    4766:	08 95       	ret

00004768 <DisableExtRam>:
    4768:	85 b7       	in	r24, 0x35	; 53
    476a:	8f 77       	andi	r24, 0x7F	; 127
    476c:	85 bf       	out	0x35, r24	; 53
    476e:	08 95       	ret

00004770 <SetXtalDivide>:
    4770:	8f 77       	andi	r24, 0x7F	; 127
    4772:	8c bf       	out	0x3c, r24	; 60
    4774:	08 95       	ret

00004776 <EnableXtalDivide>:
    4776:	8c b7       	in	r24, 0x3c	; 60
    4778:	80 68       	ori	r24, 0x80	; 128
    477a:	8c bf       	out	0x3c, r24	; 60
    477c:	08 95       	ret

0000477e <DisableXtalDivide>:
    477e:	8c b7       	in	r24, 0x3c	; 60
    4780:	8f 77       	andi	r24, 0x7F	; 127
    4782:	8c bf       	out	0x3c, r24	; 60
    4784:	08 95       	ret

00004786 <ResetSoft>:
    4786:	28 e0       	ldi	r18, 0x08	; 8
    4788:	88 e1       	ldi	r24, 0x18	; 24
    478a:	90 e0       	ldi	r25, 0x00	; 0
    478c:	0f b6       	in	r0, 0x3f	; 63
    478e:	f8 94       	cli
    4790:	a8 95       	wdr
    4792:	81 bd       	out	0x21, r24	; 33
    4794:	0f be       	out	0x3f, r0	; 63
    4796:	21 bd       	out	0x21, r18	; 33
    4798:	94 e6       	ldi	r25, 0x64	; 100
    479a:	89 2f       	mov	r24, r25
    479c:	8a 95       	dec	r24
    479e:	f1 f7       	brne	.-4      	; 0x479c <ResetSoft+0x16>
    47a0:	fc cf       	rjmp	.-8      	; 0x479a <ResetSoft+0x14>

000047a2 <InitSim>:
    47a2:	14 be       	out	0x34, r1	; 52
    47a4:	88 e1       	ldi	r24, 0x18	; 24
    47a6:	0f b6       	in	r0, 0x3f	; 63
    47a8:	f8 94       	cli
    47aa:	81 bd       	out	0x21, r24	; 33
    47ac:	11 bc       	out	0x21, r1	; 33
    47ae:	0f be       	out	0x3f, r0	; 63
    47b0:	85 b7       	in	r24, 0x35	; 53
    47b2:	8f 77       	andi	r24, 0x7F	; 127
    47b4:	85 bf       	out	0x35, r24	; 53
    47b6:	8c b7       	in	r24, 0x3c	; 60
    47b8:	8f 77       	andi	r24, 0x7F	; 127
    47ba:	8c bf       	out	0x3c, r24	; 60
    47bc:	89 ea       	ldi	r24, 0xA9	; 169
    47be:	93 e2       	ldi	r25, 0x23	; 35
    47c0:	90 93 7b 07 	sts	0x077B, r25
    47c4:	80 93 7a 07 	sts	0x077A, r24
    47c8:	84 eb       	ldi	r24, 0xB4	; 180
    47ca:	93 e2       	ldi	r25, 0x23	; 35
    47cc:	90 93 7d 07 	sts	0x077D, r25
    47d0:	80 93 7c 07 	sts	0x077C, r24
    47d4:	8b eb       	ldi	r24, 0xBB	; 187
    47d6:	93 e2       	ldi	r25, 0x23	; 35
    47d8:	90 93 81 07 	sts	0x0781, r25
    47dc:	80 93 80 07 	sts	0x0780, r24
    47e0:	8f eb       	ldi	r24, 0xBF	; 191
    47e2:	93 e2       	ldi	r25, 0x23	; 35
    47e4:	90 93 83 07 	sts	0x0783, r25
    47e8:	80 93 82 07 	sts	0x0782, r24
    47ec:	88 eb       	ldi	r24, 0xB8	; 184
    47ee:	93 e2       	ldi	r25, 0x23	; 35
    47f0:	90 93 7f 07 	sts	0x077F, r25
    47f4:	80 93 7e 07 	sts	0x077E, r24
    47f8:	83 ec       	ldi	r24, 0xC3	; 195
    47fa:	93 e2       	ldi	r25, 0x23	; 35
    47fc:	90 93 85 07 	sts	0x0785, r25
    4800:	80 93 84 07 	sts	0x0784, r24
    4804:	80 e8       	ldi	r24, 0x80	; 128
    4806:	80 93 77 07 	sts	0x0777, r24
    480a:	08 95       	ret

0000480c <EnableSpiInterrupt>:
    480c:	6f 9a       	sbi	0x0d, 7	; 13
    480e:	08 95       	ret

00004810 <DisableSpiInterrupt>:
    4810:	6f 98       	cbi	0x0d, 7	; 13
    4812:	08 95       	ret

00004814 <SetSpiClockRate>:
    4814:	98 2f       	mov	r25, r24
    4816:	82 ff       	sbrs	r24, 2
    4818:	02 c0       	rjmp	.+4      	; 0x481e <SetSpiClockRate+0xa>
    481a:	70 9a       	sbi	0x0e, 0	; 14
    481c:	01 c0       	rjmp	.+2      	; 0x4820 <SetSpiClockRate+0xc>
    481e:	70 98       	cbi	0x0e, 0	; 14
    4820:	8d b1       	in	r24, 0x0d	; 13
    4822:	93 70       	andi	r25, 0x03	; 3
    4824:	8c 7f       	andi	r24, 0xFC	; 252
    4826:	89 2b       	or	r24, r25
    4828:	8d b9       	out	0x0d, r24	; 13
    482a:	08 95       	ret

0000482c <SetSpiClockMode>:
    482c:	9d b1       	in	r25, 0x0d	; 13
    482e:	88 0f       	add	r24, r24
    4830:	68 0f       	add	r22, r24
    4832:	63 70       	andi	r22, 0x03	; 3
    4834:	66 0f       	add	r22, r22
    4836:	66 0f       	add	r22, r22
    4838:	93 7f       	andi	r25, 0xF3	; 243
    483a:	96 2b       	or	r25, r22
    483c:	9d b9       	out	0x0d, r25	; 13
    483e:	08 95       	ret

00004840 <SetSpiMode>:
    4840:	81 30       	cpi	r24, 0x01	; 1
    4842:	51 f4       	brne	.+20     	; 0x4858 <SetSpiMode+0x18>
    4844:	c2 98       	cbi	0x18, 2	; 24
    4846:	c3 9a       	sbi	0x18, 3	; 24
    4848:	c1 98       	cbi	0x18, 1	; 24
    484a:	c0 9a       	sbi	0x18, 0	; 24
    484c:	ba 9a       	sbi	0x17, 2	; 23
    484e:	bb 98       	cbi	0x17, 3	; 23
    4850:	b9 9a       	sbi	0x17, 1	; 23
    4852:	b8 9a       	sbi	0x17, 0	; 23
    4854:	6c 9a       	sbi	0x0d, 4	; 13
    4856:	08 95       	ret
    4858:	c2 98       	cbi	0x18, 2	; 24
    485a:	c3 9a       	sbi	0x18, 3	; 24
    485c:	c1 98       	cbi	0x18, 1	; 24
    485e:	c0 9a       	sbi	0x18, 0	; 24
    4860:	ba 98       	cbi	0x17, 2	; 23
    4862:	bb 9a       	sbi	0x17, 3	; 23
    4864:	b9 98       	cbi	0x17, 1	; 23
    4866:	b8 98       	cbi	0x17, 0	; 23
    4868:	6c 98       	cbi	0x0d, 4	; 13
    486a:	08 95       	ret

0000486c <StartTransport>:
    486c:	8f b9       	out	0x0f, r24	; 15
    486e:	08 95       	ret

00004870 <WriteSpiSendBuffer>:
    4870:	68 2f       	mov	r22, r24
    4872:	e0 91 77 06 	lds	r30, 0x0677
    4876:	f0 91 78 06 	lds	r31, 0x0678
    487a:	87 e8       	ldi	r24, 0x87	; 135
    487c:	97 e0       	ldi	r25, 0x07	; 7
    487e:	09 95       	icall
    4880:	08 95       	ret

00004882 <ProcessSendMsg>:
    4882:	df 93       	push	r29
    4884:	cf 93       	push	r28
    4886:	0f 92       	push	r0
    4888:	cd b7       	in	r28, 0x3d	; 61
    488a:	de b7       	in	r29, 0x3e	; 62
    488c:	19 82       	std	Y+1, r1	; 0x01
    488e:	80 91 91 07 	lds	r24, 0x0791
    4892:	88 23       	and	r24, r24
    4894:	a1 f4       	brne	.+40     	; 0x48be <ProcessSendMsg+0x3c>
    4896:	81 e0       	ldi	r24, 0x01	; 1
    4898:	80 93 91 07 	sts	0x0791, r24
    489c:	e0 91 7b 06 	lds	r30, 0x067B
    48a0:	f0 91 7c 06 	lds	r31, 0x067C
    48a4:	87 e8       	ldi	r24, 0x87	; 135
    48a6:	97 e0       	ldi	r25, 0x07	; 7
    48a8:	09 95       	icall
    48aa:	80 93 90 07 	sts	0x0790, r24
    48ae:	8f 70       	andi	r24, 0x0F	; 15
    48b0:	90 91 8f 07 	lds	r25, 0x078F
    48b4:	92 95       	swap	r25
    48b6:	90 7f       	andi	r25, 0xF0	; 240
    48b8:	98 2b       	or	r25, r24
    48ba:	99 83       	std	Y+1, r25	; 0x01
    48bc:	28 c0       	rjmp	.+80     	; 0x490e <ProcessSendMsg+0x8c>
    48be:	81 30       	cpi	r24, 0x01	; 1
    48c0:	01 f5       	brne	.+64     	; 0x4902 <ProcessSendMsg+0x80>
    48c2:	e0 91 79 06 	lds	r30, 0x0679
    48c6:	f0 91 7a 06 	lds	r31, 0x067A
    48ca:	87 e8       	ldi	r24, 0x87	; 135
    48cc:	97 e0       	ldi	r25, 0x07	; 7
    48ce:	be 01       	movw	r22, r28
    48d0:	6f 5f       	subi	r22, 0xFF	; 255
    48d2:	7f 4f       	sbci	r23, 0xFF	; 255
    48d4:	09 95       	icall
    48d6:	88 23       	and	r24, r24
    48d8:	39 f4       	brne	.+14     	; 0x48e8 <ProcessSendMsg+0x66>
    48da:	80 91 86 07 	lds	r24, 0x0786
    48de:	80 7c       	andi	r24, 0xC0	; 192
    48e0:	88 61       	ori	r24, 0x18	; 24
    48e2:	80 93 86 07 	sts	0x0786, r24
    48e6:	18 c0       	rjmp	.+48     	; 0x4918 <ProcessSendMsg+0x96>
    48e8:	e0 91 75 06 	lds	r30, 0x0675
    48ec:	f0 91 76 06 	lds	r31, 0x0676
    48f0:	87 e8       	ldi	r24, 0x87	; 135
    48f2:	97 e0       	ldi	r25, 0x07	; 7
    48f4:	09 95       	icall
    48f6:	81 30       	cpi	r24, 0x01	; 1
    48f8:	51 f4       	brne	.+20     	; 0x490e <ProcessSendMsg+0x8c>
    48fa:	82 e0       	ldi	r24, 0x02	; 2
    48fc:	80 93 91 07 	sts	0x0791, r24
    4900:	06 c0       	rjmp	.+12     	; 0x490e <ProcessSendMsg+0x8c>
    4902:	80 91 92 07 	lds	r24, 0x0792
    4906:	81 30       	cpi	r24, 0x01	; 1
    4908:	39 f4       	brne	.+14     	; 0x4918 <ProcessSendMsg+0x96>
    490a:	80 ef       	ldi	r24, 0xF0	; 240
    490c:	89 83       	std	Y+1, r24	; 0x01
    490e:	c0 98       	cbi	0x18, 0	; 24
    4910:	b0 99       	sbic	0x16, 0	; 22
    4912:	fe cf       	rjmp	.-4      	; 0x4910 <ProcessSendMsg+0x8e>
    4914:	89 81       	ldd	r24, Y+1	; 0x01
    4916:	8f b9       	out	0x0f, r24	; 15
    4918:	0f 90       	pop	r0
    491a:	cf 91       	pop	r28
    491c:	df 91       	pop	r29
    491e:	08 95       	ret

00004920 <IsrSpiProcessExtInt>:
    4920:	80 91 92 07 	lds	r24, 0x0792
    4924:	88 23       	and	r24, r24
    4926:	51 f4       	brne	.+20     	; 0x493c <IsrSpiProcessExtInt+0x1c>
    4928:	80 91 91 07 	lds	r24, 0x0791
    492c:	81 30       	cpi	r24, 0x01	; 1
    492e:	19 f4       	brne	.+6      	; 0x4936 <IsrSpiProcessExtInt+0x16>
    4930:	80 93 97 07 	sts	0x0797, r24
    4934:	08 95       	ret
    4936:	81 e0       	ldi	r24, 0x01	; 1
    4938:	80 93 92 07 	sts	0x0792, r24
    493c:	0e 94 41 24 	call	0x4882	; 0x4882 <ProcessSendMsg>
    4940:	08 95       	ret

00004942 <IsrSpiProcessTimerInt>:
    4942:	80 91 91 07 	lds	r24, 0x0791
    4946:	88 23       	and	r24, r24
    4948:	89 f4       	brne	.+34     	; 0x496c <IsrSpiProcessTimerInt+0x2a>
    494a:	80 91 92 07 	lds	r24, 0x0792
    494e:	88 23       	and	r24, r24
    4950:	69 f4       	brne	.+26     	; 0x496c <IsrSpiProcessTimerInt+0x2a>
    4952:	81 e0       	ldi	r24, 0x01	; 1
    4954:	80 93 91 07 	sts	0x0791, r24
    4958:	90 91 8f 07 	lds	r25, 0x078F
    495c:	92 95       	swap	r25
    495e:	90 7f       	andi	r25, 0xF0	; 240
    4960:	80 91 90 07 	lds	r24, 0x0790
    4964:	8f 70       	andi	r24, 0x0F	; 15
    4966:	98 2b       	or	r25, r24
    4968:	c0 98       	cbi	0x18, 0	; 24
    496a:	9f b9       	out	0x0f, r25	; 15
    496c:	08 95       	ret

0000496e <__vector_17>:
    496e:	1f 92       	push	r1
    4970:	0f 92       	push	r0
    4972:	0f b6       	in	r0, 0x3f	; 63
    4974:	0f 92       	push	r0
    4976:	0b b6       	in	r0, 0x3b	; 59
    4978:	0f 92       	push	r0
    497a:	11 24       	eor	r1, r1
    497c:	2f 93       	push	r18
    497e:	3f 93       	push	r19
    4980:	4f 93       	push	r20
    4982:	5f 93       	push	r21
    4984:	6f 93       	push	r22
    4986:	7f 93       	push	r23
    4988:	8f 93       	push	r24
    498a:	9f 93       	push	r25
    498c:	af 93       	push	r26
    498e:	bf 93       	push	r27
    4990:	ef 93       	push	r30
    4992:	ff 93       	push	r31
    4994:	6f b1       	in	r22, 0x0f	; 15
    4996:	90 91 92 07 	lds	r25, 0x0792
    499a:	91 30       	cpi	r25, 0x01	; 1
    499c:	59 f5       	brne	.+86     	; 0x49f4 <__vector_17+0x86>
    499e:	80 91 93 07 	lds	r24, 0x0793
    49a2:	88 23       	and	r24, r24
    49a4:	59 f4       	brne	.+22     	; 0x49bc <__vector_17+0x4e>
    49a6:	86 2f       	mov	r24, r22
    49a8:	8f 70       	andi	r24, 0x0F	; 15
    49aa:	80 93 94 07 	sts	0x0794, r24
    49ae:	62 95       	swap	r22
    49b0:	6f 70       	andi	r22, 0x0F	; 15
    49b2:	60 93 95 07 	sts	0x0795, r22
    49b6:	90 93 93 07 	sts	0x0793, r25
    49ba:	1c c0       	rjmp	.+56     	; 0x49f4 <__vector_17+0x86>
    49bc:	80 91 95 07 	lds	r24, 0x0795
    49c0:	81 30       	cpi	r24, 0x01	; 1
    49c2:	39 f4       	brne	.+14     	; 0x49d2 <__vector_17+0x64>
    49c4:	e0 91 77 06 	lds	r30, 0x0677
    49c8:	f0 91 78 06 	lds	r31, 0x0678
    49cc:	86 e7       	ldi	r24, 0x76	; 118
    49ce:	98 e0       	ldi	r25, 0x08	; 8
    49d0:	09 95       	icall
    49d2:	80 91 96 07 	lds	r24, 0x0796
    49d6:	8f 5f       	subi	r24, 0xFF	; 255
    49d8:	80 93 96 07 	sts	0x0796, r24
    49dc:	90 91 94 07 	lds	r25, 0x0794
    49e0:	89 17       	cp	r24, r25
    49e2:	40 f0       	brcs	.+16     	; 0x49f4 <__vector_17+0x86>
    49e4:	10 92 96 07 	sts	0x0796, r1
    49e8:	10 92 94 07 	sts	0x0794, r1
    49ec:	10 92 93 07 	sts	0x0793, r1
    49f0:	10 92 92 07 	sts	0x0792, r1
    49f4:	c0 9a       	sbi	0x18, 0	; 24
    49f6:	80 91 97 07 	lds	r24, 0x0797
    49fa:	81 30       	cpi	r24, 0x01	; 1
    49fc:	21 f4       	brne	.+8      	; 0x4a06 <__vector_17+0x98>
    49fe:	80 93 92 07 	sts	0x0792, r24
    4a02:	10 92 97 07 	sts	0x0797, r1
    4a06:	80 91 92 07 	lds	r24, 0x0792
    4a0a:	88 23       	and	r24, r24
    4a0c:	11 f4       	brne	.+4      	; 0x4a12 <__vector_17+0xa4>
    4a0e:	0e 94 41 24 	call	0x4882	; 0x4882 <ProcessSendMsg>
    4a12:	ff 91       	pop	r31
    4a14:	ef 91       	pop	r30
    4a16:	bf 91       	pop	r27
    4a18:	af 91       	pop	r26
    4a1a:	9f 91       	pop	r25
    4a1c:	8f 91       	pop	r24
    4a1e:	7f 91       	pop	r23
    4a20:	6f 91       	pop	r22
    4a22:	5f 91       	pop	r21
    4a24:	4f 91       	pop	r20
    4a26:	3f 91       	pop	r19
    4a28:	2f 91       	pop	r18
    4a2a:	0f 90       	pop	r0
    4a2c:	0b be       	out	0x3b, r0	; 59
    4a2e:	0f 90       	pop	r0
    4a30:	0f be       	out	0x3f, r0	; 63
    4a32:	0f 90       	pop	r0
    4a34:	1f 90       	pop	r1
    4a36:	18 95       	reti

00004a38 <TransportByte>:
    4a38:	fb 01       	movw	r30, r22
    4a3a:	c0 98       	cbi	0x18, 0	; 24
    4a3c:	8f b9       	out	0x0f, r24	; 15
    4a3e:	80 e0       	ldi	r24, 0x00	; 0
    4a40:	90 e0       	ldi	r25, 0x00	; 0
    4a42:	08 c0       	rjmp	.+16     	; 0x4a54 <TransportByte+0x1c>
    4a44:	01 96       	adiw	r24, 0x01	; 1
    4a46:	22 e0       	ldi	r18, 0x02	; 2
    4a48:	8d 3b       	cpi	r24, 0xBD	; 189
    4a4a:	92 07       	cpc	r25, r18
    4a4c:	19 f4       	brne	.+6      	; 0x4a54 <TransportByte+0x1c>
    4a4e:	c0 9a       	sbi	0x18, 0	; 24
    4a50:	84 e0       	ldi	r24, 0x04	; 4
    4a52:	08 95       	ret
    4a54:	77 9b       	sbis	0x0e, 7	; 14
    4a56:	f6 cf       	rjmp	.-20     	; 0x4a44 <TransportByte+0xc>
    4a58:	8f b1       	in	r24, 0x0f	; 15
    4a5a:	80 83       	st	Z, r24
    4a5c:	c0 9a       	sbi	0x18, 0	; 24
    4a5e:	80 e0       	ldi	r24, 0x00	; 0
    4a60:	08 95       	ret

00004a62 <InitSpi>:
    4a62:	10 92 86 07 	sts	0x0786, r1
    4a66:	e0 91 73 06 	lds	r30, 0x0673
    4a6a:	f0 91 74 06 	lds	r31, 0x0674
    4a6e:	87 e8       	ldi	r24, 0x87	; 135
    4a70:	97 e0       	ldi	r25, 0x07	; 7
    4a72:	60 e2       	ldi	r22, 0x20	; 32
    4a74:	09 95       	icall
    4a76:	80 91 87 07 	lds	r24, 0x0787
    4a7a:	87 fd       	sbrc	r24, 7
    4a7c:	05 c0       	rjmp	.+10     	; 0x4a88 <InitSpi+0x26>
    4a7e:	80 91 86 07 	lds	r24, 0x0786
    4a82:	80 7c       	andi	r24, 0xC0	; 192
    4a84:	89 60       	ori	r24, 0x09	; 9
    4a86:	4e c0       	rjmp	.+156    	; 0x4b24 <InitSpi+0xc2>
    4a88:	81 e0       	ldi	r24, 0x01	; 1
    4a8a:	0e 94 20 24 	call	0x4840	; 0x4840 <SetSpiMode>
    4a8e:	80 e0       	ldi	r24, 0x00	; 0
    4a90:	0e 94 0a 24 	call	0x4814	; 0x4814 <SetSpiClockRate>
    4a94:	6f 9a       	sbi	0x0d, 7	; 13
    4a96:	10 92 8f 07 	sts	0x078F, r1
    4a9a:	10 92 90 07 	sts	0x0790, r1
    4a9e:	82 e0       	ldi	r24, 0x02	; 2
    4aa0:	80 93 91 07 	sts	0x0791, r24
    4aa4:	10 92 92 07 	sts	0x0792, r1
    4aa8:	10 92 93 07 	sts	0x0793, r1
    4aac:	10 92 94 07 	sts	0x0794, r1
    4ab0:	10 92 95 07 	sts	0x0795, r1
    4ab4:	10 92 96 07 	sts	0x0796, r1
    4ab8:	10 92 97 07 	sts	0x0797, r1
    4abc:	6e 9a       	sbi	0x0d, 6	; 13
    4abe:	86 e0       	ldi	r24, 0x06	; 6
    4ac0:	94 e2       	ldi	r25, 0x24	; 36
    4ac2:	90 93 9b 07 	sts	0x079B, r25
    4ac6:	80 93 9a 07 	sts	0x079A, r24
    4aca:	88 e0       	ldi	r24, 0x08	; 8
    4acc:	94 e2       	ldi	r25, 0x24	; 36
    4ace:	90 93 9d 07 	sts	0x079D, r25
    4ad2:	80 93 9c 07 	sts	0x079C, r24
    4ad6:	8a e0       	ldi	r24, 0x0A	; 10
    4ad8:	94 e2       	ldi	r25, 0x24	; 36
    4ada:	90 93 9f 07 	sts	0x079F, r25
    4ade:	80 93 9e 07 	sts	0x079E, r24
    4ae2:	86 e1       	ldi	r24, 0x16	; 22
    4ae4:	94 e2       	ldi	r25, 0x24	; 36
    4ae6:	90 93 a1 07 	sts	0x07A1, r25
    4aea:	80 93 a0 07 	sts	0x07A0, r24
    4aee:	80 e2       	ldi	r24, 0x20	; 32
    4af0:	94 e2       	ldi	r25, 0x24	; 36
    4af2:	90 93 a3 07 	sts	0x07A3, r25
    4af6:	80 93 a2 07 	sts	0x07A2, r24
    4afa:	86 e3       	ldi	r24, 0x36	; 54
    4afc:	94 e2       	ldi	r25, 0x24	; 36
    4afe:	90 93 a5 07 	sts	0x07A5, r25
    4b02:	80 93 a4 07 	sts	0x07A4, r24
    4b06:	8c e1       	ldi	r24, 0x1C	; 28
    4b08:	95 e2       	ldi	r25, 0x25	; 37
    4b0a:	90 93 a7 07 	sts	0x07A7, r25
    4b0e:	80 93 a6 07 	sts	0x07A6, r24
    4b12:	88 e3       	ldi	r24, 0x38	; 56
    4b14:	94 e2       	ldi	r25, 0x24	; 36
    4b16:	90 93 a9 07 	sts	0x07A9, r25
    4b1a:	80 93 a8 07 	sts	0x07A8, r24
    4b1e:	80 91 86 07 	lds	r24, 0x0786
    4b22:	80 68       	ori	r24, 0x80	; 128
    4b24:	80 93 86 07 	sts	0x0786, r24
    4b28:	08 95       	ret

00004b2a <SetTimer0Mode>:
    4b2a:	23 b7       	in	r18, 0x33	; 51
    4b2c:	98 2f       	mov	r25, r24
    4b2e:	92 70       	andi	r25, 0x02	; 2
    4b30:	99 0f       	add	r25, r25
    4b32:	99 0f       	add	r25, r25
    4b34:	99 0f       	add	r25, r25
    4b36:	81 70       	andi	r24, 0x01	; 1
    4b38:	82 95       	swap	r24
    4b3a:	88 0f       	add	r24, r24
    4b3c:	88 0f       	add	r24, r24
    4b3e:	80 7c       	andi	r24, 0xC0	; 192
    4b40:	98 2b       	or	r25, r24
    4b42:	27 7b       	andi	r18, 0xB7	; 183
    4b44:	92 2b       	or	r25, r18
    4b46:	93 bf       	out	0x33, r25	; 51
    4b48:	08 95       	ret

00004b4a <SetTimer1Mode>:
    4b4a:	9f b5       	in	r25, 0x2f	; 47
    4b4c:	28 2f       	mov	r18, r24
    4b4e:	23 70       	andi	r18, 0x03	; 3
    4b50:	9c 7f       	andi	r25, 0xFC	; 252
    4b52:	29 2b       	or	r18, r25
    4b54:	2f bd       	out	0x2f, r18	; 47
    4b56:	9e b5       	in	r25, 0x2e	; 46
    4b58:	8c 70       	andi	r24, 0x0C	; 12
    4b5a:	88 0f       	add	r24, r24
    4b5c:	97 7e       	andi	r25, 0xE7	; 231
    4b5e:	98 2b       	or	r25, r24
    4b60:	9e bd       	out	0x2e, r25	; 46
    4b62:	08 95       	ret

00004b64 <SetTimer3Mode>:
    4b64:	eb e8       	ldi	r30, 0x8B	; 139
    4b66:	f0 e0       	ldi	r31, 0x00	; 0
    4b68:	90 81       	ld	r25, Z
    4b6a:	28 2f       	mov	r18, r24
    4b6c:	23 70       	andi	r18, 0x03	; 3
    4b6e:	9c 7f       	andi	r25, 0xFC	; 252
    4b70:	29 2b       	or	r18, r25
    4b72:	20 83       	st	Z, r18
    4b74:	ea e8       	ldi	r30, 0x8A	; 138
    4b76:	f0 e0       	ldi	r31, 0x00	; 0
    4b78:	90 81       	ld	r25, Z
    4b7a:	8c 70       	andi	r24, 0x0C	; 12
    4b7c:	88 0f       	add	r24, r24
    4b7e:	97 7e       	andi	r25, 0xE7	; 231
    4b80:	98 2b       	or	r25, r24
    4b82:	90 83       	st	Z, r25
    4b84:	08 95       	ret

00004b86 <SetTimer1Prescale>:
    4b86:	9e b5       	in	r25, 0x2e	; 46
    4b88:	87 70       	andi	r24, 0x07	; 7
    4b8a:	98 7f       	andi	r25, 0xF8	; 248
    4b8c:	89 2b       	or	r24, r25
    4b8e:	8e bd       	out	0x2e, r24	; 46
    4b90:	08 95       	ret

00004b92 <SetTimer3Prescale>:
    4b92:	ea e8       	ldi	r30, 0x8A	; 138
    4b94:	f0 e0       	ldi	r31, 0x00	; 0
    4b96:	90 81       	ld	r25, Z
    4b98:	87 70       	andi	r24, 0x07	; 7
    4b9a:	98 7f       	andi	r25, 0xF8	; 248
    4b9c:	89 2b       	or	r24, r25
    4b9e:	80 83       	st	Z, r24
    4ba0:	08 95       	ret

00004ba2 <SetTimer1CounterRegister>:
    4ba2:	9d bd       	out	0x2d, r25	; 45
    4ba4:	8c bd       	out	0x2c, r24	; 44
    4ba6:	08 95       	ret

00004ba8 <SetTimer3CounterRegister>:
    4ba8:	90 93 89 00 	sts	0x0089, r25
    4bac:	80 93 88 00 	sts	0x0088, r24
    4bb0:	08 95       	ret

00004bb2 <EnableTimer1Interrupt>:
    4bb2:	38 2f       	mov	r19, r24
    4bb4:	88 30       	cpi	r24, 0x08	; 8
    4bb6:	58 f4       	brcc	.+22     	; 0x4bce <EnableTimer1Interrupt+0x1c>
    4bb8:	27 b7       	in	r18, 0x37	; 55
    4bba:	81 e0       	ldi	r24, 0x01	; 1
    4bbc:	90 e0       	ldi	r25, 0x00	; 0
    4bbe:	02 c0       	rjmp	.+4      	; 0x4bc4 <EnableTimer1Interrupt+0x12>
    4bc0:	88 0f       	add	r24, r24
    4bc2:	99 1f       	adc	r25, r25
    4bc4:	3a 95       	dec	r19
    4bc6:	e2 f7       	brpl	.-8      	; 0x4bc0 <EnableTimer1Interrupt+0xe>
    4bc8:	28 2b       	or	r18, r24
    4bca:	27 bf       	out	0x37, r18	; 55
    4bcc:	08 95       	ret
    4bce:	80 91 7d 00 	lds	r24, 0x007D
    4bd2:	81 60       	ori	r24, 0x01	; 1
    4bd4:	80 93 7d 00 	sts	0x007D, r24
    4bd8:	08 95       	ret

00004bda <EnableTimer3Interrupt>:
    4bda:	38 2f       	mov	r19, r24
    4bdc:	88 30       	cpi	r24, 0x08	; 8
    4bde:	68 f4       	brcc	.+26     	; 0x4bfa <EnableTimer3Interrupt+0x20>
    4be0:	20 91 7d 00 	lds	r18, 0x007D
    4be4:	81 e0       	ldi	r24, 0x01	; 1
    4be6:	90 e0       	ldi	r25, 0x00	; 0
    4be8:	02 c0       	rjmp	.+4      	; 0x4bee <EnableTimer3Interrupt+0x14>
    4bea:	88 0f       	add	r24, r24
    4bec:	99 1f       	adc	r25, r25
    4bee:	3a 95       	dec	r19
    4bf0:	e2 f7       	brpl	.-8      	; 0x4bea <EnableTimer3Interrupt+0x10>
    4bf2:	28 2b       	or	r18, r24
    4bf4:	20 93 7d 00 	sts	0x007D, r18
    4bf8:	08 95       	ret
    4bfa:	80 91 7d 00 	lds	r24, 0x007D
    4bfe:	82 60       	ori	r24, 0x02	; 2
    4c00:	80 93 7d 00 	sts	0x007D, r24
    4c04:	08 95       	ret

00004c06 <DisableTimer1Interrupt>:
    4c06:	38 2f       	mov	r19, r24
    4c08:	88 30       	cpi	r24, 0x08	; 8
    4c0a:	60 f4       	brcc	.+24     	; 0x4c24 <DisableTimer1Interrupt+0x1e>
    4c0c:	27 b7       	in	r18, 0x37	; 55
    4c0e:	81 e0       	ldi	r24, 0x01	; 1
    4c10:	90 e0       	ldi	r25, 0x00	; 0
    4c12:	02 c0       	rjmp	.+4      	; 0x4c18 <DisableTimer1Interrupt+0x12>
    4c14:	88 0f       	add	r24, r24
    4c16:	99 1f       	adc	r25, r25
    4c18:	3a 95       	dec	r19
    4c1a:	e2 f7       	brpl	.-8      	; 0x4c14 <DisableTimer1Interrupt+0xe>
    4c1c:	80 95       	com	r24
    4c1e:	82 23       	and	r24, r18
    4c20:	87 bf       	out	0x37, r24	; 55
    4c22:	08 95       	ret
    4c24:	80 91 7d 00 	lds	r24, 0x007D
    4c28:	8e 7f       	andi	r24, 0xFE	; 254
    4c2a:	80 93 7d 00 	sts	0x007D, r24
    4c2e:	08 95       	ret

00004c30 <DisableTimer3Interrupt>:
    4c30:	38 2f       	mov	r19, r24
    4c32:	88 30       	cpi	r24, 0x08	; 8
    4c34:	60 f4       	brcc	.+24     	; 0x4c4e <DisableTimer3Interrupt+0x1e>
    4c36:	20 91 7d 00 	lds	r18, 0x007D
    4c3a:	81 e0       	ldi	r24, 0x01	; 1
    4c3c:	90 e0       	ldi	r25, 0x00	; 0
    4c3e:	02 c0       	rjmp	.+4      	; 0x4c44 <DisableTimer3Interrupt+0x14>
    4c40:	88 0f       	add	r24, r24
    4c42:	99 1f       	adc	r25, r25
    4c44:	3a 95       	dec	r19
    4c46:	e2 f7       	brpl	.-8      	; 0x4c40 <DisableTimer3Interrupt+0x10>
    4c48:	80 95       	com	r24
    4c4a:	82 23       	and	r24, r18
    4c4c:	03 c0       	rjmp	.+6      	; 0x4c54 <DisableTimer3Interrupt+0x24>
    4c4e:	80 91 7d 00 	lds	r24, 0x007D
    4c52:	8d 7f       	andi	r24, 0xFD	; 253
    4c54:	80 93 7d 00 	sts	0x007D, r24
    4c58:	08 95       	ret

00004c5a <SetTimer1CompareOutputAMode>:
    4c5a:	82 95       	swap	r24
    4c5c:	88 0f       	add	r24, r24
    4c5e:	88 0f       	add	r24, r24
    4c60:	80 7c       	andi	r24, 0xC0	; 192
    4c62:	9f b5       	in	r25, 0x2f	; 47
    4c64:	9f 73       	andi	r25, 0x3F	; 63
    4c66:	98 2b       	or	r25, r24
    4c68:	9f bd       	out	0x2f, r25	; 47
    4c6a:	08 95       	ret

00004c6c <SetTimer3CompareOutputAMode>:
    4c6c:	82 95       	swap	r24
    4c6e:	88 0f       	add	r24, r24
    4c70:	88 0f       	add	r24, r24
    4c72:	80 7c       	andi	r24, 0xC0	; 192
    4c74:	eb e8       	ldi	r30, 0x8B	; 139
    4c76:	f0 e0       	ldi	r31, 0x00	; 0
    4c78:	90 81       	ld	r25, Z
    4c7a:	9f 73       	andi	r25, 0x3F	; 63
    4c7c:	98 2b       	or	r25, r24
    4c7e:	90 83       	st	Z, r25
    4c80:	08 95       	ret

00004c82 <SetTimer1CompareOutputBMode>:
    4c82:	83 70       	andi	r24, 0x03	; 3
    4c84:	9f b5       	in	r25, 0x2f	; 47
    4c86:	82 95       	swap	r24
    4c88:	80 7f       	andi	r24, 0xF0	; 240
    4c8a:	9f 7c       	andi	r25, 0xCF	; 207
    4c8c:	89 2b       	or	r24, r25
    4c8e:	8f bd       	out	0x2f, r24	; 47
    4c90:	08 95       	ret

00004c92 <SetTimer3CompareOutputBMode>:
    4c92:	83 70       	andi	r24, 0x03	; 3
    4c94:	eb e8       	ldi	r30, 0x8B	; 139
    4c96:	f0 e0       	ldi	r31, 0x00	; 0
    4c98:	90 81       	ld	r25, Z
    4c9a:	82 95       	swap	r24
    4c9c:	80 7f       	andi	r24, 0xF0	; 240
    4c9e:	9f 7c       	andi	r25, 0xCF	; 207
    4ca0:	89 2b       	or	r24, r25
    4ca2:	80 83       	st	Z, r24
    4ca4:	08 95       	ret

00004ca6 <SetTimer1CompareRegisterA>:
    4ca6:	9b bd       	out	0x2b, r25	; 43
    4ca8:	8a bd       	out	0x2a, r24	; 42
    4caa:	08 95       	ret

00004cac <SetTimer3CompareRegisterA>:
    4cac:	90 93 87 00 	sts	0x0087, r25
    4cb0:	80 93 86 00 	sts	0x0086, r24
    4cb4:	08 95       	ret

00004cb6 <SetTimer1CompareRegisterB>:
    4cb6:	99 bd       	out	0x29, r25	; 41
    4cb8:	88 bd       	out	0x28, r24	; 40
    4cba:	08 95       	ret

00004cbc <SetTimer3CompareRegisterB>:
    4cbc:	90 93 85 00 	sts	0x0085, r25
    4cc0:	80 93 84 00 	sts	0x0084, r24
    4cc4:	08 95       	ret

00004cc6 <SetTimer1CaptureRegister>:
    4cc6:	97 bd       	out	0x27, r25	; 39
    4cc8:	86 bd       	out	0x26, r24	; 38
    4cca:	08 95       	ret

00004ccc <SetTimer3CaptureRegister>:
    4ccc:	90 93 81 00 	sts	0x0081, r25
    4cd0:	80 93 80 00 	sts	0x0080, r24
    4cd4:	08 95       	ret

00004cd6 <InitTimer1>:
    4cd6:	10 92 d6 07 	sts	0x07D6, r1
    4cda:	80 e2       	ldi	r24, 0x20	; 32
    4cdc:	87 bd       	out	0x27, r24	; 39
    4cde:	8f ef       	ldi	r24, 0xFF	; 255
    4ce0:	86 bd       	out	0x26, r24	; 38
    4ce2:	84 e0       	ldi	r24, 0x04	; 4
    4ce4:	8b bd       	out	0x2b, r24	; 43
    4ce6:	1a bc       	out	0x2a, r1	; 42
    4ce8:	80 e0       	ldi	r24, 0x00	; 0
    4cea:	0e 94 a5 25 	call	0x4b4a	; 0x4b4a <SetTimer1Mode>
    4cee:	8e b5       	in	r24, 0x2e	; 46
    4cf0:	88 7f       	andi	r24, 0xF8	; 248
    4cf2:	8e bd       	out	0x2e, r24	; 46
    4cf4:	83 e5       	ldi	r24, 0x53	; 83
    4cf6:	96 e2       	ldi	r25, 0x26	; 38
    4cf8:	90 93 dc 07 	sts	0x07DC, r25
    4cfc:	80 93 db 07 	sts	0x07DB, r24
    4d00:	8b e5       	ldi	r24, 0x5B	; 91
    4d02:	96 e2       	ldi	r25, 0x26	; 38
    4d04:	90 93 de 07 	sts	0x07DE, r25
    4d08:	80 93 dd 07 	sts	0x07DD, r24
    4d0c:	83 e6       	ldi	r24, 0x63	; 99
    4d0e:	96 e2       	ldi	r25, 0x26	; 38
    4d10:	90 93 e2 07 	sts	0x07E2, r25
    4d14:	80 93 e1 07 	sts	0x07E1, r24
    4d18:	85 ea       	ldi	r24, 0xA5	; 165
    4d1a:	95 e2       	ldi	r25, 0x25	; 37
    4d1c:	90 93 e4 07 	sts	0x07E4, r25
    4d20:	80 93 e3 07 	sts	0x07E3, r24
    4d24:	83 ec       	ldi	r24, 0xC3	; 195
    4d26:	95 e2       	ldi	r25, 0x25	; 37
    4d28:	90 93 e6 07 	sts	0x07E6, r25
    4d2c:	80 93 e5 07 	sts	0x07E5, r24
    4d30:	81 ed       	ldi	r24, 0xD1	; 209
    4d32:	95 e2       	ldi	r25, 0x25	; 37
    4d34:	90 93 da 07 	sts	0x07DA, r25
    4d38:	80 93 d9 07 	sts	0x07D9, r24
    4d3c:	8d e2       	ldi	r24, 0x2D	; 45
    4d3e:	96 e2       	ldi	r25, 0x26	; 38
    4d40:	90 93 e8 07 	sts	0x07E8, r25
    4d44:	80 93 e7 07 	sts	0x07E7, r24
    4d48:	81 e4       	ldi	r24, 0x41	; 65
    4d4a:	96 e2       	ldi	r25, 0x26	; 38
    4d4c:	90 93 ea 07 	sts	0x07EA, r25
    4d50:	80 93 e9 07 	sts	0x07E9, r24
    4d54:	89 ed       	ldi	r24, 0xD9	; 217
    4d56:	95 e2       	ldi	r25, 0x25	; 37
    4d58:	90 93 ee 07 	sts	0x07EE, r25
    4d5c:	80 93 ed 07 	sts	0x07ED, r24
    4d60:	83 e0       	ldi	r24, 0x03	; 3
    4d62:	96 e2       	ldi	r25, 0x26	; 38
    4d64:	90 93 f0 07 	sts	0x07F0, r25
    4d68:	80 93 ef 07 	sts	0x07EF, r24
    4d6c:	80 91 d6 07 	lds	r24, 0x07D6
    4d70:	80 68       	ori	r24, 0x80	; 128
    4d72:	80 93 d6 07 	sts	0x07D6, r24
    4d76:	08 95       	ret

00004d78 <SetTimer0Prescale>:
    4d78:	93 b7       	in	r25, 0x33	; 51
    4d7a:	87 70       	andi	r24, 0x07	; 7
    4d7c:	98 7f       	andi	r25, 0xF8	; 248
    4d7e:	89 2b       	or	r24, r25
    4d80:	83 bf       	out	0x33, r24	; 51
    4d82:	08 95       	ret

00004d84 <SetTimer0CounterRegister>:
    4d84:	82 bf       	out	0x32, r24	; 50
    4d86:	08 95       	ret

00004d88 <EnableTimer0Interrupt>:
    4d88:	97 b7       	in	r25, 0x37	; 55
    4d8a:	21 e0       	ldi	r18, 0x01	; 1
    4d8c:	30 e0       	ldi	r19, 0x00	; 0
    4d8e:	02 c0       	rjmp	.+4      	; 0x4d94 <EnableTimer0Interrupt+0xc>
    4d90:	22 0f       	add	r18, r18
    4d92:	33 1f       	adc	r19, r19
    4d94:	8a 95       	dec	r24
    4d96:	e2 f7       	brpl	.-8      	; 0x4d90 <EnableTimer0Interrupt+0x8>
    4d98:	92 2b       	or	r25, r18
    4d9a:	97 bf       	out	0x37, r25	; 55
    4d9c:	08 95       	ret

00004d9e <DisableTimer0Interrupt>:
    4d9e:	97 b7       	in	r25, 0x37	; 55
    4da0:	21 e0       	ldi	r18, 0x01	; 1
    4da2:	30 e0       	ldi	r19, 0x00	; 0
    4da4:	02 c0       	rjmp	.+4      	; 0x4daa <DisableTimer0Interrupt+0xc>
    4da6:	22 0f       	add	r18, r18
    4da8:	33 1f       	adc	r19, r19
    4daa:	8a 95       	dec	r24
    4dac:	e2 f7       	brpl	.-8      	; 0x4da6 <DisableTimer0Interrupt+0x8>
    4dae:	20 95       	com	r18
    4db0:	29 23       	and	r18, r25
    4db2:	27 bf       	out	0x37, r18	; 55
    4db4:	08 95       	ret

00004db6 <InitTimer0>:
    4db6:	10 92 c5 07 	sts	0x07C5, r1
    4dba:	83 b7       	in	r24, 0x33	; 51
    4dbc:	88 7f       	andi	r24, 0xF8	; 248
    4dbe:	83 bf       	out	0x33, r24	; 51
    4dc0:	80 e0       	ldi	r24, 0x00	; 0
    4dc2:	0e 94 95 25 	call	0x4b2a	; 0x4b2a <SetTimer0Mode>
    4dc6:	83 e8       	ldi	r24, 0x83	; 131
    4dc8:	82 bf       	out	0x32, r24	; 50
    4dca:	83 b7       	in	r24, 0x33	; 51
    4dcc:	88 7f       	andi	r24, 0xF8	; 248
    4dce:	86 60       	ori	r24, 0x06	; 6
    4dd0:	83 bf       	out	0x33, r24	; 51
    4dd2:	87 b7       	in	r24, 0x37	; 55
    4dd4:	81 60       	ori	r24, 0x01	; 1
    4dd6:	87 bf       	out	0x37, r24	; 55
    4dd8:	85 e9       	ldi	r24, 0x95	; 149
    4dda:	95 e2       	ldi	r25, 0x25	; 37
    4ddc:	90 93 cd 07 	sts	0x07CD, r25
    4de0:	80 93 cc 07 	sts	0x07CC, r24
    4de4:	8c eb       	ldi	r24, 0xBC	; 188
    4de6:	96 e2       	ldi	r25, 0x26	; 38
    4de8:	90 93 cf 07 	sts	0x07CF, r25
    4dec:	80 93 ce 07 	sts	0x07CE, r24
    4df0:	82 ec       	ldi	r24, 0xC2	; 194
    4df2:	96 e2       	ldi	r25, 0x26	; 38
    4df4:	90 93 c9 07 	sts	0x07C9, r25
    4df8:	80 93 c8 07 	sts	0x07C8, r24
    4dfc:	84 ec       	ldi	r24, 0xC4	; 196
    4dfe:	96 e2       	ldi	r25, 0x26	; 38
    4e00:	90 93 d3 07 	sts	0x07D3, r25
    4e04:	80 93 d2 07 	sts	0x07D2, r24
    4e08:	8f ec       	ldi	r24, 0xCF	; 207
    4e0a:	96 e2       	ldi	r25, 0x26	; 38
    4e0c:	90 93 d5 07 	sts	0x07D5, r25
    4e10:	80 93 d4 07 	sts	0x07D4, r24
    4e14:	80 91 c5 07 	lds	r24, 0x07C5
    4e18:	80 68       	ori	r24, 0x80	; 128
    4e1a:	80 93 c5 07 	sts	0x07C5, r24
    4e1e:	08 95       	ret

00004e20 <InitTimer3>:
    4e20:	10 92 aa 07 	sts	0x07AA, r1
    4e24:	8c e9       	ldi	r24, 0x9C	; 156
    4e26:	87 bd       	out	0x27, r24	; 39
    4e28:	90 e4       	ldi	r25, 0x40	; 64
    4e2a:	96 bd       	out	0x26, r25	; 38
    4e2c:	8f e1       	ldi	r24, 0x1F	; 31
    4e2e:	8b bd       	out	0x2b, r24	; 43
    4e30:	9a bd       	out	0x2a, r25	; 42
    4e32:	80 e0       	ldi	r24, 0x00	; 0
    4e34:	0e 94 b2 25 	call	0x4b64	; 0x4b64 <SetTimer3Mode>
    4e38:	ea e8       	ldi	r30, 0x8A	; 138
    4e3a:	f0 e0       	ldi	r31, 0x00	; 0
    4e3c:	80 81       	ld	r24, Z
    4e3e:	88 7f       	andi	r24, 0xF8	; 248
    4e40:	80 83       	st	Z, r24
    4e42:	86 e5       	ldi	r24, 0x56	; 86
    4e44:	96 e2       	ldi	r25, 0x26	; 38
    4e46:	90 93 b0 07 	sts	0x07B0, r25
    4e4a:	80 93 af 07 	sts	0x07AF, r24
    4e4e:	8e e5       	ldi	r24, 0x5E	; 94
    4e50:	96 e2       	ldi	r25, 0x26	; 38
    4e52:	90 93 b2 07 	sts	0x07B2, r25
    4e56:	80 93 b1 07 	sts	0x07B1, r24
    4e5a:	86 e6       	ldi	r24, 0x66	; 102
    4e5c:	96 e2       	ldi	r25, 0x26	; 38
    4e5e:	90 93 b6 07 	sts	0x07B6, r25
    4e62:	80 93 b5 07 	sts	0x07B5, r24
    4e66:	82 eb       	ldi	r24, 0xB2	; 178
    4e68:	95 e2       	ldi	r25, 0x25	; 37
    4e6a:	90 93 b8 07 	sts	0x07B8, r25
    4e6e:	80 93 b7 07 	sts	0x07B7, r24
    4e72:	89 ec       	ldi	r24, 0xC9	; 201
    4e74:	95 e2       	ldi	r25, 0x25	; 37
    4e76:	90 93 ba 07 	sts	0x07BA, r25
    4e7a:	80 93 b9 07 	sts	0x07B9, r24
    4e7e:	84 ed       	ldi	r24, 0xD4	; 212
    4e80:	95 e2       	ldi	r25, 0x25	; 37
    4e82:	90 93 ae 07 	sts	0x07AE, r25
    4e86:	80 93 ad 07 	sts	0x07AD, r24
    4e8a:	86 e3       	ldi	r24, 0x36	; 54
    4e8c:	96 e2       	ldi	r25, 0x26	; 38
    4e8e:	90 93 bc 07 	sts	0x07BC, r25
    4e92:	80 93 bb 07 	sts	0x07BB, r24
    4e96:	89 e4       	ldi	r24, 0x49	; 73
    4e98:	96 e2       	ldi	r25, 0x26	; 38
    4e9a:	90 93 be 07 	sts	0x07BE, r25
    4e9e:	80 93 bd 07 	sts	0x07BD, r24
    4ea2:	8d ee       	ldi	r24, 0xED	; 237
    4ea4:	95 e2       	ldi	r25, 0x25	; 37
    4ea6:	90 93 c2 07 	sts	0x07C2, r25
    4eaa:	80 93 c1 07 	sts	0x07C1, r24
    4eae:	88 e1       	ldi	r24, 0x18	; 24
    4eb0:	96 e2       	ldi	r25, 0x26	; 38
    4eb2:	90 93 c4 07 	sts	0x07C4, r25
    4eb6:	80 93 c3 07 	sts	0x07C3, r24
    4eba:	80 81       	ld	r24, Z
    4ebc:	88 7f       	andi	r24, 0xF8	; 248
    4ebe:	81 60       	ori	r24, 0x01	; 1
    4ec0:	80 83       	st	Z, r24
    4ec2:	84 e0       	ldi	r24, 0x04	; 4
    4ec4:	0e 94 ed 25 	call	0x4bda	; 0x4bda <EnableTimer3Interrupt>
    4ec8:	82 e0       	ldi	r24, 0x02	; 2
    4eca:	0e 94 ed 25 	call	0x4bda	; 0x4bda <EnableTimer3Interrupt>
    4ece:	80 91 aa 07 	lds	r24, 0x07AA
    4ed2:	80 68       	ori	r24, 0x80	; 128
    4ed4:	80 93 aa 07 	sts	0x07AA, r24
    4ed8:	08 95       	ret

00004eda <SetUart0BaudRate>:
    4eda:	9a 01       	movw	r18, r20
    4edc:	ab 01       	movw	r20, r22
    4ede:	88 23       	and	r24, r24
    4ee0:	49 f4       	brne	.+18     	; 0x4ef4 <SetUart0BaudRate+0x1a>
    4ee2:	59 98       	cbi	0x0b, 1	; 11
    4ee4:	94 e0       	ldi	r25, 0x04	; 4
    4ee6:	22 0f       	add	r18, r18
    4ee8:	33 1f       	adc	r19, r19
    4eea:	44 1f       	adc	r20, r20
    4eec:	55 1f       	adc	r21, r21
    4eee:	9a 95       	dec	r25
    4ef0:	d1 f7       	brne	.-12     	; 0x4ee6 <SetUart0BaudRate+0xc>
    4ef2:	08 c0       	rjmp	.+16     	; 0x4f04 <SetUart0BaudRate+0x2a>
    4ef4:	59 9a       	sbi	0x0b, 1	; 11
    4ef6:	83 e0       	ldi	r24, 0x03	; 3
    4ef8:	22 0f       	add	r18, r18
    4efa:	33 1f       	adc	r19, r19
    4efc:	44 1f       	adc	r20, r20
    4efe:	55 1f       	adc	r21, r21
    4f00:	8a 95       	dec	r24
    4f02:	d1 f7       	brne	.-12     	; 0x4ef8 <SetUart0BaudRate+0x1e>
    4f04:	60 e0       	ldi	r22, 0x00	; 0
    4f06:	74 e2       	ldi	r23, 0x24	; 36
    4f08:	84 ef       	ldi	r24, 0xF4	; 244
    4f0a:	90 e0       	ldi	r25, 0x00	; 0
    4f0c:	0e 94 a7 42 	call	0x854e	; 0x854e <__udivmodsi4>
    4f10:	c9 01       	movw	r24, r18
    4f12:	21 50       	subi	r18, 0x01	; 1
    4f14:	30 40       	sbci	r19, 0x00	; 0
    4f16:	30 93 90 00 	sts	0x0090, r19
    4f1a:	81 50       	subi	r24, 0x01	; 1
    4f1c:	89 b9       	out	0x09, r24	; 9
    4f1e:	08 95       	ret

00004f20 <SetUart1BaudRate>:
    4f20:	9a 01       	movw	r18, r20
    4f22:	ab 01       	movw	r20, r22
    4f24:	88 23       	and	r24, r24
    4f26:	69 f4       	brne	.+26     	; 0x4f42 <SetUart1BaudRate+0x22>
    4f28:	80 91 9b 00 	lds	r24, 0x009B
    4f2c:	8d 7f       	andi	r24, 0xFD	; 253
    4f2e:	80 93 9b 00 	sts	0x009B, r24
    4f32:	74 e0       	ldi	r23, 0x04	; 4
    4f34:	22 0f       	add	r18, r18
    4f36:	33 1f       	adc	r19, r19
    4f38:	44 1f       	adc	r20, r20
    4f3a:	55 1f       	adc	r21, r21
    4f3c:	7a 95       	dec	r23
    4f3e:	d1 f7       	brne	.-12     	; 0x4f34 <SetUart1BaudRate+0x14>
    4f40:	0c c0       	rjmp	.+24     	; 0x4f5a <SetUart1BaudRate+0x3a>
    4f42:	80 91 9b 00 	lds	r24, 0x009B
    4f46:	82 60       	ori	r24, 0x02	; 2
    4f48:	80 93 9b 00 	sts	0x009B, r24
    4f4c:	63 e0       	ldi	r22, 0x03	; 3
    4f4e:	22 0f       	add	r18, r18
    4f50:	33 1f       	adc	r19, r19
    4f52:	44 1f       	adc	r20, r20
    4f54:	55 1f       	adc	r21, r21
    4f56:	6a 95       	dec	r22
    4f58:	d1 f7       	brne	.-12     	; 0x4f4e <SetUart1BaudRate+0x2e>
    4f5a:	60 e0       	ldi	r22, 0x00	; 0
    4f5c:	74 e2       	ldi	r23, 0x24	; 36
    4f5e:	84 ef       	ldi	r24, 0xF4	; 244
    4f60:	90 e0       	ldi	r25, 0x00	; 0
    4f62:	0e 94 a7 42 	call	0x854e	; 0x854e <__udivmodsi4>
    4f66:	c9 01       	movw	r24, r18
    4f68:	21 50       	subi	r18, 0x01	; 1
    4f6a:	30 40       	sbci	r19, 0x00	; 0
    4f6c:	30 93 98 00 	sts	0x0098, r19
    4f70:	81 50       	subi	r24, 0x01	; 1
    4f72:	80 93 99 00 	sts	0x0099, r24
    4f76:	08 95       	ret

00004f78 <SendUart0Byte>:
    4f78:	d9 98       	cbi	0x1b, 1	; 27
    4f7a:	d8 9a       	sbi	0x1b, 0	; 27
    4f7c:	5e 9a       	sbi	0x0b, 6	; 11
    4f7e:	5d 9b       	sbis	0x0b, 5	; 11
    4f80:	fe cf       	rjmp	.-4      	; 0x4f7e <SendUart0Byte+0x6>
    4f82:	8c b9       	out	0x0c, r24	; 12
    4f84:	5e 9b       	sbis	0x0b, 6	; 11
    4f86:	fe cf       	rjmp	.-4      	; 0x4f84 <SendUart0Byte+0xc>
    4f88:	d8 98       	cbi	0x1b, 0	; 27
    4f8a:	d9 9a       	sbi	0x1b, 1	; 27
    4f8c:	08 95       	ret

00004f8e <SendUart1Byte>:
    4f8e:	1f 93       	push	r17
    4f90:	18 2f       	mov	r17, r24
    4f92:	e0 91 75 06 	lds	r30, 0x0675
    4f96:	f0 91 76 06 	lds	r31, 0x0676
    4f9a:	8b e1       	ldi	r24, 0x1B	; 27
    4f9c:	98 e0       	ldi	r25, 0x08	; 8
    4f9e:	09 95       	icall
    4fa0:	88 23       	and	r24, r24
    4fa2:	71 f0       	breq	.+28     	; 0x4fc0 <SendUart1Byte+0x32>
    4fa4:	e0 91 77 06 	lds	r30, 0x0677
    4fa8:	f0 91 78 06 	lds	r31, 0x0678
    4fac:	8b e1       	ldi	r24, 0x1B	; 27
    4fae:	98 e0       	ldi	r25, 0x08	; 8
    4fb0:	61 2f       	mov	r22, r17
    4fb2:	09 95       	icall
    4fb4:	80 91 9a 00 	lds	r24, 0x009A
    4fb8:	80 62       	ori	r24, 0x20	; 32
    4fba:	80 93 9a 00 	sts	0x009A, r24
    4fbe:	08 c0       	rjmp	.+16     	; 0x4fd0 <SendUart1Byte+0x42>
    4fc0:	e0 91 77 06 	lds	r30, 0x0677
    4fc4:	f0 91 78 06 	lds	r31, 0x0678
    4fc8:	8b e1       	ldi	r24, 0x1B	; 27
    4fca:	98 e0       	ldi	r25, 0x08	; 8
    4fcc:	61 2f       	mov	r22, r17
    4fce:	09 95       	icall
    4fd0:	1f 91       	pop	r17
    4fd2:	08 95       	ret

00004fd4 <WriteUart0TxBuffer>:
    4fd4:	68 2f       	mov	r22, r24
    4fd6:	e0 91 77 06 	lds	r30, 0x0677
    4fda:	f0 91 78 06 	lds	r31, 0x0678
    4fde:	8a ef       	ldi	r24, 0xFA	; 250
    4fe0:	97 e0       	ldi	r25, 0x07	; 7
    4fe2:	09 95       	icall
    4fe4:	08 95       	ret

00004fe6 <WriteUart1TxBuffer>:
    4fe6:	68 2f       	mov	r22, r24
    4fe8:	e0 91 77 06 	lds	r30, 0x0677
    4fec:	f0 91 78 06 	lds	r31, 0x0678
    4ff0:	8b e1       	ldi	r24, 0x1B	; 27
    4ff2:	98 e0       	ldi	r25, 0x08	; 8
    4ff4:	09 95       	icall
    4ff6:	08 95       	ret

00004ff8 <SendUart0TxBuffer>:
    4ff8:	0f 93       	push	r16
    4ffa:	1f 93       	push	r17
    4ffc:	df 93       	push	r29
    4ffe:	cf 93       	push	r28
    5000:	0f 92       	push	r0
    5002:	cd b7       	in	r28, 0x3d	; 61
    5004:	de b7       	in	r29, 0x3e	; 62
    5006:	19 82       	std	Y+1, r1	; 0x01
    5008:	d9 98       	cbi	0x1b, 1	; 27
    500a:	d8 9a       	sbi	0x1b, 0	; 27
    500c:	8e 01       	movw	r16, r28
    500e:	0f 5f       	subi	r16, 0xFF	; 255
    5010:	1f 4f       	sbci	r17, 0xFF	; 255
    5012:	05 c0       	rjmp	.+10     	; 0x501e <SendUart0TxBuffer+0x26>
    5014:	5d 9b       	sbis	0x0b, 5	; 11
    5016:	fe cf       	rjmp	.-4      	; 0x5014 <SendUart0TxBuffer+0x1c>
    5018:	5e 9a       	sbi	0x0b, 6	; 11
    501a:	89 81       	ldd	r24, Y+1	; 0x01
    501c:	8c b9       	out	0x0c, r24	; 12
    501e:	e0 91 79 06 	lds	r30, 0x0679
    5022:	f0 91 7a 06 	lds	r31, 0x067A
    5026:	8a ef       	ldi	r24, 0xFA	; 250
    5028:	97 e0       	ldi	r25, 0x07	; 7
    502a:	b8 01       	movw	r22, r16
    502c:	09 95       	icall
    502e:	88 23       	and	r24, r24
    5030:	89 f7       	brne	.-30     	; 0x5014 <SendUart0TxBuffer+0x1c>
    5032:	5e 9b       	sbis	0x0b, 6	; 11
    5034:	fe cf       	rjmp	.-4      	; 0x5032 <SendUart0TxBuffer+0x3a>
    5036:	d8 98       	cbi	0x1b, 0	; 27
    5038:	d9 9a       	sbi	0x1b, 1	; 27
    503a:	0f 90       	pop	r0
    503c:	cf 91       	pop	r28
    503e:	df 91       	pop	r29
    5040:	1f 91       	pop	r17
    5042:	0f 91       	pop	r16
    5044:	08 95       	ret

00005046 <SendUart1TxBuffer>:
    5046:	ea e9       	ldi	r30, 0x9A	; 154
    5048:	f0 e0       	ldi	r31, 0x00	; 0
    504a:	80 81       	ld	r24, Z
    504c:	80 62       	ori	r24, 0x20	; 32
    504e:	80 83       	st	Z, r24
    5050:	08 95       	ret

00005052 <ClearUart1ReceiveBuffer>:
    5052:	e0 91 7f 06 	lds	r30, 0x067F
    5056:	f0 91 80 06 	lds	r31, 0x0680
    505a:	83 e1       	ldi	r24, 0x13	; 19
    505c:	98 e0       	ldi	r25, 0x08	; 8
    505e:	09 95       	icall
    5060:	08 95       	ret

00005062 <ClearUart0ReceiveBuffer>:
    5062:	e0 91 7f 06 	lds	r30, 0x067F
    5066:	f0 91 80 06 	lds	r31, 0x0680
    506a:	82 ef       	ldi	r24, 0xF2	; 242
    506c:	97 e0       	ldi	r25, 0x07	; 7
    506e:	09 95       	icall
    5070:	08 95       	ret

00005072 <ReceiveUart0Byte>:
    5072:	bc 01       	movw	r22, r24
    5074:	e0 91 79 06 	lds	r30, 0x0679
    5078:	f0 91 7a 06 	lds	r31, 0x067A
    507c:	82 ef       	ldi	r24, 0xF2	; 242
    507e:	97 e0       	ldi	r25, 0x07	; 7
    5080:	09 95       	icall
    5082:	81 11       	cpse	r24, r1
    5084:	81 e0       	ldi	r24, 0x01	; 1
    5086:	08 95       	ret

00005088 <ReceiveUart1Byte>:
    5088:	bc 01       	movw	r22, r24
    508a:	e0 91 79 06 	lds	r30, 0x0679
    508e:	f0 91 7a 06 	lds	r31, 0x067A
    5092:	83 e1       	ldi	r24, 0x13	; 19
    5094:	98 e0       	ldi	r25, 0x08	; 8
    5096:	09 95       	icall
    5098:	81 11       	cpse	r24, r1
    509a:	81 e0       	ldi	r24, 0x01	; 1
    509c:	08 95       	ret

0000509e <TestUart0ReceiveBuffer>:
    509e:	e0 91 75 06 	lds	r30, 0x0675
    50a2:	f0 91 76 06 	lds	r31, 0x0676
    50a6:	82 ef       	ldi	r24, 0xF2	; 242
    50a8:	97 e0       	ldi	r25, 0x07	; 7
    50aa:	09 95       	icall
    50ac:	90 e0       	ldi	r25, 0x00	; 0
    50ae:	88 23       	and	r24, r24
    50b0:	09 f4       	brne	.+2      	; 0x50b4 <TestUart0ReceiveBuffer+0x16>
    50b2:	91 e0       	ldi	r25, 0x01	; 1
    50b4:	89 2f       	mov	r24, r25
    50b6:	08 95       	ret

000050b8 <TestUart1ReceiveBuffer>:
    50b8:	e0 91 75 06 	lds	r30, 0x0675
    50bc:	f0 91 76 06 	lds	r31, 0x0676
    50c0:	83 e1       	ldi	r24, 0x13	; 19
    50c2:	98 e0       	ldi	r25, 0x08	; 8
    50c4:	09 95       	icall
    50c6:	90 e0       	ldi	r25, 0x00	; 0
    50c8:	88 23       	and	r24, r24
    50ca:	09 f4       	brne	.+2      	; 0x50ce <TestUart1ReceiveBuffer+0x16>
    50cc:	91 e0       	ldi	r25, 0x01	; 1
    50ce:	89 2f       	mov	r24, r25
    50d0:	08 95       	ret

000050d2 <InitUart0>:
    50d2:	10 92 f1 07 	sts	0x07F1, r1
    50d6:	e0 91 73 06 	lds	r30, 0x0673
    50da:	f0 91 74 06 	lds	r31, 0x0674
    50de:	82 ef       	ldi	r24, 0xF2	; 242
    50e0:	97 e0       	ldi	r25, 0x07	; 7
    50e2:	60 e4       	ldi	r22, 0x40	; 64
    50e4:	09 95       	icall
    50e6:	e0 91 73 06 	lds	r30, 0x0673
    50ea:	f0 91 74 06 	lds	r31, 0x0674
    50ee:	8a ef       	ldi	r24, 0xFA	; 250
    50f0:	97 e0       	ldi	r25, 0x07	; 7
    50f2:	60 ec       	ldi	r22, 0xC0	; 192
    50f4:	09 95       	icall
    50f6:	80 91 f2 07 	lds	r24, 0x07F2
    50fa:	87 fd       	sbrc	r24, 7
    50fc:	05 c0       	rjmp	.+10     	; 0x5108 <InitUart0+0x36>
    50fe:	80 91 f1 07 	lds	r24, 0x07F1
    5102:	80 7c       	andi	r24, 0xC0	; 192
    5104:	89 60       	ori	r24, 0x09	; 9
    5106:	4c c0       	rjmp	.+152    	; 0x51a0 <InitUart0+0xce>
    5108:	10 98       	cbi	0x02, 0	; 2
    510a:	11 98       	cbi	0x02, 1	; 2
    510c:	18 98       	cbi	0x03, 0	; 3
    510e:	19 98       	cbi	0x03, 1	; 3
    5110:	d1 9a       	sbi	0x1a, 1	; 26
    5112:	d0 9a       	sbi	0x1a, 0	; 26
    5114:	d9 9a       	sbi	0x1b, 1	; 27
    5116:	d8 98       	cbi	0x1b, 0	; 27
    5118:	10 92 90 00 	sts	0x0090, r1
    511c:	81 e0       	ldi	r24, 0x01	; 1
    511e:	89 b9       	out	0x09, r24	; 9
    5120:	59 9a       	sbi	0x0b, 1	; 11
    5122:	58 98       	cbi	0x0b, 0	; 11
    5124:	54 9a       	sbi	0x0a, 4	; 10
    5126:	53 9a       	sbi	0x0a, 3	; 10
    5128:	52 98       	cbi	0x0a, 2	; 10
    512a:	80 91 95 00 	lds	r24, 0x0095
    512e:	84 60       	ori	r24, 0x04	; 4
    5130:	80 93 95 00 	sts	0x0095, r24
    5134:	80 91 95 00 	lds	r24, 0x0095
    5138:	82 60       	ori	r24, 0x02	; 2
    513a:	80 93 95 00 	sts	0x0095, r24
    513e:	57 98       	cbi	0x0a, 7	; 10
    5140:	55 98       	cbi	0x0a, 5	; 10
    5142:	56 98       	cbi	0x0a, 6	; 10
    5144:	8d e6       	ldi	r24, 0x6D	; 109
    5146:	97 e2       	ldi	r25, 0x27	; 39
    5148:	90 93 05 08 	sts	0x0805, r25
    514c:	80 93 04 08 	sts	0x0804, r24
    5150:	8c eb       	ldi	r24, 0xBC	; 188
    5152:	97 e2       	ldi	r25, 0x27	; 39
    5154:	90 93 07 08 	sts	0x0807, r25
    5158:	80 93 06 08 	sts	0x0806, r24
    515c:	89 e3       	ldi	r24, 0x39	; 57
    515e:	98 e2       	ldi	r25, 0x28	; 40
    5160:	90 93 09 08 	sts	0x0809, r25
    5164:	80 93 08 08 	sts	0x0808, r24
    5168:	8a ee       	ldi	r24, 0xEA	; 234
    516a:	97 e2       	ldi	r25, 0x27	; 39
    516c:	90 93 0b 08 	sts	0x080B, r25
    5170:	80 93 0a 08 	sts	0x080A, r24
    5174:	8c ef       	ldi	r24, 0xFC	; 252
    5176:	97 e2       	ldi	r25, 0x27	; 39
    5178:	90 93 0d 08 	sts	0x080D, r25
    517c:	80 93 0c 08 	sts	0x080C, r24
    5180:	8f e4       	ldi	r24, 0x4F	; 79
    5182:	98 e2       	ldi	r25, 0x28	; 40
    5184:	90 93 0f 08 	sts	0x080F, r25
    5188:	80 93 0e 08 	sts	0x080E, r24
    518c:	81 e3       	ldi	r24, 0x31	; 49
    518e:	98 e2       	ldi	r25, 0x28	; 40
    5190:	90 93 11 08 	sts	0x0811, r25
    5194:	80 93 10 08 	sts	0x0810, r24
    5198:	57 9a       	sbi	0x0a, 7	; 10
    519a:	80 91 f1 07 	lds	r24, 0x07F1
    519e:	80 68       	ori	r24, 0x80	; 128
    51a0:	80 93 f1 07 	sts	0x07F1, r24
    51a4:	08 95       	ret

000051a6 <InitUart1>:
    51a6:	10 92 12 08 	sts	0x0812, r1
    51aa:	e0 91 73 06 	lds	r30, 0x0673
    51ae:	f0 91 74 06 	lds	r31, 0x0674
    51b2:	83 e1       	ldi	r24, 0x13	; 19
    51b4:	98 e0       	ldi	r25, 0x08	; 8
    51b6:	6f ef       	ldi	r22, 0xFF	; 255
    51b8:	09 95       	icall
    51ba:	e0 91 73 06 	lds	r30, 0x0673
    51be:	f0 91 74 06 	lds	r31, 0x0674
    51c2:	8b e1       	ldi	r24, 0x1B	; 27
    51c4:	98 e0       	ldi	r25, 0x08	; 8
    51c6:	60 e8       	ldi	r22, 0x80	; 128
    51c8:	09 95       	icall
    51ca:	80 91 13 08 	lds	r24, 0x0813
    51ce:	87 fd       	sbrc	r24, 7
    51d0:	05 c0       	rjmp	.+10     	; 0x51dc <InitUart1+0x36>
    51d2:	80 91 12 08 	lds	r24, 0x0812
    51d6:	80 7c       	andi	r24, 0xC0	; 192
    51d8:	89 60       	ori	r24, 0x09	; 9
    51da:	6d c0       	rjmp	.+218    	; 0x52b6 <InitUart1+0x110>
    51dc:	8a 98       	cbi	0x11, 2	; 17
    51de:	8b 98       	cbi	0x11, 3	; 17
    51e0:	92 98       	cbi	0x12, 2	; 18
    51e2:	93 98       	cbi	0x12, 3	; 18
    51e4:	10 92 98 00 	sts	0x0098, r1
    51e8:	80 e1       	ldi	r24, 0x10	; 16
    51ea:	80 93 99 00 	sts	0x0099, r24
    51ee:	80 91 9b 00 	lds	r24, 0x009B
    51f2:	82 60       	ori	r24, 0x02	; 2
    51f4:	80 93 9b 00 	sts	0x009B, r24
    51f8:	80 91 9b 00 	lds	r24, 0x009B
    51fc:	8e 7f       	andi	r24, 0xFE	; 254
    51fe:	80 93 9b 00 	sts	0x009B, r24
    5202:	80 91 9a 00 	lds	r24, 0x009A
    5206:	80 61       	ori	r24, 0x10	; 16
    5208:	80 93 9a 00 	sts	0x009A, r24
    520c:	80 91 9a 00 	lds	r24, 0x009A
    5210:	88 60       	ori	r24, 0x08	; 8
    5212:	80 93 9a 00 	sts	0x009A, r24
    5216:	80 91 9a 00 	lds	r24, 0x009A
    521a:	8b 7f       	andi	r24, 0xFB	; 251
    521c:	80 93 9a 00 	sts	0x009A, r24
    5220:	80 91 9d 00 	lds	r24, 0x009D
    5224:	84 60       	ori	r24, 0x04	; 4
    5226:	80 93 9d 00 	sts	0x009D, r24
    522a:	80 91 9d 00 	lds	r24, 0x009D
    522e:	82 60       	ori	r24, 0x02	; 2
    5230:	80 93 9d 00 	sts	0x009D, r24
    5234:	80 91 9a 00 	lds	r24, 0x009A
    5238:	8f 77       	andi	r24, 0x7F	; 127
    523a:	80 93 9a 00 	sts	0x009A, r24
    523e:	80 91 9a 00 	lds	r24, 0x009A
    5242:	8f 7b       	andi	r24, 0xBF	; 191
    5244:	80 93 9a 00 	sts	0x009A, r24
    5248:	80 91 9a 00 	lds	r24, 0x009A
    524c:	8f 7d       	andi	r24, 0xDF	; 223
    524e:	80 93 9a 00 	sts	0x009A, r24
    5252:	80 e9       	ldi	r24, 0x90	; 144
    5254:	97 e2       	ldi	r25, 0x27	; 39
    5256:	90 93 26 08 	sts	0x0826, r25
    525a:	80 93 25 08 	sts	0x0825, r24
    525e:	87 ec       	ldi	r24, 0xC7	; 199
    5260:	97 e2       	ldi	r25, 0x27	; 39
    5262:	90 93 28 08 	sts	0x0828, r25
    5266:	80 93 27 08 	sts	0x0827, r24
    526a:	84 e4       	ldi	r24, 0x44	; 68
    526c:	98 e2       	ldi	r25, 0x28	; 40
    526e:	90 93 2a 08 	sts	0x082A, r25
    5272:	80 93 29 08 	sts	0x0829, r24
    5276:	83 ef       	ldi	r24, 0xF3	; 243
    5278:	97 e2       	ldi	r25, 0x27	; 39
    527a:	90 93 2c 08 	sts	0x082C, r25
    527e:	80 93 2b 08 	sts	0x082B, r24
    5282:	83 e2       	ldi	r24, 0x23	; 35
    5284:	98 e2       	ldi	r25, 0x28	; 40
    5286:	90 93 2e 08 	sts	0x082E, r25
    528a:	80 93 2d 08 	sts	0x082D, r24
    528e:	8c e5       	ldi	r24, 0x5C	; 92
    5290:	98 e2       	ldi	r25, 0x28	; 40
    5292:	90 93 30 08 	sts	0x0830, r25
    5296:	80 93 2f 08 	sts	0x082F, r24
    529a:	89 e2       	ldi	r24, 0x29	; 41
    529c:	98 e2       	ldi	r25, 0x28	; 40
    529e:	90 93 32 08 	sts	0x0832, r25
    52a2:	80 93 31 08 	sts	0x0831, r24
    52a6:	80 91 9a 00 	lds	r24, 0x009A
    52aa:	80 68       	ori	r24, 0x80	; 128
    52ac:	80 93 9a 00 	sts	0x009A, r24
    52b0:	80 91 12 08 	lds	r24, 0x0812
    52b4:	80 68       	ori	r24, 0x80	; 128
    52b6:	80 93 12 08 	sts	0x0812, r24
    52ba:	08 95       	ret

000052bc <__vector_20>:
    52bc:	1f 92       	push	r1
    52be:	0f 92       	push	r0
    52c0:	0f b6       	in	r0, 0x3f	; 63
    52c2:	0f 92       	push	r0
    52c4:	0b b6       	in	r0, 0x3b	; 59
    52c6:	0f 92       	push	r0
    52c8:	11 24       	eor	r1, r1
    52ca:	2f 93       	push	r18
    52cc:	3f 93       	push	r19
    52ce:	4f 93       	push	r20
    52d0:	5f 93       	push	r21
    52d2:	6f 93       	push	r22
    52d4:	7f 93       	push	r23
    52d6:	8f 93       	push	r24
    52d8:	9f 93       	push	r25
    52da:	af 93       	push	r26
    52dc:	bf 93       	push	r27
    52de:	ef 93       	push	r30
    52e0:	ff 93       	push	r31
    52e2:	e0 91 75 06 	lds	r30, 0x0675
    52e6:	f0 91 76 06 	lds	r31, 0x0676
    52ea:	8a ef       	ldi	r24, 0xFA	; 250
    52ec:	97 e0       	ldi	r25, 0x07	; 7
    52ee:	09 95       	icall
    52f0:	88 23       	and	r24, r24
    52f2:	11 f0       	breq	.+4      	; 0x52f8 <__vector_20+0x3c>
    52f4:	d8 98       	cbi	0x1b, 0	; 27
    52f6:	d9 9a       	sbi	0x1b, 1	; 27
    52f8:	ff 91       	pop	r31
    52fa:	ef 91       	pop	r30
    52fc:	bf 91       	pop	r27
    52fe:	af 91       	pop	r26
    5300:	9f 91       	pop	r25
    5302:	8f 91       	pop	r24
    5304:	7f 91       	pop	r23
    5306:	6f 91       	pop	r22
    5308:	5f 91       	pop	r21
    530a:	4f 91       	pop	r20
    530c:	3f 91       	pop	r19
    530e:	2f 91       	pop	r18
    5310:	0f 90       	pop	r0
    5312:	0b be       	out	0x3b, r0	; 59
    5314:	0f 90       	pop	r0
    5316:	0f be       	out	0x3f, r0	; 63
    5318:	0f 90       	pop	r0
    531a:	1f 90       	pop	r1
    531c:	18 95       	reti

0000531e <__vector_18>:
    531e:	1f 92       	push	r1
    5320:	0f 92       	push	r0
    5322:	0f b6       	in	r0, 0x3f	; 63
    5324:	0f 92       	push	r0
    5326:	0b b6       	in	r0, 0x3b	; 59
    5328:	0f 92       	push	r0
    532a:	11 24       	eor	r1, r1
    532c:	2f 93       	push	r18
    532e:	3f 93       	push	r19
    5330:	4f 93       	push	r20
    5332:	5f 93       	push	r21
    5334:	6f 93       	push	r22
    5336:	7f 93       	push	r23
    5338:	8f 93       	push	r24
    533a:	9f 93       	push	r25
    533c:	af 93       	push	r26
    533e:	bf 93       	push	r27
    5340:	ef 93       	push	r30
    5342:	ff 93       	push	r31
    5344:	6c b1       	in	r22, 0x0c	; 12
    5346:	e0 91 77 06 	lds	r30, 0x0677
    534a:	f0 91 78 06 	lds	r31, 0x0678
    534e:	82 ef       	ldi	r24, 0xF2	; 242
    5350:	97 e0       	ldi	r25, 0x07	; 7
    5352:	09 95       	icall
    5354:	ff 91       	pop	r31
    5356:	ef 91       	pop	r30
    5358:	bf 91       	pop	r27
    535a:	af 91       	pop	r26
    535c:	9f 91       	pop	r25
    535e:	8f 91       	pop	r24
    5360:	7f 91       	pop	r23
    5362:	6f 91       	pop	r22
    5364:	5f 91       	pop	r21
    5366:	4f 91       	pop	r20
    5368:	3f 91       	pop	r19
    536a:	2f 91       	pop	r18
    536c:	0f 90       	pop	r0
    536e:	0b be       	out	0x3b, r0	; 59
    5370:	0f 90       	pop	r0
    5372:	0f be       	out	0x3f, r0	; 63
    5374:	0f 90       	pop	r0
    5376:	1f 90       	pop	r1
    5378:	18 95       	reti

0000537a <__vector_30>:
    537a:	1f 92       	push	r1
    537c:	0f 92       	push	r0
    537e:	0f b6       	in	r0, 0x3f	; 63
    5380:	0f 92       	push	r0
    5382:	0b b6       	in	r0, 0x3b	; 59
    5384:	0f 92       	push	r0
    5386:	11 24       	eor	r1, r1
    5388:	2f 93       	push	r18
    538a:	3f 93       	push	r19
    538c:	4f 93       	push	r20
    538e:	5f 93       	push	r21
    5390:	6f 93       	push	r22
    5392:	7f 93       	push	r23
    5394:	8f 93       	push	r24
    5396:	9f 93       	push	r25
    5398:	af 93       	push	r26
    539a:	bf 93       	push	r27
    539c:	ef 93       	push	r30
    539e:	ff 93       	push	r31
    53a0:	60 91 9c 00 	lds	r22, 0x009C
    53a4:	e0 91 77 06 	lds	r30, 0x0677
    53a8:	f0 91 78 06 	lds	r31, 0x0678
    53ac:	83 e1       	ldi	r24, 0x13	; 19
    53ae:	98 e0       	ldi	r25, 0x08	; 8
    53b0:	09 95       	icall
    53b2:	ff 91       	pop	r31
    53b4:	ef 91       	pop	r30
    53b6:	bf 91       	pop	r27
    53b8:	af 91       	pop	r26
    53ba:	9f 91       	pop	r25
    53bc:	8f 91       	pop	r24
    53be:	7f 91       	pop	r23
    53c0:	6f 91       	pop	r22
    53c2:	5f 91       	pop	r21
    53c4:	4f 91       	pop	r20
    53c6:	3f 91       	pop	r19
    53c8:	2f 91       	pop	r18
    53ca:	0f 90       	pop	r0
    53cc:	0b be       	out	0x3b, r0	; 59
    53ce:	0f 90       	pop	r0
    53d0:	0f be       	out	0x3f, r0	; 63
    53d2:	0f 90       	pop	r0
    53d4:	1f 90       	pop	r1
    53d6:	18 95       	reti

000053d8 <__vector_19>:
    53d8:	1f 92       	push	r1
    53da:	0f 92       	push	r0
    53dc:	0f b6       	in	r0, 0x3f	; 63
    53de:	0f 92       	push	r0
    53e0:	0b b6       	in	r0, 0x3b	; 59
    53e2:	0f 92       	push	r0
    53e4:	11 24       	eor	r1, r1
    53e6:	2f 93       	push	r18
    53e8:	3f 93       	push	r19
    53ea:	4f 93       	push	r20
    53ec:	5f 93       	push	r21
    53ee:	6f 93       	push	r22
    53f0:	7f 93       	push	r23
    53f2:	8f 93       	push	r24
    53f4:	9f 93       	push	r25
    53f6:	af 93       	push	r26
    53f8:	bf 93       	push	r27
    53fa:	ef 93       	push	r30
    53fc:	ff 93       	push	r31
    53fe:	df 93       	push	r29
    5400:	cf 93       	push	r28
    5402:	0f 92       	push	r0
    5404:	cd b7       	in	r28, 0x3d	; 61
    5406:	de b7       	in	r29, 0x3e	; 62
    5408:	19 82       	std	Y+1, r1	; 0x01
    540a:	e0 91 79 06 	lds	r30, 0x0679
    540e:	f0 91 7a 06 	lds	r31, 0x067A
    5412:	8a ef       	ldi	r24, 0xFA	; 250
    5414:	97 e0       	ldi	r25, 0x07	; 7
    5416:	be 01       	movw	r22, r28
    5418:	6f 5f       	subi	r22, 0xFF	; 255
    541a:	7f 4f       	sbci	r23, 0xFF	; 255
    541c:	09 95       	icall
    541e:	88 23       	and	r24, r24
    5420:	19 f0       	breq	.+6      	; 0x5428 <__vector_19+0x50>
    5422:	89 81       	ldd	r24, Y+1	; 0x01
    5424:	8c b9       	out	0x0c, r24	; 12
    5426:	01 c0       	rjmp	.+2      	; 0x542a <__vector_19+0x52>
    5428:	55 98       	cbi	0x0a, 5	; 10
    542a:	0f 90       	pop	r0
    542c:	cf 91       	pop	r28
    542e:	df 91       	pop	r29
    5430:	ff 91       	pop	r31
    5432:	ef 91       	pop	r30
    5434:	bf 91       	pop	r27
    5436:	af 91       	pop	r26
    5438:	9f 91       	pop	r25
    543a:	8f 91       	pop	r24
    543c:	7f 91       	pop	r23
    543e:	6f 91       	pop	r22
    5440:	5f 91       	pop	r21
    5442:	4f 91       	pop	r20
    5444:	3f 91       	pop	r19
    5446:	2f 91       	pop	r18
    5448:	0f 90       	pop	r0
    544a:	0b be       	out	0x3b, r0	; 59
    544c:	0f 90       	pop	r0
    544e:	0f be       	out	0x3f, r0	; 63
    5450:	0f 90       	pop	r0
    5452:	1f 90       	pop	r1
    5454:	18 95       	reti

00005456 <__vector_31>:
    5456:	1f 92       	push	r1
    5458:	0f 92       	push	r0
    545a:	0f b6       	in	r0, 0x3f	; 63
    545c:	0f 92       	push	r0
    545e:	0b b6       	in	r0, 0x3b	; 59
    5460:	0f 92       	push	r0
    5462:	11 24       	eor	r1, r1
    5464:	2f 93       	push	r18
    5466:	3f 93       	push	r19
    5468:	4f 93       	push	r20
    546a:	5f 93       	push	r21
    546c:	6f 93       	push	r22
    546e:	7f 93       	push	r23
    5470:	8f 93       	push	r24
    5472:	9f 93       	push	r25
    5474:	af 93       	push	r26
    5476:	bf 93       	push	r27
    5478:	ef 93       	push	r30
    547a:	ff 93       	push	r31
    547c:	df 93       	push	r29
    547e:	cf 93       	push	r28
    5480:	0f 92       	push	r0
    5482:	cd b7       	in	r28, 0x3d	; 61
    5484:	de b7       	in	r29, 0x3e	; 62
    5486:	19 82       	std	Y+1, r1	; 0x01
    5488:	e0 91 79 06 	lds	r30, 0x0679
    548c:	f0 91 7a 06 	lds	r31, 0x067A
    5490:	8b e1       	ldi	r24, 0x1B	; 27
    5492:	98 e0       	ldi	r25, 0x08	; 8
    5494:	be 01       	movw	r22, r28
    5496:	6f 5f       	subi	r22, 0xFF	; 255
    5498:	7f 4f       	sbci	r23, 0xFF	; 255
    549a:	09 95       	icall
    549c:	88 23       	and	r24, r24
    549e:	21 f0       	breq	.+8      	; 0x54a8 <__vector_31+0x52>
    54a0:	89 81       	ldd	r24, Y+1	; 0x01
    54a2:	80 93 9c 00 	sts	0x009C, r24
    54a6:	05 c0       	rjmp	.+10     	; 0x54b2 <__vector_31+0x5c>
    54a8:	80 91 9a 00 	lds	r24, 0x009A
    54ac:	8f 7d       	andi	r24, 0xDF	; 223
    54ae:	80 93 9a 00 	sts	0x009A, r24
    54b2:	0f 90       	pop	r0
    54b4:	cf 91       	pop	r28
    54b6:	df 91       	pop	r29
    54b8:	ff 91       	pop	r31
    54ba:	ef 91       	pop	r30
    54bc:	bf 91       	pop	r27
    54be:	af 91       	pop	r26
    54c0:	9f 91       	pop	r25
    54c2:	8f 91       	pop	r24
    54c4:	7f 91       	pop	r23
    54c6:	6f 91       	pop	r22
    54c8:	5f 91       	pop	r21
    54ca:	4f 91       	pop	r20
    54cc:	3f 91       	pop	r19
    54ce:	2f 91       	pop	r18
    54d0:	0f 90       	pop	r0
    54d2:	0b be       	out	0x3b, r0	; 59
    54d4:	0f 90       	pop	r0
    54d6:	0f be       	out	0x3f, r0	; 63
    54d8:	0f 90       	pop	r0
    54da:	1f 90       	pop	r1
    54dc:	18 95       	reti

000054de <SetUart2BaudRate>:
    54de:	ef 92       	push	r14
    54e0:	ff 92       	push	r15
    54e2:	0f 93       	push	r16
    54e4:	1f 93       	push	r17
    54e6:	28 2f       	mov	r18, r24
    54e8:	7a 01       	movw	r14, r20
    54ea:	8b 01       	movw	r16, r22
    54ec:	90 91 91 07 	lds	r25, 0x0791
    54f0:	92 30       	cpi	r25, 0x02	; 2
    54f2:	71 f0       	breq	.+28     	; 0x5510 <SetUart2BaudRate+0x32>
    54f4:	80 e0       	ldi	r24, 0x00	; 0
    54f6:	90 e0       	ldi	r25, 0x00	; 0
    54f8:	01 96       	adiw	r24, 0x01	; 1
    54fa:	27 e0       	ldi	r18, 0x07	; 7
    54fc:	89 30       	cpi	r24, 0x09	; 9
    54fe:	92 07       	cpc	r25, r18
    5500:	d9 f7       	brne	.-10     	; 0x54f8 <SetUart2BaudRate+0x1a>
    5502:	80 91 75 08 	lds	r24, 0x0875
    5506:	80 7c       	andi	r24, 0xC0	; 192
    5508:	84 60       	ori	r24, 0x04	; 4
    550a:	80 93 75 08 	sts	0x0875, r24
    550e:	3a c0       	rjmp	.+116    	; 0x5584 <SetUart2BaudRate+0xa6>
    5510:	83 e0       	ldi	r24, 0x03	; 3
    5512:	80 93 91 07 	sts	0x0791, r24
    5516:	90 93 8f 07 	sts	0x078F, r25
    551a:	e0 91 77 06 	lds	r30, 0x0677
    551e:	f0 91 78 06 	lds	r31, 0x0678
    5522:	87 e8       	ldi	r24, 0x87	; 135
    5524:	97 e0       	ldi	r25, 0x07	; 7
    5526:	62 2f       	mov	r22, r18
    5528:	09 95       	icall
    552a:	e0 91 77 06 	lds	r30, 0x0677
    552e:	f0 91 78 06 	lds	r31, 0x0678
    5532:	87 e8       	ldi	r24, 0x87	; 135
    5534:	97 e0       	ldi	r25, 0x07	; 7
    5536:	6e 2d       	mov	r22, r14
    5538:	09 95       	icall
    553a:	55 27       	eor	r21, r21
    553c:	41 2f       	mov	r20, r17
    553e:	30 2f       	mov	r19, r16
    5540:	2f 2d       	mov	r18, r15
    5542:	e0 91 77 06 	lds	r30, 0x0677
    5546:	f0 91 78 06 	lds	r31, 0x0678
    554a:	87 e8       	ldi	r24, 0x87	; 135
    554c:	97 e0       	ldi	r25, 0x07	; 7
    554e:	62 2f       	mov	r22, r18
    5550:	09 95       	icall
    5552:	98 01       	movw	r18, r16
    5554:	44 27       	eor	r20, r20
    5556:	55 27       	eor	r21, r21
    5558:	e0 91 77 06 	lds	r30, 0x0677
    555c:	f0 91 78 06 	lds	r31, 0x0678
    5560:	87 e8       	ldi	r24, 0x87	; 135
    5562:	97 e0       	ldi	r25, 0x07	; 7
    5564:	62 2f       	mov	r22, r18
    5566:	09 95       	icall
    5568:	21 2f       	mov	r18, r17
    556a:	33 27       	eor	r19, r19
    556c:	44 27       	eor	r20, r20
    556e:	55 27       	eor	r21, r21
    5570:	e0 91 77 06 	lds	r30, 0x0677
    5574:	f0 91 78 06 	lds	r31, 0x0678
    5578:	87 e8       	ldi	r24, 0x87	; 135
    557a:	97 e0       	ldi	r25, 0x07	; 7
    557c:	62 2f       	mov	r22, r18
    557e:	09 95       	icall
    5580:	10 92 91 07 	sts	0x0791, r1
    5584:	1f 91       	pop	r17
    5586:	0f 91       	pop	r16
    5588:	ff 90       	pop	r15
    558a:	ef 90       	pop	r14
    558c:	08 95       	ret

0000558e <SendUart2Byte>:
    558e:	68 2f       	mov	r22, r24
    5590:	80 91 91 07 	lds	r24, 0x0791
    5594:	82 30       	cpi	r24, 0x02	; 2
    5596:	71 f0       	breq	.+28     	; 0x55b4 <SendUart2Byte+0x26>
    5598:	80 e0       	ldi	r24, 0x00	; 0
    559a:	90 e0       	ldi	r25, 0x00	; 0
    559c:	01 96       	adiw	r24, 0x01	; 1
    559e:	27 e0       	ldi	r18, 0x07	; 7
    55a0:	89 30       	cpi	r24, 0x09	; 9
    55a2:	92 07       	cpc	r25, r18
    55a4:	d9 f7       	brne	.-10     	; 0x559c <SendUart2Byte+0xe>
    55a6:	80 91 75 08 	lds	r24, 0x0875
    55aa:	80 7c       	andi	r24, 0xC0	; 192
    55ac:	84 60       	ori	r24, 0x04	; 4
    55ae:	80 93 75 08 	sts	0x0875, r24
    55b2:	08 95       	ret
    55b4:	83 e0       	ldi	r24, 0x03	; 3
    55b6:	80 93 91 07 	sts	0x0791, r24
    55ba:	80 93 8f 07 	sts	0x078F, r24
    55be:	e0 91 77 06 	lds	r30, 0x0677
    55c2:	f0 91 78 06 	lds	r31, 0x0678
    55c6:	87 e8       	ldi	r24, 0x87	; 135
    55c8:	97 e0       	ldi	r25, 0x07	; 7
    55ca:	09 95       	icall
    55cc:	10 92 91 07 	sts	0x0791, r1
    55d0:	08 95       	ret

000055d2 <WriteUart2TxBuffer>:
    55d2:	68 2f       	mov	r22, r24
    55d4:	e0 91 77 06 	lds	r30, 0x0677
    55d8:	f0 91 78 06 	lds	r31, 0x0678
    55dc:	8e e7       	ldi	r24, 0x7E	; 126
    55de:	98 e0       	ldi	r25, 0x08	; 8
    55e0:	09 95       	icall
    55e2:	08 95       	ret

000055e4 <SendUart2TxBuffer>:
    55e4:	0f 93       	push	r16
    55e6:	1f 93       	push	r17
    55e8:	df 93       	push	r29
    55ea:	cf 93       	push	r28
    55ec:	0f 92       	push	r0
    55ee:	cd b7       	in	r28, 0x3d	; 61
    55f0:	de b7       	in	r29, 0x3e	; 62
    55f2:	80 91 91 07 	lds	r24, 0x0791
    55f6:	82 30       	cpi	r24, 0x02	; 2
    55f8:	71 f0       	breq	.+28     	; 0x5616 <SendUart2TxBuffer+0x32>
    55fa:	80 e0       	ldi	r24, 0x00	; 0
    55fc:	90 e0       	ldi	r25, 0x00	; 0
    55fe:	01 96       	adiw	r24, 0x01	; 1
    5600:	27 e0       	ldi	r18, 0x07	; 7
    5602:	89 30       	cpi	r24, 0x09	; 9
    5604:	92 07       	cpc	r25, r18
    5606:	d9 f7       	brne	.-10     	; 0x55fe <SendUart2TxBuffer+0x1a>
    5608:	80 91 75 08 	lds	r24, 0x0875
    560c:	80 7c       	andi	r24, 0xC0	; 192
    560e:	84 60       	ori	r24, 0x04	; 4
    5610:	80 93 75 08 	sts	0x0875, r24
    5614:	1a c0       	rjmp	.+52     	; 0x564a <SendUart2TxBuffer+0x66>
    5616:	19 82       	std	Y+1, r1	; 0x01
    5618:	83 e0       	ldi	r24, 0x03	; 3
    561a:	80 93 91 07 	sts	0x0791, r24
    561e:	80 93 8f 07 	sts	0x078F, r24
    5622:	8e 01       	movw	r16, r28
    5624:	0f 5f       	subi	r16, 0xFF	; 255
    5626:	1f 4f       	sbci	r17, 0xFF	; 255
    5628:	06 c0       	rjmp	.+12     	; 0x5636 <SendUart2TxBuffer+0x52>
    562a:	e0 91 a8 07 	lds	r30, 0x07A8
    562e:	f0 91 a9 07 	lds	r31, 0x07A9
    5632:	89 81       	ldd	r24, Y+1	; 0x01
    5634:	09 95       	icall
    5636:	e0 91 8c 08 	lds	r30, 0x088C
    563a:	f0 91 8d 08 	lds	r31, 0x088D
    563e:	c8 01       	movw	r24, r16
    5640:	09 95       	icall
    5642:	88 23       	and	r24, r24
    5644:	91 f7       	brne	.-28     	; 0x562a <SendUart2TxBuffer+0x46>
    5646:	10 92 91 07 	sts	0x0791, r1
    564a:	0f 90       	pop	r0
    564c:	cf 91       	pop	r28
    564e:	df 91       	pop	r29
    5650:	1f 91       	pop	r17
    5652:	0f 91       	pop	r16
    5654:	08 95       	ret

00005656 <ReceiveUart2Byte>:
    5656:	bc 01       	movw	r22, r24
    5658:	e0 91 79 06 	lds	r30, 0x0679
    565c:	f0 91 7a 06 	lds	r31, 0x067A
    5660:	86 e7       	ldi	r24, 0x76	; 118
    5662:	98 e0       	ldi	r25, 0x08	; 8
    5664:	09 95       	icall
    5666:	81 11       	cpse	r24, r1
    5668:	81 e0       	ldi	r24, 0x01	; 1
    566a:	08 95       	ret

0000566c <TestReceiveUart2>:
    566c:	e0 91 75 06 	lds	r30, 0x0675
    5670:	f0 91 76 06 	lds	r31, 0x0676
    5674:	86 e7       	ldi	r24, 0x76	; 118
    5676:	98 e0       	ldi	r25, 0x08	; 8
    5678:	09 95       	icall
    567a:	90 e0       	ldi	r25, 0x00	; 0
    567c:	88 23       	and	r24, r24
    567e:	09 f4       	brne	.+2      	; 0x5682 <TestReceiveUart2+0x16>
    5680:	91 e0       	ldi	r25, 0x01	; 1
    5682:	89 2f       	mov	r24, r25
    5684:	08 95       	ret

00005686 <InitUart2>:
    5686:	10 92 75 08 	sts	0x0875, r1
    568a:	80 91 86 07 	lds	r24, 0x0786
    568e:	87 fd       	sbrc	r24, 7
    5690:	05 c0       	rjmp	.+10     	; 0x569c <InitUart2+0x16>
    5692:	80 91 75 08 	lds	r24, 0x0875
    5696:	80 7c       	andi	r24, 0xC0	; 192
    5698:	8b 61       	ori	r24, 0x1B	; 27
    569a:	40 c0       	rjmp	.+128    	; 0x571c <InitUart2+0x96>
    569c:	e0 91 73 06 	lds	r30, 0x0673
    56a0:	f0 91 74 06 	lds	r31, 0x0674
    56a4:	86 e7       	ldi	r24, 0x76	; 118
    56a6:	98 e0       	ldi	r25, 0x08	; 8
    56a8:	60 e4       	ldi	r22, 0x40	; 64
    56aa:	09 95       	icall
    56ac:	e0 91 73 06 	lds	r30, 0x0673
    56b0:	f0 91 74 06 	lds	r31, 0x0674
    56b4:	8e e7       	ldi	r24, 0x7E	; 126
    56b6:	98 e0       	ldi	r25, 0x08	; 8
    56b8:	60 e4       	ldi	r22, 0x40	; 64
    56ba:	09 95       	icall
    56bc:	80 91 76 08 	lds	r24, 0x0876
    56c0:	87 fd       	sbrc	r24, 7
    56c2:	05 c0       	rjmp	.+10     	; 0x56ce <InitUart2+0x48>
    56c4:	80 91 75 08 	lds	r24, 0x0875
    56c8:	80 7c       	andi	r24, 0xC0	; 192
    56ca:	89 60       	ori	r24, 0x09	; 9
    56cc:	27 c0       	rjmp	.+78     	; 0x571c <InitUart2+0x96>
    56ce:	8f e6       	ldi	r24, 0x6F	; 111
    56d0:	9a e2       	ldi	r25, 0x2A	; 42
    56d2:	90 93 89 08 	sts	0x0889, r25
    56d6:	80 93 88 08 	sts	0x0888, r24
    56da:	87 ec       	ldi	r24, 0xC7	; 199
    56dc:	9a e2       	ldi	r25, 0x2A	; 42
    56de:	90 93 8b 08 	sts	0x088B, r25
    56e2:	80 93 8a 08 	sts	0x088A, r24
    56e6:	8b e2       	ldi	r24, 0x2B	; 43
    56e8:	9b e2       	ldi	r25, 0x2B	; 43
    56ea:	90 93 8d 08 	sts	0x088D, r25
    56ee:	80 93 8c 08 	sts	0x088C, r24
    56f2:	89 ee       	ldi	r24, 0xE9	; 233
    56f4:	9a e2       	ldi	r25, 0x2A	; 42
    56f6:	90 93 8f 08 	sts	0x088F, r25
    56fa:	80 93 8e 08 	sts	0x088E, r24
    56fe:	82 ef       	ldi	r24, 0xF2	; 242
    5700:	9a e2       	ldi	r25, 0x2A	; 42
    5702:	90 93 91 08 	sts	0x0891, r25
    5706:	80 93 90 08 	sts	0x0890, r24
    570a:	86 e3       	ldi	r24, 0x36	; 54
    570c:	9b e2       	ldi	r25, 0x2B	; 43
    570e:	90 93 93 08 	sts	0x0893, r25
    5712:	80 93 92 08 	sts	0x0892, r24
    5716:	80 91 75 08 	lds	r24, 0x0875
    571a:	80 68       	ori	r24, 0x80	; 128
    571c:	80 93 75 08 	sts	0x0875, r24
    5720:	08 95       	ret

00005722 <max>:
    5722:	9c 01       	movw	r18, r24
    5724:	cb 01       	movw	r24, r22
    5726:	f6 2f       	mov	r31, r22
    5728:	e9 2f       	mov	r30, r25
    572a:	62 17       	cp	r22, r18
    572c:	73 07       	cpc	r23, r19
    572e:	1c f4       	brge	.+6      	; 0x5736 <max+0x14>
    5730:	c9 01       	movw	r24, r18
    5732:	f2 2f       	mov	r31, r18
    5734:	e9 2f       	mov	r30, r25
    5736:	8f 2f       	mov	r24, r31
    5738:	9e 2f       	mov	r25, r30
    573a:	84 17       	cp	r24, r20
    573c:	95 07       	cpc	r25, r21
    573e:	0c f4       	brge	.+2      	; 0x5742 <max+0x20>
    5740:	ca 01       	movw	r24, r20
    5742:	82 17       	cp	r24, r18
    5744:	93 07       	cpc	r25, r19
    5746:	19 f4       	brne	.+6      	; 0x574e <max+0x2c>
    5748:	21 e0       	ldi	r18, 0x01	; 1
    574a:	30 e0       	ldi	r19, 0x00	; 0
    574c:	08 c0       	rjmp	.+16     	; 0x575e <max+0x3c>
    574e:	86 17       	cp	r24, r22
    5750:	97 07       	cpc	r25, r23
    5752:	19 f0       	breq	.+6      	; 0x575a <max+0x38>
    5754:	23 e0       	ldi	r18, 0x03	; 3
    5756:	30 e0       	ldi	r19, 0x00	; 0
    5758:	02 c0       	rjmp	.+4      	; 0x575e <max+0x3c>
    575a:	22 e0       	ldi	r18, 0x02	; 2
    575c:	30 e0       	ldi	r19, 0x00	; 0
    575e:	c9 01       	movw	r24, r18
    5760:	08 95       	ret

00005762 <min>:
    5762:	9c 01       	movw	r18, r24
    5764:	cb 01       	movw	r24, r22
    5766:	f6 2f       	mov	r31, r22
    5768:	e9 2f       	mov	r30, r25
    576a:	26 17       	cp	r18, r22
    576c:	37 07       	cpc	r19, r23
    576e:	1c f4       	brge	.+6      	; 0x5776 <min+0x14>
    5770:	c9 01       	movw	r24, r18
    5772:	f2 2f       	mov	r31, r18
    5774:	e9 2f       	mov	r30, r25
    5776:	8f 2f       	mov	r24, r31
    5778:	9e 2f       	mov	r25, r30
    577a:	48 17       	cp	r20, r24
    577c:	59 07       	cpc	r21, r25
    577e:	0c f4       	brge	.+2      	; 0x5782 <min+0x20>
    5780:	ca 01       	movw	r24, r20
    5782:	82 17       	cp	r24, r18
    5784:	93 07       	cpc	r25, r19
    5786:	19 f4       	brne	.+6      	; 0x578e <min+0x2c>
    5788:	21 e0       	ldi	r18, 0x01	; 1
    578a:	30 e0       	ldi	r19, 0x00	; 0
    578c:	08 c0       	rjmp	.+16     	; 0x579e <min+0x3c>
    578e:	86 17       	cp	r24, r22
    5790:	97 07       	cpc	r25, r23
    5792:	19 f0       	breq	.+6      	; 0x579a <min+0x38>
    5794:	23 e0       	ldi	r18, 0x03	; 3
    5796:	30 e0       	ldi	r19, 0x00	; 0
    5798:	02 c0       	rjmp	.+4      	; 0x579e <min+0x3c>
    579a:	22 e0       	ldi	r18, 0x02	; 2
    579c:	30 e0       	ldi	r19, 0x00	; 0
    579e:	c9 01       	movw	r24, r18
    57a0:	08 95       	ret

000057a2 <delay>:
    57a2:	0f 93       	push	r16
    57a4:	1f 93       	push	r17
    57a6:	cf 93       	push	r28
    57a8:	df 93       	push	r29
    57aa:	8c 01       	movw	r16, r24
    57ac:	c0 e0       	ldi	r28, 0x00	; 0
    57ae:	d0 e0       	ldi	r29, 0x00	; 0
    57b0:	1a c0       	rjmp	.+52     	; 0x57e6 <delay+0x44>
    57b2:	61 e0       	ldi	r22, 0x01	; 1
    57b4:	70 e0       	ldi	r23, 0x00	; 0
    57b6:	80 e0       	ldi	r24, 0x00	; 0
    57b8:	90 e0       	ldi	r25, 0x00	; 0
    57ba:	0e 94 67 00 	call	0xce	; 0xce <DelayMS>
    57be:	60 e0       	ldi	r22, 0x00	; 0
    57c0:	70 e0       	ldi	r23, 0x00	; 0
    57c2:	80 e0       	ldi	r24, 0x00	; 0
    57c4:	90 e0       	ldi	r25, 0x00	; 0
    57c6:	0e 94 96 00 	call	0x12c	; 0x12c <MFGetAD>
    57ca:	20 91 a0 08 	lds	r18, 0x08A0
    57ce:	30 91 a1 08 	lds	r19, 0x08A1
    57d2:	44 27       	eor	r20, r20
    57d4:	37 fd       	sbrc	r19, 7
    57d6:	40 95       	com	r20
    57d8:	54 2f       	mov	r21, r20
    57da:	26 17       	cp	r18, r22
    57dc:	37 07       	cpc	r19, r23
    57de:	48 07       	cpc	r20, r24
    57e0:	59 07       	cpc	r21, r25
    57e2:	24 f4       	brge	.+8      	; 0x57ec <delay+0x4a>
    57e4:	21 96       	adiw	r28, 0x01	; 1
    57e6:	c0 17       	cp	r28, r16
    57e8:	d1 07       	cpc	r29, r17
    57ea:	1c f3       	brlt	.-58     	; 0x57b2 <delay+0x10>
    57ec:	df 91       	pop	r29
    57ee:	cf 91       	pop	r28
    57f0:	1f 91       	pop	r17
    57f2:	0f 91       	pop	r16
    57f4:	08 95       	ret

000057f6 <RelativeMove>:
    57f6:	ef 92       	push	r14
    57f8:	ff 92       	push	r15
    57fa:	0f 93       	push	r16
    57fc:	1f 93       	push	r17
    57fe:	60 e0       	ldi	r22, 0x00	; 0
    5800:	70 e0       	ldi	r23, 0x00	; 0
    5802:	80 e0       	ldi	r24, 0x00	; 0
    5804:	90 e0       	ldi	r25, 0x00	; 0
    5806:	0e 94 96 00 	call	0x12c	; 0x12c <MFGetAD>
    580a:	7b 01       	movw	r14, r22
    580c:	8c 01       	movw	r16, r24
    580e:	64 e6       	ldi	r22, 0x64	; 100
    5810:	70 e0       	ldi	r23, 0x00	; 0
    5812:	80 e0       	ldi	r24, 0x00	; 0
    5814:	90 e0       	ldi	r25, 0x00	; 0
    5816:	0e 94 67 00 	call	0xce	; 0xce <DelayMS>
    581a:	60 e0       	ldi	r22, 0x00	; 0
    581c:	70 e0       	ldi	r23, 0x00	; 0
    581e:	80 e0       	ldi	r24, 0x00	; 0
    5820:	90 e0       	ldi	r25, 0x00	; 0
    5822:	0e 94 96 00 	call	0x12c	; 0x12c <MFGetAD>
    5826:	9b 01       	movw	r18, r22
    5828:	ac 01       	movw	r20, r24
    582a:	2e 19       	sub	r18, r14
    582c:	3f 09       	sbc	r19, r15
    582e:	c9 01       	movw	r24, r18
    5830:	1f 91       	pop	r17
    5832:	0f 91       	pop	r16
    5834:	ff 90       	pop	r15
    5836:	ef 90       	pop	r14
    5838:	08 95       	ret

0000583a <danger>:
    583a:	60 e0       	ldi	r22, 0x00	; 0
    583c:	70 e0       	ldi	r23, 0x00	; 0
    583e:	80 e0       	ldi	r24, 0x00	; 0
    5840:	90 e0       	ldi	r25, 0x00	; 0
    5842:	0e 94 96 00 	call	0x12c	; 0x12c <MFGetAD>
    5846:	20 91 a0 08 	lds	r18, 0x08A0
    584a:	30 91 a1 08 	lds	r19, 0x08A1
    584e:	44 27       	eor	r20, r20
    5850:	37 fd       	sbrc	r19, 7
    5852:	40 95       	com	r20
    5854:	54 2f       	mov	r21, r20
    5856:	62 17       	cp	r22, r18
    5858:	73 07       	cpc	r23, r19
    585a:	84 07       	cpc	r24, r20
    585c:	95 07       	cpc	r25, r21
    585e:	1c f4       	brge	.+6      	; 0x5866 <danger+0x2c>
    5860:	81 e0       	ldi	r24, 0x01	; 1
    5862:	90 e0       	ldi	r25, 0x00	; 0
    5864:	08 95       	ret
    5866:	08 95       	ret

00005868 <qianqin>:
    5868:	ef 92       	push	r14
    586a:	ff 92       	push	r15
    586c:	0f 93       	push	r16
    586e:	1f 93       	push	r17
    5870:	64 e0       	ldi	r22, 0x04	; 4
    5872:	70 e0       	ldi	r23, 0x00	; 0
    5874:	80 e0       	ldi	r24, 0x00	; 0
    5876:	90 e0       	ldi	r25, 0x00	; 0
    5878:	25 ef       	ldi	r18, 0xF5	; 245
    587a:	31 e0       	ldi	r19, 0x01	; 1
    587c:	40 e0       	ldi	r20, 0x00	; 0
    587e:	50 e0       	ldi	r21, 0x00	; 0
    5880:	e1 2c       	mov	r14, r1
    5882:	e2 e0       	ldi	r30, 0x02	; 2
    5884:	fe 2e       	mov	r15, r30
    5886:	01 2d       	mov	r16, r1
    5888:	11 2d       	mov	r17, r1
    588a:	0e 94 05 01 	call	0x20a	; 0x20a <MFSetServoPos>
    588e:	65 e0       	ldi	r22, 0x05	; 5
    5890:	70 e0       	ldi	r23, 0x00	; 0
    5892:	80 e0       	ldi	r24, 0x00	; 0
    5894:	90 e0       	ldi	r25, 0x00	; 0
    5896:	2b e3       	ldi	r18, 0x3B	; 59
    5898:	32 e0       	ldi	r19, 0x02	; 2
    589a:	40 e0       	ldi	r20, 0x00	; 0
    589c:	50 e0       	ldi	r21, 0x00	; 0
    589e:	0e 94 05 01 	call	0x20a	; 0x20a <MFSetServoPos>
    58a2:	0e 94 d2 00 	call	0x1a4	; 0x1a4 <MFServoAction>
    58a6:	1f 91       	pop	r17
    58a8:	0f 91       	pop	r16
    58aa:	ff 90       	pop	r15
    58ac:	ef 90       	pop	r14
    58ae:	08 95       	ret

000058b0 <houyang>:
    58b0:	ef 92       	push	r14
    58b2:	ff 92       	push	r15
    58b4:	0f 93       	push	r16
    58b6:	1f 93       	push	r17
    58b8:	64 e0       	ldi	r22, 0x04	; 4
    58ba:	70 e0       	ldi	r23, 0x00	; 0
    58bc:	80 e0       	ldi	r24, 0x00	; 0
    58be:	90 e0       	ldi	r25, 0x00	; 0
    58c0:	2c e3       	ldi	r18, 0x3C	; 60
    58c2:	32 e0       	ldi	r19, 0x02	; 2
    58c4:	40 e0       	ldi	r20, 0x00	; 0
    58c6:	50 e0       	ldi	r21, 0x00	; 0
    58c8:	e1 2c       	mov	r14, r1
    58ca:	f2 e0       	ldi	r31, 0x02	; 2
    58cc:	ff 2e       	mov	r15, r31
    58ce:	01 2d       	mov	r16, r1
    58d0:	11 2d       	mov	r17, r1
    58d2:	0e 94 05 01 	call	0x20a	; 0x20a <MFSetServoPos>
    58d6:	65 e0       	ldi	r22, 0x05	; 5
    58d8:	70 e0       	ldi	r23, 0x00	; 0
    58da:	80 e0       	ldi	r24, 0x00	; 0
    58dc:	90 e0       	ldi	r25, 0x00	; 0
    58de:	29 ef       	ldi	r18, 0xF9	; 249
    58e0:	31 e0       	ldi	r19, 0x01	; 1
    58e2:	40 e0       	ldi	r20, 0x00	; 0
    58e4:	50 e0       	ldi	r21, 0x00	; 0
    58e6:	0e 94 05 01 	call	0x20a	; 0x20a <MFSetServoPos>
    58ea:	0e 94 d2 00 	call	0x1a4	; 0x1a4 <MFServoAction>
    58ee:	1f 91       	pop	r17
    58f0:	0f 91       	pop	r16
    58f2:	ff 90       	pop	r15
    58f4:	ef 90       	pop	r14
    58f6:	08 95       	ret

000058f8 <zhili>:
    58f8:	ef 92       	push	r14
    58fa:	ff 92       	push	r15
    58fc:	0f 93       	push	r16
    58fe:	1f 93       	push	r17
    5900:	64 e0       	ldi	r22, 0x04	; 4
    5902:	70 e0       	ldi	r23, 0x00	; 0
    5904:	80 e0       	ldi	r24, 0x00	; 0
    5906:	90 e0       	ldi	r25, 0x00	; 0
    5908:	2a e1       	ldi	r18, 0x1A	; 26
    590a:	32 e0       	ldi	r19, 0x02	; 2
    590c:	40 e0       	ldi	r20, 0x00	; 0
    590e:	50 e0       	ldi	r21, 0x00	; 0
    5910:	e1 2c       	mov	r14, r1
    5912:	a2 e0       	ldi	r26, 0x02	; 2
    5914:	fa 2e       	mov	r15, r26
    5916:	01 2d       	mov	r16, r1
    5918:	11 2d       	mov	r17, r1
    591a:	0e 94 05 01 	call	0x20a	; 0x20a <MFSetServoPos>
    591e:	65 e0       	ldi	r22, 0x05	; 5
    5920:	70 e0       	ldi	r23, 0x00	; 0
    5922:	80 e0       	ldi	r24, 0x00	; 0
    5924:	90 e0       	ldi	r25, 0x00	; 0
    5926:	25 e1       	ldi	r18, 0x15	; 21
    5928:	32 e0       	ldi	r19, 0x02	; 2
    592a:	40 e0       	ldi	r20, 0x00	; 0
    592c:	50 e0       	ldi	r21, 0x00	; 0
    592e:	0e 94 05 01 	call	0x20a	; 0x20a <MFSetServoPos>
    5932:	0e 94 d2 00 	call	0x1a4	; 0x1a4 <MFServoAction>
    5936:	1f 91       	pop	r17
    5938:	0f 91       	pop	r16
    593a:	ff 90       	pop	r15
    593c:	ef 90       	pop	r14
    593e:	08 95       	ret

00005940 <shou_yubei>:
    5940:	ef 92       	push	r14
    5942:	ff 92       	push	r15
    5944:	0f 93       	push	r16
    5946:	1f 93       	push	r17
    5948:	61 e0       	ldi	r22, 0x01	; 1
    594a:	70 e0       	ldi	r23, 0x00	; 0
    594c:	80 e0       	ldi	r24, 0x00	; 0
    594e:	90 e0       	ldi	r25, 0x00	; 0
    5950:	2a ef       	ldi	r18, 0xFA	; 250
    5952:	32 e0       	ldi	r19, 0x02	; 2
    5954:	40 e0       	ldi	r20, 0x00	; 0
    5956:	50 e0       	ldi	r21, 0x00	; 0
    5958:	e1 2c       	mov	r14, r1
    595a:	b2 e0       	ldi	r27, 0x02	; 2
    595c:	fb 2e       	mov	r15, r27
    595e:	01 2d       	mov	r16, r1
    5960:	11 2d       	mov	r17, r1
    5962:	0e 94 05 01 	call	0x20a	; 0x20a <MFSetServoPos>
    5966:	62 e0       	ldi	r22, 0x02	; 2
    5968:	70 e0       	ldi	r23, 0x00	; 0
    596a:	80 e0       	ldi	r24, 0x00	; 0
    596c:	90 e0       	ldi	r25, 0x00	; 0
    596e:	20 e6       	ldi	r18, 0x60	; 96
    5970:	30 e0       	ldi	r19, 0x00	; 0
    5972:	40 e0       	ldi	r20, 0x00	; 0
    5974:	50 e0       	ldi	r21, 0x00	; 0
    5976:	0e 94 05 01 	call	0x20a	; 0x20a <MFSetServoPos>
    597a:	67 e0       	ldi	r22, 0x07	; 7
    597c:	70 e0       	ldi	r23, 0x00	; 0
    597e:	80 e0       	ldi	r24, 0x00	; 0
    5980:	90 e0       	ldi	r25, 0x00	; 0
    5982:	2b e4       	ldi	r18, 0x4B	; 75
    5984:	30 e0       	ldi	r19, 0x00	; 0
    5986:	40 e0       	ldi	r20, 0x00	; 0
    5988:	50 e0       	ldi	r21, 0x00	; 0
    598a:	0e 94 05 01 	call	0x20a	; 0x20a <MFSetServoPos>
    598e:	68 e0       	ldi	r22, 0x08	; 8
    5990:	70 e0       	ldi	r23, 0x00	; 0
    5992:	80 e0       	ldi	r24, 0x00	; 0
    5994:	90 e0       	ldi	r25, 0x00	; 0
    5996:	27 e3       	ldi	r18, 0x37	; 55
    5998:	31 e0       	ldi	r19, 0x01	; 1
    599a:	40 e0       	ldi	r20, 0x00	; 0
    599c:	50 e0       	ldi	r21, 0x00	; 0
    599e:	0e 94 05 01 	call	0x20a	; 0x20a <MFSetServoPos>
    59a2:	0e 94 d2 00 	call	0x1a4	; 0x1a4 <MFServoAction>
    59a6:	6c e2       	ldi	r22, 0x2C	; 44
    59a8:	71 e0       	ldi	r23, 0x01	; 1
    59aa:	80 e0       	ldi	r24, 0x00	; 0
    59ac:	90 e0       	ldi	r25, 0x00	; 0
    59ae:	0e 94 67 00 	call	0xce	; 0xce <DelayMS>
    59b2:	66 e0       	ldi	r22, 0x06	; 6
    59b4:	70 e0       	ldi	r23, 0x00	; 0
    59b6:	80 e0       	ldi	r24, 0x00	; 0
    59b8:	90 e0       	ldi	r25, 0x00	; 0
    59ba:	20 e0       	ldi	r18, 0x00	; 0
    59bc:	32 e0       	ldi	r19, 0x02	; 2
    59be:	40 e0       	ldi	r20, 0x00	; 0
    59c0:	50 e0       	ldi	r21, 0x00	; 0
    59c2:	0e 94 05 01 	call	0x20a	; 0x20a <MFSetServoPos>
    59c6:	63 e0       	ldi	r22, 0x03	; 3
    59c8:	70 e0       	ldi	r23, 0x00	; 0
    59ca:	80 e0       	ldi	r24, 0x00	; 0
    59cc:	90 e0       	ldi	r25, 0x00	; 0
    59ce:	20 e0       	ldi	r18, 0x00	; 0
    59d0:	32 e0       	ldi	r19, 0x02	; 2
    59d2:	40 e0       	ldi	r20, 0x00	; 0
    59d4:	50 e0       	ldi	r21, 0x00	; 0
    59d6:	0e 94 05 01 	call	0x20a	; 0x20a <MFSetServoPos>
    59da:	0e 94 d2 00 	call	0x1a4	; 0x1a4 <MFServoAction>
    59de:	1f 91       	pop	r17
    59e0:	0f 91       	pop	r16
    59e2:	ff 90       	pop	r15
    59e4:	ef 90       	pop	r14
    59e6:	08 95       	ret

000059e8 <move>:
    59e8:	ef 92       	push	r14
    59ea:	ff 92       	push	r15
    59ec:	0f 93       	push	r16
    59ee:	1f 93       	push	r17
    59f0:	7b 01       	movw	r14, r22
    59f2:	9c 01       	movw	r18, r24
    59f4:	44 27       	eor	r20, r20
    59f6:	37 fd       	sbrc	r19, 7
    59f8:	40 95       	com	r20
    59fa:	54 2f       	mov	r21, r20
    59fc:	69 e0       	ldi	r22, 0x09	; 9
    59fe:	70 e0       	ldi	r23, 0x00	; 0
    5a00:	80 e0       	ldi	r24, 0x00	; 0
    5a02:	90 e0       	ldi	r25, 0x00	; 0
    5a04:	0e 94 da 00 	call	0x1b4	; 0x1b4 <MFSetServoRotaSpd>
    5a08:	f0 94       	com	r15
    5a0a:	e1 94       	neg	r14
    5a0c:	f1 08       	sbc	r15, r1
    5a0e:	f3 94       	inc	r15
    5a10:	00 27       	eor	r16, r16
    5a12:	f7 fc       	sbrc	r15, 7
    5a14:	00 95       	com	r16
    5a16:	10 2f       	mov	r17, r16
    5a18:	6a e0       	ldi	r22, 0x0A	; 10
    5a1a:	70 e0       	ldi	r23, 0x00	; 0
    5a1c:	80 e0       	ldi	r24, 0x00	; 0
    5a1e:	90 e0       	ldi	r25, 0x00	; 0
    5a20:	a8 01       	movw	r20, r16
    5a22:	97 01       	movw	r18, r14
    5a24:	0e 94 da 00 	call	0x1b4	; 0x1b4 <MFSetServoRotaSpd>
    5a28:	0e 94 d2 00 	call	0x1a4	; 0x1a4 <MFServoAction>
    5a2c:	1f 91       	pop	r17
    5a2e:	0f 91       	pop	r16
    5a30:	ff 90       	pop	r15
    5a32:	ef 90       	pop	r14
    5a34:	08 95       	ret

00005a36 <standup_fwd>:
    5a36:	ef 92       	push	r14
    5a38:	ff 92       	push	r15
    5a3a:	0f 93       	push	r16
    5a3c:	1f 93       	push	r17
    5a3e:	64 e0       	ldi	r22, 0x04	; 4
    5a40:	70 e0       	ldi	r23, 0x00	; 0
    5a42:	80 e0       	ldi	r24, 0x00	; 0
    5a44:	90 e0       	ldi	r25, 0x00	; 0
    5a46:	2a e1       	ldi	r18, 0x1A	; 26
    5a48:	32 e0       	ldi	r19, 0x02	; 2
    5a4a:	40 e0       	ldi	r20, 0x00	; 0
    5a4c:	50 e0       	ldi	r21, 0x00	; 0
    5a4e:	e1 2c       	mov	r14, r1
    5a50:	b2 e0       	ldi	r27, 0x02	; 2
    5a52:	fb 2e       	mov	r15, r27
    5a54:	01 2d       	mov	r16, r1
    5a56:	11 2d       	mov	r17, r1
    5a58:	0e 94 05 01 	call	0x20a	; 0x20a <MFSetServoPos>
    5a5c:	65 e0       	ldi	r22, 0x05	; 5
    5a5e:	70 e0       	ldi	r23, 0x00	; 0
    5a60:	80 e0       	ldi	r24, 0x00	; 0
    5a62:	90 e0       	ldi	r25, 0x00	; 0
    5a64:	25 e1       	ldi	r18, 0x15	; 21
    5a66:	32 e0       	ldi	r19, 0x02	; 2
    5a68:	40 e0       	ldi	r20, 0x00	; 0
    5a6a:	50 e0       	ldi	r21, 0x00	; 0
    5a6c:	0e 94 05 01 	call	0x20a	; 0x20a <MFSetServoPos>
    5a70:	61 e0       	ldi	r22, 0x01	; 1
    5a72:	70 e0       	ldi	r23, 0x00	; 0
    5a74:	80 e0       	ldi	r24, 0x00	; 0
    5a76:	90 e0       	ldi	r25, 0x00	; 0
    5a78:	29 e3       	ldi	r18, 0x39	; 57
    5a7a:	33 e0       	ldi	r19, 0x03	; 3
    5a7c:	40 e0       	ldi	r20, 0x00	; 0
    5a7e:	50 e0       	ldi	r21, 0x00	; 0
    5a80:	a8 e5       	ldi	r26, 0x58	; 88
    5a82:	ea 2e       	mov	r14, r26
    5a84:	a2 e0       	ldi	r26, 0x02	; 2
    5a86:	fa 2e       	mov	r15, r26
    5a88:	01 2d       	mov	r16, r1
    5a8a:	11 2d       	mov	r17, r1
    5a8c:	0e 94 05 01 	call	0x20a	; 0x20a <MFSetServoPos>
    5a90:	62 e0       	ldi	r22, 0x02	; 2
    5a92:	70 e0       	ldi	r23, 0x00	; 0
    5a94:	80 e0       	ldi	r24, 0x00	; 0
    5a96:	90 e0       	ldi	r25, 0x00	; 0
    5a98:	29 ee       	ldi	r18, 0xE9	; 233
    5a9a:	30 e0       	ldi	r19, 0x00	; 0
    5a9c:	40 e0       	ldi	r20, 0x00	; 0
    5a9e:	50 e0       	ldi	r21, 0x00	; 0
    5aa0:	0e 94 05 01 	call	0x20a	; 0x20a <MFSetServoPos>
    5aa4:	63 e0       	ldi	r22, 0x03	; 3
    5aa6:	70 e0       	ldi	r23, 0x00	; 0
    5aa8:	80 e0       	ldi	r24, 0x00	; 0
    5aaa:	90 e0       	ldi	r25, 0x00	; 0
    5aac:	25 e0       	ldi	r18, 0x05	; 5
    5aae:	32 e0       	ldi	r19, 0x02	; 2
    5ab0:	40 e0       	ldi	r20, 0x00	; 0
    5ab2:	50 e0       	ldi	r21, 0x00	; 0
    5ab4:	0e 94 05 01 	call	0x20a	; 0x20a <MFSetServoPos>
    5ab8:	66 e0       	ldi	r22, 0x06	; 6
    5aba:	70 e0       	ldi	r23, 0x00	; 0
    5abc:	80 e0       	ldi	r24, 0x00	; 0
    5abe:	90 e0       	ldi	r25, 0x00	; 0
    5ac0:	29 e9       	ldi	r18, 0x99	; 153
    5ac2:	31 e0       	ldi	r19, 0x01	; 1
    5ac4:	40 e0       	ldi	r20, 0x00	; 0
    5ac6:	50 e0       	ldi	r21, 0x00	; 0
    5ac8:	0e 94 05 01 	call	0x20a	; 0x20a <MFSetServoPos>
    5acc:	67 e0       	ldi	r22, 0x07	; 7
    5ace:	70 e0       	ldi	r23, 0x00	; 0
    5ad0:	80 e0       	ldi	r24, 0x00	; 0
    5ad2:	90 e0       	ldi	r25, 0x00	; 0
    5ad4:	26 ec       	ldi	r18, 0xC6	; 198
    5ad6:	30 e0       	ldi	r19, 0x00	; 0
    5ad8:	40 e0       	ldi	r20, 0x00	; 0
    5ada:	50 e0       	ldi	r21, 0x00	; 0
    5adc:	0e 94 05 01 	call	0x20a	; 0x20a <MFSetServoPos>
    5ae0:	68 e0       	ldi	r22, 0x08	; 8
    5ae2:	70 e0       	ldi	r23, 0x00	; 0
    5ae4:	80 e0       	ldi	r24, 0x00	; 0
    5ae6:	90 e0       	ldi	r25, 0x00	; 0
    5ae8:	23 ef       	ldi	r18, 0xF3	; 243
    5aea:	30 e0       	ldi	r19, 0x00	; 0
    5aec:	40 e0       	ldi	r20, 0x00	; 0
    5aee:	50 e0       	ldi	r21, 0x00	; 0
    5af0:	0e 94 05 01 	call	0x20a	; 0x20a <MFSetServoPos>
    5af4:	0e 94 d2 00 	call	0x1a4	; 0x1a4 <MFServoAction>
    5af8:	64 ef       	ldi	r22, 0xF4	; 244
    5afa:	71 e0       	ldi	r23, 0x01	; 1
    5afc:	80 e0       	ldi	r24, 0x00	; 0
    5afe:	90 e0       	ldi	r25, 0x00	; 0
    5b00:	0e 94 67 00 	call	0xce	; 0xce <DelayMS>
    5b04:	63 e0       	ldi	r22, 0x03	; 3
    5b06:	70 e0       	ldi	r23, 0x00	; 0
    5b08:	80 e0       	ldi	r24, 0x00	; 0
    5b0a:	90 e0       	ldi	r25, 0x00	; 0
    5b0c:	2b ee       	ldi	r18, 0xEB	; 235
    5b0e:	30 e0       	ldi	r19, 0x00	; 0
    5b10:	40 e0       	ldi	r20, 0x00	; 0
    5b12:	50 e0       	ldi	r21, 0x00	; 0
    5b14:	f0 e2       	ldi	r31, 0x20	; 32
    5b16:	ef 2e       	mov	r14, r31
    5b18:	f3 e0       	ldi	r31, 0x03	; 3
    5b1a:	ff 2e       	mov	r15, r31
    5b1c:	01 2d       	mov	r16, r1
    5b1e:	11 2d       	mov	r17, r1
    5b20:	0e 94 05 01 	call	0x20a	; 0x20a <MFSetServoPos>
    5b24:	66 e0       	ldi	r22, 0x06	; 6
    5b26:	70 e0       	ldi	r23, 0x00	; 0
    5b28:	80 e0       	ldi	r24, 0x00	; 0
    5b2a:	90 e0       	ldi	r25, 0x00	; 0
    5b2c:	2e e3       	ldi	r18, 0x3E	; 62
    5b2e:	33 e0       	ldi	r19, 0x03	; 3
    5b30:	40 e0       	ldi	r20, 0x00	; 0
    5b32:	50 e0       	ldi	r21, 0x00	; 0
    5b34:	0e 94 05 01 	call	0x20a	; 0x20a <MFSetServoPos>
    5b38:	0e 94 d2 00 	call	0x1a4	; 0x1a4 <MFServoAction>
    5b3c:	60 e9       	ldi	r22, 0x90	; 144
    5b3e:	71 e0       	ldi	r23, 0x01	; 1
    5b40:	80 e0       	ldi	r24, 0x00	; 0
    5b42:	90 e0       	ldi	r25, 0x00	; 0
    5b44:	0e 94 67 00 	call	0xce	; 0xce <DelayMS>
    5b48:	61 e0       	ldi	r22, 0x01	; 1
    5b4a:	70 e0       	ldi	r23, 0x00	; 0
    5b4c:	80 e0       	ldi	r24, 0x00	; 0
    5b4e:	90 e0       	ldi	r25, 0x00	; 0
    5b50:	28 e1       	ldi	r18, 0x18	; 24
    5b52:	32 e0       	ldi	r19, 0x02	; 2
    5b54:	40 e0       	ldi	r20, 0x00	; 0
    5b56:	50 e0       	ldi	r21, 0x00	; 0
    5b58:	0e 94 05 01 	call	0x20a	; 0x20a <MFSetServoPos>
    5b5c:	62 e0       	ldi	r22, 0x02	; 2
    5b5e:	70 e0       	ldi	r23, 0x00	; 0
    5b60:	80 e0       	ldi	r24, 0x00	; 0
    5b62:	90 e0       	ldi	r25, 0x00	; 0
    5b64:	2b e1       	ldi	r18, 0x1B	; 27
    5b66:	32 e0       	ldi	r19, 0x02	; 2
    5b68:	40 e0       	ldi	r20, 0x00	; 0
    5b6a:	50 e0       	ldi	r21, 0x00	; 0
    5b6c:	0e 94 05 01 	call	0x20a	; 0x20a <MFSetServoPos>
    5b70:	67 e0       	ldi	r22, 0x07	; 7
    5b72:	70 e0       	ldi	r23, 0x00	; 0
    5b74:	80 e0       	ldi	r24, 0x00	; 0
    5b76:	90 e0       	ldi	r25, 0x00	; 0
    5b78:	22 e4       	ldi	r18, 0x42	; 66
    5b7a:	32 e0       	ldi	r19, 0x02	; 2
    5b7c:	40 e0       	ldi	r20, 0x00	; 0
    5b7e:	50 e0       	ldi	r21, 0x00	; 0
    5b80:	0e 94 05 01 	call	0x20a	; 0x20a <MFSetServoPos>
    5b84:	68 e0       	ldi	r22, 0x08	; 8
    5b86:	70 e0       	ldi	r23, 0x00	; 0
    5b88:	80 e0       	ldi	r24, 0x00	; 0
    5b8a:	90 e0       	ldi	r25, 0x00	; 0
    5b8c:	23 ef       	ldi	r18, 0xF3	; 243
    5b8e:	31 e0       	ldi	r19, 0x01	; 1
    5b90:	40 e0       	ldi	r20, 0x00	; 0
    5b92:	50 e0       	ldi	r21, 0x00	; 0
    5b94:	0e 94 05 01 	call	0x20a	; 0x20a <MFSetServoPos>
    5b98:	0e 94 d2 00 	call	0x1a4	; 0x1a4 <MFServoAction>
    5b9c:	80 e0       	ldi	r24, 0x00	; 0
    5b9e:	90 e0       	ldi	r25, 0x00	; 0
    5ba0:	60 e0       	ldi	r22, 0x00	; 0
    5ba2:	70 e0       	ldi	r23, 0x00	; 0
    5ba4:	0e 94 f4 2c 	call	0x59e8	; 0x59e8 <move>
    5ba8:	64 ef       	ldi	r22, 0xF4	; 244
    5baa:	71 e0       	ldi	r23, 0x01	; 1
    5bac:	80 e0       	ldi	r24, 0x00	; 0
    5bae:	90 e0       	ldi	r25, 0x00	; 0
    5bb0:	0e 94 67 00 	call	0xce	; 0xce <DelayMS>
    5bb4:	64 e0       	ldi	r22, 0x04	; 4
    5bb6:	70 e0       	ldi	r23, 0x00	; 0
    5bb8:	80 e0       	ldi	r24, 0x00	; 0
    5bba:	90 e0       	ldi	r25, 0x00	; 0
    5bbc:	2f e3       	ldi	r18, 0x3F	; 63
    5bbe:	31 e0       	ldi	r19, 0x01	; 1
    5bc0:	40 e0       	ldi	r20, 0x00	; 0
    5bc2:	50 e0       	ldi	r21, 0x00	; 0
    5bc4:	ec eb       	ldi	r30, 0xBC	; 188
    5bc6:	ee 2e       	mov	r14, r30
    5bc8:	e2 e0       	ldi	r30, 0x02	; 2
    5bca:	fe 2e       	mov	r15, r30
    5bcc:	01 2d       	mov	r16, r1
    5bce:	11 2d       	mov	r17, r1
    5bd0:	0e 94 05 01 	call	0x20a	; 0x20a <MFSetServoPos>
    5bd4:	65 e0       	ldi	r22, 0x05	; 5
    5bd6:	70 e0       	ldi	r23, 0x00	; 0
    5bd8:	80 e0       	ldi	r24, 0x00	; 0
    5bda:	90 e0       	ldi	r25, 0x00	; 0
    5bdc:	2c ee       	ldi	r18, 0xEC	; 236
    5bde:	32 e0       	ldi	r19, 0x02	; 2
    5be0:	40 e0       	ldi	r20, 0x00	; 0
    5be2:	50 e0       	ldi	r21, 0x00	; 0
    5be4:	0e 94 05 01 	call	0x20a	; 0x20a <MFSetServoPos>
    5be8:	0e 94 d2 00 	call	0x1a4	; 0x1a4 <MFServoAction>
    5bec:	60 e2       	ldi	r22, 0x20	; 32
    5bee:	73 e0       	ldi	r23, 0x03	; 3
    5bf0:	80 e0       	ldi	r24, 0x00	; 0
    5bf2:	90 e0       	ldi	r25, 0x00	; 0
    5bf4:	0e 94 67 00 	call	0xce	; 0xce <DelayMS>
    5bf8:	0e 94 7c 2c 	call	0x58f8	; 0x58f8 <zhili>
    5bfc:	0e 94 a0 2c 	call	0x5940	; 0x5940 <shou_yubei>
    5c00:	68 ee       	ldi	r22, 0xE8	; 232
    5c02:	73 e0       	ldi	r23, 0x03	; 3
    5c04:	80 e0       	ldi	r24, 0x00	; 0
    5c06:	90 e0       	ldi	r25, 0x00	; 0
    5c08:	0e 94 67 00 	call	0xce	; 0xce <DelayMS>
    5c0c:	1f 91       	pop	r17
    5c0e:	0f 91       	pop	r16
    5c10:	ff 90       	pop	r15
    5c12:	ef 90       	pop	r14
    5c14:	08 95       	ret

00005c16 <standup>:
    5c16:	ef 92       	push	r14
    5c18:	ff 92       	push	r15
    5c1a:	0f 93       	push	r16
    5c1c:	1f 93       	push	r17
    5c1e:	64 e0       	ldi	r22, 0x04	; 4
    5c20:	70 e0       	ldi	r23, 0x00	; 0
    5c22:	80 e0       	ldi	r24, 0x00	; 0
    5c24:	90 e0       	ldi	r25, 0x00	; 0
    5c26:	20 e0       	ldi	r18, 0x00	; 0
    5c28:	32 e0       	ldi	r19, 0x02	; 2
    5c2a:	40 e0       	ldi	r20, 0x00	; 0
    5c2c:	50 e0       	ldi	r21, 0x00	; 0
    5c2e:	e1 2c       	mov	r14, r1
    5c30:	b2 e0       	ldi	r27, 0x02	; 2
    5c32:	fb 2e       	mov	r15, r27
    5c34:	01 2d       	mov	r16, r1
    5c36:	11 2d       	mov	r17, r1
    5c38:	0e 94 05 01 	call	0x20a	; 0x20a <MFSetServoPos>
    5c3c:	65 e0       	ldi	r22, 0x05	; 5
    5c3e:	70 e0       	ldi	r23, 0x00	; 0
    5c40:	80 e0       	ldi	r24, 0x00	; 0
    5c42:	90 e0       	ldi	r25, 0x00	; 0
    5c44:	20 e0       	ldi	r18, 0x00	; 0
    5c46:	32 e0       	ldi	r19, 0x02	; 2
    5c48:	40 e0       	ldi	r20, 0x00	; 0
    5c4a:	50 e0       	ldi	r21, 0x00	; 0
    5c4c:	0e 94 05 01 	call	0x20a	; 0x20a <MFSetServoPos>
    5c50:	61 e0       	ldi	r22, 0x01	; 1
    5c52:	70 e0       	ldi	r23, 0x00	; 0
    5c54:	80 e0       	ldi	r24, 0x00	; 0
    5c56:	90 e0       	ldi	r25, 0x00	; 0
    5c58:	29 e3       	ldi	r18, 0x39	; 57
    5c5a:	33 e0       	ldi	r19, 0x03	; 3
    5c5c:	40 e0       	ldi	r20, 0x00	; 0
    5c5e:	50 e0       	ldi	r21, 0x00	; 0
    5c60:	a8 e5       	ldi	r26, 0x58	; 88
    5c62:	ea 2e       	mov	r14, r26
    5c64:	a2 e0       	ldi	r26, 0x02	; 2
    5c66:	fa 2e       	mov	r15, r26
    5c68:	01 2d       	mov	r16, r1
    5c6a:	11 2d       	mov	r17, r1
    5c6c:	0e 94 05 01 	call	0x20a	; 0x20a <MFSetServoPos>
    5c70:	62 e0       	ldi	r22, 0x02	; 2
    5c72:	70 e0       	ldi	r23, 0x00	; 0
    5c74:	80 e0       	ldi	r24, 0x00	; 0
    5c76:	90 e0       	ldi	r25, 0x00	; 0
    5c78:	29 ee       	ldi	r18, 0xE9	; 233
    5c7a:	30 e0       	ldi	r19, 0x00	; 0
    5c7c:	40 e0       	ldi	r20, 0x00	; 0
    5c7e:	50 e0       	ldi	r21, 0x00	; 0
    5c80:	0e 94 05 01 	call	0x20a	; 0x20a <MFSetServoPos>
    5c84:	63 e0       	ldi	r22, 0x03	; 3
    5c86:	70 e0       	ldi	r23, 0x00	; 0
    5c88:	80 e0       	ldi	r24, 0x00	; 0
    5c8a:	90 e0       	ldi	r25, 0x00	; 0
    5c8c:	25 e0       	ldi	r18, 0x05	; 5
    5c8e:	32 e0       	ldi	r19, 0x02	; 2
    5c90:	40 e0       	ldi	r20, 0x00	; 0
    5c92:	50 e0       	ldi	r21, 0x00	; 0
    5c94:	0e 94 05 01 	call	0x20a	; 0x20a <MFSetServoPos>
    5c98:	66 e0       	ldi	r22, 0x06	; 6
    5c9a:	70 e0       	ldi	r23, 0x00	; 0
    5c9c:	80 e0       	ldi	r24, 0x00	; 0
    5c9e:	90 e0       	ldi	r25, 0x00	; 0
    5ca0:	29 e9       	ldi	r18, 0x99	; 153
    5ca2:	31 e0       	ldi	r19, 0x01	; 1
    5ca4:	40 e0       	ldi	r20, 0x00	; 0
    5ca6:	50 e0       	ldi	r21, 0x00	; 0
    5ca8:	0e 94 05 01 	call	0x20a	; 0x20a <MFSetServoPos>
    5cac:	67 e0       	ldi	r22, 0x07	; 7
    5cae:	70 e0       	ldi	r23, 0x00	; 0
    5cb0:	80 e0       	ldi	r24, 0x00	; 0
    5cb2:	90 e0       	ldi	r25, 0x00	; 0
    5cb4:	26 ec       	ldi	r18, 0xC6	; 198
    5cb6:	30 e0       	ldi	r19, 0x00	; 0
    5cb8:	40 e0       	ldi	r20, 0x00	; 0
    5cba:	50 e0       	ldi	r21, 0x00	; 0
    5cbc:	0e 94 05 01 	call	0x20a	; 0x20a <MFSetServoPos>
    5cc0:	68 e0       	ldi	r22, 0x08	; 8
    5cc2:	70 e0       	ldi	r23, 0x00	; 0
    5cc4:	80 e0       	ldi	r24, 0x00	; 0
    5cc6:	90 e0       	ldi	r25, 0x00	; 0
    5cc8:	23 ef       	ldi	r18, 0xF3	; 243
    5cca:	30 e0       	ldi	r19, 0x00	; 0
    5ccc:	40 e0       	ldi	r20, 0x00	; 0
    5cce:	50 e0       	ldi	r21, 0x00	; 0
    5cd0:	0e 94 05 01 	call	0x20a	; 0x20a <MFSetServoPos>
    5cd4:	0e 94 d2 00 	call	0x1a4	; 0x1a4 <MFServoAction>
    5cd8:	64 ef       	ldi	r22, 0xF4	; 244
    5cda:	71 e0       	ldi	r23, 0x01	; 1
    5cdc:	80 e0       	ldi	r24, 0x00	; 0
    5cde:	90 e0       	ldi	r25, 0x00	; 0
    5ce0:	0e 94 67 00 	call	0xce	; 0xce <DelayMS>
    5ce4:	63 e0       	ldi	r22, 0x03	; 3
    5ce6:	70 e0       	ldi	r23, 0x00	; 0
    5ce8:	80 e0       	ldi	r24, 0x00	; 0
    5cea:	90 e0       	ldi	r25, 0x00	; 0
    5cec:	2a e6       	ldi	r18, 0x6A	; 106
    5cee:	33 e0       	ldi	r19, 0x03	; 3
    5cf0:	40 e0       	ldi	r20, 0x00	; 0
    5cf2:	50 e0       	ldi	r21, 0x00	; 0
    5cf4:	f0 e2       	ldi	r31, 0x20	; 32
    5cf6:	ef 2e       	mov	r14, r31
    5cf8:	f3 e0       	ldi	r31, 0x03	; 3
    5cfa:	ff 2e       	mov	r15, r31
    5cfc:	01 2d       	mov	r16, r1
    5cfe:	11 2d       	mov	r17, r1
    5d00:	0e 94 05 01 	call	0x20a	; 0x20a <MFSetServoPos>
    5d04:	66 e0       	ldi	r22, 0x06	; 6
    5d06:	70 e0       	ldi	r23, 0x00	; 0
    5d08:	80 e0       	ldi	r24, 0x00	; 0
    5d0a:	90 e0       	ldi	r25, 0x00	; 0
    5d0c:	27 e5       	ldi	r18, 0x57	; 87
    5d0e:	30 e0       	ldi	r19, 0x00	; 0
    5d10:	40 e0       	ldi	r20, 0x00	; 0
    5d12:	50 e0       	ldi	r21, 0x00	; 0
    5d14:	0e 94 05 01 	call	0x20a	; 0x20a <MFSetServoPos>
    5d18:	0e 94 d2 00 	call	0x1a4	; 0x1a4 <MFServoAction>
    5d1c:	60 e9       	ldi	r22, 0x90	; 144
    5d1e:	71 e0       	ldi	r23, 0x01	; 1
    5d20:	80 e0       	ldi	r24, 0x00	; 0
    5d22:	90 e0       	ldi	r25, 0x00	; 0
    5d24:	0e 94 67 00 	call	0xce	; 0xce <DelayMS>
    5d28:	61 e0       	ldi	r22, 0x01	; 1
    5d2a:	70 e0       	ldi	r23, 0x00	; 0
    5d2c:	80 e0       	ldi	r24, 0x00	; 0
    5d2e:	90 e0       	ldi	r25, 0x00	; 0
    5d30:	2b e0       	ldi	r18, 0x0B	; 11
    5d32:	32 e0       	ldi	r19, 0x02	; 2
    5d34:	40 e0       	ldi	r20, 0x00	; 0
    5d36:	50 e0       	ldi	r21, 0x00	; 0
    5d38:	0e 94 05 01 	call	0x20a	; 0x20a <MFSetServoPos>
    5d3c:	62 e0       	ldi	r22, 0x02	; 2
    5d3e:	70 e0       	ldi	r23, 0x00	; 0
    5d40:	80 e0       	ldi	r24, 0x00	; 0
    5d42:	90 e0       	ldi	r25, 0x00	; 0
    5d44:	25 ee       	ldi	r18, 0xE5	; 229
    5d46:	31 e0       	ldi	r19, 0x01	; 1
    5d48:	40 e0       	ldi	r20, 0x00	; 0
    5d4a:	50 e0       	ldi	r21, 0x00	; 0
    5d4c:	0e 94 05 01 	call	0x20a	; 0x20a <MFSetServoPos>
    5d50:	67 e0       	ldi	r22, 0x07	; 7
    5d52:	70 e0       	ldi	r23, 0x00	; 0
    5d54:	80 e0       	ldi	r24, 0x00	; 0
    5d56:	90 e0       	ldi	r25, 0x00	; 0
    5d58:	2f ed       	ldi	r18, 0xDF	; 223
    5d5a:	31 e0       	ldi	r19, 0x01	; 1
    5d5c:	40 e0       	ldi	r20, 0x00	; 0
    5d5e:	50 e0       	ldi	r21, 0x00	; 0
    5d60:	0e 94 05 01 	call	0x20a	; 0x20a <MFSetServoPos>
    5d64:	68 e0       	ldi	r22, 0x08	; 8
    5d66:	70 e0       	ldi	r23, 0x00	; 0
    5d68:	80 e0       	ldi	r24, 0x00	; 0
    5d6a:	90 e0       	ldi	r25, 0x00	; 0
    5d6c:	21 e0       	ldi	r18, 0x01	; 1
    5d6e:	32 e0       	ldi	r19, 0x02	; 2
    5d70:	40 e0       	ldi	r20, 0x00	; 0
    5d72:	50 e0       	ldi	r21, 0x00	; 0
    5d74:	0e 94 05 01 	call	0x20a	; 0x20a <MFSetServoPos>
    5d78:	0e 94 d2 00 	call	0x1a4	; 0x1a4 <MFServoAction>
    5d7c:	80 e0       	ldi	r24, 0x00	; 0
    5d7e:	90 e0       	ldi	r25, 0x00	; 0
    5d80:	60 e0       	ldi	r22, 0x00	; 0
    5d82:	70 e0       	ldi	r23, 0x00	; 0
    5d84:	0e 94 f4 2c 	call	0x59e8	; 0x59e8 <move>
    5d88:	64 ef       	ldi	r22, 0xF4	; 244
    5d8a:	71 e0       	ldi	r23, 0x01	; 1
    5d8c:	80 e0       	ldi	r24, 0x00	; 0
    5d8e:	90 e0       	ldi	r25, 0x00	; 0
    5d90:	0e 94 67 00 	call	0xce	; 0xce <DelayMS>
    5d94:	64 e0       	ldi	r22, 0x04	; 4
    5d96:	70 e0       	ldi	r23, 0x00	; 0
    5d98:	80 e0       	ldi	r24, 0x00	; 0
    5d9a:	90 e0       	ldi	r25, 0x00	; 0
    5d9c:	26 ee       	ldi	r18, 0xE6	; 230
    5d9e:	32 e0       	ldi	r19, 0x02	; 2
    5da0:	40 e0       	ldi	r20, 0x00	; 0
    5da2:	50 e0       	ldi	r21, 0x00	; 0
    5da4:	ec eb       	ldi	r30, 0xBC	; 188
    5da6:	ee 2e       	mov	r14, r30
    5da8:	e2 e0       	ldi	r30, 0x02	; 2
    5daa:	fe 2e       	mov	r15, r30
    5dac:	01 2d       	mov	r16, r1
    5dae:	11 2d       	mov	r17, r1
    5db0:	0e 94 05 01 	call	0x20a	; 0x20a <MFSetServoPos>
    5db4:	65 e0       	ldi	r22, 0x05	; 5
    5db6:	70 e0       	ldi	r23, 0x00	; 0
    5db8:	80 e0       	ldi	r24, 0x00	; 0
    5dba:	90 e0       	ldi	r25, 0x00	; 0
    5dbc:	20 e4       	ldi	r18, 0x40	; 64
    5dbe:	31 e0       	ldi	r19, 0x01	; 1
    5dc0:	40 e0       	ldi	r20, 0x00	; 0
    5dc2:	50 e0       	ldi	r21, 0x00	; 0
    5dc4:	0e 94 05 01 	call	0x20a	; 0x20a <MFSetServoPos>
    5dc8:	0e 94 d2 00 	call	0x1a4	; 0x1a4 <MFServoAction>
    5dcc:	60 e2       	ldi	r22, 0x20	; 32
    5dce:	73 e0       	ldi	r23, 0x03	; 3
    5dd0:	80 e0       	ldi	r24, 0x00	; 0
    5dd2:	90 e0       	ldi	r25, 0x00	; 0
    5dd4:	0e 94 67 00 	call	0xce	; 0xce <DelayMS>
    5dd8:	0e 94 7c 2c 	call	0x58f8	; 0x58f8 <zhili>
    5ddc:	0e 94 a0 2c 	call	0x5940	; 0x5940 <shou_yubei>
    5de0:	68 ee       	ldi	r22, 0xE8	; 232
    5de2:	73 e0       	ldi	r23, 0x03	; 3
    5de4:	80 e0       	ldi	r24, 0x00	; 0
    5de6:	90 e0       	ldi	r25, 0x00	; 0
    5de8:	0e 94 67 00 	call	0xce	; 0xce <DelayMS>
    5dec:	1f 91       	pop	r17
    5dee:	0f 91       	pop	r16
    5df0:	ff 90       	pop	r15
    5df2:	ef 90       	pop	r14
    5df4:	08 95       	ret

00005df6 <huanchong>:
    5df6:	ef 92       	push	r14
    5df8:	ff 92       	push	r15
    5dfa:	0f 93       	push	r16
    5dfc:	1f 93       	push	r17
    5dfe:	cf 93       	push	r28
    5e00:	df 93       	push	r29
    5e02:	ec 01       	movw	r28, r24
    5e04:	7b 01       	movw	r14, r22
    5e06:	00 e0       	ldi	r16, 0x00	; 0
    5e08:	10 e0       	ldi	r17, 0x00	; 0
    5e0a:	12 c0       	rjmp	.+36     	; 0x5e30 <huanchong+0x3a>
    5e0c:	ce 01       	movw	r24, r28
    5e0e:	b7 01       	movw	r22, r14
    5e10:	0e 94 94 42 	call	0x8528	; 0x8528 <__divmodhi4>
    5e14:	c6 1b       	sub	r28, r22
    5e16:	d7 0b       	sbc	r29, r23
    5e18:	ce 01       	movw	r24, r28
    5e1a:	be 01       	movw	r22, r28
    5e1c:	0e 94 f4 2c 	call	0x59e8	; 0x59e8 <move>
    5e20:	6a e0       	ldi	r22, 0x0A	; 10
    5e22:	70 e0       	ldi	r23, 0x00	; 0
    5e24:	80 e0       	ldi	r24, 0x00	; 0
    5e26:	90 e0       	ldi	r25, 0x00	; 0
    5e28:	0e 94 67 00 	call	0xce	; 0xce <DelayMS>
    5e2c:	0f 5f       	subi	r16, 0xFF	; 255
    5e2e:	1f 4f       	sbci	r17, 0xFF	; 255
    5e30:	0e 15       	cp	r16, r14
    5e32:	1f 05       	cpc	r17, r15
    5e34:	5c f3       	brlt	.-42     	; 0x5e0c <huanchong+0x16>
    5e36:	80 e0       	ldi	r24, 0x00	; 0
    5e38:	90 e0       	ldi	r25, 0x00	; 0
    5e3a:	60 e0       	ldi	r22, 0x00	; 0
    5e3c:	70 e0       	ldi	r23, 0x00	; 0
    5e3e:	0e 94 f4 2c 	call	0x59e8	; 0x59e8 <move>
    5e42:	df 91       	pop	r29
    5e44:	cf 91       	pop	r28
    5e46:	1f 91       	pop	r17
    5e48:	0f 91       	pop	r16
    5e4a:	ff 90       	pop	r15
    5e4c:	ef 90       	pop	r14
    5e4e:	08 95       	ret

00005e50 <gongji>:
    5e50:	ef 92       	push	r14
    5e52:	ff 92       	push	r15
    5e54:	0f 93       	push	r16
    5e56:	1f 93       	push	r17
    5e58:	60 e0       	ldi	r22, 0x00	; 0
    5e5a:	70 e0       	ldi	r23, 0x00	; 0
    5e5c:	80 e0       	ldi	r24, 0x00	; 0
    5e5e:	90 e0       	ldi	r25, 0x00	; 0
    5e60:	0e 94 96 00 	call	0x12c	; 0x12c <MFGetAD>
    5e64:	20 91 a0 08 	lds	r18, 0x08A0
    5e68:	30 91 a1 08 	lds	r19, 0x08A1
    5e6c:	44 27       	eor	r20, r20
    5e6e:	37 fd       	sbrc	r19, 7
    5e70:	40 95       	com	r20
    5e72:	54 2f       	mov	r21, r20
    5e74:	26 17       	cp	r18, r22
    5e76:	37 07       	cpc	r19, r23
    5e78:	48 07       	cpc	r20, r24
    5e7a:	59 07       	cpc	r21, r25
    5e7c:	0c f0       	brlt	.+2      	; 0x5e80 <gongji+0x30>
    5e7e:	be c0       	rjmp	.+380    	; 0x5ffc <gongji+0x1ac>
    5e80:	8c e2       	ldi	r24, 0x2C	; 44
    5e82:	91 e0       	ldi	r25, 0x01	; 1
    5e84:	6c e2       	ldi	r22, 0x2C	; 44
    5e86:	71 e0       	ldi	r23, 0x01	; 1
    5e88:	0e 94 f4 2c 	call	0x59e8	; 0x59e8 <move>
    5e8c:	61 e0       	ldi	r22, 0x01	; 1
    5e8e:	70 e0       	ldi	r23, 0x00	; 0
    5e90:	80 e0       	ldi	r24, 0x00	; 0
    5e92:	90 e0       	ldi	r25, 0x00	; 0
    5e94:	29 e5       	ldi	r18, 0x59	; 89
    5e96:	32 e0       	ldi	r19, 0x02	; 2
    5e98:	40 e0       	ldi	r20, 0x00	; 0
    5e9a:	50 e0       	ldi	r21, 0x00	; 0
    5e9c:	e1 2c       	mov	r14, r1
    5e9e:	e2 e0       	ldi	r30, 0x02	; 2
    5ea0:	fe 2e       	mov	r15, r30
    5ea2:	01 2d       	mov	r16, r1
    5ea4:	11 2d       	mov	r17, r1
    5ea6:	0e 94 05 01 	call	0x20a	; 0x20a <MFSetServoPos>
    5eaa:	68 e0       	ldi	r22, 0x08	; 8
    5eac:	70 e0       	ldi	r23, 0x00	; 0
    5eae:	80 e0       	ldi	r24, 0x00	; 0
    5eb0:	90 e0       	ldi	r25, 0x00	; 0
    5eb2:	23 ef       	ldi	r18, 0xF3	; 243
    5eb4:	31 e0       	ldi	r19, 0x01	; 1
    5eb6:	40 e0       	ldi	r20, 0x00	; 0
    5eb8:	50 e0       	ldi	r21, 0x00	; 0
    5eba:	0e 94 05 01 	call	0x20a	; 0x20a <MFSetServoPos>
    5ebe:	0e 94 d2 00 	call	0x1a4	; 0x1a4 <MFServoAction>
    5ec2:	62 e3       	ldi	r22, 0x32	; 50
    5ec4:	70 e0       	ldi	r23, 0x00	; 0
    5ec6:	80 e0       	ldi	r24, 0x00	; 0
    5ec8:	90 e0       	ldi	r25, 0x00	; 0
    5eca:	0e 94 67 00 	call	0xce	; 0xce <DelayMS>
    5ece:	63 e0       	ldi	r22, 0x03	; 3
    5ed0:	70 e0       	ldi	r23, 0x00	; 0
    5ed2:	80 e0       	ldi	r24, 0x00	; 0
    5ed4:	90 e0       	ldi	r25, 0x00	; 0
    5ed6:	29 e9       	ldi	r18, 0x99	; 153
    5ed8:	30 e0       	ldi	r19, 0x00	; 0
    5eda:	40 e0       	ldi	r20, 0x00	; 0
    5edc:	50 e0       	ldi	r21, 0x00	; 0
    5ede:	0e 94 05 01 	call	0x20a	; 0x20a <MFSetServoPos>
    5ee2:	66 e0       	ldi	r22, 0x06	; 6
    5ee4:	70 e0       	ldi	r23, 0x00	; 0
    5ee6:	80 e0       	ldi	r24, 0x00	; 0
    5ee8:	90 e0       	ldi	r25, 0x00	; 0
    5eea:	26 e7       	ldi	r18, 0x76	; 118
    5eec:	33 e0       	ldi	r19, 0x03	; 3
    5eee:	40 e0       	ldi	r20, 0x00	; 0
    5ef0:	50 e0       	ldi	r21, 0x00	; 0
    5ef2:	0e 94 05 01 	call	0x20a	; 0x20a <MFSetServoPos>
    5ef6:	67 e0       	ldi	r22, 0x07	; 7
    5ef8:	70 e0       	ldi	r23, 0x00	; 0
    5efa:	80 e0       	ldi	r24, 0x00	; 0
    5efc:	90 e0       	ldi	r25, 0x00	; 0
    5efe:	2f e9       	ldi	r18, 0x9F	; 159
    5f00:	32 e0       	ldi	r19, 0x02	; 2
    5f02:	40 e0       	ldi	r20, 0x00	; 0
    5f04:	50 e0       	ldi	r21, 0x00	; 0
    5f06:	bf ef       	ldi	r27, 0xFF	; 255
    5f08:	eb 2e       	mov	r14, r27
    5f0a:	b3 e0       	ldi	r27, 0x03	; 3
    5f0c:	fb 2e       	mov	r15, r27
    5f0e:	01 2d       	mov	r16, r1
    5f10:	11 2d       	mov	r17, r1
    5f12:	0e 94 05 01 	call	0x20a	; 0x20a <MFSetServoPos>
    5f16:	62 e0       	ldi	r22, 0x02	; 2
    5f18:	70 e0       	ldi	r23, 0x00	; 0
    5f1a:	80 e0       	ldi	r24, 0x00	; 0
    5f1c:	90 e0       	ldi	r25, 0x00	; 0
    5f1e:	28 e9       	ldi	r18, 0x98	; 152
    5f20:	32 e0       	ldi	r19, 0x02	; 2
    5f22:	40 e0       	ldi	r20, 0x00	; 0
    5f24:	50 e0       	ldi	r21, 0x00	; 0
    5f26:	0e 94 05 01 	call	0x20a	; 0x20a <MFSetServoPos>
    5f2a:	0e 94 34 2c 	call	0x5868	; 0x5868 <qianqin>
    5f2e:	0e 94 d2 00 	call	0x1a4	; 0x1a4 <MFServoAction>
    5f32:	6c e2       	ldi	r22, 0x2C	; 44
    5f34:	71 e0       	ldi	r23, 0x01	; 1
    5f36:	80 e0       	ldi	r24, 0x00	; 0
    5f38:	90 e0       	ldi	r25, 0x00	; 0
    5f3a:	0e 94 67 00 	call	0xce	; 0xce <DelayMS>
    5f3e:	0e 94 58 2c 	call	0x58b0	; 0x58b0 <houyang>
    5f42:	63 e0       	ldi	r22, 0x03	; 3
    5f44:	70 e0       	ldi	r23, 0x00	; 0
    5f46:	80 e0       	ldi	r24, 0x00	; 0
    5f48:	90 e0       	ldi	r25, 0x00	; 0
    5f4a:	27 ec       	ldi	r18, 0xC7	; 199
    5f4c:	30 e0       	ldi	r19, 0x00	; 0
    5f4e:	40 e0       	ldi	r20, 0x00	; 0
    5f50:	50 e0       	ldi	r21, 0x00	; 0
    5f52:	e1 2c       	mov	r14, r1
    5f54:	a2 e0       	ldi	r26, 0x02	; 2
    5f56:	fa 2e       	mov	r15, r26
    5f58:	01 2d       	mov	r16, r1
    5f5a:	11 2d       	mov	r17, r1
    5f5c:	0e 94 05 01 	call	0x20a	; 0x20a <MFSetServoPos>
    5f60:	66 e0       	ldi	r22, 0x06	; 6
    5f62:	70 e0       	ldi	r23, 0x00	; 0
    5f64:	80 e0       	ldi	r24, 0x00	; 0
    5f66:	90 e0       	ldi	r25, 0x00	; 0
    5f68:	2e e4       	ldi	r18, 0x4E	; 78
    5f6a:	33 e0       	ldi	r19, 0x03	; 3
    5f6c:	40 e0       	ldi	r20, 0x00	; 0
    5f6e:	50 e0       	ldi	r21, 0x00	; 0
    5f70:	0e 94 05 01 	call	0x20a	; 0x20a <MFSetServoPos>
    5f74:	61 e0       	ldi	r22, 0x01	; 1
    5f76:	70 e0       	ldi	r23, 0x00	; 0
    5f78:	80 e0       	ldi	r24, 0x00	; 0
    5f7a:	90 e0       	ldi	r25, 0x00	; 0
    5f7c:	2c e0       	ldi	r18, 0x0C	; 12
    5f7e:	33 e0       	ldi	r19, 0x03	; 3
    5f80:	40 e0       	ldi	r20, 0x00	; 0
    5f82:	50 e0       	ldi	r21, 0x00	; 0
    5f84:	f0 e2       	ldi	r31, 0x20	; 32
    5f86:	ef 2e       	mov	r14, r31
    5f88:	f3 e0       	ldi	r31, 0x03	; 3
    5f8a:	ff 2e       	mov	r15, r31
    5f8c:	01 2d       	mov	r16, r1
    5f8e:	11 2d       	mov	r17, r1
    5f90:	0e 94 05 01 	call	0x20a	; 0x20a <MFSetServoPos>
    5f94:	68 e0       	ldi	r22, 0x08	; 8
    5f96:	70 e0       	ldi	r23, 0x00	; 0
    5f98:	80 e0       	ldi	r24, 0x00	; 0
    5f9a:	90 e0       	ldi	r25, 0x00	; 0
    5f9c:	28 e2       	ldi	r18, 0x28	; 40
    5f9e:	31 e0       	ldi	r19, 0x01	; 1
    5fa0:	40 e0       	ldi	r20, 0x00	; 0
    5fa2:	50 e0       	ldi	r21, 0x00	; 0
    5fa4:	0e 94 05 01 	call	0x20a	; 0x20a <MFSetServoPos>
    5fa8:	0e 94 d2 00 	call	0x1a4	; 0x1a4 <MFServoAction>
    5fac:	62 e3       	ldi	r22, 0x32	; 50
    5fae:	70 e0       	ldi	r23, 0x00	; 0
    5fb0:	80 e0       	ldi	r24, 0x00	; 0
    5fb2:	90 e0       	ldi	r25, 0x00	; 0
    5fb4:	0e 94 67 00 	call	0xce	; 0xce <DelayMS>
    5fb8:	62 e0       	ldi	r22, 0x02	; 2
    5fba:	70 e0       	ldi	r23, 0x00	; 0
    5fbc:	80 e0       	ldi	r24, 0x00	; 0
    5fbe:	90 e0       	ldi	r25, 0x00	; 0
    5fc0:	2e e0       	ldi	r18, 0x0E	; 14
    5fc2:	33 e0       	ldi	r19, 0x03	; 3
    5fc4:	40 e0       	ldi	r20, 0x00	; 0
    5fc6:	50 e0       	ldi	r21, 0x00	; 0
    5fc8:	ef ef       	ldi	r30, 0xFF	; 255
    5fca:	ee 2e       	mov	r14, r30
    5fcc:	e3 e0       	ldi	r30, 0x03	; 3
    5fce:	fe 2e       	mov	r15, r30
    5fd0:	01 2d       	mov	r16, r1
    5fd2:	11 2d       	mov	r17, r1
    5fd4:	0e 94 05 01 	call	0x20a	; 0x20a <MFSetServoPos>
    5fd8:	67 e0       	ldi	r22, 0x07	; 7
    5fda:	70 e0       	ldi	r23, 0x00	; 0
    5fdc:	80 e0       	ldi	r24, 0x00	; 0
    5fde:	90 e0       	ldi	r25, 0x00	; 0
    5fe0:	2b e1       	ldi	r18, 0x1B	; 27
    5fe2:	33 e0       	ldi	r19, 0x03	; 3
    5fe4:	40 e0       	ldi	r20, 0x00	; 0
    5fe6:	50 e0       	ldi	r21, 0x00	; 0
    5fe8:	0e 94 05 01 	call	0x20a	; 0x20a <MFSetServoPos>
    5fec:	0e 94 d2 00 	call	0x1a4	; 0x1a4 <MFServoAction>
    5ff0:	64 e6       	ldi	r22, 0x64	; 100
    5ff2:	70 e0       	ldi	r23, 0x00	; 0
    5ff4:	80 e0       	ldi	r24, 0x00	; 0
    5ff6:	90 e0       	ldi	r25, 0x00	; 0
    5ff8:	0e 94 67 00 	call	0xce	; 0xce <DelayMS>
    5ffc:	1f 91       	pop	r17
    5ffe:	0f 91       	pop	r16
    6000:	ff 90       	pop	r15
    6002:	ef 90       	pop	r14
    6004:	08 95       	ret

00006006 <shangtai>:
    6006:	ef 92       	push	r14
    6008:	ff 92       	push	r15
    600a:	0f 93       	push	r16
    600c:	1f 93       	push	r17
    600e:	cf 93       	push	r28
    6010:	df 93       	push	r29
    6012:	64 e0       	ldi	r22, 0x04	; 4
    6014:	70 e0       	ldi	r23, 0x00	; 0
    6016:	80 e0       	ldi	r24, 0x00	; 0
    6018:	90 e0       	ldi	r25, 0x00	; 0
    601a:	20 e0       	ldi	r18, 0x00	; 0
    601c:	32 e0       	ldi	r19, 0x02	; 2
    601e:	40 e0       	ldi	r20, 0x00	; 0
    6020:	50 e0       	ldi	r21, 0x00	; 0
    6022:	bc e2       	ldi	r27, 0x2C	; 44
    6024:	eb 2e       	mov	r14, r27
    6026:	b1 e0       	ldi	r27, 0x01	; 1
    6028:	fb 2e       	mov	r15, r27
    602a:	01 2d       	mov	r16, r1
    602c:	11 2d       	mov	r17, r1
    602e:	0e 94 05 01 	call	0x20a	; 0x20a <MFSetServoPos>
    6032:	65 e0       	ldi	r22, 0x05	; 5
    6034:	70 e0       	ldi	r23, 0x00	; 0
    6036:	80 e0       	ldi	r24, 0x00	; 0
    6038:	90 e0       	ldi	r25, 0x00	; 0
    603a:	28 e2       	ldi	r18, 0x28	; 40
    603c:	32 e0       	ldi	r19, 0x02	; 2
    603e:	40 e0       	ldi	r20, 0x00	; 0
    6040:	50 e0       	ldi	r21, 0x00	; 0
    6042:	0e 94 05 01 	call	0x20a	; 0x20a <MFSetServoPos>
    6046:	80 e0       	ldi	r24, 0x00	; 0
    6048:	90 e0       	ldi	r25, 0x00	; 0
    604a:	60 e0       	ldi	r22, 0x00	; 0
    604c:	70 e0       	ldi	r23, 0x00	; 0
    604e:	0e 94 f4 2c 	call	0x59e8	; 0x59e8 <move>
    6052:	68 e7       	ldi	r22, 0x78	; 120
    6054:	75 e0       	ldi	r23, 0x05	; 5
    6056:	80 e0       	ldi	r24, 0x00	; 0
    6058:	90 e0       	ldi	r25, 0x00	; 0
    605a:	0e 94 67 00 	call	0xce	; 0xce <DelayMS>
    605e:	61 e0       	ldi	r22, 0x01	; 1
    6060:	70 e0       	ldi	r23, 0x00	; 0
    6062:	80 e0       	ldi	r24, 0x00	; 0
    6064:	90 e0       	ldi	r25, 0x00	; 0
    6066:	2a ef       	ldi	r18, 0xFA	; 250
    6068:	32 e0       	ldi	r19, 0x02	; 2
    606a:	40 e0       	ldi	r20, 0x00	; 0
    606c:	50 e0       	ldi	r21, 0x00	; 0
    606e:	0e 94 05 01 	call	0x20a	; 0x20a <MFSetServoPos>
    6072:	62 e0       	ldi	r22, 0x02	; 2
    6074:	70 e0       	ldi	r23, 0x00	; 0
    6076:	80 e0       	ldi	r24, 0x00	; 0
    6078:	90 e0       	ldi	r25, 0x00	; 0
    607a:	20 e6       	ldi	r18, 0x60	; 96
    607c:	30 e0       	ldi	r19, 0x00	; 0
    607e:	40 e0       	ldi	r20, 0x00	; 0
    6080:	50 e0       	ldi	r21, 0x00	; 0
    6082:	0e 94 05 01 	call	0x20a	; 0x20a <MFSetServoPos>
    6086:	63 e0       	ldi	r22, 0x03	; 3
    6088:	70 e0       	ldi	r23, 0x00	; 0
    608a:	80 e0       	ldi	r24, 0x00	; 0
    608c:	90 e0       	ldi	r25, 0x00	; 0
    608e:	29 e4       	ldi	r18, 0x49	; 73
    6090:	30 e0       	ldi	r19, 0x00	; 0
    6092:	40 e0       	ldi	r20, 0x00	; 0
    6094:	50 e0       	ldi	r21, 0x00	; 0
    6096:	0e 94 05 01 	call	0x20a	; 0x20a <MFSetServoPos>
    609a:	66 e0       	ldi	r22, 0x06	; 6
    609c:	70 e0       	ldi	r23, 0x00	; 0
    609e:	80 e0       	ldi	r24, 0x00	; 0
    60a0:	90 e0       	ldi	r25, 0x00	; 0
    60a2:	26 eb       	ldi	r18, 0xB6	; 182
    60a4:	33 e0       	ldi	r19, 0x03	; 3
    60a6:	40 e0       	ldi	r20, 0x00	; 0
    60a8:	50 e0       	ldi	r21, 0x00	; 0
    60aa:	0e 94 05 01 	call	0x20a	; 0x20a <MFSetServoPos>
    60ae:	67 e0       	ldi	r22, 0x07	; 7
    60b0:	70 e0       	ldi	r23, 0x00	; 0
    60b2:	80 e0       	ldi	r24, 0x00	; 0
    60b4:	90 e0       	ldi	r25, 0x00	; 0
    60b6:	2b e4       	ldi	r18, 0x4B	; 75
    60b8:	30 e0       	ldi	r19, 0x00	; 0
    60ba:	40 e0       	ldi	r20, 0x00	; 0
    60bc:	50 e0       	ldi	r21, 0x00	; 0
    60be:	0e 94 05 01 	call	0x20a	; 0x20a <MFSetServoPos>
    60c2:	68 e0       	ldi	r22, 0x08	; 8
    60c4:	70 e0       	ldi	r23, 0x00	; 0
    60c6:	80 e0       	ldi	r24, 0x00	; 0
    60c8:	90 e0       	ldi	r25, 0x00	; 0
    60ca:	27 e3       	ldi	r18, 0x37	; 55
    60cc:	31 e0       	ldi	r19, 0x01	; 1
    60ce:	40 e0       	ldi	r20, 0x00	; 0
    60d0:	50 e0       	ldi	r21, 0x00	; 0
    60d2:	0e 94 05 01 	call	0x20a	; 0x20a <MFSetServoPos>
    60d6:	0e 94 d2 00 	call	0x1a4	; 0x1a4 <MFServoAction>
    60da:	68 e7       	ldi	r22, 0x78	; 120
    60dc:	75 e0       	ldi	r23, 0x05	; 5
    60de:	80 e0       	ldi	r24, 0x00	; 0
    60e0:	90 e0       	ldi	r25, 0x00	; 0
    60e2:	0e 94 67 00 	call	0xce	; 0xce <DelayMS>
    60e6:	64 e0       	ldi	r22, 0x04	; 4
    60e8:	70 e0       	ldi	r23, 0x00	; 0
    60ea:	80 e0       	ldi	r24, 0x00	; 0
    60ec:	90 e0       	ldi	r25, 0x00	; 0
    60ee:	2e ea       	ldi	r18, 0xAE	; 174
    60f0:	30 e0       	ldi	r19, 0x00	; 0
    60f2:	40 e0       	ldi	r20, 0x00	; 0
    60f4:	50 e0       	ldi	r21, 0x00	; 0
    60f6:	0e 94 05 01 	call	0x20a	; 0x20a <MFSetServoPos>
    60fa:	65 e0       	ldi	r22, 0x05	; 5
    60fc:	70 e0       	ldi	r23, 0x00	; 0
    60fe:	80 e0       	ldi	r24, 0x00	; 0
    6100:	90 e0       	ldi	r25, 0x00	; 0
    6102:	2e e7       	ldi	r18, 0x7E	; 126
    6104:	33 e0       	ldi	r19, 0x03	; 3
    6106:	40 e0       	ldi	r20, 0x00	; 0
    6108:	50 e0       	ldi	r21, 0x00	; 0
    610a:	0e 94 05 01 	call	0x20a	; 0x20a <MFSetServoPos>
    610e:	68 ee       	ldi	r22, 0xE8	; 232
    6110:	73 e0       	ldi	r23, 0x03	; 3
    6112:	80 e0       	ldi	r24, 0x00	; 0
    6114:	90 e0       	ldi	r25, 0x00	; 0
    6116:	0e 94 67 00 	call	0xce	; 0xce <DelayMS>
    611a:	84 ef       	ldi	r24, 0xF4	; 244
    611c:	91 e0       	ldi	r25, 0x01	; 1
    611e:	64 ef       	ldi	r22, 0xF4	; 244
    6120:	71 e0       	ldi	r23, 0x01	; 1
    6122:	0e 94 f4 2c 	call	0x59e8	; 0x59e8 <move>
    6126:	64 e6       	ldi	r22, 0x64	; 100
    6128:	70 e0       	ldi	r23, 0x00	; 0
    612a:	80 e0       	ldi	r24, 0x00	; 0
    612c:	90 e0       	ldi	r25, 0x00	; 0
    612e:	0e 94 67 00 	call	0xce	; 0xce <DelayMS>
    6132:	84 ef       	ldi	r24, 0xF4	; 244
    6134:	91 e0       	ldi	r25, 0x01	; 1
    6136:	64 ef       	ldi	r22, 0xF4	; 244
    6138:	71 e0       	ldi	r23, 0x01	; 1
    613a:	0e 94 f4 2c 	call	0x59e8	; 0x59e8 <move>
    613e:	6c ed       	ldi	r22, 0xDC	; 220
    6140:	75 e0       	ldi	r23, 0x05	; 5
    6142:	80 e0       	ldi	r24, 0x00	; 0
    6144:	90 e0       	ldi	r25, 0x00	; 0
    6146:	0e 94 67 00 	call	0xce	; 0xce <DelayMS>
    614a:	04 ef       	ldi	r16, 0xF4	; 244
    614c:	11 e0       	ldi	r17, 0x01	; 1
    614e:	c4 ef       	ldi	r28, 0xF4	; 244
    6150:	d1 e0       	ldi	r29, 0x01	; 1
    6152:	c8 01       	movw	r24, r16
    6154:	be 01       	movw	r22, r28
    6156:	0e 94 f4 2c 	call	0x59e8	; 0x59e8 <move>
    615a:	69 e1       	ldi	r22, 0x19	; 25
    615c:	70 e0       	ldi	r23, 0x00	; 0
    615e:	80 e0       	ldi	r24, 0x00	; 0
    6160:	90 e0       	ldi	r25, 0x00	; 0
    6162:	0e 94 67 00 	call	0xce	; 0xce <DelayMS>
    6166:	0a 50       	subi	r16, 0x0A	; 10
    6168:	10 40       	sbci	r17, 0x00	; 0
    616a:	64 97       	sbiw	r28, 0x14	; 20
    616c:	81 e0       	ldi	r24, 0x01	; 1
    616e:	0c 32       	cpi	r16, 0x2C	; 44
    6170:	18 07       	cpc	r17, r24
    6172:	79 f7       	brne	.-34     	; 0x6152 <shangtai+0x14c>
    6174:	64 e9       	ldi	r22, 0x94	; 148
    6176:	72 e0       	ldi	r23, 0x02	; 2
    6178:	80 e0       	ldi	r24, 0x00	; 0
    617a:	90 e0       	ldi	r25, 0x00	; 0
    617c:	0e 94 67 00 	call	0xce	; 0xce <DelayMS>
    6180:	64 e0       	ldi	r22, 0x04	; 4
    6182:	70 e0       	ldi	r23, 0x00	; 0
    6184:	80 e0       	ldi	r24, 0x00	; 0
    6186:	90 e0       	ldi	r25, 0x00	; 0
    6188:	20 e0       	ldi	r18, 0x00	; 0
    618a:	32 e0       	ldi	r19, 0x02	; 2
    618c:	40 e0       	ldi	r20, 0x00	; 0
    618e:	50 e0       	ldi	r21, 0x00	; 0
    6190:	ac e2       	ldi	r26, 0x2C	; 44
    6192:	ea 2e       	mov	r14, r26
    6194:	a1 e0       	ldi	r26, 0x01	; 1
    6196:	fa 2e       	mov	r15, r26
    6198:	01 2d       	mov	r16, r1
    619a:	11 2d       	mov	r17, r1
    619c:	0e 94 05 01 	call	0x20a	; 0x20a <MFSetServoPos>
    61a0:	65 e0       	ldi	r22, 0x05	; 5
    61a2:	70 e0       	ldi	r23, 0x00	; 0
    61a4:	80 e0       	ldi	r24, 0x00	; 0
    61a6:	90 e0       	ldi	r25, 0x00	; 0
    61a8:	28 e2       	ldi	r18, 0x28	; 40
    61aa:	32 e0       	ldi	r19, 0x02	; 2
    61ac:	40 e0       	ldi	r20, 0x00	; 0
    61ae:	50 e0       	ldi	r21, 0x00	; 0
    61b0:	0e 94 05 01 	call	0x20a	; 0x20a <MFSetServoPos>
    61b4:	63 e0       	ldi	r22, 0x03	; 3
    61b6:	70 e0       	ldi	r23, 0x00	; 0
    61b8:	80 e0       	ldi	r24, 0x00	; 0
    61ba:	90 e0       	ldi	r25, 0x00	; 0
    61bc:	20 e0       	ldi	r18, 0x00	; 0
    61be:	32 e0       	ldi	r19, 0x02	; 2
    61c0:	40 e0       	ldi	r20, 0x00	; 0
    61c2:	50 e0       	ldi	r21, 0x00	; 0
    61c4:	e1 2c       	mov	r14, r1
    61c6:	f2 e0       	ldi	r31, 0x02	; 2
    61c8:	ff 2e       	mov	r15, r31
    61ca:	01 2d       	mov	r16, r1
    61cc:	11 2d       	mov	r17, r1
    61ce:	0e 94 05 01 	call	0x20a	; 0x20a <MFSetServoPos>
    61d2:	66 e0       	ldi	r22, 0x06	; 6
    61d4:	70 e0       	ldi	r23, 0x00	; 0
    61d6:	80 e0       	ldi	r24, 0x00	; 0
    61d8:	90 e0       	ldi	r25, 0x00	; 0
    61da:	20 e0       	ldi	r18, 0x00	; 0
    61dc:	32 e0       	ldi	r19, 0x02	; 2
    61de:	40 e0       	ldi	r20, 0x00	; 0
    61e0:	50 e0       	ldi	r21, 0x00	; 0
    61e2:	0e 94 05 01 	call	0x20a	; 0x20a <MFSetServoPos>
    61e6:	8c e2       	ldi	r24, 0x2C	; 44
    61e8:	91 e0       	ldi	r25, 0x01	; 1
    61ea:	6c e2       	ldi	r22, 0x2C	; 44
    61ec:	71 e0       	ldi	r23, 0x01	; 1
    61ee:	0e 94 f4 2c 	call	0x59e8	; 0x59e8 <move>
    61f2:	6c ed       	ldi	r22, 0xDC	; 220
    61f4:	75 e0       	ldi	r23, 0x05	; 5
    61f6:	80 e0       	ldi	r24, 0x00	; 0
    61f8:	90 e0       	ldi	r25, 0x00	; 0
    61fa:	0e 94 67 00 	call	0xce	; 0xce <DelayMS>
    61fe:	df 91       	pop	r29
    6200:	cf 91       	pop	r28
    6202:	1f 91       	pop	r17
    6204:	0f 91       	pop	r16
    6206:	ff 90       	pop	r15
    6208:	ef 90       	pop	r14
    620a:	08 95       	ret

0000620c <main>:
    620c:	ef 92       	push	r14
    620e:	ff 92       	push	r15
    6210:	0f 93       	push	r16
    6212:	1f 93       	push	r17
    6214:	cf 93       	push	r28
    6216:	df 93       	push	r29
    6218:	0e 94 4d 01 	call	0x29a	; 0x29a <MFInit>
    621c:	86 e9       	ldi	r24, 0x96	; 150
    621e:	98 e0       	ldi	r25, 0x08	; 8
    6220:	6a e0       	ldi	r22, 0x0A	; 10
    6222:	0e 94 25 01 	call	0x24a	; 0x24a <MFInitServoMapping>
    6226:	60 e0       	ldi	r22, 0x00	; 0
    6228:	7e e0       	ldi	r23, 0x0E	; 14
    622a:	80 e0       	ldi	r24, 0x00	; 0
    622c:	90 e0       	ldi	r25, 0x00	; 0
    622e:	0e 94 6f 00 	call	0xde	; 0xde <MFSetPortDirect>
    6232:	61 e0       	ldi	r22, 0x01	; 1
    6234:	70 e0       	ldi	r23, 0x00	; 0
    6236:	80 e0       	ldi	r24, 0x00	; 0
    6238:	90 e0       	ldi	r25, 0x00	; 0
    623a:	20 e0       	ldi	r18, 0x00	; 0
    623c:	30 e0       	ldi	r19, 0x00	; 0
    623e:	40 e0       	ldi	r20, 0x00	; 0
    6240:	50 e0       	ldi	r21, 0x00	; 0
    6242:	0e 94 b0 00 	call	0x160	; 0x160 <MFSetServoMode>
    6246:	62 e0       	ldi	r22, 0x02	; 2
    6248:	70 e0       	ldi	r23, 0x00	; 0
    624a:	80 e0       	ldi	r24, 0x00	; 0
    624c:	90 e0       	ldi	r25, 0x00	; 0
    624e:	20 e0       	ldi	r18, 0x00	; 0
    6250:	30 e0       	ldi	r19, 0x00	; 0
    6252:	40 e0       	ldi	r20, 0x00	; 0
    6254:	50 e0       	ldi	r21, 0x00	; 0
    6256:	0e 94 b0 00 	call	0x160	; 0x160 <MFSetServoMode>
    625a:	63 e0       	ldi	r22, 0x03	; 3
    625c:	70 e0       	ldi	r23, 0x00	; 0
    625e:	80 e0       	ldi	r24, 0x00	; 0
    6260:	90 e0       	ldi	r25, 0x00	; 0
    6262:	20 e0       	ldi	r18, 0x00	; 0
    6264:	30 e0       	ldi	r19, 0x00	; 0
    6266:	40 e0       	ldi	r20, 0x00	; 0
    6268:	50 e0       	ldi	r21, 0x00	; 0
    626a:	0e 94 b0 00 	call	0x160	; 0x160 <MFSetServoMode>
    626e:	64 e0       	ldi	r22, 0x04	; 4
    6270:	70 e0       	ldi	r23, 0x00	; 0
    6272:	80 e0       	ldi	r24, 0x00	; 0
    6274:	90 e0       	ldi	r25, 0x00	; 0
    6276:	20 e0       	ldi	r18, 0x00	; 0
    6278:	30 e0       	ldi	r19, 0x00	; 0
    627a:	40 e0       	ldi	r20, 0x00	; 0
    627c:	50 e0       	ldi	r21, 0x00	; 0
    627e:	0e 94 b0 00 	call	0x160	; 0x160 <MFSetServoMode>
    6282:	65 e0       	ldi	r22, 0x05	; 5
    6284:	70 e0       	ldi	r23, 0x00	; 0
    6286:	80 e0       	ldi	r24, 0x00	; 0
    6288:	90 e0       	ldi	r25, 0x00	; 0
    628a:	20 e0       	ldi	r18, 0x00	; 0
    628c:	30 e0       	ldi	r19, 0x00	; 0
    628e:	40 e0       	ldi	r20, 0x00	; 0
    6290:	50 e0       	ldi	r21, 0x00	; 0
    6292:	0e 94 b0 00 	call	0x160	; 0x160 <MFSetServoMode>
    6296:	66 e0       	ldi	r22, 0x06	; 6
    6298:	70 e0       	ldi	r23, 0x00	; 0
    629a:	80 e0       	ldi	r24, 0x00	; 0
    629c:	90 e0       	ldi	r25, 0x00	; 0
    629e:	20 e0       	ldi	r18, 0x00	; 0
    62a0:	30 e0       	ldi	r19, 0x00	; 0
    62a2:	40 e0       	ldi	r20, 0x00	; 0
    62a4:	50 e0       	ldi	r21, 0x00	; 0
    62a6:	0e 94 b0 00 	call	0x160	; 0x160 <MFSetServoMode>
    62aa:	67 e0       	ldi	r22, 0x07	; 7
    62ac:	70 e0       	ldi	r23, 0x00	; 0
    62ae:	80 e0       	ldi	r24, 0x00	; 0
    62b0:	90 e0       	ldi	r25, 0x00	; 0
    62b2:	20 e0       	ldi	r18, 0x00	; 0
    62b4:	30 e0       	ldi	r19, 0x00	; 0
    62b6:	40 e0       	ldi	r20, 0x00	; 0
    62b8:	50 e0       	ldi	r21, 0x00	; 0
    62ba:	0e 94 b0 00 	call	0x160	; 0x160 <MFSetServoMode>
    62be:	69 e0       	ldi	r22, 0x09	; 9
    62c0:	70 e0       	ldi	r23, 0x00	; 0
    62c2:	80 e0       	ldi	r24, 0x00	; 0
    62c4:	90 e0       	ldi	r25, 0x00	; 0
    62c6:	21 e0       	ldi	r18, 0x01	; 1
    62c8:	30 e0       	ldi	r19, 0x00	; 0
    62ca:	40 e0       	ldi	r20, 0x00	; 0
    62cc:	50 e0       	ldi	r21, 0x00	; 0
    62ce:	0e 94 b0 00 	call	0x160	; 0x160 <MFSetServoMode>
    62d2:	6a e0       	ldi	r22, 0x0A	; 10
    62d4:	70 e0       	ldi	r23, 0x00	; 0
    62d6:	80 e0       	ldi	r24, 0x00	; 0
    62d8:	90 e0       	ldi	r25, 0x00	; 0
    62da:	21 e0       	ldi	r18, 0x01	; 1
    62dc:	30 e0       	ldi	r19, 0x00	; 0
    62de:	40 e0       	ldi	r20, 0x00	; 0
    62e0:	50 e0       	ldi	r21, 0x00	; 0
    62e2:	0e 94 b0 00 	call	0x160	; 0x160 <MFSetServoMode>
    62e6:	63 e0       	ldi	r22, 0x03	; 3
    62e8:	70 e0       	ldi	r23, 0x00	; 0
    62ea:	80 e0       	ldi	r24, 0x00	; 0
    62ec:	90 e0       	ldi	r25, 0x00	; 0
    62ee:	0e 94 96 00 	call	0x12c	; 0x12c <MFGetAD>
    62f2:	6c 52       	subi	r22, 0x2C	; 44
    62f4:	71 40       	sbci	r23, 0x01	; 1
    62f6:	80 40       	sbci	r24, 0x00	; 0
    62f8:	90 40       	sbci	r25, 0x00	; 0
    62fa:	ac f3       	brlt	.-22     	; 0x62e6 <main+0xda>
    62fc:	0e 94 03 30 	call	0x6006	; 0x6006 <shangtai>
    6300:	60 e0       	ldi	r22, 0x00	; 0
    6302:	70 e0       	ldi	r23, 0x00	; 0
    6304:	80 e0       	ldi	r24, 0x00	; 0
    6306:	90 e0       	ldi	r25, 0x00	; 0
    6308:	0e 94 96 00 	call	0x12c	; 0x12c <MFGetAD>
    630c:	6e 36       	cpi	r22, 0x6E	; 110
    630e:	71 05       	cpc	r23, r1
    6310:	81 05       	cpc	r24, r1
    6312:	91 05       	cpc	r25, r1
    6314:	5c f0       	brlt	.+22     	; 0x632c <main+0x120>
    6316:	61 e0       	ldi	r22, 0x01	; 1
    6318:	70 e0       	ldi	r23, 0x00	; 0
    631a:	80 e0       	ldi	r24, 0x00	; 0
    631c:	90 e0       	ldi	r25, 0x00	; 0
    631e:	0e 94 96 00 	call	0x12c	; 0x12c <MFGetAD>
    6322:	6c 36       	cpi	r22, 0x6C	; 108
    6324:	71 05       	cpc	r23, r1
    6326:	81 05       	cpc	r24, r1
    6328:	91 05       	cpc	r25, r1
    632a:	a4 f5       	brge	.+104    	; 0x6394 <main+0x188>
    632c:	66 e0       	ldi	r22, 0x06	; 6
    632e:	70 e0       	ldi	r23, 0x00	; 0
    6330:	80 e0       	ldi	r24, 0x00	; 0
    6332:	90 e0       	ldi	r25, 0x00	; 0
    6334:	0e 94 96 00 	call	0x12c	; 0x12c <MFGetAD>
    6338:	68 38       	cpi	r22, 0x88	; 136
    633a:	71 05       	cpc	r23, r1
    633c:	81 05       	cpc	r24, r1
    633e:	91 05       	cpc	r25, r1
    6340:	4c f1       	brlt	.+82     	; 0x6394 <main+0x188>
    6342:	62 e3       	ldi	r22, 0x32	; 50
    6344:	70 e0       	ldi	r23, 0x00	; 0
    6346:	80 e0       	ldi	r24, 0x00	; 0
    6348:	90 e0       	ldi	r25, 0x00	; 0
    634a:	0e 94 67 00 	call	0xce	; 0xce <DelayMS>
    634e:	60 e0       	ldi	r22, 0x00	; 0
    6350:	70 e0       	ldi	r23, 0x00	; 0
    6352:	80 e0       	ldi	r24, 0x00	; 0
    6354:	90 e0       	ldi	r25, 0x00	; 0
    6356:	0e 94 96 00 	call	0x12c	; 0x12c <MFGetAD>
    635a:	6e 36       	cpi	r22, 0x6E	; 110
    635c:	71 05       	cpc	r23, r1
    635e:	81 05       	cpc	r24, r1
    6360:	91 05       	cpc	r25, r1
    6362:	5c f0       	brlt	.+22     	; 0x637a <main+0x16e>
    6364:	61 e0       	ldi	r22, 0x01	; 1
    6366:	70 e0       	ldi	r23, 0x00	; 0
    6368:	80 e0       	ldi	r24, 0x00	; 0
    636a:	90 e0       	ldi	r25, 0x00	; 0
    636c:	0e 94 96 00 	call	0x12c	; 0x12c <MFGetAD>
    6370:	6c 36       	cpi	r22, 0x6C	; 108
    6372:	71 05       	cpc	r23, r1
    6374:	81 05       	cpc	r24, r1
    6376:	91 05       	cpc	r25, r1
    6378:	6c f4       	brge	.+26     	; 0x6394 <main+0x188>
    637a:	66 e0       	ldi	r22, 0x06	; 6
    637c:	70 e0       	ldi	r23, 0x00	; 0
    637e:	80 e0       	ldi	r24, 0x00	; 0
    6380:	90 e0       	ldi	r25, 0x00	; 0
    6382:	0e 94 96 00 	call	0x12c	; 0x12c <MFGetAD>
    6386:	68 38       	cpi	r22, 0x88	; 136
    6388:	71 05       	cpc	r23, r1
    638a:	81 05       	cpc	r24, r1
    638c:	91 05       	cpc	r25, r1
    638e:	14 f0       	brlt	.+4      	; 0x6394 <main+0x188>
    6390:	0e 94 1b 2d 	call	0x5a36	; 0x5a36 <standup_fwd>
    6394:	68 e0       	ldi	r22, 0x08	; 8
    6396:	70 e0       	ldi	r23, 0x00	; 0
    6398:	80 e0       	ldi	r24, 0x00	; 0
    639a:	90 e0       	ldi	r25, 0x00	; 0
    639c:	0e 94 77 00 	call	0xee	; 0xee <MFGetDigiInput>
    63a0:	61 15       	cp	r22, r1
    63a2:	71 05       	cpc	r23, r1
    63a4:	81 05       	cpc	r24, r1
    63a6:	91 05       	cpc	r25, r1
    63a8:	09 f4       	brne	.+2      	; 0x63ac <main+0x1a0>
    63aa:	47 c1       	rjmp	.+654    	; 0x663a <main+0x42e>
    63ac:	61 e0       	ldi	r22, 0x01	; 1
    63ae:	70 e0       	ldi	r23, 0x00	; 0
    63b0:	80 e0       	ldi	r24, 0x00	; 0
    63b2:	90 e0       	ldi	r25, 0x00	; 0
    63b4:	0e 94 77 00 	call	0xee	; 0xee <MFGetDigiInput>
    63b8:	61 15       	cp	r22, r1
    63ba:	71 05       	cpc	r23, r1
    63bc:	81 05       	cpc	r24, r1
    63be:	91 05       	cpc	r25, r1
    63c0:	09 f4       	brne	.+2      	; 0x63c4 <main+0x1b8>
    63c2:	56 c0       	rjmp	.+172    	; 0x6470 <main+0x264>
    63c4:	60 e0       	ldi	r22, 0x00	; 0
    63c6:	70 e0       	ldi	r23, 0x00	; 0
    63c8:	80 e0       	ldi	r24, 0x00	; 0
    63ca:	90 e0       	ldi	r25, 0x00	; 0
    63cc:	0e 94 77 00 	call	0xee	; 0xee <MFGetDigiInput>
    63d0:	61 15       	cp	r22, r1
    63d2:	71 05       	cpc	r23, r1
    63d4:	81 05       	cpc	r24, r1
    63d6:	91 05       	cpc	r25, r1
    63d8:	09 f4       	brne	.+2      	; 0x63dc <main+0x1d0>
    63da:	4a c0       	rjmp	.+148    	; 0x6470 <main+0x264>
    63dc:	63 e0       	ldi	r22, 0x03	; 3
    63de:	70 e0       	ldi	r23, 0x00	; 0
    63e0:	80 e0       	ldi	r24, 0x00	; 0
    63e2:	90 e0       	ldi	r25, 0x00	; 0
    63e4:	27 ec       	ldi	r18, 0xC7	; 199
    63e6:	30 e0       	ldi	r19, 0x00	; 0
    63e8:	40 e0       	ldi	r20, 0x00	; 0
    63ea:	50 e0       	ldi	r21, 0x00	; 0
    63ec:	e1 2c       	mov	r14, r1
    63ee:	f2 e0       	ldi	r31, 0x02	; 2
    63f0:	ff 2e       	mov	r15, r31
    63f2:	01 2d       	mov	r16, r1
    63f4:	11 2d       	mov	r17, r1
    63f6:	0e 94 05 01 	call	0x20a	; 0x20a <MFSetServoPos>
    63fa:	66 e0       	ldi	r22, 0x06	; 6
    63fc:	70 e0       	ldi	r23, 0x00	; 0
    63fe:	80 e0       	ldi	r24, 0x00	; 0
    6400:	90 e0       	ldi	r25, 0x00	; 0
    6402:	2e e4       	ldi	r18, 0x4E	; 78
    6404:	33 e0       	ldi	r19, 0x03	; 3
    6406:	40 e0       	ldi	r20, 0x00	; 0
    6408:	50 e0       	ldi	r21, 0x00	; 0
    640a:	0e 94 05 01 	call	0x20a	; 0x20a <MFSetServoPos>
    640e:	61 e0       	ldi	r22, 0x01	; 1
    6410:	70 e0       	ldi	r23, 0x00	; 0
    6412:	80 e0       	ldi	r24, 0x00	; 0
    6414:	90 e0       	ldi	r25, 0x00	; 0
    6416:	2c e0       	ldi	r18, 0x0C	; 12
    6418:	33 e0       	ldi	r19, 0x03	; 3
    641a:	40 e0       	ldi	r20, 0x00	; 0
    641c:	50 e0       	ldi	r21, 0x00	; 0
    641e:	ef ef       	ldi	r30, 0xFF	; 255
    6420:	ee 2e       	mov	r14, r30
    6422:	e3 e0       	ldi	r30, 0x03	; 3
    6424:	fe 2e       	mov	r15, r30
    6426:	01 2d       	mov	r16, r1
    6428:	11 2d       	mov	r17, r1
    642a:	0e 94 05 01 	call	0x20a	; 0x20a <MFSetServoPos>
    642e:	68 e0       	ldi	r22, 0x08	; 8
    6430:	70 e0       	ldi	r23, 0x00	; 0
    6432:	80 e0       	ldi	r24, 0x00	; 0
    6434:	90 e0       	ldi	r25, 0x00	; 0
    6436:	28 e2       	ldi	r18, 0x28	; 40
    6438:	31 e0       	ldi	r19, 0x01	; 1
    643a:	40 e0       	ldi	r20, 0x00	; 0
    643c:	50 e0       	ldi	r21, 0x00	; 0
    643e:	0e 94 05 01 	call	0x20a	; 0x20a <MFSetServoPos>
    6442:	62 e0       	ldi	r22, 0x02	; 2
    6444:	70 e0       	ldi	r23, 0x00	; 0
    6446:	80 e0       	ldi	r24, 0x00	; 0
    6448:	90 e0       	ldi	r25, 0x00	; 0
    644a:	2e e0       	ldi	r18, 0x0E	; 14
    644c:	33 e0       	ldi	r19, 0x03	; 3
    644e:	40 e0       	ldi	r20, 0x00	; 0
    6450:	50 e0       	ldi	r21, 0x00	; 0
    6452:	0e 94 05 01 	call	0x20a	; 0x20a <MFSetServoPos>
    6456:	67 e0       	ldi	r22, 0x07	; 7
    6458:	70 e0       	ldi	r23, 0x00	; 0
    645a:	80 e0       	ldi	r24, 0x00	; 0
    645c:	90 e0       	ldi	r25, 0x00	; 0
    645e:	2b e1       	ldi	r18, 0x1B	; 27
    6460:	33 e0       	ldi	r19, 0x03	; 3
    6462:	40 e0       	ldi	r20, 0x00	; 0
    6464:	50 e0       	ldi	r21, 0x00	; 0
    6466:	0e 94 05 01 	call	0x20a	; 0x20a <MFSetServoPos>
    646a:	0e 94 d2 00 	call	0x1a4	; 0x1a4 <MFServoAction>
    646e:	02 c0       	rjmp	.+4      	; 0x6474 <main+0x268>
    6470:	0e 94 28 2f 	call	0x5e50	; 0x5e50 <gongji>
    6474:	0e 94 7c 2c 	call	0x58f8	; 0x58f8 <zhili>
    6478:	64 e0       	ldi	r22, 0x04	; 4
    647a:	70 e0       	ldi	r23, 0x00	; 0
    647c:	80 e0       	ldi	r24, 0x00	; 0
    647e:	90 e0       	ldi	r25, 0x00	; 0
    6480:	0e 94 96 00 	call	0x12c	; 0x12c <MFGetAD>
    6484:	69 3c       	cpi	r22, 0xC9	; 201
    6486:	71 05       	cpc	r23, r1
    6488:	81 05       	cpc	r24, r1
    648a:	91 05       	cpc	r25, r1
    648c:	8c f1       	brlt	.+98     	; 0x64f0 <main+0x2e4>
    648e:	60 e0       	ldi	r22, 0x00	; 0
    6490:	70 e0       	ldi	r23, 0x00	; 0
    6492:	80 e0       	ldi	r24, 0x00	; 0
    6494:	90 e0       	ldi	r25, 0x00	; 0
    6496:	0e 94 96 00 	call	0x12c	; 0x12c <MFGetAD>
    649a:	20 91 a0 08 	lds	r18, 0x08A0
    649e:	30 91 a1 08 	lds	r19, 0x08A1
    64a2:	44 27       	eor	r20, r20
    64a4:	37 fd       	sbrc	r19, 7
    64a6:	40 95       	com	r20
    64a8:	54 2f       	mov	r21, r20
    64aa:	26 17       	cp	r18, r22
    64ac:	37 07       	cpc	r19, r23
    64ae:	48 07       	cpc	r20, r24
    64b0:	59 07       	cpc	r21, r25
    64b2:	8c f4       	brge	.+34     	; 0x64d6 <main+0x2ca>
    64b4:	80 e7       	ldi	r24, 0x70	; 112
    64b6:	9e ef       	ldi	r25, 0xFE	; 254
    64b8:	6c e2       	ldi	r22, 0x2C	; 44
    64ba:	71 e0       	ldi	r23, 0x01	; 1
    64bc:	0e 94 f4 2c 	call	0x59e8	; 0x59e8 <move>
    64c0:	64 ef       	ldi	r22, 0xF4	; 244
    64c2:	71 e0       	ldi	r23, 0x01	; 1
    64c4:	80 e0       	ldi	r24, 0x00	; 0
    64c6:	90 e0       	ldi	r25, 0x00	; 0
    64c8:	0e 94 67 00 	call	0xce	; 0xce <DelayMS>
    64cc:	80 e0       	ldi	r24, 0x00	; 0
    64ce:	90 e0       	ldi	r25, 0x00	; 0
    64d0:	60 e0       	ldi	r22, 0x00	; 0
    64d2:	70 e0       	ldi	r23, 0x00	; 0
    64d4:	04 c0       	rjmp	.+8      	; 0x64de <main+0x2d2>
    64d6:	80 e7       	ldi	r24, 0x70	; 112
    64d8:	9e ef       	ldi	r25, 0xFE	; 254
    64da:	6c e2       	ldi	r22, 0x2C	; 44
    64dc:	71 e0       	ldi	r23, 0x01	; 1
    64de:	0e 94 f4 2c 	call	0x59e8	; 0x59e8 <move>
    64e2:	64 ef       	ldi	r22, 0xF4	; 244
    64e4:	71 e0       	ldi	r23, 0x01	; 1
    64e6:	80 e0       	ldi	r24, 0x00	; 0
    64e8:	90 e0       	ldi	r25, 0x00	; 0
    64ea:	0e 94 67 00 	call	0xce	; 0xce <DelayMS>
    64ee:	2d c0       	rjmp	.+90     	; 0x654a <main+0x33e>
    64f0:	63 e0       	ldi	r22, 0x03	; 3
    64f2:	70 e0       	ldi	r23, 0x00	; 0
    64f4:	80 e0       	ldi	r24, 0x00	; 0
    64f6:	90 e0       	ldi	r25, 0x00	; 0
    64f8:	0e 94 96 00 	call	0x12c	; 0x12c <MFGetAD>
    64fc:	61 3a       	cpi	r22, 0xA1	; 161
    64fe:	71 05       	cpc	r23, r1
    6500:	81 05       	cpc	r24, r1
    6502:	91 05       	cpc	r25, r1
    6504:	2c f0       	brlt	.+10     	; 0x6510 <main+0x304>
    6506:	8c e2       	ldi	r24, 0x2C	; 44
    6508:	91 e0       	ldi	r25, 0x01	; 1
    650a:	60 e7       	ldi	r22, 0x70	; 112
    650c:	7e ef       	ldi	r23, 0xFE	; 254
    650e:	e7 cf       	rjmp	.-50     	; 0x64de <main+0x2d2>
    6510:	65 e0       	ldi	r22, 0x05	; 5
    6512:	70 e0       	ldi	r23, 0x00	; 0
    6514:	80 e0       	ldi	r24, 0x00	; 0
    6516:	90 e0       	ldi	r25, 0x00	; 0
    6518:	0e 94 96 00 	call	0x12c	; 0x12c <MFGetAD>
    651c:	61 3a       	cpi	r22, 0xA1	; 161
    651e:	71 05       	cpc	r23, r1
    6520:	81 05       	cpc	r24, r1
    6522:	91 05       	cpc	r25, r1
    6524:	94 f0       	brlt	.+36     	; 0x654a <main+0x33e>
    6526:	80 e7       	ldi	r24, 0x70	; 112
    6528:	9e ef       	ldi	r25, 0xFE	; 254
    652a:	6c e2       	ldi	r22, 0x2C	; 44
    652c:	71 e0       	ldi	r23, 0x01	; 1
    652e:	0e 94 f4 2c 	call	0x59e8	; 0x59e8 <move>
    6532:	64 ef       	ldi	r22, 0xF4	; 244
    6534:	71 e0       	ldi	r23, 0x01	; 1
    6536:	80 e0       	ldi	r24, 0x00	; 0
    6538:	90 e0       	ldi	r25, 0x00	; 0
    653a:	0e 94 67 00 	call	0xce	; 0xce <DelayMS>
    653e:	61 e0       	ldi	r22, 0x01	; 1
    6540:	70 e0       	ldi	r23, 0x00	; 0
    6542:	80 e0       	ldi	r24, 0x00	; 0
    6544:	90 e0       	ldi	r25, 0x00	; 0
    6546:	0e 94 77 00 	call	0xee	; 0xee <MFGetDigiInput>
    654a:	60 e0       	ldi	r22, 0x00	; 0
    654c:	70 e0       	ldi	r23, 0x00	; 0
    654e:	80 e0       	ldi	r24, 0x00	; 0
    6550:	90 e0       	ldi	r25, 0x00	; 0
    6552:	0e 94 96 00 	call	0x12c	; 0x12c <MFGetAD>
    6556:	20 91 a0 08 	lds	r18, 0x08A0
    655a:	30 91 a1 08 	lds	r19, 0x08A1
    655e:	44 27       	eor	r20, r20
    6560:	37 fd       	sbrc	r19, 7
    6562:	40 95       	com	r20
    6564:	54 2f       	mov	r21, r20
    6566:	26 17       	cp	r18, r22
    6568:	37 07       	cpc	r19, r23
    656a:	48 07       	cpc	r20, r24
    656c:	59 07       	cpc	r21, r25
    656e:	34 f1       	brlt	.+76     	; 0x65bc <main+0x3b0>
    6570:	60 e0       	ldi	r22, 0x00	; 0
    6572:	70 e0       	ldi	r23, 0x00	; 0
    6574:	80 e0       	ldi	r24, 0x00	; 0
    6576:	90 e0       	ldi	r25, 0x00	; 0
    6578:	0e 94 96 00 	call	0x12c	; 0x12c <MFGetAD>
    657c:	eb 01       	movw	r28, r22
    657e:	61 e0       	ldi	r22, 0x01	; 1
    6580:	70 e0       	ldi	r23, 0x00	; 0
    6582:	80 e0       	ldi	r24, 0x00	; 0
    6584:	90 e0       	ldi	r25, 0x00	; 0
    6586:	0e 94 96 00 	call	0x12c	; 0x12c <MFGetAD>
    658a:	7b 01       	movw	r14, r22
    658c:	8c 01       	movw	r16, r24
    658e:	62 e0       	ldi	r22, 0x02	; 2
    6590:	70 e0       	ldi	r23, 0x00	; 0
    6592:	80 e0       	ldi	r24, 0x00	; 0
    6594:	90 e0       	ldi	r25, 0x00	; 0
    6596:	0e 94 96 00 	call	0x12c	; 0x12c <MFGetAD>
    659a:	c7 01       	movw	r24, r14
    659c:	08 97       	sbiw	r24, 0x08	; 8
    659e:	6c 51       	subi	r22, 0x1C	; 28
    65a0:	70 40       	sbci	r23, 0x00	; 0
    65a2:	86 17       	cp	r24, r22
    65a4:	97 07       	cpc	r25, r23
    65a6:	0c f4       	brge	.+2      	; 0x65aa <main+0x39e>
    65a8:	cb 01       	movw	r24, r22
    65aa:	7c 01       	movw	r14, r24
    65ac:	8c 17       	cp	r24, r28
    65ae:	9d 07       	cpc	r25, r29
    65b0:	0c f4       	brge	.+2      	; 0x65b4 <main+0x3a8>
    65b2:	7e 01       	movw	r14, r28
    65b4:	ec 16       	cp	r14, r28
    65b6:	fd 06       	cpc	r15, r29
    65b8:	09 f0       	breq	.+2      	; 0x65bc <main+0x3b0>
    65ba:	8b c0       	rjmp	.+278    	; 0x66d2 <main+0x4c6>
    65bc:	8c e2       	ldi	r24, 0x2C	; 44
    65be:	91 e0       	ldi	r25, 0x01	; 1
    65c0:	6c e2       	ldi	r22, 0x2C	; 44
    65c2:	71 e0       	ldi	r23, 0x01	; 1
    65c4:	0e 94 f4 2c 	call	0x59e8	; 0x59e8 <move>
    65c8:	9b ce       	rjmp	.-714    	; 0x6300 <main+0xf4>
    65ca:	8c 17       	cp	r24, r28
    65cc:	9d 07       	cpc	r25, r29
    65ce:	09 f0       	breq	.+2      	; 0x65d2 <main+0x3c6>
    65d0:	c4 c0       	rjmp	.+392    	; 0x675a <main+0x54e>
    65d2:	aa c0       	rjmp	.+340    	; 0x6728 <main+0x51c>
    65d4:	61 e0       	ldi	r22, 0x01	; 1
    65d6:	70 e0       	ldi	r23, 0x00	; 0
    65d8:	80 e0       	ldi	r24, 0x00	; 0
    65da:	90 e0       	ldi	r25, 0x00	; 0
    65dc:	0e 94 96 00 	call	0x12c	; 0x12c <MFGetAD>
    65e0:	7b 01       	movw	r14, r22
    65e2:	8c 01       	movw	r16, r24
    65e4:	62 e0       	ldi	r22, 0x02	; 2
    65e6:	70 e0       	ldi	r23, 0x00	; 0
    65e8:	80 e0       	ldi	r24, 0x00	; 0
    65ea:	90 e0       	ldi	r25, 0x00	; 0
    65ec:	0e 94 96 00 	call	0x12c	; 0x12c <MFGetAD>
    65f0:	64 51       	subi	r22, 0x14	; 20
    65f2:	70 40       	sbci	r23, 0x00	; 0
    65f4:	80 40       	sbci	r24, 0x00	; 0
    65f6:	90 40       	sbci	r25, 0x00	; 0
    65f8:	e6 16       	cp	r14, r22
    65fa:	f7 06       	cpc	r15, r23
    65fc:	08 07       	cpc	r16, r24
    65fe:	19 07       	cpc	r17, r25
    6600:	2c f4       	brge	.+10     	; 0x660c <main+0x400>
    6602:	8c e2       	ldi	r24, 0x2C	; 44
    6604:	91 e0       	ldi	r25, 0x01	; 1
    6606:	60 e7       	ldi	r22, 0x70	; 112
    6608:	7e ef       	ldi	r23, 0xFE	; 254
    660a:	04 c0       	rjmp	.+8      	; 0x6614 <main+0x408>
    660c:	80 e7       	ldi	r24, 0x70	; 112
    660e:	9e ef       	ldi	r25, 0xFE	; 254
    6610:	6c e2       	ldi	r22, 0x2C	; 44
    6612:	71 e0       	ldi	r23, 0x01	; 1
    6614:	0e 94 f4 2c 	call	0x59e8	; 0x59e8 <move>
    6618:	64 e6       	ldi	r22, 0x64	; 100
    661a:	70 e0       	ldi	r23, 0x00	; 0
    661c:	80 e0       	ldi	r24, 0x00	; 0
    661e:	90 e0       	ldi	r25, 0x00	; 0
    6620:	0e 94 67 00 	call	0xce	; 0xce <DelayMS>
    6624:	6d ce       	rjmp	.-806    	; 0x6300 <main+0xf4>
    6626:	80 e9       	ldi	r24, 0x90	; 144
    6628:	91 e0       	ldi	r25, 0x01	; 1
    662a:	64 ed       	ldi	r22, 0xD4	; 212
    662c:	7e ef       	ldi	r23, 0xFE	; 254
    662e:	f2 cf       	rjmp	.-28     	; 0x6614 <main+0x408>
    6630:	84 ed       	ldi	r24, 0xD4	; 212
    6632:	9e ef       	ldi	r25, 0xFE	; 254
    6634:	60 e9       	ldi	r22, 0x90	; 144
    6636:	71 e0       	ldi	r23, 0x01	; 1
    6638:	ed cf       	rjmp	.-38     	; 0x6614 <main+0x408>
    663a:	68 e0       	ldi	r22, 0x08	; 8
    663c:	70 e0       	ldi	r23, 0x00	; 0
    663e:	80 e0       	ldi	r24, 0x00	; 0
    6640:	90 e0       	ldi	r25, 0x00	; 0
    6642:	0e 94 77 00 	call	0xee	; 0xee <MFGetDigiInput>
    6646:	61 15       	cp	r22, r1
    6648:	71 05       	cpc	r23, r1
    664a:	81 05       	cpc	r24, r1
    664c:	91 05       	cpc	r25, r1
    664e:	09 f0       	breq	.+2      	; 0x6652 <main+0x446>
    6650:	57 ce       	rjmp	.-850    	; 0x6300 <main+0xf4>
    6652:	80 e0       	ldi	r24, 0x00	; 0
    6654:	90 e0       	ldi	r25, 0x00	; 0
    6656:	60 e0       	ldi	r22, 0x00	; 0
    6658:	70 e0       	ldi	r23, 0x00	; 0
    665a:	0e 94 f4 2c 	call	0x59e8	; 0x59e8 <move>
    665e:	61 e0       	ldi	r22, 0x01	; 1
    6660:	70 e0       	ldi	r23, 0x00	; 0
    6662:	80 e0       	ldi	r24, 0x00	; 0
    6664:	90 e0       	ldi	r25, 0x00	; 0
    6666:	0e 94 77 00 	call	0xee	; 0xee <MFGetDigiInput>
    666a:	61 15       	cp	r22, r1
    666c:	71 05       	cpc	r23, r1
    666e:	81 05       	cpc	r24, r1
    6670:	91 05       	cpc	r25, r1
    6672:	61 f1       	breq	.+88     	; 0x66cc <main+0x4c0>
    6674:	60 e0       	ldi	r22, 0x00	; 0
    6676:	70 e0       	ldi	r23, 0x00	; 0
    6678:	80 e0       	ldi	r24, 0x00	; 0
    667a:	90 e0       	ldi	r25, 0x00	; 0
    667c:	0e 94 77 00 	call	0xee	; 0xee <MFGetDigiInput>
    6680:	61 15       	cp	r22, r1
    6682:	71 05       	cpc	r23, r1
    6684:	81 05       	cpc	r24, r1
    6686:	91 05       	cpc	r25, r1
    6688:	09 f1       	breq	.+66     	; 0x66cc <main+0x4c0>
    668a:	6a e0       	ldi	r22, 0x0A	; 10
    668c:	70 e0       	ldi	r23, 0x00	; 0
    668e:	80 e0       	ldi	r24, 0x00	; 0
    6690:	90 e0       	ldi	r25, 0x00	; 0
    6692:	0e 94 67 00 	call	0xce	; 0xce <DelayMS>
    6696:	61 e0       	ldi	r22, 0x01	; 1
    6698:	70 e0       	ldi	r23, 0x00	; 0
    669a:	80 e0       	ldi	r24, 0x00	; 0
    669c:	90 e0       	ldi	r25, 0x00	; 0
    669e:	0e 94 77 00 	call	0xee	; 0xee <MFGetDigiInput>
    66a2:	61 15       	cp	r22, r1
    66a4:	71 05       	cpc	r23, r1
    66a6:	81 05       	cpc	r24, r1
    66a8:	91 05       	cpc	r25, r1
    66aa:	09 f4       	brne	.+2      	; 0x66ae <main+0x4a2>
    66ac:	29 ce       	rjmp	.-942    	; 0x6300 <main+0xf4>
    66ae:	60 e0       	ldi	r22, 0x00	; 0
    66b0:	70 e0       	ldi	r23, 0x00	; 0
    66b2:	80 e0       	ldi	r24, 0x00	; 0
    66b4:	90 e0       	ldi	r25, 0x00	; 0
    66b6:	0e 94 77 00 	call	0xee	; 0xee <MFGetDigiInput>
    66ba:	61 15       	cp	r22, r1
    66bc:	71 05       	cpc	r23, r1
    66be:	81 05       	cpc	r24, r1
    66c0:	91 05       	cpc	r25, r1
    66c2:	09 f4       	brne	.+2      	; 0x66c6 <main+0x4ba>
    66c4:	1d ce       	rjmp	.-966    	; 0x6300 <main+0xf4>
    66c6:	0e 94 0b 2e 	call	0x5c16	; 0x5c16 <standup>
    66ca:	1a ce       	rjmp	.-972    	; 0x6300 <main+0xf4>
    66cc:	0e 94 1b 2d 	call	0x5a36	; 0x5a36 <standup_fwd>
    66d0:	17 ce       	rjmp	.-978    	; 0x6300 <main+0xf4>
    66d2:	60 e0       	ldi	r22, 0x00	; 0
    66d4:	70 e0       	ldi	r23, 0x00	; 0
    66d6:	80 e0       	ldi	r24, 0x00	; 0
    66d8:	90 e0       	ldi	r25, 0x00	; 0
    66da:	0e 94 96 00 	call	0x12c	; 0x12c <MFGetAD>
    66de:	8b 01       	movw	r16, r22
    66e0:	61 e0       	ldi	r22, 0x01	; 1
    66e2:	70 e0       	ldi	r23, 0x00	; 0
    66e4:	80 e0       	ldi	r24, 0x00	; 0
    66e6:	90 e0       	ldi	r25, 0x00	; 0
    66e8:	0e 94 96 00 	call	0x12c	; 0x12c <MFGetAD>
    66ec:	eb 01       	movw	r28, r22
    66ee:	28 97       	sbiw	r28, 0x08	; 8
    66f0:	62 e0       	ldi	r22, 0x02	; 2
    66f2:	70 e0       	ldi	r23, 0x00	; 0
    66f4:	80 e0       	ldi	r24, 0x00	; 0
    66f6:	90 e0       	ldi	r25, 0x00	; 0
    66f8:	0e 94 96 00 	call	0x12c	; 0x12c <MFGetAD>
    66fc:	6c 51       	subi	r22, 0x1C	; 28
    66fe:	70 40       	sbci	r23, 0x00	; 0
    6700:	ce 01       	movw	r24, r28
    6702:	3c 2f       	mov	r19, r28
    6704:	29 2f       	mov	r18, r25
    6706:	6c 17       	cp	r22, r28
    6708:	7d 07       	cpc	r23, r29
    670a:	1c f4       	brge	.+6      	; 0x6712 <main+0x506>
    670c:	cb 01       	movw	r24, r22
    670e:	36 2f       	mov	r19, r22
    6710:	29 2f       	mov	r18, r25
    6712:	83 2f       	mov	r24, r19
    6714:	92 2f       	mov	r25, r18
    6716:	08 17       	cp	r16, r24
    6718:	19 07       	cpc	r17, r25
    671a:	0c f4       	brge	.+2      	; 0x671e <main+0x512>
    671c:	c8 01       	movw	r24, r16
    671e:	80 17       	cp	r24, r16
    6720:	91 07       	cpc	r25, r17
    6722:	09 f0       	breq	.+2      	; 0x6726 <main+0x51a>
    6724:	52 cf       	rjmp	.-348    	; 0x65ca <main+0x3be>
    6726:	56 cf       	rjmp	.-340    	; 0x65d4 <main+0x3c8>
    6728:	61 e0       	ldi	r22, 0x01	; 1
    672a:	70 e0       	ldi	r23, 0x00	; 0
    672c:	80 e0       	ldi	r24, 0x00	; 0
    672e:	90 e0       	ldi	r25, 0x00	; 0
    6730:	0e 94 96 00 	call	0x12c	; 0x12c <MFGetAD>
    6734:	68 50       	subi	r22, 0x08	; 8
    6736:	70 40       	sbci	r23, 0x00	; 0
    6738:	80 40       	sbci	r24, 0x00	; 0
    673a:	90 40       	sbci	r25, 0x00	; 0
    673c:	20 91 a0 08 	lds	r18, 0x08A0
    6740:	30 91 a1 08 	lds	r19, 0x08A1
    6744:	44 27       	eor	r20, r20
    6746:	37 fd       	sbrc	r19, 7
    6748:	40 95       	com	r20
    674a:	54 2f       	mov	r21, r20
    674c:	26 17       	cp	r18, r22
    674e:	37 07       	cpc	r19, r23
    6750:	48 07       	cpc	r20, r24
    6752:	59 07       	cpc	r21, r25
    6754:	0c f4       	brge	.+2      	; 0x6758 <main+0x54c>
    6756:	d4 cd       	rjmp	.-1112   	; 0x6300 <main+0xf4>
    6758:	66 cf       	rjmp	.-308    	; 0x6626 <main+0x41a>
    675a:	61 e0       	ldi	r22, 0x01	; 1
    675c:	70 e0       	ldi	r23, 0x00	; 0
    675e:	80 e0       	ldi	r24, 0x00	; 0
    6760:	90 e0       	ldi	r25, 0x00	; 0
    6762:	0e 94 96 00 	call	0x12c	; 0x12c <MFGetAD>
    6766:	68 50       	subi	r22, 0x08	; 8
    6768:	70 40       	sbci	r23, 0x00	; 0
    676a:	80 40       	sbci	r24, 0x00	; 0
    676c:	90 40       	sbci	r25, 0x00	; 0
    676e:	20 91 a0 08 	lds	r18, 0x08A0
    6772:	30 91 a1 08 	lds	r19, 0x08A1
    6776:	44 27       	eor	r20, r20
    6778:	37 fd       	sbrc	r19, 7
    677a:	40 95       	com	r20
    677c:	54 2f       	mov	r21, r20
    677e:	26 17       	cp	r18, r22
    6780:	37 07       	cpc	r19, r23
    6782:	48 07       	cpc	r20, r24
    6784:	59 07       	cpc	r21, r25
    6786:	0c f4       	brge	.+2      	; 0x678a <main+0x57e>
    6788:	bb cd       	rjmp	.-1162   	; 0x6300 <main+0xf4>
    678a:	52 cf       	rjmp	.-348    	; 0x6630 <main+0x424>

0000678c <ConversionRelPosition>:
    678c:	ef 92       	push	r14
    678e:	ff 92       	push	r15
    6790:	0f 93       	push	r16
    6792:	1f 93       	push	r17
    6794:	df 93       	push	r29
    6796:	cf 93       	push	r28
    6798:	0f 92       	push	r0
    679a:	cd b7       	in	r28, 0x3d	; 61
    679c:	de b7       	in	r29, 0x3e	; 62
    679e:	28 2f       	mov	r18, r24
    67a0:	8b 01       	movw	r16, r22
    67a2:	7a 01       	movw	r14, r20
    67a4:	19 82       	std	Y+1, r1	; 0x01
    67a6:	e0 91 71 06 	lds	r30, 0x0671
    67aa:	f0 91 72 06 	lds	r31, 0x0672
    67ae:	80 91 4c 06 	lds	r24, 0x064C
    67b2:	90 91 4d 06 	lds	r25, 0x064D
    67b6:	60 91 4e 06 	lds	r22, 0x064E
    67ba:	42 2f       	mov	r20, r18
    67bc:	9e 01       	movw	r18, r28
    67be:	2f 5f       	subi	r18, 0xFF	; 255
    67c0:	3f 4f       	sbci	r19, 0xFF	; 255
    67c2:	09 95       	icall
    67c4:	81 30       	cpi	r24, 0x01	; 1
    67c6:	11 f0       	breq	.+4      	; 0x67cc <ConversionRelPosition+0x40>
    67c8:	80 e0       	ldi	r24, 0x00	; 0
    67ca:	28 c0       	rjmp	.+80     	; 0x681c <ConversionRelPosition+0x90>
    67cc:	89 81       	ldd	r24, Y+1	; 0x01
    67ce:	90 e0       	ldi	r25, 0x00	; 0
    67d0:	fc 01       	movw	r30, r24
    67d2:	ee 51       	subi	r30, 0x1E	; 30
    67d4:	f7 4f       	sbci	r31, 0xF7	; 247
    67d6:	20 81       	ld	r18, Z
    67d8:	fc 01       	movw	r30, r24
    67da:	ee 0f       	add	r30, r30
    67dc:	ff 1f       	adc	r31, r31
    67de:	22 23       	and	r18, r18
    67e0:	39 f4       	brne	.+14     	; 0x67f0 <ConversionRelPosition+0x64>
    67e2:	ee 55       	subi	r30, 0x5E	; 94
    67e4:	f7 4f       	sbci	r31, 0xF7	; 247
    67e6:	80 81       	ld	r24, Z
    67e8:	91 81       	ldd	r25, Z+1	; 0x01
    67ea:	80 1b       	sub	r24, r16
    67ec:	91 0b       	sbc	r25, r17
    67ee:	06 c0       	rjmp	.+12     	; 0x67fc <ConversionRelPosition+0x70>
    67f0:	ee 55       	subi	r30, 0x5E	; 94
    67f2:	f7 4f       	sbci	r31, 0xF7	; 247
    67f4:	80 81       	ld	r24, Z
    67f6:	91 81       	ldd	r25, Z+1	; 0x01
    67f8:	80 0f       	add	r24, r16
    67fa:	91 1f       	adc	r25, r17
    67fc:	a0 e0       	ldi	r26, 0x00	; 0
    67fe:	b0 e0       	ldi	r27, 0x00	; 0
    6800:	80 30       	cpi	r24, 0x00	; 0
    6802:	24 e0       	ldi	r18, 0x04	; 4
    6804:	92 07       	cpc	r25, r18
    6806:	20 e0       	ldi	r18, 0x00	; 0
    6808:	a2 07       	cpc	r26, r18
    680a:	20 e0       	ldi	r18, 0x00	; 0
    680c:	b2 07       	cpc	r27, r18
    680e:	14 f0       	brlt	.+4      	; 0x6814 <ConversionRelPosition+0x88>
    6810:	8f ef       	ldi	r24, 0xFF	; 255
    6812:	93 e0       	ldi	r25, 0x03	; 3
    6814:	f7 01       	movw	r30, r14
    6816:	91 83       	std	Z+1, r25	; 0x01
    6818:	80 83       	st	Z, r24
    681a:	81 e0       	ldi	r24, 0x01	; 1
    681c:	0f 90       	pop	r0
    681e:	cf 91       	pop	r28
    6820:	df 91       	pop	r29
    6822:	1f 91       	pop	r17
    6824:	0f 91       	pop	r16
    6826:	ff 90       	pop	r15
    6828:	ef 90       	pop	r14
    682a:	08 95       	ret

0000682c <ControlSynchronous4Dof>:
    682c:	2f 92       	push	r2
    682e:	3f 92       	push	r3
    6830:	4f 92       	push	r4
    6832:	5f 92       	push	r5
    6834:	6f 92       	push	r6
    6836:	7f 92       	push	r7
    6838:	9f 92       	push	r9
    683a:	af 92       	push	r10
    683c:	bf 92       	push	r11
    683e:	cf 92       	push	r12
    6840:	df 92       	push	r13
    6842:	ef 92       	push	r14
    6844:	ff 92       	push	r15
    6846:	0f 93       	push	r16
    6848:	1f 93       	push	r17
    684a:	df 93       	push	r29
    684c:	cf 93       	push	r28
    684e:	cd b7       	in	r28, 0x3d	; 61
    6850:	de b7       	in	r29, 0x3e	; 62
    6852:	66 97       	sbiw	r28, 0x16	; 22
    6854:	0f b6       	in	r0, 0x3f	; 63
    6856:	f8 94       	cli
    6858:	de bf       	out	0x3e, r29	; 62
    685a:	0f be       	out	0x3f, r0	; 63
    685c:	cd bf       	out	0x3d, r28	; 61
    685e:	9c 8b       	std	Y+20, r25	; 0x14
    6860:	8b 8b       	std	Y+19, r24	; 0x13
    6862:	96 2e       	mov	r9, r22
    6864:	5a 01       	movw	r10, r20
    6866:	3e 8b       	std	Y+22, r19	; 0x16
    6868:	2d 8b       	std	Y+21, r18	; 0x15
    686a:	1a 82       	std	Y+2, r1	; 0x02
    686c:	19 82       	std	Y+1, r1	; 0x01
    686e:	88 e0       	ldi	r24, 0x08	; 8
    6870:	de 01       	movw	r26, r28
    6872:	13 96       	adiw	r26, 0x03	; 3
    6874:	fd 01       	movw	r30, r26
    6876:	98 2f       	mov	r25, r24
    6878:	11 92       	st	Z+, r1
    687a:	9a 95       	dec	r25
    687c:	e9 f7       	brne	.-6      	; 0x6878 <ControlSynchronous4Dof+0x4c>
    687e:	9e 01       	movw	r18, r28
    6880:	25 5f       	subi	r18, 0xF5	; 245
    6882:	3f 4f       	sbci	r19, 0xFF	; 255
    6884:	f9 01       	movw	r30, r18
    6886:	11 92       	st	Z+, r1
    6888:	8a 95       	dec	r24
    688a:	e9 f7       	brne	.-6      	; 0x6886 <ControlSynchronous4Dof+0x5a>
    688c:	d6 2e       	mov	r13, r22
    688e:	ee 24       	eor	r14, r14
    6890:	ff 24       	eor	r15, r15
    6892:	1e 01       	movw	r2, r28
    6894:	08 94       	sec
    6896:	21 1c       	adc	r2, r1
    6898:	31 1c       	adc	r3, r1
    689a:	2d 01       	movw	r4, r26
    689c:	39 01       	movw	r6, r18
    689e:	eb 89       	ldd	r30, Y+19	; 0x13
    68a0:	fc 89       	ldd	r31, Y+20	; 0x14
    68a2:	ee 0d       	add	r30, r14
    68a4:	ff 1d       	adc	r31, r15
    68a6:	60 81       	ld	r22, Z
    68a8:	71 81       	ldd	r23, Z+1	; 0x01
    68aa:	8d 2d       	mov	r24, r13
    68ac:	a1 01       	movw	r20, r2
    68ae:	0e 94 c6 33 	call	0x678c	; 0x678c <ConversionRelPosition>
    68b2:	69 81       	ldd	r22, Y+1	; 0x01
    68b4:	7a 81       	ldd	r23, Y+2	; 0x02
    68b6:	92 01       	movw	r18, r4
    68b8:	2e 0d       	add	r18, r14
    68ba:	3f 1d       	adc	r19, r15
    68bc:	83 01       	movw	r16, r6
    68be:	0e 0d       	add	r16, r14
    68c0:	1f 1d       	adc	r17, r15
    68c2:	e0 91 e4 03 	lds	r30, 0x03E4
    68c6:	f0 91 e5 03 	lds	r31, 0x03E5
    68ca:	8d 2d       	mov	r24, r13
    68cc:	a5 01       	movw	r20, r10
    68ce:	09 95       	icall
    68d0:	82 e0       	ldi	r24, 0x02	; 2
    68d2:	90 e0       	ldi	r25, 0x00	; 0
    68d4:	e8 0e       	add	r14, r24
    68d6:	f9 1e       	adc	r15, r25
    68d8:	d3 94       	inc	r13
    68da:	98 e0       	ldi	r25, 0x08	; 8
    68dc:	e9 16       	cp	r14, r25
    68de:	f1 04       	cpc	r15, r1
    68e0:	f1 f6       	brne	.-68     	; 0x689e <ControlSynchronous4Dof+0x72>
    68e2:	4d 85       	ldd	r20, Y+13	; 0x0d
    68e4:	5e 85       	ldd	r21, Y+14	; 0x0e
    68e6:	8b 85       	ldd	r24, Y+11	; 0x0b
    68e8:	9c 85       	ldd	r25, Y+12	; 0x0c
    68ea:	9c 01       	movw	r18, r24
    68ec:	24 17       	cp	r18, r20
    68ee:	35 07       	cpc	r19, r21
    68f0:	08 f4       	brcc	.+2      	; 0x68f4 <ControlSynchronous4Dof+0xc8>
    68f2:	9a 01       	movw	r18, r20
    68f4:	8f 85       	ldd	r24, Y+15	; 0x0f
    68f6:	98 89       	ldd	r25, Y+16	; 0x10
    68f8:	28 17       	cp	r18, r24
    68fa:	39 07       	cpc	r19, r25
    68fc:	08 f4       	brcc	.+2      	; 0x6900 <ControlSynchronous4Dof+0xd4>
    68fe:	9c 01       	movw	r18, r24
    6900:	89 89       	ldd	r24, Y+17	; 0x11
    6902:	9a 89       	ldd	r25, Y+18	; 0x12
    6904:	59 01       	movw	r10, r18
    6906:	28 17       	cp	r18, r24
    6908:	39 07       	cpc	r19, r25
    690a:	08 f4       	brcc	.+2      	; 0x690e <ControlSynchronous4Dof+0xe2>
    690c:	5c 01       	movw	r10, r24
    690e:	ed 89       	ldd	r30, Y+21	; 0x15
    6910:	fe 89       	ldd	r31, Y+22	; 0x16
    6912:	b1 82       	std	Z+1, r11	; 0x01
    6914:	a0 82       	st	Z, r10
    6916:	23 e0       	ldi	r18, 0x03	; 3
    6918:	c2 2e       	mov	r12, r18
    691a:	d1 2c       	mov	r13, r1
    691c:	cc 0e       	add	r12, r28
    691e:	dd 1e       	adc	r13, r29
    6920:	ee 24       	eor	r14, r14
    6922:	ff 24       	eor	r15, r15
    6924:	2e 01       	movw	r4, r28
    6926:	08 94       	sec
    6928:	41 1c       	adc	r4, r1
    692a:	51 1c       	adc	r5, r1
    692c:	9b e0       	ldi	r25, 0x0B	; 11
    692e:	69 2e       	mov	r6, r25
    6930:	71 2c       	mov	r7, r1
    6932:	6c 0e       	add	r6, r28
    6934:	7d 1e       	adc	r7, r29
    6936:	eb 89       	ldd	r30, Y+19	; 0x13
    6938:	fc 89       	ldd	r31, Y+20	; 0x14
    693a:	ee 0d       	add	r30, r14
    693c:	ff 1d       	adc	r31, r15
    693e:	60 81       	ld	r22, Z
    6940:	71 81       	ldd	r23, Z+1	; 0x01
    6942:	89 2d       	mov	r24, r9
    6944:	a2 01       	movw	r20, r4
    6946:	0e 94 c6 33 	call	0x678c	; 0x678c <ConversionRelPosition>
    694a:	69 81       	ldd	r22, Y+1	; 0x01
    694c:	7a 81       	ldd	r23, Y+2	; 0x02
    694e:	83 01       	movw	r16, r6
    6950:	0e 0d       	add	r16, r14
    6952:	1f 1d       	adc	r17, r15
    6954:	e0 91 e4 03 	lds	r30, 0x03E4
    6958:	f0 91 e5 03 	lds	r31, 0x03E5
    695c:	89 2d       	mov	r24, r9
    695e:	a5 01       	movw	r20, r10
    6960:	96 01       	movw	r18, r12
    6962:	09 95       	icall
    6964:	f6 01       	movw	r30, r12
    6966:	40 81       	ld	r20, Z
    6968:	51 81       	ldd	r21, Z+1	; 0x01
    696a:	41 15       	cp	r20, r1
    696c:	51 05       	cpc	r21, r1
    696e:	41 f0       	breq	.+16     	; 0x6980 <ControlSynchronous4Dof+0x154>
    6970:	69 81       	ldd	r22, Y+1	; 0x01
    6972:	7a 81       	ldd	r23, Y+2	; 0x02
    6974:	e0 91 cc 03 	lds	r30, 0x03CC
    6978:	f0 91 cd 03 	lds	r31, 0x03CD
    697c:	89 2d       	mov	r24, r9
    697e:	09 95       	icall
    6980:	82 e0       	ldi	r24, 0x02	; 2
    6982:	90 e0       	ldi	r25, 0x00	; 0
    6984:	e8 0e       	add	r14, r24
    6986:	f9 1e       	adc	r15, r25
    6988:	93 94       	inc	r9
    698a:	c8 0e       	add	r12, r24
    698c:	d9 1e       	adc	r13, r25
    698e:	98 e0       	ldi	r25, 0x08	; 8
    6990:	e9 16       	cp	r14, r25
    6992:	f1 04       	cpc	r15, r1
    6994:	81 f6       	brne	.-96     	; 0x6936 <ControlSynchronous4Dof+0x10a>
    6996:	66 96       	adiw	r28, 0x16	; 22
    6998:	0f b6       	in	r0, 0x3f	; 63
    699a:	f8 94       	cli
    699c:	de bf       	out	0x3e, r29	; 62
    699e:	0f be       	out	0x3f, r0	; 63
    69a0:	cd bf       	out	0x3d, r28	; 61
    69a2:	cf 91       	pop	r28
    69a4:	df 91       	pop	r29
    69a6:	1f 91       	pop	r17
    69a8:	0f 91       	pop	r16
    69aa:	ff 90       	pop	r15
    69ac:	ef 90       	pop	r14
    69ae:	df 90       	pop	r13
    69b0:	cf 90       	pop	r12
    69b2:	bf 90       	pop	r11
    69b4:	af 90       	pop	r10
    69b6:	9f 90       	pop	r9
    69b8:	7f 90       	pop	r7
    69ba:	6f 90       	pop	r6
    69bc:	5f 90       	pop	r5
    69be:	4f 90       	pop	r4
    69c0:	3f 90       	pop	r3
    69c2:	2f 90       	pop	r2
    69c4:	08 95       	ret

000069c6 <ControlSynchronous1Dof>:
    69c6:	cf 92       	push	r12
    69c8:	df 92       	push	r13
    69ca:	ff 92       	push	r15
    69cc:	0f 93       	push	r16
    69ce:	1f 93       	push	r17
    69d0:	df 93       	push	r29
    69d2:	cf 93       	push	r28
    69d4:	00 d0       	rcall	.+0      	; 0x69d6 <ControlSynchronous1Dof+0x10>
    69d6:	00 d0       	rcall	.+0      	; 0x69d8 <ControlSynchronous1Dof+0x12>
    69d8:	00 d0       	rcall	.+0      	; 0x69da <ControlSynchronous1Dof+0x14>
    69da:	cd b7       	in	r28, 0x3d	; 61
    69dc:	de b7       	in	r29, 0x3e	; 62
    69de:	fc 01       	movw	r30, r24
    69e0:	f6 2e       	mov	r15, r22
    69e2:	8a 01       	movw	r16, r20
    69e4:	69 01       	movw	r12, r18
    69e6:	1a 82       	std	Y+2, r1	; 0x02
    69e8:	19 82       	std	Y+1, r1	; 0x01
    69ea:	1c 82       	std	Y+4, r1	; 0x04
    69ec:	1b 82       	std	Y+3, r1	; 0x03
    69ee:	1e 82       	std	Y+6, r1	; 0x06
    69f0:	1d 82       	std	Y+5, r1	; 0x05
    69f2:	86 2f       	mov	r24, r22
    69f4:	bf 01       	movw	r22, r30
    69f6:	ae 01       	movw	r20, r28
    69f8:	4f 5f       	subi	r20, 0xFF	; 255
    69fa:	5f 4f       	sbci	r21, 0xFF	; 255
    69fc:	0e 94 c6 33 	call	0x678c	; 0x678c <ConversionRelPosition>
    6a00:	69 81       	ldd	r22, Y+1	; 0x01
    6a02:	7a 81       	ldd	r23, Y+2	; 0x02
    6a04:	e0 91 e4 03 	lds	r30, 0x03E4
    6a08:	f0 91 e5 03 	lds	r31, 0x03E5
    6a0c:	8f 2d       	mov	r24, r15
    6a0e:	a8 01       	movw	r20, r16
    6a10:	9e 01       	movw	r18, r28
    6a12:	2d 5f       	subi	r18, 0xFD	; 253
    6a14:	3f 4f       	sbci	r19, 0xFF	; 255
    6a16:	8e 01       	movw	r16, r28
    6a18:	0b 5f       	subi	r16, 0xFB	; 251
    6a1a:	1f 4f       	sbci	r17, 0xFF	; 255
    6a1c:	09 95       	icall
    6a1e:	4b 81       	ldd	r20, Y+3	; 0x03
    6a20:	5c 81       	ldd	r21, Y+4	; 0x04
    6a22:	41 15       	cp	r20, r1
    6a24:	51 05       	cpc	r21, r1
    6a26:	41 f0       	breq	.+16     	; 0x6a38 <ControlSynchronous1Dof+0x72>
    6a28:	69 81       	ldd	r22, Y+1	; 0x01
    6a2a:	7a 81       	ldd	r23, Y+2	; 0x02
    6a2c:	e0 91 cc 03 	lds	r30, 0x03CC
    6a30:	f0 91 cd 03 	lds	r31, 0x03CD
    6a34:	8f 2d       	mov	r24, r15
    6a36:	09 95       	icall
    6a38:	8d 81       	ldd	r24, Y+5	; 0x05
    6a3a:	9e 81       	ldd	r25, Y+6	; 0x06
    6a3c:	f6 01       	movw	r30, r12
    6a3e:	91 83       	std	Z+1, r25	; 0x01
    6a40:	80 83       	st	Z, r24
    6a42:	26 96       	adiw	r28, 0x06	; 6
    6a44:	0f b6       	in	r0, 0x3f	; 63
    6a46:	f8 94       	cli
    6a48:	de bf       	out	0x3e, r29	; 62
    6a4a:	0f be       	out	0x3f, r0	; 63
    6a4c:	cd bf       	out	0x3d, r28	; 61
    6a4e:	cf 91       	pop	r28
    6a50:	df 91       	pop	r29
    6a52:	1f 91       	pop	r17
    6a54:	0f 91       	pop	r16
    6a56:	ff 90       	pop	r15
    6a58:	df 90       	pop	r13
    6a5a:	cf 90       	pop	r12
    6a5c:	08 95       	ret

00006a5e <SlowlyWalk>:
    6a5e:	0f 93       	push	r16
    6a60:	1f 93       	push	r17
    6a62:	df 93       	push	r29
    6a64:	cf 93       	push	r28
    6a66:	00 d0       	rcall	.+0      	; 0x6a68 <SlowlyWalk+0xa>
    6a68:	0f 92       	push	r0
    6a6a:	cd b7       	in	r28, 0x3d	; 61
    6a6c:	de b7       	in	r29, 0x3e	; 62
    6a6e:	1b 82       	std	Y+3, r1	; 0x03
    6a70:	1a 82       	std	Y+2, r1	; 0x02
    6a72:	19 82       	std	Y+1, r1	; 0x01
    6a74:	e0 91 2a 04 	lds	r30, 0x042A
    6a78:	f0 91 2b 04 	lds	r31, 0x042B
    6a7c:	80 e1       	ldi	r24, 0x10	; 16
    6a7e:	be 01       	movw	r22, r28
    6a80:	6f 5f       	subi	r22, 0xFF	; 255
    6a82:	7f 4f       	sbci	r23, 0xFF	; 255
    6a84:	09 95       	icall
    6a86:	e9 81       	ldd	r30, Y+1	; 0x01
    6a88:	f0 e0       	ldi	r31, 0x00	; 0
    6a8a:	ee 55       	subi	r30, 0x5E	; 94
    6a8c:	f4 4f       	sbci	r31, 0xF4	; 244
    6a8e:	e0 81       	ld	r30, Z
    6a90:	e1 30       	cpi	r30, 0x01	; 1
    6a92:	09 f4       	brne	.+2      	; 0x6a96 <SlowlyWalk+0x38>
    6a94:	77 c0       	rjmp	.+238    	; 0x6b84 <SlowlyWalk+0x126>
    6a96:	e1 30       	cpi	r30, 0x01	; 1
    6a98:	38 f0       	brcs	.+14     	; 0x6aa8 <SlowlyWalk+0x4a>
    6a9a:	e2 30       	cpi	r30, 0x02	; 2
    6a9c:	09 f4       	brne	.+2      	; 0x6aa0 <SlowlyWalk+0x42>
    6a9e:	e0 c0       	rjmp	.+448    	; 0x6c60 <SlowlyWalk+0x202>
    6aa0:	e3 30       	cpi	r30, 0x03	; 3
    6aa2:	09 f0       	breq	.+2      	; 0x6aa6 <SlowlyWalk+0x48>
    6aa4:	b9 c1       	rjmp	.+882    	; 0x6e18 <SlowlyWalk+0x3ba>
    6aa6:	4a c1       	rjmp	.+660    	; 0x6d3c <SlowlyWalk+0x2de>
    6aa8:	8e 01       	movw	r16, r28
    6aaa:	0e 5f       	subi	r16, 0xFE	; 254
    6aac:	1f 4f       	sbci	r17, 0xFF	; 255
    6aae:	86 e4       	ldi	r24, 0x46	; 70
    6ab0:	9c e0       	ldi	r25, 0x0C	; 12
    6ab2:	6b e0       	ldi	r22, 0x0B	; 11
    6ab4:	44 ef       	ldi	r20, 0xF4	; 244
    6ab6:	51 e0       	ldi	r21, 0x01	; 1
    6ab8:	98 01       	movw	r18, r16
    6aba:	0e 94 16 34 	call	0x682c	; 0x682c <ControlSynchronous4Dof>
    6abe:	86 e2       	ldi	r24, 0x26	; 38
    6ac0:	9c e0       	ldi	r25, 0x0C	; 12
    6ac2:	65 e1       	ldi	r22, 0x15	; 21
    6ac4:	44 ef       	ldi	r20, 0xF4	; 244
    6ac6:	51 e0       	ldi	r21, 0x01	; 1
    6ac8:	98 01       	movw	r18, r16
    6aca:	0e 94 16 34 	call	0x682c	; 0x682c <ControlSynchronous4Dof>
    6ace:	8e ed       	ldi	r24, 0xDE	; 222
    6ad0:	9b e0       	ldi	r25, 0x0B	; 11
    6ad2:	6f e1       	ldi	r22, 0x1F	; 31
    6ad4:	48 ec       	ldi	r20, 0xC8	; 200
    6ad6:	50 e0       	ldi	r21, 0x00	; 0
    6ad8:	98 01       	movw	r18, r16
    6ada:	0e 94 16 34 	call	0x682c	; 0x682c <ControlSynchronous4Dof>
    6ade:	8e eb       	ldi	r24, 0xBE	; 190
    6ae0:	9b e0       	ldi	r25, 0x0B	; 11
    6ae2:	69 e2       	ldi	r22, 0x29	; 41
    6ae4:	44 ef       	ldi	r20, 0xF4	; 244
    6ae6:	51 e0       	ldi	r21, 0x01	; 1
    6ae8:	98 01       	movw	r18, r16
    6aea:	0e 94 16 34 	call	0x682c	; 0x682c <ControlSynchronous4Dof>
    6aee:	e0 91 e0 03 	lds	r30, 0x03E0
    6af2:	f0 91 e1 03 	lds	r31, 0x03E1
    6af6:	09 95       	icall
    6af8:	e0 91 59 07 	lds	r30, 0x0759
    6afc:	f0 91 5a 07 	lds	r31, 0x075A
    6b00:	80 e0       	ldi	r24, 0x00	; 0
    6b02:	09 95       	icall
    6b04:	80 ed       	ldi	r24, 0xD0	; 208
    6b06:	97 e0       	ldi	r25, 0x07	; 7
    6b08:	20 e9       	ldi	r18, 0x90	; 144
    6b0a:	31 e0       	ldi	r19, 0x01	; 1
    6b0c:	f9 01       	movw	r30, r18
    6b0e:	31 97       	sbiw	r30, 0x01	; 1
    6b10:	f1 f7       	brne	.-4      	; 0x6b0e <SlowlyWalk+0xb0>
    6b12:	01 97       	sbiw	r24, 0x01	; 1
    6b14:	d9 f7       	brne	.-10     	; 0x6b0c <SlowlyWalk+0xae>
    6b16:	86 ed       	ldi	r24, 0xD6	; 214
    6b18:	9b e0       	ldi	r25, 0x0B	; 11
    6b1a:	6f e1       	ldi	r22, 0x1F	; 31
    6b1c:	44 e6       	ldi	r20, 0x64	; 100
    6b1e:	50 e0       	ldi	r21, 0x00	; 0
    6b20:	9e 01       	movw	r18, r28
    6b22:	2e 5f       	subi	r18, 0xFE	; 254
    6b24:	3f 4f       	sbci	r19, 0xFF	; 255
    6b26:	0e 94 16 34 	call	0x682c	; 0x682c <ControlSynchronous4Dof>
    6b2a:	e0 91 e0 03 	lds	r30, 0x03E0
    6b2e:	f0 91 e1 03 	lds	r31, 0x03E1
    6b32:	09 95       	icall
    6b34:	88 ee       	ldi	r24, 0xE8	; 232
    6b36:	93 e0       	ldi	r25, 0x03	; 3
    6b38:	20 e9       	ldi	r18, 0x90	; 144
    6b3a:	31 e0       	ldi	r19, 0x01	; 1
    6b3c:	f9 01       	movw	r30, r18
    6b3e:	31 97       	sbiw	r30, 0x01	; 1
    6b40:	f1 f7       	brne	.-4      	; 0x6b3e <SlowlyWalk+0xe0>
    6b42:	01 97       	sbiw	r24, 0x01	; 1
    6b44:	d9 f7       	brne	.-10     	; 0x6b3c <SlowlyWalk+0xde>
    6b46:	8e ef       	ldi	r24, 0xFE	; 254
    6b48:	9b e0       	ldi	r25, 0x0B	; 11
    6b4a:	6f e1       	ldi	r22, 0x1F	; 31
    6b4c:	48 ec       	ldi	r20, 0xC8	; 200
    6b4e:	50 e0       	ldi	r21, 0x00	; 0
    6b50:	9e 01       	movw	r18, r28
    6b52:	2e 5f       	subi	r18, 0xFE	; 254
    6b54:	3f 4f       	sbci	r19, 0xFF	; 255
    6b56:	0e 94 16 34 	call	0x682c	; 0x682c <ControlSynchronous4Dof>
    6b5a:	e0 91 e0 03 	lds	r30, 0x03E0
    6b5e:	f0 91 e1 03 	lds	r31, 0x03E1
    6b62:	09 95       	icall
    6b64:	80 ed       	ldi	r24, 0xD0	; 208
    6b66:	97 e0       	ldi	r25, 0x07	; 7
    6b68:	20 e9       	ldi	r18, 0x90	; 144
    6b6a:	31 e0       	ldi	r19, 0x01	; 1
    6b6c:	f9 01       	movw	r30, r18
    6b6e:	31 97       	sbiw	r30, 0x01	; 1
    6b70:	f1 f7       	brne	.-4      	; 0x6b6e <SlowlyWalk+0x110>
    6b72:	01 97       	sbiw	r24, 0x01	; 1
    6b74:	d9 f7       	brne	.-10     	; 0x6b6c <SlowlyWalk+0x10e>
    6b76:	e0 91 28 04 	lds	r30, 0x0428
    6b7a:	f0 91 29 04 	lds	r31, 0x0429
    6b7e:	80 e1       	ldi	r24, 0x10	; 16
    6b80:	60 e0       	ldi	r22, 0x00	; 0
    6b82:	49 c1       	rjmp	.+658    	; 0x6e16 <SlowlyWalk+0x3b8>
    6b84:	8e 01       	movw	r16, r28
    6b86:	0e 5f       	subi	r16, 0xFE	; 254
    6b88:	1f 4f       	sbci	r17, 0xFF	; 255
    6b8a:	8e e3       	ldi	r24, 0x3E	; 62
    6b8c:	9c e0       	ldi	r25, 0x0C	; 12
    6b8e:	6b e0       	ldi	r22, 0x0B	; 11
    6b90:	48 ec       	ldi	r20, 0xC8	; 200
    6b92:	50 e0       	ldi	r21, 0x00	; 0
    6b94:	98 01       	movw	r18, r16
    6b96:	0e 94 16 34 	call	0x682c	; 0x682c <ControlSynchronous4Dof>
    6b9a:	8e e1       	ldi	r24, 0x1E	; 30
    6b9c:	9c e0       	ldi	r25, 0x0C	; 12
    6b9e:	65 e1       	ldi	r22, 0x15	; 21
    6ba0:	44 ef       	ldi	r20, 0xF4	; 244
    6ba2:	51 e0       	ldi	r21, 0x01	; 1
    6ba4:	98 01       	movw	r18, r16
    6ba6:	0e 94 16 34 	call	0x682c	; 0x682c <ControlSynchronous4Dof>
    6baa:	86 ef       	ldi	r24, 0xF6	; 246
    6bac:	9b e0       	ldi	r25, 0x0B	; 11
    6bae:	6f e1       	ldi	r22, 0x1F	; 31
    6bb0:	44 ef       	ldi	r20, 0xF4	; 244
    6bb2:	51 e0       	ldi	r21, 0x01	; 1
    6bb4:	98 01       	movw	r18, r16
    6bb6:	0e 94 16 34 	call	0x682c	; 0x682c <ControlSynchronous4Dof>
    6bba:	86 eb       	ldi	r24, 0xB6	; 182
    6bbc:	9b e0       	ldi	r25, 0x0B	; 11
    6bbe:	69 e2       	ldi	r22, 0x29	; 41
    6bc0:	44 ef       	ldi	r20, 0xF4	; 244
    6bc2:	51 e0       	ldi	r21, 0x01	; 1
    6bc4:	98 01       	movw	r18, r16
    6bc6:	0e 94 16 34 	call	0x682c	; 0x682c <ControlSynchronous4Dof>
    6bca:	e0 91 e0 03 	lds	r30, 0x03E0
    6bce:	f0 91 e1 03 	lds	r31, 0x03E1
    6bd2:	09 95       	icall
    6bd4:	e0 91 59 07 	lds	r30, 0x0759
    6bd8:	f0 91 5a 07 	lds	r31, 0x075A
    6bdc:	80 e0       	ldi	r24, 0x00	; 0
    6bde:	09 95       	icall
    6be0:	80 ed       	ldi	r24, 0xD0	; 208
    6be2:	97 e0       	ldi	r25, 0x07	; 7
    6be4:	20 e9       	ldi	r18, 0x90	; 144
    6be6:	31 e0       	ldi	r19, 0x01	; 1
    6be8:	f9 01       	movw	r30, r18
    6bea:	31 97       	sbiw	r30, 0x01	; 1
    6bec:	f1 f7       	brne	.-4      	; 0x6bea <SlowlyWalk+0x18c>
    6bee:	01 97       	sbiw	r24, 0x01	; 1
    6bf0:	d9 f7       	brne	.-10     	; 0x6be8 <SlowlyWalk+0x18a>
    6bf2:	86 e3       	ldi	r24, 0x36	; 54
    6bf4:	9c e0       	ldi	r25, 0x0C	; 12
    6bf6:	6b e0       	ldi	r22, 0x0B	; 11
    6bf8:	44 e6       	ldi	r20, 0x64	; 100
    6bfa:	50 e0       	ldi	r21, 0x00	; 0
    6bfc:	9e 01       	movw	r18, r28
    6bfe:	2e 5f       	subi	r18, 0xFE	; 254
    6c00:	3f 4f       	sbci	r19, 0xFF	; 255
    6c02:	0e 94 16 34 	call	0x682c	; 0x682c <ControlSynchronous4Dof>
    6c06:	e0 91 e0 03 	lds	r30, 0x03E0
    6c0a:	f0 91 e1 03 	lds	r31, 0x03E1
    6c0e:	09 95       	icall
    6c10:	88 ee       	ldi	r24, 0xE8	; 232
    6c12:	93 e0       	ldi	r25, 0x03	; 3
    6c14:	20 e9       	ldi	r18, 0x90	; 144
    6c16:	31 e0       	ldi	r19, 0x01	; 1
    6c18:	f9 01       	movw	r30, r18
    6c1a:	31 97       	sbiw	r30, 0x01	; 1
    6c1c:	f1 f7       	brne	.-4      	; 0x6c1a <SlowlyWalk+0x1bc>
    6c1e:	01 97       	sbiw	r24, 0x01	; 1
    6c20:	d9 f7       	brne	.-10     	; 0x6c18 <SlowlyWalk+0x1ba>
    6c22:	8e e5       	ldi	r24, 0x5E	; 94
    6c24:	9c e0       	ldi	r25, 0x0C	; 12
    6c26:	6b e0       	ldi	r22, 0x0B	; 11
    6c28:	48 ec       	ldi	r20, 0xC8	; 200
    6c2a:	50 e0       	ldi	r21, 0x00	; 0
    6c2c:	9e 01       	movw	r18, r28
    6c2e:	2e 5f       	subi	r18, 0xFE	; 254
    6c30:	3f 4f       	sbci	r19, 0xFF	; 255
    6c32:	0e 94 16 34 	call	0x682c	; 0x682c <ControlSynchronous4Dof>
    6c36:	e0 91 e0 03 	lds	r30, 0x03E0
    6c3a:	f0 91 e1 03 	lds	r31, 0x03E1
    6c3e:	09 95       	icall
    6c40:	80 ed       	ldi	r24, 0xD0	; 208
    6c42:	97 e0       	ldi	r25, 0x07	; 7
    6c44:	20 e9       	ldi	r18, 0x90	; 144
    6c46:	31 e0       	ldi	r19, 0x01	; 1
    6c48:	f9 01       	movw	r30, r18
    6c4a:	31 97       	sbiw	r30, 0x01	; 1
    6c4c:	f1 f7       	brne	.-4      	; 0x6c4a <SlowlyWalk+0x1ec>
    6c4e:	01 97       	sbiw	r24, 0x01	; 1
    6c50:	d9 f7       	brne	.-10     	; 0x6c48 <SlowlyWalk+0x1ea>
    6c52:	e0 91 28 04 	lds	r30, 0x0428
    6c56:	f0 91 29 04 	lds	r31, 0x0429
    6c5a:	80 e1       	ldi	r24, 0x10	; 16
    6c5c:	63 e0       	ldi	r22, 0x03	; 3
    6c5e:	db c0       	rjmp	.+438    	; 0x6e16 <SlowlyWalk+0x3b8>
    6c60:	8e 01       	movw	r16, r28
    6c62:	0e 5f       	subi	r16, 0xFE	; 254
    6c64:	1f 4f       	sbci	r17, 0xFF	; 255
    6c66:	86 e5       	ldi	r24, 0x56	; 86
    6c68:	9c e0       	ldi	r25, 0x0C	; 12
    6c6a:	6b e0       	ldi	r22, 0x0B	; 11
    6c6c:	44 ef       	ldi	r20, 0xF4	; 244
    6c6e:	51 e0       	ldi	r21, 0x01	; 1
    6c70:	98 01       	movw	r18, r16
    6c72:	0e 94 16 34 	call	0x682c	; 0x682c <ControlSynchronous4Dof>
    6c76:	86 e1       	ldi	r24, 0x16	; 22
    6c78:	9c e0       	ldi	r25, 0x0C	; 12
    6c7a:	65 e1       	ldi	r22, 0x15	; 21
    6c7c:	44 ef       	ldi	r20, 0xF4	; 244
    6c7e:	51 e0       	ldi	r21, 0x01	; 1
    6c80:	98 01       	movw	r18, r16
    6c82:	0e 94 16 34 	call	0x682c	; 0x682c <ControlSynchronous4Dof>
    6c86:	8e ee       	ldi	r24, 0xEE	; 238
    6c88:	9b e0       	ldi	r25, 0x0B	; 11
    6c8a:	6f e1       	ldi	r22, 0x1F	; 31
    6c8c:	44 ef       	ldi	r20, 0xF4	; 244
    6c8e:	51 e0       	ldi	r21, 0x01	; 1
    6c90:	98 01       	movw	r18, r16
    6c92:	0e 94 16 34 	call	0x682c	; 0x682c <ControlSynchronous4Dof>
    6c96:	8e ea       	ldi	r24, 0xAE	; 174
    6c98:	9b e0       	ldi	r25, 0x0B	; 11
    6c9a:	69 e2       	ldi	r22, 0x29	; 41
    6c9c:	48 ec       	ldi	r20, 0xC8	; 200
    6c9e:	50 e0       	ldi	r21, 0x00	; 0
    6ca0:	98 01       	movw	r18, r16
    6ca2:	0e 94 16 34 	call	0x682c	; 0x682c <ControlSynchronous4Dof>
    6ca6:	e0 91 e0 03 	lds	r30, 0x03E0
    6caa:	f0 91 e1 03 	lds	r31, 0x03E1
    6cae:	09 95       	icall
    6cb0:	e0 91 59 07 	lds	r30, 0x0759
    6cb4:	f0 91 5a 07 	lds	r31, 0x075A
    6cb8:	80 e0       	ldi	r24, 0x00	; 0
    6cba:	09 95       	icall
    6cbc:	80 ed       	ldi	r24, 0xD0	; 208
    6cbe:	97 e0       	ldi	r25, 0x07	; 7
    6cc0:	20 e9       	ldi	r18, 0x90	; 144
    6cc2:	31 e0       	ldi	r19, 0x01	; 1
    6cc4:	f9 01       	movw	r30, r18
    6cc6:	31 97       	sbiw	r30, 0x01	; 1
    6cc8:	f1 f7       	brne	.-4      	; 0x6cc6 <SlowlyWalk+0x268>
    6cca:	01 97       	sbiw	r24, 0x01	; 1
    6ccc:	d9 f7       	brne	.-10     	; 0x6cc4 <SlowlyWalk+0x266>
    6cce:	86 ea       	ldi	r24, 0xA6	; 166
    6cd0:	9b e0       	ldi	r25, 0x0B	; 11
    6cd2:	69 e2       	ldi	r22, 0x29	; 41
    6cd4:	44 e6       	ldi	r20, 0x64	; 100
    6cd6:	50 e0       	ldi	r21, 0x00	; 0
    6cd8:	9e 01       	movw	r18, r28
    6cda:	2e 5f       	subi	r18, 0xFE	; 254
    6cdc:	3f 4f       	sbci	r19, 0xFF	; 255
    6cde:	0e 94 16 34 	call	0x682c	; 0x682c <ControlSynchronous4Dof>
    6ce2:	e0 91 e0 03 	lds	r30, 0x03E0
    6ce6:	f0 91 e1 03 	lds	r31, 0x03E1
    6cea:	09 95       	icall
    6cec:	88 ee       	ldi	r24, 0xE8	; 232
    6cee:	93 e0       	ldi	r25, 0x03	; 3
    6cf0:	20 e9       	ldi	r18, 0x90	; 144
    6cf2:	31 e0       	ldi	r19, 0x01	; 1
    6cf4:	f9 01       	movw	r30, r18
    6cf6:	31 97       	sbiw	r30, 0x01	; 1
    6cf8:	f1 f7       	brne	.-4      	; 0x6cf6 <SlowlyWalk+0x298>
    6cfa:	01 97       	sbiw	r24, 0x01	; 1
    6cfc:	d9 f7       	brne	.-10     	; 0x6cf4 <SlowlyWalk+0x296>
    6cfe:	8e ec       	ldi	r24, 0xCE	; 206
    6d00:	9b e0       	ldi	r25, 0x0B	; 11
    6d02:	69 e2       	ldi	r22, 0x29	; 41
    6d04:	48 ec       	ldi	r20, 0xC8	; 200
    6d06:	50 e0       	ldi	r21, 0x00	; 0
    6d08:	9e 01       	movw	r18, r28
    6d0a:	2e 5f       	subi	r18, 0xFE	; 254
    6d0c:	3f 4f       	sbci	r19, 0xFF	; 255
    6d0e:	0e 94 16 34 	call	0x682c	; 0x682c <ControlSynchronous4Dof>
    6d12:	e0 91 e0 03 	lds	r30, 0x03E0
    6d16:	f0 91 e1 03 	lds	r31, 0x03E1
    6d1a:	09 95       	icall
    6d1c:	80 ed       	ldi	r24, 0xD0	; 208
    6d1e:	97 e0       	ldi	r25, 0x07	; 7
    6d20:	20 e9       	ldi	r18, 0x90	; 144
    6d22:	31 e0       	ldi	r19, 0x01	; 1
    6d24:	f9 01       	movw	r30, r18
    6d26:	31 97       	sbiw	r30, 0x01	; 1
    6d28:	f1 f7       	brne	.-4      	; 0x6d26 <SlowlyWalk+0x2c8>
    6d2a:	01 97       	sbiw	r24, 0x01	; 1
    6d2c:	d9 f7       	brne	.-10     	; 0x6d24 <SlowlyWalk+0x2c6>
    6d2e:	e0 91 28 04 	lds	r30, 0x0428
    6d32:	f0 91 29 04 	lds	r31, 0x0429
    6d36:	80 e1       	ldi	r24, 0x10	; 16
    6d38:	61 e0       	ldi	r22, 0x01	; 1
    6d3a:	6d c0       	rjmp	.+218    	; 0x6e16 <SlowlyWalk+0x3b8>
    6d3c:	8e 01       	movw	r16, r28
    6d3e:	0e 5f       	subi	r16, 0xFE	; 254
    6d40:	1f 4f       	sbci	r17, 0xFF	; 255
    6d42:	8e e4       	ldi	r24, 0x4E	; 78
    6d44:	9c e0       	ldi	r25, 0x0C	; 12
    6d46:	6b e0       	ldi	r22, 0x0B	; 11
    6d48:	44 ef       	ldi	r20, 0xF4	; 244
    6d4a:	51 e0       	ldi	r21, 0x01	; 1
    6d4c:	98 01       	movw	r18, r16
    6d4e:	0e 94 16 34 	call	0x682c	; 0x682c <ControlSynchronous4Dof>
    6d52:	8e e0       	ldi	r24, 0x0E	; 14
    6d54:	9c e0       	ldi	r25, 0x0C	; 12
    6d56:	65 e1       	ldi	r22, 0x15	; 21
    6d58:	48 ec       	ldi	r20, 0xC8	; 200
    6d5a:	50 e0       	ldi	r21, 0x00	; 0
    6d5c:	98 01       	movw	r18, r16
    6d5e:	0e 94 16 34 	call	0x682c	; 0x682c <ControlSynchronous4Dof>
    6d62:	86 ee       	ldi	r24, 0xE6	; 230
    6d64:	9b e0       	ldi	r25, 0x0B	; 11
    6d66:	6f e1       	ldi	r22, 0x1F	; 31
    6d68:	44 ef       	ldi	r20, 0xF4	; 244
    6d6a:	51 e0       	ldi	r21, 0x01	; 1
    6d6c:	98 01       	movw	r18, r16
    6d6e:	0e 94 16 34 	call	0x682c	; 0x682c <ControlSynchronous4Dof>
    6d72:	86 ec       	ldi	r24, 0xC6	; 198
    6d74:	9b e0       	ldi	r25, 0x0B	; 11
    6d76:	69 e2       	ldi	r22, 0x29	; 41
    6d78:	44 ef       	ldi	r20, 0xF4	; 244
    6d7a:	51 e0       	ldi	r21, 0x01	; 1
    6d7c:	98 01       	movw	r18, r16
    6d7e:	0e 94 16 34 	call	0x682c	; 0x682c <ControlSynchronous4Dof>
    6d82:	e0 91 e0 03 	lds	r30, 0x03E0
    6d86:	f0 91 e1 03 	lds	r31, 0x03E1
    6d8a:	09 95       	icall
    6d8c:	e0 91 59 07 	lds	r30, 0x0759
    6d90:	f0 91 5a 07 	lds	r31, 0x075A
    6d94:	80 e0       	ldi	r24, 0x00	; 0
    6d96:	09 95       	icall
    6d98:	80 ed       	ldi	r24, 0xD0	; 208
    6d9a:	97 e0       	ldi	r25, 0x07	; 7
    6d9c:	20 e9       	ldi	r18, 0x90	; 144
    6d9e:	31 e0       	ldi	r19, 0x01	; 1
    6da0:	f9 01       	movw	r30, r18
    6da2:	31 97       	sbiw	r30, 0x01	; 1
    6da4:	f1 f7       	brne	.-4      	; 0x6da2 <SlowlyWalk+0x344>
    6da6:	01 97       	sbiw	r24, 0x01	; 1
    6da8:	d9 f7       	brne	.-10     	; 0x6da0 <SlowlyWalk+0x342>
    6daa:	86 e0       	ldi	r24, 0x06	; 6
    6dac:	9c e0       	ldi	r25, 0x0C	; 12
    6dae:	65 e1       	ldi	r22, 0x15	; 21
    6db0:	44 e6       	ldi	r20, 0x64	; 100
    6db2:	50 e0       	ldi	r21, 0x00	; 0
    6db4:	9e 01       	movw	r18, r28
    6db6:	2e 5f       	subi	r18, 0xFE	; 254
    6db8:	3f 4f       	sbci	r19, 0xFF	; 255
    6dba:	0e 94 16 34 	call	0x682c	; 0x682c <ControlSynchronous4Dof>
    6dbe:	e0 91 e0 03 	lds	r30, 0x03E0
    6dc2:	f0 91 e1 03 	lds	r31, 0x03E1
    6dc6:	09 95       	icall
    6dc8:	88 ee       	ldi	r24, 0xE8	; 232
    6dca:	93 e0       	ldi	r25, 0x03	; 3
    6dcc:	20 e9       	ldi	r18, 0x90	; 144
    6dce:	31 e0       	ldi	r19, 0x01	; 1
    6dd0:	f9 01       	movw	r30, r18
    6dd2:	31 97       	sbiw	r30, 0x01	; 1
    6dd4:	f1 f7       	brne	.-4      	; 0x6dd2 <SlowlyWalk+0x374>
    6dd6:	01 97       	sbiw	r24, 0x01	; 1
    6dd8:	d9 f7       	brne	.-10     	; 0x6dd0 <SlowlyWalk+0x372>
    6dda:	8e e2       	ldi	r24, 0x2E	; 46
    6ddc:	9c e0       	ldi	r25, 0x0C	; 12
    6dde:	65 e1       	ldi	r22, 0x15	; 21
    6de0:	48 ec       	ldi	r20, 0xC8	; 200
    6de2:	50 e0       	ldi	r21, 0x00	; 0
    6de4:	9e 01       	movw	r18, r28
    6de6:	2e 5f       	subi	r18, 0xFE	; 254
    6de8:	3f 4f       	sbci	r19, 0xFF	; 255
    6dea:	0e 94 16 34 	call	0x682c	; 0x682c <ControlSynchronous4Dof>
    6dee:	e0 91 e0 03 	lds	r30, 0x03E0
    6df2:	f0 91 e1 03 	lds	r31, 0x03E1
    6df6:	09 95       	icall
    6df8:	80 ed       	ldi	r24, 0xD0	; 208
    6dfa:	97 e0       	ldi	r25, 0x07	; 7
    6dfc:	20 e9       	ldi	r18, 0x90	; 144
    6dfe:	31 e0       	ldi	r19, 0x01	; 1
    6e00:	f9 01       	movw	r30, r18
    6e02:	31 97       	sbiw	r30, 0x01	; 1
    6e04:	f1 f7       	brne	.-4      	; 0x6e02 <SlowlyWalk+0x3a4>
    6e06:	01 97       	sbiw	r24, 0x01	; 1
    6e08:	d9 f7       	brne	.-10     	; 0x6e00 <SlowlyWalk+0x3a2>
    6e0a:	e0 91 28 04 	lds	r30, 0x0428
    6e0e:	f0 91 29 04 	lds	r31, 0x0429
    6e12:	80 e1       	ldi	r24, 0x10	; 16
    6e14:	62 e0       	ldi	r22, 0x02	; 2
    6e16:	09 95       	icall
    6e18:	0f 90       	pop	r0
    6e1a:	0f 90       	pop	r0
    6e1c:	0f 90       	pop	r0
    6e1e:	cf 91       	pop	r28
    6e20:	df 91       	pop	r29
    6e22:	1f 91       	pop	r17
    6e24:	0f 91       	pop	r16
    6e26:	08 95       	ret

00006e28 <TurnLeft>:
    6e28:	0f 93       	push	r16
    6e2a:	1f 93       	push	r17
    6e2c:	df 93       	push	r29
    6e2e:	cf 93       	push	r28
    6e30:	00 d0       	rcall	.+0      	; 0x6e32 <TurnLeft+0xa>
    6e32:	0f 92       	push	r0
    6e34:	cd b7       	in	r28, 0x3d	; 61
    6e36:	de b7       	in	r29, 0x3e	; 62
    6e38:	1b 82       	std	Y+3, r1	; 0x03
    6e3a:	1a 82       	std	Y+2, r1	; 0x02
    6e3c:	19 82       	std	Y+1, r1	; 0x01
    6e3e:	e0 91 2a 04 	lds	r30, 0x042A
    6e42:	f0 91 2b 04 	lds	r31, 0x042B
    6e46:	80 e1       	ldi	r24, 0x10	; 16
    6e48:	be 01       	movw	r22, r28
    6e4a:	6f 5f       	subi	r22, 0xFF	; 255
    6e4c:	7f 4f       	sbci	r23, 0xFF	; 255
    6e4e:	09 95       	icall
    6e50:	e9 81       	ldd	r30, Y+1	; 0x01
    6e52:	f0 e0       	ldi	r31, 0x00	; 0
    6e54:	e2 52       	subi	r30, 0x22	; 34
    6e56:	f5 4f       	sbci	r31, 0xF5	; 245
    6e58:	e0 81       	ld	r30, Z
    6e5a:	e1 30       	cpi	r30, 0x01	; 1
    6e5c:	09 f4       	brne	.+2      	; 0x6e60 <TurnLeft+0x38>
    6e5e:	77 c0       	rjmp	.+238    	; 0x6f4e <TurnLeft+0x126>
    6e60:	e1 30       	cpi	r30, 0x01	; 1
    6e62:	38 f0       	brcs	.+14     	; 0x6e72 <TurnLeft+0x4a>
    6e64:	e2 30       	cpi	r30, 0x02	; 2
    6e66:	09 f4       	brne	.+2      	; 0x6e6a <TurnLeft+0x42>
    6e68:	e0 c0       	rjmp	.+448    	; 0x702a <TurnLeft+0x202>
    6e6a:	e3 30       	cpi	r30, 0x03	; 3
    6e6c:	09 f0       	breq	.+2      	; 0x6e70 <TurnLeft+0x48>
    6e6e:	b9 c1       	rjmp	.+882    	; 0x71e2 <TurnLeft+0x3ba>
    6e70:	4a c1       	rjmp	.+660    	; 0x7106 <TurnLeft+0x2de>
    6e72:	8e 01       	movw	r16, r28
    6e74:	0e 5f       	subi	r16, 0xFE	; 254
    6e76:	1f 4f       	sbci	r17, 0xFF	; 255
    6e78:	82 e3       	ldi	r24, 0x32	; 50
    6e7a:	9b e0       	ldi	r25, 0x0B	; 11
    6e7c:	6b e0       	ldi	r22, 0x0B	; 11
    6e7e:	48 e5       	ldi	r20, 0x58	; 88
    6e80:	52 e0       	ldi	r21, 0x02	; 2
    6e82:	98 01       	movw	r18, r16
    6e84:	0e 94 16 34 	call	0x682c	; 0x682c <ControlSynchronous4Dof>
    6e88:	82 e9       	ldi	r24, 0x92	; 146
    6e8a:	9b e0       	ldi	r25, 0x0B	; 11
    6e8c:	65 e1       	ldi	r22, 0x15	; 21
    6e8e:	48 e5       	ldi	r20, 0x58	; 88
    6e90:	52 e0       	ldi	r21, 0x02	; 2
    6e92:	98 01       	movw	r18, r16
    6e94:	0e 94 16 34 	call	0x682c	; 0x682c <ControlSynchronous4Dof>
    6e98:	82 e4       	ldi	r24, 0x42	; 66
    6e9a:	9b e0       	ldi	r25, 0x0B	; 11
    6e9c:	6f e1       	ldi	r22, 0x1F	; 31
    6e9e:	4a ef       	ldi	r20, 0xFA	; 250
    6ea0:	50 e0       	ldi	r21, 0x00	; 0
    6ea2:	98 01       	movw	r18, r16
    6ea4:	0e 94 16 34 	call	0x682c	; 0x682c <ControlSynchronous4Dof>
    6ea8:	82 ef       	ldi	r24, 0xF2	; 242
    6eaa:	9a e0       	ldi	r25, 0x0A	; 10
    6eac:	69 e2       	ldi	r22, 0x29	; 41
    6eae:	48 e5       	ldi	r20, 0x58	; 88
    6eb0:	52 e0       	ldi	r21, 0x02	; 2
    6eb2:	98 01       	movw	r18, r16
    6eb4:	0e 94 16 34 	call	0x682c	; 0x682c <ControlSynchronous4Dof>
    6eb8:	e0 91 e0 03 	lds	r30, 0x03E0
    6ebc:	f0 91 e1 03 	lds	r31, 0x03E1
    6ec0:	09 95       	icall
    6ec2:	e0 91 59 07 	lds	r30, 0x0759
    6ec6:	f0 91 5a 07 	lds	r31, 0x075A
    6eca:	80 e0       	ldi	r24, 0x00	; 0
    6ecc:	09 95       	icall
    6ece:	84 ec       	ldi	r24, 0xC4	; 196
    6ed0:	99 e0       	ldi	r25, 0x09	; 9
    6ed2:	20 e9       	ldi	r18, 0x90	; 144
    6ed4:	31 e0       	ldi	r19, 0x01	; 1
    6ed6:	f9 01       	movw	r30, r18
    6ed8:	31 97       	sbiw	r30, 0x01	; 1
    6eda:	f1 f7       	brne	.-4      	; 0x6ed8 <TurnLeft+0xb0>
    6edc:	01 97       	sbiw	r24, 0x01	; 1
    6ede:	d9 f7       	brne	.-10     	; 0x6ed6 <TurnLeft+0xae>
    6ee0:	8a e4       	ldi	r24, 0x4A	; 74
    6ee2:	9b e0       	ldi	r25, 0x0B	; 11
    6ee4:	6f e1       	ldi	r22, 0x1F	; 31
    6ee6:	44 e6       	ldi	r20, 0x64	; 100
    6ee8:	50 e0       	ldi	r21, 0x00	; 0
    6eea:	9e 01       	movw	r18, r28
    6eec:	2e 5f       	subi	r18, 0xFE	; 254
    6eee:	3f 4f       	sbci	r19, 0xFF	; 255
    6ef0:	0e 94 16 34 	call	0x682c	; 0x682c <ControlSynchronous4Dof>
    6ef4:	e0 91 e0 03 	lds	r30, 0x03E0
    6ef8:	f0 91 e1 03 	lds	r31, 0x03E1
    6efc:	09 95       	icall
    6efe:	88 ee       	ldi	r24, 0xE8	; 232
    6f00:	93 e0       	ldi	r25, 0x03	; 3
    6f02:	20 e9       	ldi	r18, 0x90	; 144
    6f04:	31 e0       	ldi	r19, 0x01	; 1
    6f06:	f9 01       	movw	r30, r18
    6f08:	31 97       	sbiw	r30, 0x01	; 1
    6f0a:	f1 f7       	brne	.-4      	; 0x6f08 <TurnLeft+0xe0>
    6f0c:	01 97       	sbiw	r24, 0x01	; 1
    6f0e:	d9 f7       	brne	.-10     	; 0x6f06 <TurnLeft+0xde>
    6f10:	82 e5       	ldi	r24, 0x52	; 82
    6f12:	9b e0       	ldi	r25, 0x0B	; 11
    6f14:	6f e1       	ldi	r22, 0x1F	; 31
    6f16:	4a ef       	ldi	r20, 0xFA	; 250
    6f18:	50 e0       	ldi	r21, 0x00	; 0
    6f1a:	9e 01       	movw	r18, r28
    6f1c:	2e 5f       	subi	r18, 0xFE	; 254
    6f1e:	3f 4f       	sbci	r19, 0xFF	; 255
    6f20:	0e 94 16 34 	call	0x682c	; 0x682c <ControlSynchronous4Dof>
    6f24:	e0 91 e0 03 	lds	r30, 0x03E0
    6f28:	f0 91 e1 03 	lds	r31, 0x03E1
    6f2c:	09 95       	icall
    6f2e:	84 ec       	ldi	r24, 0xC4	; 196
    6f30:	99 e0       	ldi	r25, 0x09	; 9
    6f32:	20 e9       	ldi	r18, 0x90	; 144
    6f34:	31 e0       	ldi	r19, 0x01	; 1
    6f36:	f9 01       	movw	r30, r18
    6f38:	31 97       	sbiw	r30, 0x01	; 1
    6f3a:	f1 f7       	brne	.-4      	; 0x6f38 <TurnLeft+0x110>
    6f3c:	01 97       	sbiw	r24, 0x01	; 1
    6f3e:	d9 f7       	brne	.-10     	; 0x6f36 <TurnLeft+0x10e>
    6f40:	e0 91 28 04 	lds	r30, 0x0428
    6f44:	f0 91 29 04 	lds	r31, 0x0429
    6f48:	80 e1       	ldi	r24, 0x10	; 16
    6f4a:	63 e0       	ldi	r22, 0x03	; 3
    6f4c:	49 c1       	rjmp	.+658    	; 0x71e0 <TurnLeft+0x3b8>
    6f4e:	8e 01       	movw	r16, r28
    6f50:	0e 5f       	subi	r16, 0xFE	; 254
    6f52:	1f 4f       	sbci	r17, 0xFF	; 255
    6f54:	8a e2       	ldi	r24, 0x2A	; 42
    6f56:	9b e0       	ldi	r25, 0x0B	; 11
    6f58:	6b e0       	ldi	r22, 0x0B	; 11
    6f5a:	48 e5       	ldi	r20, 0x58	; 88
    6f5c:	52 e0       	ldi	r21, 0x02	; 2
    6f5e:	98 01       	movw	r18, r16
    6f60:	0e 94 16 34 	call	0x682c	; 0x682c <ControlSynchronous4Dof>
    6f64:	8a e9       	ldi	r24, 0x9A	; 154
    6f66:	9b e0       	ldi	r25, 0x0B	; 11
    6f68:	65 e1       	ldi	r22, 0x15	; 21
    6f6a:	48 e5       	ldi	r20, 0x58	; 88
    6f6c:	52 e0       	ldi	r21, 0x02	; 2
    6f6e:	98 01       	movw	r18, r16
    6f70:	0e 94 16 34 	call	0x682c	; 0x682c <ControlSynchronous4Dof>
    6f74:	8a e5       	ldi	r24, 0x5A	; 90
    6f76:	9b e0       	ldi	r25, 0x0B	; 11
    6f78:	6f e1       	ldi	r22, 0x1F	; 31
    6f7a:	48 e5       	ldi	r20, 0x58	; 88
    6f7c:	52 e0       	ldi	r21, 0x02	; 2
    6f7e:	98 01       	movw	r18, r16
    6f80:	0e 94 16 34 	call	0x682c	; 0x682c <ControlSynchronous4Dof>
    6f84:	8a ee       	ldi	r24, 0xEA	; 234
    6f86:	9a e0       	ldi	r25, 0x0A	; 10
    6f88:	69 e2       	ldi	r22, 0x29	; 41
    6f8a:	4a ef       	ldi	r20, 0xFA	; 250
    6f8c:	50 e0       	ldi	r21, 0x00	; 0
    6f8e:	98 01       	movw	r18, r16
    6f90:	0e 94 16 34 	call	0x682c	; 0x682c <ControlSynchronous4Dof>
    6f94:	e0 91 e0 03 	lds	r30, 0x03E0
    6f98:	f0 91 e1 03 	lds	r31, 0x03E1
    6f9c:	09 95       	icall
    6f9e:	e0 91 59 07 	lds	r30, 0x0759
    6fa2:	f0 91 5a 07 	lds	r31, 0x075A
    6fa6:	80 e0       	ldi	r24, 0x00	; 0
    6fa8:	09 95       	icall
    6faa:	84 ec       	ldi	r24, 0xC4	; 196
    6fac:	99 e0       	ldi	r25, 0x09	; 9
    6fae:	20 e9       	ldi	r18, 0x90	; 144
    6fb0:	31 e0       	ldi	r19, 0x01	; 1
    6fb2:	f9 01       	movw	r30, r18
    6fb4:	31 97       	sbiw	r30, 0x01	; 1
    6fb6:	f1 f7       	brne	.-4      	; 0x6fb4 <TurnLeft+0x18c>
    6fb8:	01 97       	sbiw	r24, 0x01	; 1
    6fba:	d9 f7       	brne	.-10     	; 0x6fb2 <TurnLeft+0x18a>
    6fbc:	82 ee       	ldi	r24, 0xE2	; 226
    6fbe:	9a e0       	ldi	r25, 0x0A	; 10
    6fc0:	69 e2       	ldi	r22, 0x29	; 41
    6fc2:	44 e6       	ldi	r20, 0x64	; 100
    6fc4:	50 e0       	ldi	r21, 0x00	; 0
    6fc6:	9e 01       	movw	r18, r28
    6fc8:	2e 5f       	subi	r18, 0xFE	; 254
    6fca:	3f 4f       	sbci	r19, 0xFF	; 255
    6fcc:	0e 94 16 34 	call	0x682c	; 0x682c <ControlSynchronous4Dof>
    6fd0:	e0 91 e0 03 	lds	r30, 0x03E0
    6fd4:	f0 91 e1 03 	lds	r31, 0x03E1
    6fd8:	09 95       	icall
    6fda:	88 ee       	ldi	r24, 0xE8	; 232
    6fdc:	93 e0       	ldi	r25, 0x03	; 3
    6fde:	20 e9       	ldi	r18, 0x90	; 144
    6fe0:	31 e0       	ldi	r19, 0x01	; 1
    6fe2:	f9 01       	movw	r30, r18
    6fe4:	31 97       	sbiw	r30, 0x01	; 1
    6fe6:	f1 f7       	brne	.-4      	; 0x6fe4 <TurnLeft+0x1bc>
    6fe8:	01 97       	sbiw	r24, 0x01	; 1
    6fea:	d9 f7       	brne	.-10     	; 0x6fe2 <TurnLeft+0x1ba>
    6fec:	8a e0       	ldi	r24, 0x0A	; 10
    6fee:	9b e0       	ldi	r25, 0x0B	; 11
    6ff0:	69 e2       	ldi	r22, 0x29	; 41
    6ff2:	4a ef       	ldi	r20, 0xFA	; 250
    6ff4:	50 e0       	ldi	r21, 0x00	; 0
    6ff6:	9e 01       	movw	r18, r28
    6ff8:	2e 5f       	subi	r18, 0xFE	; 254
    6ffa:	3f 4f       	sbci	r19, 0xFF	; 255
    6ffc:	0e 94 16 34 	call	0x682c	; 0x682c <ControlSynchronous4Dof>
    7000:	e0 91 e0 03 	lds	r30, 0x03E0
    7004:	f0 91 e1 03 	lds	r31, 0x03E1
    7008:	09 95       	icall
    700a:	84 ec       	ldi	r24, 0xC4	; 196
    700c:	99 e0       	ldi	r25, 0x09	; 9
    700e:	20 e9       	ldi	r18, 0x90	; 144
    7010:	31 e0       	ldi	r19, 0x01	; 1
    7012:	f9 01       	movw	r30, r18
    7014:	31 97       	sbiw	r30, 0x01	; 1
    7016:	f1 f7       	brne	.-4      	; 0x7014 <TurnLeft+0x1ec>
    7018:	01 97       	sbiw	r24, 0x01	; 1
    701a:	d9 f7       	brne	.-10     	; 0x7012 <TurnLeft+0x1ea>
    701c:	e0 91 28 04 	lds	r30, 0x0428
    7020:	f0 91 29 04 	lds	r31, 0x0429
    7024:	80 e1       	ldi	r24, 0x10	; 16
    7026:	61 e0       	ldi	r22, 0x01	; 1
    7028:	db c0       	rjmp	.+438    	; 0x71e0 <TurnLeft+0x3b8>
    702a:	8e 01       	movw	r16, r28
    702c:	0e 5f       	subi	r16, 0xFE	; 254
    702e:	1f 4f       	sbci	r17, 0xFF	; 255
    7030:	82 e2       	ldi	r24, 0x22	; 34
    7032:	9b e0       	ldi	r25, 0x0B	; 11
    7034:	6b e0       	ldi	r22, 0x0B	; 11
    7036:	48 e5       	ldi	r20, 0x58	; 88
    7038:	52 e0       	ldi	r21, 0x02	; 2
    703a:	98 01       	movw	r18, r16
    703c:	0e 94 16 34 	call	0x682c	; 0x682c <ControlSynchronous4Dof>
    7040:	82 e7       	ldi	r24, 0x72	; 114
    7042:	9b e0       	ldi	r25, 0x0B	; 11
    7044:	65 e1       	ldi	r22, 0x15	; 21
    7046:	4a ef       	ldi	r20, 0xFA	; 250
    7048:	50 e0       	ldi	r21, 0x00	; 0
    704a:	98 01       	movw	r18, r16
    704c:	0e 94 16 34 	call	0x682c	; 0x682c <ControlSynchronous4Dof>
    7050:	82 e6       	ldi	r24, 0x62	; 98
    7052:	9b e0       	ldi	r25, 0x0B	; 11
    7054:	6f e1       	ldi	r22, 0x1F	; 31
    7056:	48 e5       	ldi	r20, 0x58	; 88
    7058:	52 e0       	ldi	r21, 0x02	; 2
    705a:	98 01       	movw	r18, r16
    705c:	0e 94 16 34 	call	0x682c	; 0x682c <ControlSynchronous4Dof>
    7060:	82 e0       	ldi	r24, 0x02	; 2
    7062:	9b e0       	ldi	r25, 0x0B	; 11
    7064:	69 e2       	ldi	r22, 0x29	; 41
    7066:	48 e5       	ldi	r20, 0x58	; 88
    7068:	52 e0       	ldi	r21, 0x02	; 2
    706a:	98 01       	movw	r18, r16
    706c:	0e 94 16 34 	call	0x682c	; 0x682c <ControlSynchronous4Dof>
    7070:	e0 91 e0 03 	lds	r30, 0x03E0
    7074:	f0 91 e1 03 	lds	r31, 0x03E1
    7078:	09 95       	icall
    707a:	e0 91 59 07 	lds	r30, 0x0759
    707e:	f0 91 5a 07 	lds	r31, 0x075A
    7082:	80 e0       	ldi	r24, 0x00	; 0
    7084:	09 95       	icall
    7086:	84 ec       	ldi	r24, 0xC4	; 196
    7088:	99 e0       	ldi	r25, 0x09	; 9
    708a:	20 e9       	ldi	r18, 0x90	; 144
    708c:	31 e0       	ldi	r19, 0x01	; 1
    708e:	f9 01       	movw	r30, r18
    7090:	31 97       	sbiw	r30, 0x01	; 1
    7092:	f1 f7       	brne	.-4      	; 0x7090 <TurnLeft+0x268>
    7094:	01 97       	sbiw	r24, 0x01	; 1
    7096:	d9 f7       	brne	.-10     	; 0x708e <TurnLeft+0x266>
    7098:	8a e7       	ldi	r24, 0x7A	; 122
    709a:	9b e0       	ldi	r25, 0x0B	; 11
    709c:	65 e1       	ldi	r22, 0x15	; 21
    709e:	44 e6       	ldi	r20, 0x64	; 100
    70a0:	50 e0       	ldi	r21, 0x00	; 0
    70a2:	9e 01       	movw	r18, r28
    70a4:	2e 5f       	subi	r18, 0xFE	; 254
    70a6:	3f 4f       	sbci	r19, 0xFF	; 255
    70a8:	0e 94 16 34 	call	0x682c	; 0x682c <ControlSynchronous4Dof>
    70ac:	e0 91 e0 03 	lds	r30, 0x03E0
    70b0:	f0 91 e1 03 	lds	r31, 0x03E1
    70b4:	09 95       	icall
    70b6:	88 ee       	ldi	r24, 0xE8	; 232
    70b8:	93 e0       	ldi	r25, 0x03	; 3
    70ba:	20 e9       	ldi	r18, 0x90	; 144
    70bc:	31 e0       	ldi	r19, 0x01	; 1
    70be:	f9 01       	movw	r30, r18
    70c0:	31 97       	sbiw	r30, 0x01	; 1
    70c2:	f1 f7       	brne	.-4      	; 0x70c0 <TurnLeft+0x298>
    70c4:	01 97       	sbiw	r24, 0x01	; 1
    70c6:	d9 f7       	brne	.-10     	; 0x70be <TurnLeft+0x296>
    70c8:	82 e8       	ldi	r24, 0x82	; 130
    70ca:	9b e0       	ldi	r25, 0x0B	; 11
    70cc:	65 e1       	ldi	r22, 0x15	; 21
    70ce:	4a ef       	ldi	r20, 0xFA	; 250
    70d0:	50 e0       	ldi	r21, 0x00	; 0
    70d2:	9e 01       	movw	r18, r28
    70d4:	2e 5f       	subi	r18, 0xFE	; 254
    70d6:	3f 4f       	sbci	r19, 0xFF	; 255
    70d8:	0e 94 16 34 	call	0x682c	; 0x682c <ControlSynchronous4Dof>
    70dc:	e0 91 e0 03 	lds	r30, 0x03E0
    70e0:	f0 91 e1 03 	lds	r31, 0x03E1
    70e4:	09 95       	icall
    70e6:	84 ec       	ldi	r24, 0xC4	; 196
    70e8:	99 e0       	ldi	r25, 0x09	; 9
    70ea:	20 e9       	ldi	r18, 0x90	; 144
    70ec:	31 e0       	ldi	r19, 0x01	; 1
    70ee:	f9 01       	movw	r30, r18
    70f0:	31 97       	sbiw	r30, 0x01	; 1
    70f2:	f1 f7       	brne	.-4      	; 0x70f0 <TurnLeft+0x2c8>
    70f4:	01 97       	sbiw	r24, 0x01	; 1
    70f6:	d9 f7       	brne	.-10     	; 0x70ee <TurnLeft+0x2c6>
    70f8:	e0 91 28 04 	lds	r30, 0x0428
    70fc:	f0 91 29 04 	lds	r31, 0x0429
    7100:	80 e1       	ldi	r24, 0x10	; 16
    7102:	60 e0       	ldi	r22, 0x00	; 0
    7104:	6d c0       	rjmp	.+218    	; 0x71e0 <TurnLeft+0x3b8>
    7106:	8e 01       	movw	r16, r28
    7108:	0e 5f       	subi	r16, 0xFE	; 254
    710a:	1f 4f       	sbci	r17, 0xFF	; 255
    710c:	8a e1       	ldi	r24, 0x1A	; 26
    710e:	9b e0       	ldi	r25, 0x0B	; 11
    7110:	6b e0       	ldi	r22, 0x0B	; 11
    7112:	4a ef       	ldi	r20, 0xFA	; 250
    7114:	50 e0       	ldi	r21, 0x00	; 0
    7116:	98 01       	movw	r18, r16
    7118:	0e 94 16 34 	call	0x682c	; 0x682c <ControlSynchronous4Dof>
    711c:	8a e8       	ldi	r24, 0x8A	; 138
    711e:	9b e0       	ldi	r25, 0x0B	; 11
    7120:	65 e1       	ldi	r22, 0x15	; 21
    7122:	48 e5       	ldi	r20, 0x58	; 88
    7124:	52 e0       	ldi	r21, 0x02	; 2
    7126:	98 01       	movw	r18, r16
    7128:	0e 94 16 34 	call	0x682c	; 0x682c <ControlSynchronous4Dof>
    712c:	8a e6       	ldi	r24, 0x6A	; 106
    712e:	9b e0       	ldi	r25, 0x0B	; 11
    7130:	6f e1       	ldi	r22, 0x1F	; 31
    7132:	48 e5       	ldi	r20, 0x58	; 88
    7134:	52 e0       	ldi	r21, 0x02	; 2
    7136:	98 01       	movw	r18, r16
    7138:	0e 94 16 34 	call	0x682c	; 0x682c <ControlSynchronous4Dof>
    713c:	8a ef       	ldi	r24, 0xFA	; 250
    713e:	9a e0       	ldi	r25, 0x0A	; 10
    7140:	69 e2       	ldi	r22, 0x29	; 41
    7142:	48 e5       	ldi	r20, 0x58	; 88
    7144:	52 e0       	ldi	r21, 0x02	; 2
    7146:	98 01       	movw	r18, r16
    7148:	0e 94 16 34 	call	0x682c	; 0x682c <ControlSynchronous4Dof>
    714c:	e0 91 e0 03 	lds	r30, 0x03E0
    7150:	f0 91 e1 03 	lds	r31, 0x03E1
    7154:	09 95       	icall
    7156:	e0 91 59 07 	lds	r30, 0x0759
    715a:	f0 91 5a 07 	lds	r31, 0x075A
    715e:	80 e0       	ldi	r24, 0x00	; 0
    7160:	09 95       	icall
    7162:	84 ec       	ldi	r24, 0xC4	; 196
    7164:	99 e0       	ldi	r25, 0x09	; 9
    7166:	20 e9       	ldi	r18, 0x90	; 144
    7168:	31 e0       	ldi	r19, 0x01	; 1
    716a:	f9 01       	movw	r30, r18
    716c:	31 97       	sbiw	r30, 0x01	; 1
    716e:	f1 f7       	brne	.-4      	; 0x716c <TurnLeft+0x344>
    7170:	01 97       	sbiw	r24, 0x01	; 1
    7172:	d9 f7       	brne	.-10     	; 0x716a <TurnLeft+0x342>
    7174:	82 e1       	ldi	r24, 0x12	; 18
    7176:	9b e0       	ldi	r25, 0x0B	; 11
    7178:	6b e0       	ldi	r22, 0x0B	; 11
    717a:	44 e6       	ldi	r20, 0x64	; 100
    717c:	50 e0       	ldi	r21, 0x00	; 0
    717e:	9e 01       	movw	r18, r28
    7180:	2e 5f       	subi	r18, 0xFE	; 254
    7182:	3f 4f       	sbci	r19, 0xFF	; 255
    7184:	0e 94 16 34 	call	0x682c	; 0x682c <ControlSynchronous4Dof>
    7188:	e0 91 e0 03 	lds	r30, 0x03E0
    718c:	f0 91 e1 03 	lds	r31, 0x03E1
    7190:	09 95       	icall
    7192:	88 ee       	ldi	r24, 0xE8	; 232
    7194:	93 e0       	ldi	r25, 0x03	; 3
    7196:	20 e9       	ldi	r18, 0x90	; 144
    7198:	31 e0       	ldi	r19, 0x01	; 1
    719a:	f9 01       	movw	r30, r18
    719c:	31 97       	sbiw	r30, 0x01	; 1
    719e:	f1 f7       	brne	.-4      	; 0x719c <TurnLeft+0x374>
    71a0:	01 97       	sbiw	r24, 0x01	; 1
    71a2:	d9 f7       	brne	.-10     	; 0x719a <TurnLeft+0x372>
    71a4:	8a e3       	ldi	r24, 0x3A	; 58
    71a6:	9b e0       	ldi	r25, 0x0B	; 11
    71a8:	6b e0       	ldi	r22, 0x0B	; 11
    71aa:	4a ef       	ldi	r20, 0xFA	; 250
    71ac:	50 e0       	ldi	r21, 0x00	; 0
    71ae:	9e 01       	movw	r18, r28
    71b0:	2e 5f       	subi	r18, 0xFE	; 254
    71b2:	3f 4f       	sbci	r19, 0xFF	; 255
    71b4:	0e 94 16 34 	call	0x682c	; 0x682c <ControlSynchronous4Dof>
    71b8:	e0 91 e0 03 	lds	r30, 0x03E0
    71bc:	f0 91 e1 03 	lds	r31, 0x03E1
    71c0:	09 95       	icall
    71c2:	84 ec       	ldi	r24, 0xC4	; 196
    71c4:	99 e0       	ldi	r25, 0x09	; 9
    71c6:	20 e9       	ldi	r18, 0x90	; 144
    71c8:	31 e0       	ldi	r19, 0x01	; 1
    71ca:	f9 01       	movw	r30, r18
    71cc:	31 97       	sbiw	r30, 0x01	; 1
    71ce:	f1 f7       	brne	.-4      	; 0x71cc <TurnLeft+0x3a4>
    71d0:	01 97       	sbiw	r24, 0x01	; 1
    71d2:	d9 f7       	brne	.-10     	; 0x71ca <TurnLeft+0x3a2>
    71d4:	e0 91 28 04 	lds	r30, 0x0428
    71d8:	f0 91 29 04 	lds	r31, 0x0429
    71dc:	80 e1       	ldi	r24, 0x10	; 16
    71de:	62 e0       	ldi	r22, 0x02	; 2
    71e0:	09 95       	icall
    71e2:	0f 90       	pop	r0
    71e4:	0f 90       	pop	r0
    71e6:	0f 90       	pop	r0
    71e8:	cf 91       	pop	r28
    71ea:	df 91       	pop	r29
    71ec:	1f 91       	pop	r17
    71ee:	0f 91       	pop	r16
    71f0:	08 95       	ret

000071f2 <TurnRight>:
    71f2:	0f 93       	push	r16
    71f4:	1f 93       	push	r17
    71f6:	df 93       	push	r29
    71f8:	cf 93       	push	r28
    71fa:	00 d0       	rcall	.+0      	; 0x71fc <TurnRight+0xa>
    71fc:	0f 92       	push	r0
    71fe:	cd b7       	in	r28, 0x3d	; 61
    7200:	de b7       	in	r29, 0x3e	; 62
    7202:	1b 82       	std	Y+3, r1	; 0x03
    7204:	1a 82       	std	Y+2, r1	; 0x02
    7206:	19 82       	std	Y+1, r1	; 0x01
    7208:	e0 91 2a 04 	lds	r30, 0x042A
    720c:	f0 91 2b 04 	lds	r31, 0x042B
    7210:	80 e1       	ldi	r24, 0x10	; 16
    7212:	be 01       	movw	r22, r28
    7214:	6f 5f       	subi	r22, 0xFF	; 255
    7216:	7f 4f       	sbci	r23, 0xFF	; 255
    7218:	09 95       	icall
    721a:	e9 81       	ldd	r30, Y+1	; 0x01
    721c:	f0 e0       	ldi	r31, 0x00	; 0
    721e:	e6 5e       	subi	r30, 0xE6	; 230
    7220:	f5 4f       	sbci	r31, 0xF5	; 245
    7222:	e0 81       	ld	r30, Z
    7224:	e1 30       	cpi	r30, 0x01	; 1
    7226:	09 f4       	brne	.+2      	; 0x722a <TurnRight+0x38>
    7228:	77 c0       	rjmp	.+238    	; 0x7318 <TurnRight+0x126>
    722a:	e1 30       	cpi	r30, 0x01	; 1
    722c:	38 f0       	brcs	.+14     	; 0x723c <TurnRight+0x4a>
    722e:	e2 30       	cpi	r30, 0x02	; 2
    7230:	09 f4       	brne	.+2      	; 0x7234 <TurnRight+0x42>
    7232:	e0 c0       	rjmp	.+448    	; 0x73f4 <TurnRight+0x202>
    7234:	e3 30       	cpi	r30, 0x03	; 3
    7236:	09 f0       	breq	.+2      	; 0x723a <TurnRight+0x48>
    7238:	b9 c1       	rjmp	.+882    	; 0x75ac <TurnRight+0x3ba>
    723a:	4a c1       	rjmp	.+660    	; 0x74d0 <TurnRight+0x2de>
    723c:	8e 01       	movw	r16, r28
    723e:	0e 5f       	subi	r16, 0xFE	; 254
    7240:	1f 4f       	sbci	r17, 0xFF	; 255
    7242:	8e ea       	ldi	r24, 0xAE	; 174
    7244:	9a e0       	ldi	r25, 0x0A	; 10
    7246:	6b e0       	ldi	r22, 0x0B	; 11
    7248:	4a ef       	ldi	r20, 0xFA	; 250
    724a:	50 e0       	ldi	r21, 0x00	; 0
    724c:	98 01       	movw	r18, r16
    724e:	0e 94 16 34 	call	0x682c	; 0x682c <ControlSynchronous4Dof>
    7252:	8e e5       	ldi	r24, 0x5E	; 94
    7254:	9a e0       	ldi	r25, 0x0A	; 10
    7256:	65 e1       	ldi	r22, 0x15	; 21
    7258:	48 e5       	ldi	r20, 0x58	; 88
    725a:	52 e0       	ldi	r21, 0x02	; 2
    725c:	98 01       	movw	r18, r16
    725e:	0e 94 16 34 	call	0x682c	; 0x682c <ControlSynchronous4Dof>
    7262:	8e e3       	ldi	r24, 0x3E	; 62
    7264:	9a e0       	ldi	r25, 0x0A	; 10
    7266:	6f e1       	ldi	r22, 0x1F	; 31
    7268:	48 e5       	ldi	r20, 0x58	; 88
    726a:	52 e0       	ldi	r21, 0x02	; 2
    726c:	98 01       	movw	r18, r16
    726e:	0e 94 16 34 	call	0x682c	; 0x682c <ControlSynchronous4Dof>
    7272:	8e e9       	ldi	r24, 0x9E	; 158
    7274:	9a e0       	ldi	r25, 0x0A	; 10
    7276:	69 e2       	ldi	r22, 0x29	; 41
    7278:	48 e5       	ldi	r20, 0x58	; 88
    727a:	52 e0       	ldi	r21, 0x02	; 2
    727c:	98 01       	movw	r18, r16
    727e:	0e 94 16 34 	call	0x682c	; 0x682c <ControlSynchronous4Dof>
    7282:	e0 91 e0 03 	lds	r30, 0x03E0
    7286:	f0 91 e1 03 	lds	r31, 0x03E1
    728a:	09 95       	icall
    728c:	e0 91 59 07 	lds	r30, 0x0759
    7290:	f0 91 5a 07 	lds	r31, 0x075A
    7294:	80 e0       	ldi	r24, 0x00	; 0
    7296:	09 95       	icall
    7298:	84 ec       	ldi	r24, 0xC4	; 196
    729a:	99 e0       	ldi	r25, 0x09	; 9
    729c:	20 e9       	ldi	r18, 0x90	; 144
    729e:	31 e0       	ldi	r19, 0x01	; 1
    72a0:	f9 01       	movw	r30, r18
    72a2:	31 97       	sbiw	r30, 0x01	; 1
    72a4:	f1 f7       	brne	.-4      	; 0x72a2 <TurnRight+0xb0>
    72a6:	01 97       	sbiw	r24, 0x01	; 1
    72a8:	d9 f7       	brne	.-10     	; 0x72a0 <TurnRight+0xae>
    72aa:	86 eb       	ldi	r24, 0xB6	; 182
    72ac:	9a e0       	ldi	r25, 0x0A	; 10
    72ae:	6b e0       	ldi	r22, 0x0B	; 11
    72b0:	44 e6       	ldi	r20, 0x64	; 100
    72b2:	50 e0       	ldi	r21, 0x00	; 0
    72b4:	9e 01       	movw	r18, r28
    72b6:	2e 5f       	subi	r18, 0xFE	; 254
    72b8:	3f 4f       	sbci	r19, 0xFF	; 255
    72ba:	0e 94 16 34 	call	0x682c	; 0x682c <ControlSynchronous4Dof>
    72be:	e0 91 e0 03 	lds	r30, 0x03E0
    72c2:	f0 91 e1 03 	lds	r31, 0x03E1
    72c6:	09 95       	icall
    72c8:	88 ee       	ldi	r24, 0xE8	; 232
    72ca:	93 e0       	ldi	r25, 0x03	; 3
    72cc:	20 e9       	ldi	r18, 0x90	; 144
    72ce:	31 e0       	ldi	r19, 0x01	; 1
    72d0:	f9 01       	movw	r30, r18
    72d2:	31 97       	sbiw	r30, 0x01	; 1
    72d4:	f1 f7       	brne	.-4      	; 0x72d2 <TurnRight+0xe0>
    72d6:	01 97       	sbiw	r24, 0x01	; 1
    72d8:	d9 f7       	brne	.-10     	; 0x72d0 <TurnRight+0xde>
    72da:	8e eb       	ldi	r24, 0xBE	; 190
    72dc:	9a e0       	ldi	r25, 0x0A	; 10
    72de:	6b e0       	ldi	r22, 0x0B	; 11
    72e0:	4a ef       	ldi	r20, 0xFA	; 250
    72e2:	50 e0       	ldi	r21, 0x00	; 0
    72e4:	9e 01       	movw	r18, r28
    72e6:	2e 5f       	subi	r18, 0xFE	; 254
    72e8:	3f 4f       	sbci	r19, 0xFF	; 255
    72ea:	0e 94 16 34 	call	0x682c	; 0x682c <ControlSynchronous4Dof>
    72ee:	e0 91 e0 03 	lds	r30, 0x03E0
    72f2:	f0 91 e1 03 	lds	r31, 0x03E1
    72f6:	09 95       	icall
    72f8:	84 ec       	ldi	r24, 0xC4	; 196
    72fa:	99 e0       	ldi	r25, 0x09	; 9
    72fc:	20 e9       	ldi	r18, 0x90	; 144
    72fe:	31 e0       	ldi	r19, 0x01	; 1
    7300:	f9 01       	movw	r30, r18
    7302:	31 97       	sbiw	r30, 0x01	; 1
    7304:	f1 f7       	brne	.-4      	; 0x7302 <TurnRight+0x110>
    7306:	01 97       	sbiw	r24, 0x01	; 1
    7308:	d9 f7       	brne	.-10     	; 0x7300 <TurnRight+0x10e>
    730a:	e0 91 28 04 	lds	r30, 0x0428
    730e:	f0 91 29 04 	lds	r31, 0x0429
    7312:	80 e1       	ldi	r24, 0x10	; 16
    7314:	61 e0       	ldi	r22, 0x01	; 1
    7316:	49 c1       	rjmp	.+658    	; 0x75aa <TurnRight+0x3b8>
    7318:	8e 01       	movw	r16, r28
    731a:	0e 5f       	subi	r16, 0xFE	; 254
    731c:	1f 4f       	sbci	r17, 0xFF	; 255
    731e:	86 ec       	ldi	r24, 0xC6	; 198
    7320:	9a e0       	ldi	r25, 0x0A	; 10
    7322:	6b e0       	ldi	r22, 0x0B	; 11
    7324:	48 e5       	ldi	r20, 0x58	; 88
    7326:	52 e0       	ldi	r21, 0x02	; 2
    7328:	98 01       	movw	r18, r16
    732a:	0e 94 16 34 	call	0x682c	; 0x682c <ControlSynchronous4Dof>
    732e:	86 e5       	ldi	r24, 0x56	; 86
    7330:	9a e0       	ldi	r25, 0x0A	; 10
    7332:	65 e1       	ldi	r22, 0x15	; 21
    7334:	4a ef       	ldi	r20, 0xFA	; 250
    7336:	50 e0       	ldi	r21, 0x00	; 0
    7338:	98 01       	movw	r18, r16
    733a:	0e 94 16 34 	call	0x682c	; 0x682c <ControlSynchronous4Dof>
    733e:	86 e3       	ldi	r24, 0x36	; 54
    7340:	9a e0       	ldi	r25, 0x0A	; 10
    7342:	6f e1       	ldi	r22, 0x1F	; 31
    7344:	48 e5       	ldi	r20, 0x58	; 88
    7346:	52 e0       	ldi	r21, 0x02	; 2
    7348:	98 01       	movw	r18, r16
    734a:	0e 94 16 34 	call	0x682c	; 0x682c <ControlSynchronous4Dof>
    734e:	86 ea       	ldi	r24, 0xA6	; 166
    7350:	9a e0       	ldi	r25, 0x0A	; 10
    7352:	69 e2       	ldi	r22, 0x29	; 41
    7354:	48 e5       	ldi	r20, 0x58	; 88
    7356:	52 e0       	ldi	r21, 0x02	; 2
    7358:	98 01       	movw	r18, r16
    735a:	0e 94 16 34 	call	0x682c	; 0x682c <ControlSynchronous4Dof>
    735e:	e0 91 e0 03 	lds	r30, 0x03E0
    7362:	f0 91 e1 03 	lds	r31, 0x03E1
    7366:	09 95       	icall
    7368:	e0 91 59 07 	lds	r30, 0x0759
    736c:	f0 91 5a 07 	lds	r31, 0x075A
    7370:	80 e0       	ldi	r24, 0x00	; 0
    7372:	09 95       	icall
    7374:	84 ec       	ldi	r24, 0xC4	; 196
    7376:	99 e0       	ldi	r25, 0x09	; 9
    7378:	20 e9       	ldi	r18, 0x90	; 144
    737a:	31 e0       	ldi	r19, 0x01	; 1
    737c:	f9 01       	movw	r30, r18
    737e:	31 97       	sbiw	r30, 0x01	; 1
    7380:	f1 f7       	brne	.-4      	; 0x737e <TurnRight+0x18c>
    7382:	01 97       	sbiw	r24, 0x01	; 1
    7384:	d9 f7       	brne	.-10     	; 0x737c <TurnRight+0x18a>
    7386:	8e e4       	ldi	r24, 0x4E	; 78
    7388:	9a e0       	ldi	r25, 0x0A	; 10
    738a:	65 e1       	ldi	r22, 0x15	; 21
    738c:	44 e6       	ldi	r20, 0x64	; 100
    738e:	50 e0       	ldi	r21, 0x00	; 0
    7390:	9e 01       	movw	r18, r28
    7392:	2e 5f       	subi	r18, 0xFE	; 254
    7394:	3f 4f       	sbci	r19, 0xFF	; 255
    7396:	0e 94 16 34 	call	0x682c	; 0x682c <ControlSynchronous4Dof>
    739a:	e0 91 e0 03 	lds	r30, 0x03E0
    739e:	f0 91 e1 03 	lds	r31, 0x03E1
    73a2:	09 95       	icall
    73a4:	88 ee       	ldi	r24, 0xE8	; 232
    73a6:	93 e0       	ldi	r25, 0x03	; 3
    73a8:	20 e9       	ldi	r18, 0x90	; 144
    73aa:	31 e0       	ldi	r19, 0x01	; 1
    73ac:	f9 01       	movw	r30, r18
    73ae:	31 97       	sbiw	r30, 0x01	; 1
    73b0:	f1 f7       	brne	.-4      	; 0x73ae <TurnRight+0x1bc>
    73b2:	01 97       	sbiw	r24, 0x01	; 1
    73b4:	d9 f7       	brne	.-10     	; 0x73ac <TurnRight+0x1ba>
    73b6:	86 e7       	ldi	r24, 0x76	; 118
    73b8:	9a e0       	ldi	r25, 0x0A	; 10
    73ba:	65 e1       	ldi	r22, 0x15	; 21
    73bc:	4a ef       	ldi	r20, 0xFA	; 250
    73be:	50 e0       	ldi	r21, 0x00	; 0
    73c0:	9e 01       	movw	r18, r28
    73c2:	2e 5f       	subi	r18, 0xFE	; 254
    73c4:	3f 4f       	sbci	r19, 0xFF	; 255
    73c6:	0e 94 16 34 	call	0x682c	; 0x682c <ControlSynchronous4Dof>
    73ca:	e0 91 e0 03 	lds	r30, 0x03E0
    73ce:	f0 91 e1 03 	lds	r31, 0x03E1
    73d2:	09 95       	icall
    73d4:	84 ec       	ldi	r24, 0xC4	; 196
    73d6:	99 e0       	ldi	r25, 0x09	; 9
    73d8:	20 e9       	ldi	r18, 0x90	; 144
    73da:	31 e0       	ldi	r19, 0x01	; 1
    73dc:	f9 01       	movw	r30, r18
    73de:	31 97       	sbiw	r30, 0x01	; 1
    73e0:	f1 f7       	brne	.-4      	; 0x73de <TurnRight+0x1ec>
    73e2:	01 97       	sbiw	r24, 0x01	; 1
    73e4:	d9 f7       	brne	.-10     	; 0x73dc <TurnRight+0x1ea>
    73e6:	e0 91 28 04 	lds	r30, 0x0428
    73ea:	f0 91 29 04 	lds	r31, 0x0429
    73ee:	80 e1       	ldi	r24, 0x10	; 16
    73f0:	63 e0       	ldi	r22, 0x03	; 3
    73f2:	db c0       	rjmp	.+438    	; 0x75aa <TurnRight+0x3b8>
    73f4:	8e 01       	movw	r16, r28
    73f6:	0e 5f       	subi	r16, 0xFE	; 254
    73f8:	1f 4f       	sbci	r17, 0xFF	; 255
    73fa:	8e ec       	ldi	r24, 0xCE	; 206
    73fc:	9a e0       	ldi	r25, 0x0A	; 10
    73fe:	6b e0       	ldi	r22, 0x0B	; 11
    7400:	48 e5       	ldi	r20, 0x58	; 88
    7402:	52 e0       	ldi	r21, 0x02	; 2
    7404:	98 01       	movw	r18, r16
    7406:	0e 94 16 34 	call	0x682c	; 0x682c <ControlSynchronous4Dof>
    740a:	8e e6       	ldi	r24, 0x6E	; 110
    740c:	9a e0       	ldi	r25, 0x0A	; 10
    740e:	65 e1       	ldi	r22, 0x15	; 21
    7410:	48 e5       	ldi	r20, 0x58	; 88
    7412:	52 e0       	ldi	r21, 0x02	; 2
    7414:	98 01       	movw	r18, r16
    7416:	0e 94 16 34 	call	0x682c	; 0x682c <ControlSynchronous4Dof>
    741a:	8e e2       	ldi	r24, 0x2E	; 46
    741c:	9a e0       	ldi	r25, 0x0A	; 10
    741e:	6f e1       	ldi	r22, 0x1F	; 31
    7420:	48 e5       	ldi	r20, 0x58	; 88
    7422:	52 e0       	ldi	r21, 0x02	; 2
    7424:	98 01       	movw	r18, r16
    7426:	0e 94 16 34 	call	0x682c	; 0x682c <ControlSynchronous4Dof>
    742a:	8e e7       	ldi	r24, 0x7E	; 126
    742c:	9a e0       	ldi	r25, 0x0A	; 10
    742e:	69 e2       	ldi	r22, 0x29	; 41
    7430:	4a ef       	ldi	r20, 0xFA	; 250
    7432:	50 e0       	ldi	r21, 0x00	; 0
    7434:	98 01       	movw	r18, r16
    7436:	0e 94 16 34 	call	0x682c	; 0x682c <ControlSynchronous4Dof>
    743a:	e0 91 e0 03 	lds	r30, 0x03E0
    743e:	f0 91 e1 03 	lds	r31, 0x03E1
    7442:	09 95       	icall
    7444:	e0 91 59 07 	lds	r30, 0x0759
    7448:	f0 91 5a 07 	lds	r31, 0x075A
    744c:	80 e0       	ldi	r24, 0x00	; 0
    744e:	09 95       	icall
    7450:	84 ec       	ldi	r24, 0xC4	; 196
    7452:	99 e0       	ldi	r25, 0x09	; 9
    7454:	20 e9       	ldi	r18, 0x90	; 144
    7456:	31 e0       	ldi	r19, 0x01	; 1
    7458:	f9 01       	movw	r30, r18
    745a:	31 97       	sbiw	r30, 0x01	; 1
    745c:	f1 f7       	brne	.-4      	; 0x745a <TurnRight+0x268>
    745e:	01 97       	sbiw	r24, 0x01	; 1
    7460:	d9 f7       	brne	.-10     	; 0x7458 <TurnRight+0x266>
    7462:	86 e8       	ldi	r24, 0x86	; 134
    7464:	9a e0       	ldi	r25, 0x0A	; 10
    7466:	69 e2       	ldi	r22, 0x29	; 41
    7468:	44 e6       	ldi	r20, 0x64	; 100
    746a:	50 e0       	ldi	r21, 0x00	; 0
    746c:	9e 01       	movw	r18, r28
    746e:	2e 5f       	subi	r18, 0xFE	; 254
    7470:	3f 4f       	sbci	r19, 0xFF	; 255
    7472:	0e 94 16 34 	call	0x682c	; 0x682c <ControlSynchronous4Dof>
    7476:	e0 91 e0 03 	lds	r30, 0x03E0
    747a:	f0 91 e1 03 	lds	r31, 0x03E1
    747e:	09 95       	icall
    7480:	88 ee       	ldi	r24, 0xE8	; 232
    7482:	93 e0       	ldi	r25, 0x03	; 3
    7484:	20 e9       	ldi	r18, 0x90	; 144
    7486:	31 e0       	ldi	r19, 0x01	; 1
    7488:	f9 01       	movw	r30, r18
    748a:	31 97       	sbiw	r30, 0x01	; 1
    748c:	f1 f7       	brne	.-4      	; 0x748a <TurnRight+0x298>
    748e:	01 97       	sbiw	r24, 0x01	; 1
    7490:	d9 f7       	brne	.-10     	; 0x7488 <TurnRight+0x296>
    7492:	8e e8       	ldi	r24, 0x8E	; 142
    7494:	9a e0       	ldi	r25, 0x0A	; 10
    7496:	69 e2       	ldi	r22, 0x29	; 41
    7498:	4a ef       	ldi	r20, 0xFA	; 250
    749a:	50 e0       	ldi	r21, 0x00	; 0
    749c:	9e 01       	movw	r18, r28
    749e:	2e 5f       	subi	r18, 0xFE	; 254
    74a0:	3f 4f       	sbci	r19, 0xFF	; 255
    74a2:	0e 94 16 34 	call	0x682c	; 0x682c <ControlSynchronous4Dof>
    74a6:	e0 91 e0 03 	lds	r30, 0x03E0
    74aa:	f0 91 e1 03 	lds	r31, 0x03E1
    74ae:	09 95       	icall
    74b0:	84 ec       	ldi	r24, 0xC4	; 196
    74b2:	99 e0       	ldi	r25, 0x09	; 9
    74b4:	20 e9       	ldi	r18, 0x90	; 144
    74b6:	31 e0       	ldi	r19, 0x01	; 1
    74b8:	f9 01       	movw	r30, r18
    74ba:	31 97       	sbiw	r30, 0x01	; 1
    74bc:	f1 f7       	brne	.-4      	; 0x74ba <TurnRight+0x2c8>
    74be:	01 97       	sbiw	r24, 0x01	; 1
    74c0:	d9 f7       	brne	.-10     	; 0x74b8 <TurnRight+0x2c6>
    74c2:	e0 91 28 04 	lds	r30, 0x0428
    74c6:	f0 91 29 04 	lds	r31, 0x0429
    74ca:	80 e1       	ldi	r24, 0x10	; 16
    74cc:	62 e0       	ldi	r22, 0x02	; 2
    74ce:	6d c0       	rjmp	.+218    	; 0x75aa <TurnRight+0x3b8>
    74d0:	8e 01       	movw	r16, r28
    74d2:	0e 5f       	subi	r16, 0xFE	; 254
    74d4:	1f 4f       	sbci	r17, 0xFF	; 255
    74d6:	86 ed       	ldi	r24, 0xD6	; 214
    74d8:	9a e0       	ldi	r25, 0x0A	; 10
    74da:	6b e0       	ldi	r22, 0x0B	; 11
    74dc:	48 e5       	ldi	r20, 0x58	; 88
    74de:	52 e0       	ldi	r21, 0x02	; 2
    74e0:	98 01       	movw	r18, r16
    74e2:	0e 94 16 34 	call	0x682c	; 0x682c <ControlSynchronous4Dof>
    74e6:	86 e6       	ldi	r24, 0x66	; 102
    74e8:	9a e0       	ldi	r25, 0x0A	; 10
    74ea:	65 e1       	ldi	r22, 0x15	; 21
    74ec:	48 e5       	ldi	r20, 0x58	; 88
    74ee:	52 e0       	ldi	r21, 0x02	; 2
    74f0:	98 01       	movw	r18, r16
    74f2:	0e 94 16 34 	call	0x682c	; 0x682c <ControlSynchronous4Dof>
    74f6:	86 e2       	ldi	r24, 0x26	; 38
    74f8:	9a e0       	ldi	r25, 0x0A	; 10
    74fa:	6f e1       	ldi	r22, 0x1F	; 31
    74fc:	4a ef       	ldi	r20, 0xFA	; 250
    74fe:	50 e0       	ldi	r21, 0x00	; 0
    7500:	98 01       	movw	r18, r16
    7502:	0e 94 16 34 	call	0x682c	; 0x682c <ControlSynchronous4Dof>
    7506:	86 e9       	ldi	r24, 0x96	; 150
    7508:	9a e0       	ldi	r25, 0x0A	; 10
    750a:	69 e2       	ldi	r22, 0x29	; 41
    750c:	48 e5       	ldi	r20, 0x58	; 88
    750e:	52 e0       	ldi	r21, 0x02	; 2
    7510:	98 01       	movw	r18, r16
    7512:	0e 94 16 34 	call	0x682c	; 0x682c <ControlSynchronous4Dof>
    7516:	e0 91 e0 03 	lds	r30, 0x03E0
    751a:	f0 91 e1 03 	lds	r31, 0x03E1
    751e:	09 95       	icall
    7520:	e0 91 59 07 	lds	r30, 0x0759
    7524:	f0 91 5a 07 	lds	r31, 0x075A
    7528:	80 e0       	ldi	r24, 0x00	; 0
    752a:	09 95       	icall
    752c:	84 ec       	ldi	r24, 0xC4	; 196
    752e:	99 e0       	ldi	r25, 0x09	; 9
    7530:	20 e9       	ldi	r18, 0x90	; 144
    7532:	31 e0       	ldi	r19, 0x01	; 1
    7534:	f9 01       	movw	r30, r18
    7536:	31 97       	sbiw	r30, 0x01	; 1
    7538:	f1 f7       	brne	.-4      	; 0x7536 <TurnRight+0x344>
    753a:	01 97       	sbiw	r24, 0x01	; 1
    753c:	d9 f7       	brne	.-10     	; 0x7534 <TurnRight+0x342>
    753e:	8e e1       	ldi	r24, 0x1E	; 30
    7540:	9a e0       	ldi	r25, 0x0A	; 10
    7542:	6f e1       	ldi	r22, 0x1F	; 31
    7544:	44 e6       	ldi	r20, 0x64	; 100
    7546:	50 e0       	ldi	r21, 0x00	; 0
    7548:	9e 01       	movw	r18, r28
    754a:	2e 5f       	subi	r18, 0xFE	; 254
    754c:	3f 4f       	sbci	r19, 0xFF	; 255
    754e:	0e 94 16 34 	call	0x682c	; 0x682c <ControlSynchronous4Dof>
    7552:	e0 91 e0 03 	lds	r30, 0x03E0
    7556:	f0 91 e1 03 	lds	r31, 0x03E1
    755a:	09 95       	icall
    755c:	88 ee       	ldi	r24, 0xE8	; 232
    755e:	93 e0       	ldi	r25, 0x03	; 3
    7560:	20 e9       	ldi	r18, 0x90	; 144
    7562:	31 e0       	ldi	r19, 0x01	; 1
    7564:	f9 01       	movw	r30, r18
    7566:	31 97       	sbiw	r30, 0x01	; 1
    7568:	f1 f7       	brne	.-4      	; 0x7566 <TurnRight+0x374>
    756a:	01 97       	sbiw	r24, 0x01	; 1
    756c:	d9 f7       	brne	.-10     	; 0x7564 <TurnRight+0x372>
    756e:	86 e4       	ldi	r24, 0x46	; 70
    7570:	9a e0       	ldi	r25, 0x0A	; 10
    7572:	6f e1       	ldi	r22, 0x1F	; 31
    7574:	4a ef       	ldi	r20, 0xFA	; 250
    7576:	50 e0       	ldi	r21, 0x00	; 0
    7578:	9e 01       	movw	r18, r28
    757a:	2e 5f       	subi	r18, 0xFE	; 254
    757c:	3f 4f       	sbci	r19, 0xFF	; 255
    757e:	0e 94 16 34 	call	0x682c	; 0x682c <ControlSynchronous4Dof>
    7582:	e0 91 e0 03 	lds	r30, 0x03E0
    7586:	f0 91 e1 03 	lds	r31, 0x03E1
    758a:	09 95       	icall
    758c:	84 ec       	ldi	r24, 0xC4	; 196
    758e:	99 e0       	ldi	r25, 0x09	; 9
    7590:	20 e9       	ldi	r18, 0x90	; 144
    7592:	31 e0       	ldi	r19, 0x01	; 1
    7594:	f9 01       	movw	r30, r18
    7596:	31 97       	sbiw	r30, 0x01	; 1
    7598:	f1 f7       	brne	.-4      	; 0x7596 <TurnRight+0x3a4>
    759a:	01 97       	sbiw	r24, 0x01	; 1
    759c:	d9 f7       	brne	.-10     	; 0x7594 <TurnRight+0x3a2>
    759e:	e0 91 28 04 	lds	r30, 0x0428
    75a2:	f0 91 29 04 	lds	r31, 0x0429
    75a6:	80 e1       	ldi	r24, 0x10	; 16
    75a8:	60 e0       	ldi	r22, 0x00	; 0
    75aa:	09 95       	icall
    75ac:	0f 90       	pop	r0
    75ae:	0f 90       	pop	r0
    75b0:	0f 90       	pop	r0
    75b2:	cf 91       	pop	r28
    75b4:	df 91       	pop	r29
    75b6:	1f 91       	pop	r17
    75b8:	0f 91       	pop	r16
    75ba:	08 95       	ret

000075bc <SitDown>:
    75bc:	0f 93       	push	r16
    75be:	1f 93       	push	r17
    75c0:	df 93       	push	r29
    75c2:	cf 93       	push	r28
    75c4:	00 d0       	rcall	.+0      	; 0x75c6 <SitDown+0xa>
    75c6:	cd b7       	in	r28, 0x3d	; 61
    75c8:	de b7       	in	r29, 0x3e	; 62
    75ca:	1a 82       	std	Y+2, r1	; 0x02
    75cc:	19 82       	std	Y+1, r1	; 0x01
    75ce:	82 e1       	ldi	r24, 0x12	; 18
    75d0:	9a e0       	ldi	r25, 0x0A	; 10
    75d2:	6b e0       	ldi	r22, 0x0B	; 11
    75d4:	40 e9       	ldi	r20, 0x90	; 144
    75d6:	51 e0       	ldi	r21, 0x01	; 1
    75d8:	8e 01       	movw	r16, r28
    75da:	0f 5f       	subi	r16, 0xFF	; 255
    75dc:	1f 4f       	sbci	r17, 0xFF	; 255
    75de:	98 01       	movw	r18, r16
    75e0:	0e 94 16 34 	call	0x682c	; 0x682c <ControlSynchronous4Dof>
    75e4:	82 e1       	ldi	r24, 0x12	; 18
    75e6:	9a e0       	ldi	r25, 0x0A	; 10
    75e8:	65 e1       	ldi	r22, 0x15	; 21
    75ea:	40 e9       	ldi	r20, 0x90	; 144
    75ec:	51 e0       	ldi	r21, 0x01	; 1
    75ee:	98 01       	movw	r18, r16
    75f0:	0e 94 16 34 	call	0x682c	; 0x682c <ControlSynchronous4Dof>
    75f4:	8a e0       	ldi	r24, 0x0A	; 10
    75f6:	9a e0       	ldi	r25, 0x0A	; 10
    75f8:	6f e1       	ldi	r22, 0x1F	; 31
    75fa:	40 e9       	ldi	r20, 0x90	; 144
    75fc:	51 e0       	ldi	r21, 0x01	; 1
    75fe:	98 01       	movw	r18, r16
    7600:	0e 94 16 34 	call	0x682c	; 0x682c <ControlSynchronous4Dof>
    7604:	8a e0       	ldi	r24, 0x0A	; 10
    7606:	9a e0       	ldi	r25, 0x0A	; 10
    7608:	69 e2       	ldi	r22, 0x29	; 41
    760a:	40 e9       	ldi	r20, 0x90	; 144
    760c:	51 e0       	ldi	r21, 0x01	; 1
    760e:	98 01       	movw	r18, r16
    7610:	0e 94 16 34 	call	0x682c	; 0x682c <ControlSynchronous4Dof>
    7614:	e0 91 e0 03 	lds	r30, 0x03E0
    7618:	f0 91 e1 03 	lds	r31, 0x03E1
    761c:	09 95       	icall
    761e:	80 ea       	ldi	r24, 0xA0	; 160
    7620:	9f e0       	ldi	r25, 0x0F	; 15
    7622:	20 e9       	ldi	r18, 0x90	; 144
    7624:	31 e0       	ldi	r19, 0x01	; 1
    7626:	f9 01       	movw	r30, r18
    7628:	31 97       	sbiw	r30, 0x01	; 1
    762a:	f1 f7       	brne	.-4      	; 0x7628 <SitDown+0x6c>
    762c:	01 97       	sbiw	r24, 0x01	; 1
    762e:	d9 f7       	brne	.-10     	; 0x7626 <SitDown+0x6a>
    7630:	82 e0       	ldi	r24, 0x02	; 2
    7632:	9a e0       	ldi	r25, 0x0A	; 10
    7634:	6b e0       	ldi	r22, 0x0B	; 11
    7636:	40 e2       	ldi	r20, 0x20	; 32
    7638:	53 e0       	ldi	r21, 0x03	; 3
    763a:	8e 01       	movw	r16, r28
    763c:	0f 5f       	subi	r16, 0xFF	; 255
    763e:	1f 4f       	sbci	r17, 0xFF	; 255
    7640:	98 01       	movw	r18, r16
    7642:	0e 94 16 34 	call	0x682c	; 0x682c <ControlSynchronous4Dof>
    7646:	82 e0       	ldi	r24, 0x02	; 2
    7648:	9a e0       	ldi	r25, 0x0A	; 10
    764a:	65 e1       	ldi	r22, 0x15	; 21
    764c:	40 e2       	ldi	r20, 0x20	; 32
    764e:	53 e0       	ldi	r21, 0x03	; 3
    7650:	98 01       	movw	r18, r16
    7652:	0e 94 16 34 	call	0x682c	; 0x682c <ControlSynchronous4Dof>
    7656:	8a ef       	ldi	r24, 0xFA	; 250
    7658:	99 e0       	ldi	r25, 0x09	; 9
    765a:	6f e1       	ldi	r22, 0x1F	; 31
    765c:	40 eb       	ldi	r20, 0xB0	; 176
    765e:	54 e0       	ldi	r21, 0x04	; 4
    7660:	98 01       	movw	r18, r16
    7662:	0e 94 16 34 	call	0x682c	; 0x682c <ControlSynchronous4Dof>
    7666:	8a ef       	ldi	r24, 0xFA	; 250
    7668:	99 e0       	ldi	r25, 0x09	; 9
    766a:	69 e2       	ldi	r22, 0x29	; 41
    766c:	40 eb       	ldi	r20, 0xB0	; 176
    766e:	54 e0       	ldi	r21, 0x04	; 4
    7670:	98 01       	movw	r18, r16
    7672:	0e 94 16 34 	call	0x682c	; 0x682c <ControlSynchronous4Dof>
    7676:	e0 91 e0 03 	lds	r30, 0x03E0
    767a:	f0 91 e1 03 	lds	r31, 0x03E1
    767e:	09 95       	icall
    7680:	80 ee       	ldi	r24, 0xE0	; 224
    7682:	9e e2       	ldi	r25, 0x2E	; 46
    7684:	20 e9       	ldi	r18, 0x90	; 144
    7686:	31 e0       	ldi	r19, 0x01	; 1
    7688:	f9 01       	movw	r30, r18
    768a:	31 97       	sbiw	r30, 0x01	; 1
    768c:	f1 f7       	brne	.-4      	; 0x768a <SitDown+0xce>
    768e:	01 97       	sbiw	r24, 0x01	; 1
    7690:	d9 f7       	brne	.-10     	; 0x7688 <SitDown+0xcc>
    7692:	88 e8       	ldi	r24, 0x88	; 136
    7694:	9f ef       	ldi	r25, 0xFF	; 255
    7696:	62 e0       	ldi	r22, 0x02	; 2
    7698:	4c eb       	ldi	r20, 0xBC	; 188
    769a:	52 e0       	ldi	r21, 0x02	; 2
    769c:	9e 01       	movw	r18, r28
    769e:	2f 5f       	subi	r18, 0xFF	; 255
    76a0:	3f 4f       	sbci	r19, 0xFF	; 255
    76a2:	0e 94 e3 34 	call	0x69c6	; 0x69c6 <ControlSynchronous1Dof>
    76a6:	e0 91 e0 03 	lds	r30, 0x03E0
    76aa:	f0 91 e1 03 	lds	r31, 0x03E1
    76ae:	09 95       	icall
    76b0:	88 e5       	ldi	r24, 0x58	; 88
    76b2:	9b e1       	ldi	r25, 0x1B	; 27
    76b4:	20 e9       	ldi	r18, 0x90	; 144
    76b6:	31 e0       	ldi	r19, 0x01	; 1
    76b8:	f9 01       	movw	r30, r18
    76ba:	31 97       	sbiw	r30, 0x01	; 1
    76bc:	f1 f7       	brne	.-4      	; 0x76ba <SitDown+0xfe>
    76be:	01 97       	sbiw	r24, 0x01	; 1
    76c0:	d9 f7       	brne	.-10     	; 0x76b8 <SitDown+0xfc>
    76c2:	86 e4       	ldi	r24, 0x46	; 70
    76c4:	90 e0       	ldi	r25, 0x00	; 0
    76c6:	62 e0       	ldi	r22, 0x02	; 2
    76c8:	4c eb       	ldi	r20, 0xBC	; 188
    76ca:	52 e0       	ldi	r21, 0x02	; 2
    76cc:	9e 01       	movw	r18, r28
    76ce:	2f 5f       	subi	r18, 0xFF	; 255
    76d0:	3f 4f       	sbci	r19, 0xFF	; 255
    76d2:	0e 94 e3 34 	call	0x69c6	; 0x69c6 <ControlSynchronous1Dof>
    76d6:	e0 91 e0 03 	lds	r30, 0x03E0
    76da:	f0 91 e1 03 	lds	r31, 0x03E1
    76de:	09 95       	icall
    76e0:	88 e5       	ldi	r24, 0x58	; 88
    76e2:	9b e1       	ldi	r25, 0x1B	; 27
    76e4:	20 e9       	ldi	r18, 0x90	; 144
    76e6:	31 e0       	ldi	r19, 0x01	; 1
    76e8:	f9 01       	movw	r30, r18
    76ea:	31 97       	sbiw	r30, 0x01	; 1
    76ec:	f1 f7       	brne	.-4      	; 0x76ea <SitDown+0x12e>
    76ee:	01 97       	sbiw	r24, 0x01	; 1
    76f0:	d9 f7       	brne	.-10     	; 0x76e8 <SitDown+0x12c>
    76f2:	0f 90       	pop	r0
    76f4:	0f 90       	pop	r0
    76f6:	cf 91       	pop	r28
    76f8:	df 91       	pop	r29
    76fa:	1f 91       	pop	r17
    76fc:	0f 91       	pop	r16
    76fe:	08 95       	ret

00007700 <Stand>:
    7700:	0f 93       	push	r16
    7702:	1f 93       	push	r17
    7704:	df 93       	push	r29
    7706:	cf 93       	push	r28
    7708:	00 d0       	rcall	.+0      	; 0x770a <Stand+0xa>
    770a:	cd b7       	in	r28, 0x3d	; 61
    770c:	de b7       	in	r29, 0x3e	; 62
    770e:	1a 82       	std	Y+2, r1	; 0x02
    7710:	19 82       	std	Y+1, r1	; 0x01
    7712:	82 ef       	ldi	r24, 0xF2	; 242
    7714:	99 e0       	ldi	r25, 0x09	; 9
    7716:	6b e0       	ldi	r22, 0x0B	; 11
    7718:	48 e0       	ldi	r20, 0x08	; 8
    771a:	57 e0       	ldi	r21, 0x07	; 7
    771c:	8e 01       	movw	r16, r28
    771e:	0f 5f       	subi	r16, 0xFF	; 255
    7720:	1f 4f       	sbci	r17, 0xFF	; 255
    7722:	98 01       	movw	r18, r16
    7724:	0e 94 16 34 	call	0x682c	; 0x682c <ControlSynchronous4Dof>
    7728:	82 ef       	ldi	r24, 0xF2	; 242
    772a:	99 e0       	ldi	r25, 0x09	; 9
    772c:	65 e1       	ldi	r22, 0x15	; 21
    772e:	48 e0       	ldi	r20, 0x08	; 8
    7730:	57 e0       	ldi	r21, 0x07	; 7
    7732:	98 01       	movw	r18, r16
    7734:	0e 94 16 34 	call	0x682c	; 0x682c <ControlSynchronous4Dof>
    7738:	8a ee       	ldi	r24, 0xEA	; 234
    773a:	99 e0       	ldi	r25, 0x09	; 9
    773c:	6f e1       	ldi	r22, 0x1F	; 31
    773e:	48 e0       	ldi	r20, 0x08	; 8
    7740:	57 e0       	ldi	r21, 0x07	; 7
    7742:	98 01       	movw	r18, r16
    7744:	0e 94 16 34 	call	0x682c	; 0x682c <ControlSynchronous4Dof>
    7748:	8a ee       	ldi	r24, 0xEA	; 234
    774a:	99 e0       	ldi	r25, 0x09	; 9
    774c:	69 e2       	ldi	r22, 0x29	; 41
    774e:	48 e0       	ldi	r20, 0x08	; 8
    7750:	57 e0       	ldi	r21, 0x07	; 7
    7752:	98 01       	movw	r18, r16
    7754:	0e 94 16 34 	call	0x682c	; 0x682c <ControlSynchronous4Dof>
    7758:	e0 91 e0 03 	lds	r30, 0x03E0
    775c:	f0 91 e1 03 	lds	r31, 0x03E1
    7760:	09 95       	icall
    7762:	80 ed       	ldi	r24, 0xD0	; 208
    7764:	97 e0       	ldi	r25, 0x07	; 7
    7766:	20 e9       	ldi	r18, 0x90	; 144
    7768:	31 e0       	ldi	r19, 0x01	; 1
    776a:	f9 01       	movw	r30, r18
    776c:	31 97       	sbiw	r30, 0x01	; 1
    776e:	f1 f7       	brne	.-4      	; 0x776c <Stand+0x6c>
    7770:	01 97       	sbiw	r24, 0x01	; 1
    7772:	d9 f7       	brne	.-10     	; 0x776a <Stand+0x6a>
    7774:	80 e0       	ldi	r24, 0x00	; 0
    7776:	90 e0       	ldi	r25, 0x00	; 0
    7778:	61 e0       	ldi	r22, 0x01	; 1
    777a:	44 ef       	ldi	r20, 0xF4	; 244
    777c:	51 e0       	ldi	r21, 0x01	; 1
    777e:	8e 01       	movw	r16, r28
    7780:	0f 5f       	subi	r16, 0xFF	; 255
    7782:	1f 4f       	sbci	r17, 0xFF	; 255
    7784:	98 01       	movw	r18, r16
    7786:	0e 94 e3 34 	call	0x69c6	; 0x69c6 <ControlSynchronous1Dof>
    778a:	80 e0       	ldi	r24, 0x00	; 0
    778c:	90 e0       	ldi	r25, 0x00	; 0
    778e:	62 e0       	ldi	r22, 0x02	; 2
    7790:	44 ef       	ldi	r20, 0xF4	; 244
    7792:	51 e0       	ldi	r21, 0x01	; 1
    7794:	98 01       	movw	r18, r16
    7796:	0e 94 e3 34 	call	0x69c6	; 0x69c6 <ControlSynchronous1Dof>
    779a:	80 e0       	ldi	r24, 0x00	; 0
    779c:	90 e0       	ldi	r25, 0x00	; 0
    779e:	63 e0       	ldi	r22, 0x03	; 3
    77a0:	44 ef       	ldi	r20, 0xF4	; 244
    77a2:	51 e0       	ldi	r21, 0x01	; 1
    77a4:	98 01       	movw	r18, r16
    77a6:	0e 94 e3 34 	call	0x69c6	; 0x69c6 <ControlSynchronous1Dof>
    77aa:	e0 91 e0 03 	lds	r30, 0x03E0
    77ae:	f0 91 e1 03 	lds	r31, 0x03E1
    77b2:	09 95       	icall
    77b4:	80 e5       	ldi	r24, 0x50	; 80
    77b6:	96 e4       	ldi	r25, 0x46	; 70
    77b8:	20 e9       	ldi	r18, 0x90	; 144
    77ba:	31 e0       	ldi	r19, 0x01	; 1
    77bc:	f9 01       	movw	r30, r18
    77be:	31 97       	sbiw	r30, 0x01	; 1
    77c0:	f1 f7       	brne	.-4      	; 0x77be <Stand+0xbe>
    77c2:	01 97       	sbiw	r24, 0x01	; 1
    77c4:	d9 f7       	brne	.-10     	; 0x77bc <Stand+0xbc>
    77c6:	0f 90       	pop	r0
    77c8:	0f 90       	pop	r0
    77ca:	cf 91       	pop	r28
    77cc:	df 91       	pop	r29
    77ce:	1f 91       	pop	r17
    77d0:	0f 91       	pop	r16
    77d2:	08 95       	ret

000077d4 <ShookHands>:
    77d4:	cf 92       	push	r12
    77d6:	df 92       	push	r13
    77d8:	ef 92       	push	r14
    77da:	ff 92       	push	r15
    77dc:	0f 93       	push	r16
    77de:	1f 93       	push	r17
    77e0:	df 93       	push	r29
    77e2:	cf 93       	push	r28
    77e4:	00 d0       	rcall	.+0      	; 0x77e6 <ShookHands+0x12>
    77e6:	cd b7       	in	r28, 0x3d	; 61
    77e8:	de b7       	in	r29, 0x3e	; 62
    77ea:	1a 82       	std	Y+2, r1	; 0x02
    77ec:	19 82       	std	Y+1, r1	; 0x01
    77ee:	8c e9       	ldi	r24, 0x9C	; 156
    77f0:	9f ef       	ldi	r25, 0xFF	; 255
    77f2:	61 e0       	ldi	r22, 0x01	; 1
    77f4:	48 e5       	ldi	r20, 0x58	; 88
    77f6:	52 e0       	ldi	r21, 0x02	; 2
    77f8:	8e 01       	movw	r16, r28
    77fa:	0f 5f       	subi	r16, 0xFF	; 255
    77fc:	1f 4f       	sbci	r17, 0xFF	; 255
    77fe:	98 01       	movw	r18, r16
    7800:	0e 94 e3 34 	call	0x69c6	; 0x69c6 <ControlSynchronous1Dof>
    7804:	8a eb       	ldi	r24, 0xBA	; 186
    7806:	9f ef       	ldi	r25, 0xFF	; 255
    7808:	62 e0       	ldi	r22, 0x02	; 2
    780a:	48 e5       	ldi	r20, 0x58	; 88
    780c:	52 e0       	ldi	r21, 0x02	; 2
    780e:	98 01       	movw	r18, r16
    7810:	0e 94 e3 34 	call	0x69c6	; 0x69c6 <ControlSynchronous1Dof>
    7814:	e0 91 e0 03 	lds	r30, 0x03E0
    7818:	f0 91 e1 03 	lds	r31, 0x03E1
    781c:	09 95       	icall
    781e:	80 e7       	ldi	r24, 0x70	; 112
    7820:	97 e1       	ldi	r25, 0x17	; 23
    7822:	20 e9       	ldi	r18, 0x90	; 144
    7824:	31 e0       	ldi	r19, 0x01	; 1
    7826:	f9 01       	movw	r30, r18
    7828:	31 97       	sbiw	r30, 0x01	; 1
    782a:	f1 f7       	brne	.-4      	; 0x7828 <ShookHands+0x54>
    782c:	01 97       	sbiw	r24, 0x01	; 1
    782e:	d9 f7       	brne	.-10     	; 0x7826 <ShookHands+0x52>
    7830:	82 ed       	ldi	r24, 0xD2	; 210
    7832:	99 e0       	ldi	r25, 0x09	; 9
    7834:	6b e0       	ldi	r22, 0x0B	; 11
    7836:	4c e2       	ldi	r20, 0x2C	; 44
    7838:	51 e0       	ldi	r21, 0x01	; 1
    783a:	8e 01       	movw	r16, r28
    783c:	0f 5f       	subi	r16, 0xFF	; 255
    783e:	1f 4f       	sbci	r17, 0xFF	; 255
    7840:	98 01       	movw	r18, r16
    7842:	0e 94 16 34 	call	0x682c	; 0x682c <ControlSynchronous4Dof>
    7846:	8a ec       	ldi	r24, 0xCA	; 202
    7848:	99 e0       	ldi	r25, 0x09	; 9
    784a:	65 e1       	ldi	r22, 0x15	; 21
    784c:	4c e2       	ldi	r20, 0x2C	; 44
    784e:	51 e0       	ldi	r21, 0x01	; 1
    7850:	98 01       	movw	r18, r16
    7852:	0e 94 16 34 	call	0x682c	; 0x682c <ControlSynchronous4Dof>
    7856:	e0 91 e0 03 	lds	r30, 0x03E0
    785a:	f0 91 e1 03 	lds	r31, 0x03E1
    785e:	09 95       	icall
    7860:	88 eb       	ldi	r24, 0xB8	; 184
    7862:	9b e0       	ldi	r25, 0x0B	; 11
    7864:	20 e9       	ldi	r18, 0x90	; 144
    7866:	31 e0       	ldi	r19, 0x01	; 1
    7868:	f9 01       	movw	r30, r18
    786a:	31 97       	sbiw	r30, 0x01	; 1
    786c:	f1 f7       	brne	.-4      	; 0x786a <ShookHands+0x96>
    786e:	01 97       	sbiw	r24, 0x01	; 1
    7870:	d9 f7       	brne	.-10     	; 0x7868 <ShookHands+0x94>
    7872:	82 ec       	ldi	r24, 0xC2	; 194
    7874:	99 e0       	ldi	r25, 0x09	; 9
    7876:	65 e1       	ldi	r22, 0x15	; 21
    7878:	48 e5       	ldi	r20, 0x58	; 88
    787a:	52 e0       	ldi	r21, 0x02	; 2
    787c:	8e 01       	movw	r16, r28
    787e:	0f 5f       	subi	r16, 0xFF	; 255
    7880:	1f 4f       	sbci	r17, 0xFF	; 255
    7882:	98 01       	movw	r18, r16
    7884:	0e 94 16 34 	call	0x682c	; 0x682c <ControlSynchronous4Dof>
    7888:	82 eb       	ldi	r24, 0xB2	; 178
    788a:	99 e0       	ldi	r25, 0x09	; 9
    788c:	6f e1       	ldi	r22, 0x1F	; 31
    788e:	48 e5       	ldi	r20, 0x58	; 88
    7890:	52 e0       	ldi	r21, 0x02	; 2
    7892:	98 01       	movw	r18, r16
    7894:	0e 94 16 34 	call	0x682c	; 0x682c <ControlSynchronous4Dof>
    7898:	8a ea       	ldi	r24, 0xAA	; 170
    789a:	99 e0       	ldi	r25, 0x09	; 9
    789c:	69 e2       	ldi	r22, 0x29	; 41
    789e:	48 e5       	ldi	r20, 0x58	; 88
    78a0:	52 e0       	ldi	r21, 0x02	; 2
    78a2:	98 01       	movw	r18, r16
    78a4:	0e 94 16 34 	call	0x682c	; 0x682c <ControlSynchronous4Dof>
    78a8:	e0 91 e0 03 	lds	r30, 0x03E0
    78ac:	f0 91 e1 03 	lds	r31, 0x03E1
    78b0:	09 95       	icall
    78b2:	80 e7       	ldi	r24, 0x70	; 112
    78b4:	97 e1       	ldi	r25, 0x17	; 23
    78b6:	20 e9       	ldi	r18, 0x90	; 144
    78b8:	31 e0       	ldi	r19, 0x01	; 1
    78ba:	f9 01       	movw	r30, r18
    78bc:	31 97       	sbiw	r30, 0x01	; 1
    78be:	f1 f7       	brne	.-4      	; 0x78bc <ShookHands+0xe8>
    78c0:	01 97       	sbiw	r24, 0x01	; 1
    78c2:	d9 f7       	brne	.-10     	; 0x78ba <ShookHands+0xe6>
    78c4:	00 e0       	ldi	r16, 0x00	; 0
    78c6:	6e 01       	movw	r12, r28
    78c8:	08 94       	sec
    78ca:	c1 1c       	adc	r12, r1
    78cc:	d1 1c       	adc	r13, r1
    78ce:	30 e9       	ldi	r19, 0x90	; 144
    78d0:	e3 2e       	mov	r14, r19
    78d2:	31 e0       	ldi	r19, 0x01	; 1
    78d4:	f3 2e       	mov	r15, r19
    78d6:	82 ee       	ldi	r24, 0xE2	; 226
    78d8:	99 e0       	ldi	r25, 0x09	; 9
    78da:	65 e1       	ldi	r22, 0x15	; 21
    78dc:	4c e2       	ldi	r20, 0x2C	; 44
    78de:	51 e0       	ldi	r21, 0x01	; 1
    78e0:	96 01       	movw	r18, r12
    78e2:	0e 94 16 34 	call	0x682c	; 0x682c <ControlSynchronous4Dof>
    78e6:	e0 91 e0 03 	lds	r30, 0x03E0
    78ea:	f0 91 e1 03 	lds	r31, 0x03E1
    78ee:	09 95       	icall
    78f0:	88 eb       	ldi	r24, 0xB8	; 184
    78f2:	9b e0       	ldi	r25, 0x0B	; 11
    78f4:	f7 01       	movw	r30, r14
    78f6:	31 97       	sbiw	r30, 0x01	; 1
    78f8:	f1 f7       	brne	.-4      	; 0x78f6 <ShookHands+0x122>
    78fa:	01 97       	sbiw	r24, 0x01	; 1
    78fc:	d9 f7       	brne	.-10     	; 0x78f4 <ShookHands+0x120>
    78fe:	8a ed       	ldi	r24, 0xDA	; 218
    7900:	99 e0       	ldi	r25, 0x09	; 9
    7902:	65 e1       	ldi	r22, 0x15	; 21
    7904:	4c e2       	ldi	r20, 0x2C	; 44
    7906:	51 e0       	ldi	r21, 0x01	; 1
    7908:	96 01       	movw	r18, r12
    790a:	0e 94 16 34 	call	0x682c	; 0x682c <ControlSynchronous4Dof>
    790e:	e0 91 e0 03 	lds	r30, 0x03E0
    7912:	f0 91 e1 03 	lds	r31, 0x03E1
    7916:	09 95       	icall
    7918:	88 eb       	ldi	r24, 0xB8	; 184
    791a:	9b e0       	ldi	r25, 0x0B	; 11
    791c:	f7 01       	movw	r30, r14
    791e:	31 97       	sbiw	r30, 0x01	; 1
    7920:	f1 f7       	brne	.-4      	; 0x791e <ShookHands+0x14a>
    7922:	01 97       	sbiw	r24, 0x01	; 1
    7924:	d9 f7       	brne	.-10     	; 0x791c <ShookHands+0x148>
    7926:	0f 5f       	subi	r16, 0xFF	; 255
    7928:	03 30       	cpi	r16, 0x03	; 3
    792a:	a9 f6       	brne	.-86     	; 0x78d6 <ShookHands+0x102>
    792c:	8a eb       	ldi	r24, 0xBA	; 186
    792e:	99 e0       	ldi	r25, 0x09	; 9
    7930:	65 e1       	ldi	r22, 0x15	; 21
    7932:	40 eb       	ldi	r20, 0xB0	; 176
    7934:	54 e0       	ldi	r21, 0x04	; 4
    7936:	9e 01       	movw	r18, r28
    7938:	2f 5f       	subi	r18, 0xFF	; 255
    793a:	3f 4f       	sbci	r19, 0xFF	; 255
    793c:	0e 94 16 34 	call	0x682c	; 0x682c <ControlSynchronous4Dof>
    7940:	e0 91 e0 03 	lds	r30, 0x03E0
    7944:	f0 91 e1 03 	lds	r31, 0x03E1
    7948:	09 95       	icall
    794a:	80 ee       	ldi	r24, 0xE0	; 224
    794c:	9e e2       	ldi	r25, 0x2E	; 46
    794e:	20 e9       	ldi	r18, 0x90	; 144
    7950:	31 e0       	ldi	r19, 0x01	; 1
    7952:	f9 01       	movw	r30, r18
    7954:	31 97       	sbiw	r30, 0x01	; 1
    7956:	f1 f7       	brne	.-4      	; 0x7954 <ShookHands+0x180>
    7958:	01 97       	sbiw	r24, 0x01	; 1
    795a:	d9 f7       	brne	.-10     	; 0x7952 <ShookHands+0x17e>
    795c:	0f 90       	pop	r0
    795e:	0f 90       	pop	r0
    7960:	cf 91       	pop	r28
    7962:	df 91       	pop	r29
    7964:	1f 91       	pop	r17
    7966:	0f 91       	pop	r16
    7968:	ff 90       	pop	r15
    796a:	ef 90       	pop	r14
    796c:	df 90       	pop	r13
    796e:	cf 90       	pop	r12
    7970:	08 95       	ret

00007972 <Urination>:
    7972:	0f 93       	push	r16
    7974:	1f 93       	push	r17
    7976:	df 93       	push	r29
    7978:	cf 93       	push	r28
    797a:	cd b7       	in	r28, 0x3d	; 61
    797c:	de b7       	in	r29, 0x3e	; 62
    797e:	2a 97       	sbiw	r28, 0x0a	; 10
    7980:	0f b6       	in	r0, 0x3f	; 63
    7982:	f8 94       	cli
    7984:	de bf       	out	0x3e, r29	; 62
    7986:	0f be       	out	0x3f, r0	; 63
    7988:	cd bf       	out	0x3d, r28	; 61
    798a:	de 01       	movw	r26, r28
    798c:	13 96       	adiw	r26, 0x03	; 3
    798e:	e2 ea       	ldi	r30, 0xA2	; 162
    7990:	f9 e0       	ldi	r31, 0x09	; 9
    7992:	88 e0       	ldi	r24, 0x08	; 8
    7994:	01 90       	ld	r0, Z+
    7996:	0d 92       	st	X+, r0
    7998:	81 50       	subi	r24, 0x01	; 1
    799a:	e1 f7       	brne	.-8      	; 0x7994 <Urination+0x22>
    799c:	1a 82       	std	Y+2, r1	; 0x02
    799e:	19 82       	std	Y+1, r1	; 0x01
    79a0:	8a e5       	ldi	r24, 0x5A	; 90
    79a2:	90 e0       	ldi	r25, 0x00	; 0
    79a4:	61 e0       	ldi	r22, 0x01	; 1
    79a6:	44 ef       	ldi	r20, 0xF4	; 244
    79a8:	51 e0       	ldi	r21, 0x01	; 1
    79aa:	8e 01       	movw	r16, r28
    79ac:	0f 5f       	subi	r16, 0xFF	; 255
    79ae:	1f 4f       	sbci	r17, 0xFF	; 255
    79b0:	98 01       	movw	r18, r16
    79b2:	0e 94 e3 34 	call	0x69c6	; 0x69c6 <ControlSynchronous1Dof>
    79b6:	86 e9       	ldi	r24, 0x96	; 150
    79b8:	90 e0       	ldi	r25, 0x00	; 0
    79ba:	62 e0       	ldi	r22, 0x02	; 2
    79bc:	4c eb       	ldi	r20, 0xBC	; 188
    79be:	52 e0       	ldi	r21, 0x02	; 2
    79c0:	98 01       	movw	r18, r16
    79c2:	0e 94 e3 34 	call	0x69c6	; 0x69c6 <ControlSynchronous1Dof>
    79c6:	e0 91 e0 03 	lds	r30, 0x03E0
    79ca:	f0 91 e1 03 	lds	r31, 0x03E1
    79ce:	09 95       	icall
    79d0:	80 e4       	ldi	r24, 0x40	; 64
    79d2:	9f e1       	ldi	r25, 0x1F	; 31
    79d4:	20 e9       	ldi	r18, 0x90	; 144
    79d6:	31 e0       	ldi	r19, 0x01	; 1
    79d8:	f9 01       	movw	r30, r18
    79da:	31 97       	sbiw	r30, 0x01	; 1
    79dc:	f1 f7       	brne	.-4      	; 0x79da <Urination+0x68>
    79de:	01 97       	sbiw	r24, 0x01	; 1
    79e0:	d9 f7       	brne	.-10     	; 0x79d8 <Urination+0x66>
    79e2:	8a e9       	ldi	r24, 0x9A	; 154
    79e4:	99 e0       	ldi	r25, 0x09	; 9
    79e6:	6b e0       	ldi	r22, 0x0B	; 11
    79e8:	40 eb       	ldi	r20, 0xB0	; 176
    79ea:	54 e0       	ldi	r21, 0x04	; 4
    79ec:	8e 01       	movw	r16, r28
    79ee:	0f 5f       	subi	r16, 0xFF	; 255
    79f0:	1f 4f       	sbci	r17, 0xFF	; 255
    79f2:	98 01       	movw	r18, r16
    79f4:	0e 94 16 34 	call	0x682c	; 0x682c <ControlSynchronous4Dof>
    79f8:	ce 01       	movw	r24, r28
    79fa:	03 96       	adiw	r24, 0x03	; 3
    79fc:	65 e1       	ldi	r22, 0x15	; 21
    79fe:	40 eb       	ldi	r20, 0xB0	; 176
    7a00:	54 e0       	ldi	r21, 0x04	; 4
    7a02:	98 01       	movw	r18, r16
    7a04:	0e 94 16 34 	call	0x682c	; 0x682c <ControlSynchronous4Dof>
    7a08:	82 e9       	ldi	r24, 0x92	; 146
    7a0a:	99 e0       	ldi	r25, 0x09	; 9
    7a0c:	6f e1       	ldi	r22, 0x1F	; 31
    7a0e:	40 eb       	ldi	r20, 0xB0	; 176
    7a10:	54 e0       	ldi	r21, 0x04	; 4
    7a12:	98 01       	movw	r18, r16
    7a14:	0e 94 16 34 	call	0x682c	; 0x682c <ControlSynchronous4Dof>
    7a18:	8a e8       	ldi	r24, 0x8A	; 138
    7a1a:	99 e0       	ldi	r25, 0x09	; 9
    7a1c:	69 e2       	ldi	r22, 0x29	; 41
    7a1e:	40 e2       	ldi	r20, 0x20	; 32
    7a20:	53 e0       	ldi	r21, 0x03	; 3
    7a22:	98 01       	movw	r18, r16
    7a24:	0e 94 16 34 	call	0x682c	; 0x682c <ControlSynchronous4Dof>
    7a28:	e0 91 e0 03 	lds	r30, 0x03E0
    7a2c:	f0 91 e1 03 	lds	r31, 0x03E1
    7a30:	09 95       	icall
    7a32:	80 e4       	ldi	r24, 0x40	; 64
    7a34:	9f e1       	ldi	r25, 0x1F	; 31
    7a36:	20 e9       	ldi	r18, 0x90	; 144
    7a38:	31 e0       	ldi	r19, 0x01	; 1
    7a3a:	f9 01       	movw	r30, r18
    7a3c:	31 97       	sbiw	r30, 0x01	; 1
    7a3e:	f1 f7       	brne	.-4      	; 0x7a3c <Urination+0xca>
    7a40:	01 97       	sbiw	r24, 0x01	; 1
    7a42:	d9 f7       	brne	.-10     	; 0x7a3a <Urination+0xc8>
    7a44:	8a e6       	ldi	r24, 0x6A	; 106
    7a46:	99 e0       	ldi	r25, 0x09	; 9
    7a48:	6f e1       	ldi	r22, 0x1F	; 31
    7a4a:	42 e5       	ldi	r20, 0x52	; 82
    7a4c:	53 e0       	ldi	r21, 0x03	; 3
    7a4e:	8e 01       	movw	r16, r28
    7a50:	0f 5f       	subi	r16, 0xFF	; 255
    7a52:	1f 4f       	sbci	r17, 0xFF	; 255
    7a54:	98 01       	movw	r18, r16
    7a56:	0e 94 16 34 	call	0x682c	; 0x682c <ControlSynchronous4Dof>
    7a5a:	82 e8       	ldi	r24, 0x82	; 130
    7a5c:	99 e0       	ldi	r25, 0x09	; 9
    7a5e:	69 e2       	ldi	r22, 0x29	; 41
    7a60:	42 e5       	ldi	r20, 0x52	; 82
    7a62:	53 e0       	ldi	r21, 0x03	; 3
    7a64:	98 01       	movw	r18, r16
    7a66:	0e 94 16 34 	call	0x682c	; 0x682c <ControlSynchronous4Dof>
    7a6a:	e0 91 e0 03 	lds	r30, 0x03E0
    7a6e:	f0 91 e1 03 	lds	r31, 0x03E1
    7a72:	09 95       	icall
    7a74:	88 e4       	ldi	r24, 0x48	; 72
    7a76:	91 e7       	ldi	r25, 0x71	; 113
    7a78:	20 e9       	ldi	r18, 0x90	; 144
    7a7a:	31 e0       	ldi	r19, 0x01	; 1
    7a7c:	f9 01       	movw	r30, r18
    7a7e:	31 97       	sbiw	r30, 0x01	; 1
    7a80:	f1 f7       	brne	.-4      	; 0x7a7e <Urination+0x10c>
    7a82:	01 97       	sbiw	r24, 0x01	; 1
    7a84:	d9 f7       	brne	.-10     	; 0x7a7c <Urination+0x10a>
    7a86:	86 ea       	ldi	r24, 0xA6	; 166
    7a88:	9f ef       	ldi	r25, 0xFF	; 255
    7a8a:	61 e0       	ldi	r22, 0x01	; 1
    7a8c:	44 ef       	ldi	r20, 0xF4	; 244
    7a8e:	51 e0       	ldi	r21, 0x01	; 1
    7a90:	8e 01       	movw	r16, r28
    7a92:	0f 5f       	subi	r16, 0xFF	; 255
    7a94:	1f 4f       	sbci	r17, 0xFF	; 255
    7a96:	98 01       	movw	r18, r16
    7a98:	0e 94 e3 34 	call	0x69c6	; 0x69c6 <ControlSynchronous1Dof>
    7a9c:	8a e6       	ldi	r24, 0x6A	; 106
    7a9e:	9f ef       	ldi	r25, 0xFF	; 255
    7aa0:	62 e0       	ldi	r22, 0x02	; 2
    7aa2:	4c eb       	ldi	r20, 0xBC	; 188
    7aa4:	52 e0       	ldi	r21, 0x02	; 2
    7aa6:	98 01       	movw	r18, r16
    7aa8:	0e 94 e3 34 	call	0x69c6	; 0x69c6 <ControlSynchronous1Dof>
    7aac:	e0 91 e0 03 	lds	r30, 0x03E0
    7ab0:	f0 91 e1 03 	lds	r31, 0x03E1
    7ab4:	09 95       	icall
    7ab6:	80 e7       	ldi	r24, 0x70	; 112
    7ab8:	97 e1       	ldi	r25, 0x17	; 23
    7aba:	20 e9       	ldi	r18, 0x90	; 144
    7abc:	31 e0       	ldi	r19, 0x01	; 1
    7abe:	f9 01       	movw	r30, r18
    7ac0:	31 97       	sbiw	r30, 0x01	; 1
    7ac2:	f1 f7       	brne	.-4      	; 0x7ac0 <Urination+0x14e>
    7ac4:	01 97       	sbiw	r24, 0x01	; 1
    7ac6:	d9 f7       	brne	.-10     	; 0x7abe <Urination+0x14c>
    7ac8:	8a e7       	ldi	r24, 0x7A	; 122
    7aca:	99 e0       	ldi	r25, 0x09	; 9
    7acc:	69 e2       	ldi	r22, 0x29	; 41
    7ace:	44 e6       	ldi	r20, 0x64	; 100
    7ad0:	50 e0       	ldi	r21, 0x00	; 0
    7ad2:	9e 01       	movw	r18, r28
    7ad4:	2f 5f       	subi	r18, 0xFF	; 255
    7ad6:	3f 4f       	sbci	r19, 0xFF	; 255
    7ad8:	0e 94 16 34 	call	0x682c	; 0x682c <ControlSynchronous4Dof>
    7adc:	e0 91 e0 03 	lds	r30, 0x03E0
    7ae0:	f0 91 e1 03 	lds	r31, 0x03E1
    7ae4:	09 95       	icall
    7ae6:	88 ee       	ldi	r24, 0xE8	; 232
    7ae8:	93 e0       	ldi	r25, 0x03	; 3
    7aea:	20 e9       	ldi	r18, 0x90	; 144
    7aec:	31 e0       	ldi	r19, 0x01	; 1
    7aee:	f9 01       	movw	r30, r18
    7af0:	31 97       	sbiw	r30, 0x01	; 1
    7af2:	f1 f7       	brne	.-4      	; 0x7af0 <Urination+0x17e>
    7af4:	01 97       	sbiw	r24, 0x01	; 1
    7af6:	d9 f7       	brne	.-10     	; 0x7aee <Urination+0x17c>
    7af8:	82 e7       	ldi	r24, 0x72	; 114
    7afa:	99 e0       	ldi	r25, 0x09	; 9
    7afc:	69 e2       	ldi	r22, 0x29	; 41
    7afe:	44 e6       	ldi	r20, 0x64	; 100
    7b00:	50 e0       	ldi	r21, 0x00	; 0
    7b02:	9e 01       	movw	r18, r28
    7b04:	2f 5f       	subi	r18, 0xFF	; 255
    7b06:	3f 4f       	sbci	r19, 0xFF	; 255
    7b08:	0e 94 16 34 	call	0x682c	; 0x682c <ControlSynchronous4Dof>
    7b0c:	e0 91 e0 03 	lds	r30, 0x03E0
    7b10:	f0 91 e1 03 	lds	r31, 0x03E1
    7b14:	09 95       	icall
    7b16:	88 eb       	ldi	r24, 0xB8	; 184
    7b18:	9b e0       	ldi	r25, 0x0B	; 11
    7b1a:	20 e9       	ldi	r18, 0x90	; 144
    7b1c:	31 e0       	ldi	r19, 0x01	; 1
    7b1e:	f9 01       	movw	r30, r18
    7b20:	31 97       	sbiw	r30, 0x01	; 1
    7b22:	f1 f7       	brne	.-4      	; 0x7b20 <Urination+0x1ae>
    7b24:	01 97       	sbiw	r24, 0x01	; 1
    7b26:	d9 f7       	brne	.-10     	; 0x7b1e <Urination+0x1ac>
    7b28:	8a e7       	ldi	r24, 0x7A	; 122
    7b2a:	99 e0       	ldi	r25, 0x09	; 9
    7b2c:	69 e2       	ldi	r22, 0x29	; 41
    7b2e:	44 e6       	ldi	r20, 0x64	; 100
    7b30:	50 e0       	ldi	r21, 0x00	; 0
    7b32:	9e 01       	movw	r18, r28
    7b34:	2f 5f       	subi	r18, 0xFF	; 255
    7b36:	3f 4f       	sbci	r19, 0xFF	; 255
    7b38:	0e 94 16 34 	call	0x682c	; 0x682c <ControlSynchronous4Dof>
    7b3c:	e0 91 e0 03 	lds	r30, 0x03E0
    7b40:	f0 91 e1 03 	lds	r31, 0x03E1
    7b44:	09 95       	icall
    7b46:	88 ee       	ldi	r24, 0xE8	; 232
    7b48:	93 e0       	ldi	r25, 0x03	; 3
    7b4a:	20 e9       	ldi	r18, 0x90	; 144
    7b4c:	31 e0       	ldi	r19, 0x01	; 1
    7b4e:	f9 01       	movw	r30, r18
    7b50:	31 97       	sbiw	r30, 0x01	; 1
    7b52:	f1 f7       	brne	.-4      	; 0x7b50 <Urination+0x1de>
    7b54:	01 97       	sbiw	r24, 0x01	; 1
    7b56:	d9 f7       	brne	.-10     	; 0x7b4e <Urination+0x1dc>
    7b58:	82 e7       	ldi	r24, 0x72	; 114
    7b5a:	99 e0       	ldi	r25, 0x09	; 9
    7b5c:	69 e2       	ldi	r22, 0x29	; 41
    7b5e:	44 e6       	ldi	r20, 0x64	; 100
    7b60:	50 e0       	ldi	r21, 0x00	; 0
    7b62:	9e 01       	movw	r18, r28
    7b64:	2f 5f       	subi	r18, 0xFF	; 255
    7b66:	3f 4f       	sbci	r19, 0xFF	; 255
    7b68:	0e 94 16 34 	call	0x682c	; 0x682c <ControlSynchronous4Dof>
    7b6c:	e0 91 e0 03 	lds	r30, 0x03E0
    7b70:	f0 91 e1 03 	lds	r31, 0x03E1
    7b74:	09 95       	icall
    7b76:	88 eb       	ldi	r24, 0xB8	; 184
    7b78:	9b e0       	ldi	r25, 0x0B	; 11
    7b7a:	20 e9       	ldi	r18, 0x90	; 144
    7b7c:	31 e0       	ldi	r19, 0x01	; 1
    7b7e:	f9 01       	movw	r30, r18
    7b80:	31 97       	sbiw	r30, 0x01	; 1
    7b82:	f1 f7       	brne	.-4      	; 0x7b80 <Urination+0x20e>
    7b84:	01 97       	sbiw	r24, 0x01	; 1
    7b86:	d9 f7       	brne	.-10     	; 0x7b7e <Urination+0x20c>
    7b88:	2a 96       	adiw	r28, 0x0a	; 10
    7b8a:	0f b6       	in	r0, 0x3f	; 63
    7b8c:	f8 94       	cli
    7b8e:	de bf       	out	0x3e, r29	; 62
    7b90:	0f be       	out	0x3f, r0	; 63
    7b92:	cd bf       	out	0x3d, r28	; 61
    7b94:	cf 91       	pop	r28
    7b96:	df 91       	pop	r29
    7b98:	1f 91       	pop	r17
    7b9a:	0f 91       	pop	r16
    7b9c:	08 95       	ret

00007b9e <GetDown>:
    7b9e:	0f 93       	push	r16
    7ba0:	1f 93       	push	r17
    7ba2:	df 93       	push	r29
    7ba4:	cf 93       	push	r28
    7ba6:	00 d0       	rcall	.+0      	; 0x7ba8 <GetDown+0xa>
    7ba8:	cd b7       	in	r28, 0x3d	; 61
    7baa:	de b7       	in	r29, 0x3e	; 62
    7bac:	1a 82       	std	Y+2, r1	; 0x02
    7bae:	19 82       	std	Y+1, r1	; 0x01
    7bb0:	82 e6       	ldi	r24, 0x62	; 98
    7bb2:	99 e0       	ldi	r25, 0x09	; 9
    7bb4:	6b e0       	ldi	r22, 0x0B	; 11
    7bb6:	48 ee       	ldi	r20, 0xE8	; 232
    7bb8:	53 e0       	ldi	r21, 0x03	; 3
    7bba:	8e 01       	movw	r16, r28
    7bbc:	0f 5f       	subi	r16, 0xFF	; 255
    7bbe:	1f 4f       	sbci	r17, 0xFF	; 255
    7bc0:	98 01       	movw	r18, r16
    7bc2:	0e 94 16 34 	call	0x682c	; 0x682c <ControlSynchronous4Dof>
    7bc6:	82 e6       	ldi	r24, 0x62	; 98
    7bc8:	99 e0       	ldi	r25, 0x09	; 9
    7bca:	65 e1       	ldi	r22, 0x15	; 21
    7bcc:	48 ee       	ldi	r20, 0xE8	; 232
    7bce:	53 e0       	ldi	r21, 0x03	; 3
    7bd0:	98 01       	movw	r18, r16
    7bd2:	0e 94 16 34 	call	0x682c	; 0x682c <ControlSynchronous4Dof>
    7bd6:	8a e5       	ldi	r24, 0x5A	; 90
    7bd8:	99 e0       	ldi	r25, 0x09	; 9
    7bda:	6f e1       	ldi	r22, 0x1F	; 31
    7bdc:	48 ee       	ldi	r20, 0xE8	; 232
    7bde:	53 e0       	ldi	r21, 0x03	; 3
    7be0:	98 01       	movw	r18, r16
    7be2:	0e 94 16 34 	call	0x682c	; 0x682c <ControlSynchronous4Dof>
    7be6:	8a e5       	ldi	r24, 0x5A	; 90
    7be8:	99 e0       	ldi	r25, 0x09	; 9
    7bea:	69 e2       	ldi	r22, 0x29	; 41
    7bec:	48 ee       	ldi	r20, 0xE8	; 232
    7bee:	53 e0       	ldi	r21, 0x03	; 3
    7bf0:	98 01       	movw	r18, r16
    7bf2:	0e 94 16 34 	call	0x682c	; 0x682c <ControlSynchronous4Dof>
    7bf6:	e0 91 e0 03 	lds	r30, 0x03E0
    7bfa:	f0 91 e1 03 	lds	r31, 0x03E1
    7bfe:	09 95       	icall
    7c00:	80 e1       	ldi	r24, 0x10	; 16
    7c02:	97 e2       	ldi	r25, 0x27	; 39
    7c04:	20 e9       	ldi	r18, 0x90	; 144
    7c06:	31 e0       	ldi	r19, 0x01	; 1
    7c08:	f9 01       	movw	r30, r18
    7c0a:	31 97       	sbiw	r30, 0x01	; 1
    7c0c:	f1 f7       	brne	.-4      	; 0x7c0a <GetDown+0x6c>
    7c0e:	01 97       	sbiw	r24, 0x01	; 1
    7c10:	d9 f7       	brne	.-10     	; 0x7c08 <GetDown+0x6a>
    7c12:	0f 90       	pop	r0
    7c14:	0f 90       	pop	r0
    7c16:	cf 91       	pop	r28
    7c18:	df 91       	pop	r29
    7c1a:	1f 91       	pop	r17
    7c1c:	0f 91       	pop	r16
    7c1e:	08 95       	ret

00007c20 <Stretched>:
    7c20:	df 92       	push	r13
    7c22:	ef 92       	push	r14
    7c24:	ff 92       	push	r15
    7c26:	0f 93       	push	r16
    7c28:	1f 93       	push	r17
    7c2a:	df 93       	push	r29
    7c2c:	cf 93       	push	r28
    7c2e:	00 d0       	rcall	.+0      	; 0x7c30 <Stretched+0x10>
    7c30:	cd b7       	in	r28, 0x3d	; 61
    7c32:	de b7       	in	r29, 0x3e	; 62
    7c34:	1a 82       	std	Y+2, r1	; 0x02
    7c36:	19 82       	std	Y+1, r1	; 0x01
    7c38:	8a e4       	ldi	r24, 0x4A	; 74
    7c3a:	99 e0       	ldi	r25, 0x09	; 9
    7c3c:	6b e0       	ldi	r22, 0x0B	; 11
    7c3e:	4c e2       	ldi	r20, 0x2C	; 44
    7c40:	51 e0       	ldi	r21, 0x01	; 1
    7c42:	9e 01       	movw	r18, r28
    7c44:	2f 5f       	subi	r18, 0xFF	; 255
    7c46:	3f 4f       	sbci	r19, 0xFF	; 255
    7c48:	0e 94 16 34 	call	0x682c	; 0x682c <ControlSynchronous4Dof>
    7c4c:	e0 91 e0 03 	lds	r30, 0x03E0
    7c50:	f0 91 e1 03 	lds	r31, 0x03E1
    7c54:	09 95       	icall
    7c56:	88 eb       	ldi	r24, 0xB8	; 184
    7c58:	9b e0       	ldi	r25, 0x0B	; 11
    7c5a:	20 e9       	ldi	r18, 0x90	; 144
    7c5c:	31 e0       	ldi	r19, 0x01	; 1
    7c5e:	f9 01       	movw	r30, r18
    7c60:	31 97       	sbiw	r30, 0x01	; 1
    7c62:	f1 f7       	brne	.-4      	; 0x7c60 <Stretched+0x40>
    7c64:	01 97       	sbiw	r24, 0x01	; 1
    7c66:	d9 f7       	brne	.-10     	; 0x7c5e <Stretched+0x3e>
    7c68:	82 e5       	ldi	r24, 0x52	; 82
    7c6a:	99 e0       	ldi	r25, 0x09	; 9
    7c6c:	6b e0       	ldi	r22, 0x0B	; 11
    7c6e:	40 eb       	ldi	r20, 0xB0	; 176
    7c70:	54 e0       	ldi	r21, 0x04	; 4
    7c72:	8e 01       	movw	r16, r28
    7c74:	0f 5f       	subi	r16, 0xFF	; 255
    7c76:	1f 4f       	sbci	r17, 0xFF	; 255
    7c78:	98 01       	movw	r18, r16
    7c7a:	0e 94 16 34 	call	0x682c	; 0x682c <ControlSynchronous4Dof>
    7c7e:	82 e5       	ldi	r24, 0x52	; 82
    7c80:	99 e0       	ldi	r25, 0x09	; 9
    7c82:	65 e1       	ldi	r22, 0x15	; 21
    7c84:	40 eb       	ldi	r20, 0xB0	; 176
    7c86:	54 e0       	ldi	r21, 0x04	; 4
    7c88:	98 01       	movw	r18, r16
    7c8a:	0e 94 16 34 	call	0x682c	; 0x682c <ControlSynchronous4Dof>
    7c8e:	82 e4       	ldi	r24, 0x42	; 66
    7c90:	99 e0       	ldi	r25, 0x09	; 9
    7c92:	6f e1       	ldi	r22, 0x1F	; 31
    7c94:	40 eb       	ldi	r20, 0xB0	; 176
    7c96:	54 e0       	ldi	r21, 0x04	; 4
    7c98:	98 01       	movw	r18, r16
    7c9a:	0e 94 16 34 	call	0x682c	; 0x682c <ControlSynchronous4Dof>
    7c9e:	82 e4       	ldi	r24, 0x42	; 66
    7ca0:	99 e0       	ldi	r25, 0x09	; 9
    7ca2:	69 e2       	ldi	r22, 0x29	; 41
    7ca4:	40 eb       	ldi	r20, 0xB0	; 176
    7ca6:	54 e0       	ldi	r21, 0x04	; 4
    7ca8:	98 01       	movw	r18, r16
    7caa:	0e 94 16 34 	call	0x682c	; 0x682c <ControlSynchronous4Dof>
    7cae:	e0 91 e0 03 	lds	r30, 0x03E0
    7cb2:	f0 91 e1 03 	lds	r31, 0x03E1
    7cb6:	09 95       	icall
    7cb8:	80 ef       	ldi	r24, 0xF0	; 240
    7cba:	95 e5       	ldi	r25, 0x55	; 85
    7cbc:	20 e9       	ldi	r18, 0x90	; 144
    7cbe:	31 e0       	ldi	r19, 0x01	; 1
    7cc0:	f9 01       	movw	r30, r18
    7cc2:	31 97       	sbiw	r30, 0x01	; 1
    7cc4:	f1 f7       	brne	.-4      	; 0x7cc2 <Stretched+0xa2>
    7cc6:	01 97       	sbiw	r24, 0x01	; 1
    7cc8:	d9 f7       	brne	.-10     	; 0x7cc0 <Stretched+0xa0>
    7cca:	8a e3       	ldi	r24, 0x3A	; 58
    7ccc:	99 e0       	ldi	r25, 0x09	; 9
    7cce:	6b e0       	ldi	r22, 0x0B	; 11
    7cd0:	40 eb       	ldi	r20, 0xB0	; 176
    7cd2:	54 e0       	ldi	r21, 0x04	; 4
    7cd4:	8e 01       	movw	r16, r28
    7cd6:	0f 5f       	subi	r16, 0xFF	; 255
    7cd8:	1f 4f       	sbci	r17, 0xFF	; 255
    7cda:	98 01       	movw	r18, r16
    7cdc:	0e 94 16 34 	call	0x682c	; 0x682c <ControlSynchronous4Dof>
    7ce0:	8a e3       	ldi	r24, 0x3A	; 58
    7ce2:	99 e0       	ldi	r25, 0x09	; 9
    7ce4:	65 e1       	ldi	r22, 0x15	; 21
    7ce6:	40 eb       	ldi	r20, 0xB0	; 176
    7ce8:	54 e0       	ldi	r21, 0x04	; 4
    7cea:	98 01       	movw	r18, r16
    7cec:	0e 94 16 34 	call	0x682c	; 0x682c <ControlSynchronous4Dof>
    7cf0:	82 e3       	ldi	r24, 0x32	; 50
    7cf2:	99 e0       	ldi	r25, 0x09	; 9
    7cf4:	6f e1       	ldi	r22, 0x1F	; 31
    7cf6:	40 eb       	ldi	r20, 0xB0	; 176
    7cf8:	54 e0       	ldi	r21, 0x04	; 4
    7cfa:	98 01       	movw	r18, r16
    7cfc:	0e 94 16 34 	call	0x682c	; 0x682c <ControlSynchronous4Dof>
    7d00:	82 e3       	ldi	r24, 0x32	; 50
    7d02:	99 e0       	ldi	r25, 0x09	; 9
    7d04:	69 e2       	ldi	r22, 0x29	; 41
    7d06:	40 eb       	ldi	r20, 0xB0	; 176
    7d08:	54 e0       	ldi	r21, 0x04	; 4
    7d0a:	98 01       	movw	r18, r16
    7d0c:	0e 94 16 34 	call	0x682c	; 0x682c <ControlSynchronous4Dof>
    7d10:	e0 91 e0 03 	lds	r30, 0x03E0
    7d14:	f0 91 e1 03 	lds	r31, 0x03E1
    7d18:	09 95       	icall
    7d1a:	80 ef       	ldi	r24, 0xF0	; 240
    7d1c:	95 e5       	ldi	r25, 0x55	; 85
    7d1e:	20 e9       	ldi	r18, 0x90	; 144
    7d20:	31 e0       	ldi	r19, 0x01	; 1
    7d22:	f9 01       	movw	r30, r18
    7d24:	31 97       	sbiw	r30, 0x01	; 1
    7d26:	f1 f7       	brne	.-4      	; 0x7d24 <Stretched+0x104>
    7d28:	01 97       	sbiw	r24, 0x01	; 1
    7d2a:	d9 f7       	brne	.-10     	; 0x7d22 <Stretched+0x102>
    7d2c:	8a e2       	ldi	r24, 0x2A	; 42
    7d2e:	99 e0       	ldi	r25, 0x09	; 9
    7d30:	6b e0       	ldi	r22, 0x0B	; 11
    7d32:	48 e0       	ldi	r20, 0x08	; 8
    7d34:	57 e0       	ldi	r21, 0x07	; 7
    7d36:	8e 01       	movw	r16, r28
    7d38:	0f 5f       	subi	r16, 0xFF	; 255
    7d3a:	1f 4f       	sbci	r17, 0xFF	; 255
    7d3c:	98 01       	movw	r18, r16
    7d3e:	0e 94 16 34 	call	0x682c	; 0x682c <ControlSynchronous4Dof>
    7d42:	8a e2       	ldi	r24, 0x2A	; 42
    7d44:	99 e0       	ldi	r25, 0x09	; 9
    7d46:	65 e1       	ldi	r22, 0x15	; 21
    7d48:	48 e0       	ldi	r20, 0x08	; 8
    7d4a:	57 e0       	ldi	r21, 0x07	; 7
    7d4c:	98 01       	movw	r18, r16
    7d4e:	0e 94 16 34 	call	0x682c	; 0x682c <ControlSynchronous4Dof>
    7d52:	82 e2       	ldi	r24, 0x22	; 34
    7d54:	99 e0       	ldi	r25, 0x09	; 9
    7d56:	6f e1       	ldi	r22, 0x1F	; 31
    7d58:	48 e0       	ldi	r20, 0x08	; 8
    7d5a:	57 e0       	ldi	r21, 0x07	; 7
    7d5c:	98 01       	movw	r18, r16
    7d5e:	0e 94 16 34 	call	0x682c	; 0x682c <ControlSynchronous4Dof>
    7d62:	82 e2       	ldi	r24, 0x22	; 34
    7d64:	99 e0       	ldi	r25, 0x09	; 9
    7d66:	69 e2       	ldi	r22, 0x29	; 41
    7d68:	48 e0       	ldi	r20, 0x08	; 8
    7d6a:	57 e0       	ldi	r21, 0x07	; 7
    7d6c:	98 01       	movw	r18, r16
    7d6e:	0e 94 16 34 	call	0x682c	; 0x682c <ControlSynchronous4Dof>
    7d72:	e0 91 e0 03 	lds	r30, 0x03E0
    7d76:	f0 91 e1 03 	lds	r31, 0x03E1
    7d7a:	09 95       	icall
    7d7c:	80 ee       	ldi	r24, 0xE0	; 224
    7d7e:	9e e2       	ldi	r25, 0x2E	; 46
    7d80:	20 e9       	ldi	r18, 0x90	; 144
    7d82:	31 e0       	ldi	r19, 0x01	; 1
    7d84:	f9 01       	movw	r30, r18
    7d86:	31 97       	sbiw	r30, 0x01	; 1
    7d88:	f1 f7       	brne	.-4      	; 0x7d86 <Stretched+0x166>
    7d8a:	01 97       	sbiw	r24, 0x01	; 1
    7d8c:	d9 f7       	brne	.-10     	; 0x7d84 <Stretched+0x164>
    7d8e:	dd 24       	eor	r13, r13
    7d90:	7e 01       	movw	r14, r28
    7d92:	08 94       	sec
    7d94:	e1 1c       	adc	r14, r1
    7d96:	f1 1c       	adc	r15, r1
    7d98:	00 e9       	ldi	r16, 0x90	; 144
    7d9a:	11 e0       	ldi	r17, 0x01	; 1
    7d9c:	86 ef       	ldi	r24, 0xF6	; 246
    7d9e:	9f ef       	ldi	r25, 0xFF	; 255
    7da0:	62 e2       	ldi	r22, 0x22	; 34
    7da2:	48 ec       	ldi	r20, 0xC8	; 200
    7da4:	50 e0       	ldi	r21, 0x00	; 0
    7da6:	97 01       	movw	r18, r14
    7da8:	0e 94 e3 34 	call	0x69c6	; 0x69c6 <ControlSynchronous1Dof>
    7dac:	e0 91 e0 03 	lds	r30, 0x03E0
    7db0:	f0 91 e1 03 	lds	r31, 0x03E1
    7db4:	09 95       	icall
    7db6:	88 ee       	ldi	r24, 0xE8	; 232
    7db8:	93 e0       	ldi	r25, 0x03	; 3
    7dba:	f8 01       	movw	r30, r16
    7dbc:	31 97       	sbiw	r30, 0x01	; 1
    7dbe:	f1 f7       	brne	.-4      	; 0x7dbc <Stretched+0x19c>
    7dc0:	01 97       	sbiw	r24, 0x01	; 1
    7dc2:	d9 f7       	brne	.-10     	; 0x7dba <Stretched+0x19a>
    7dc4:	84 e6       	ldi	r24, 0x64	; 100
    7dc6:	90 e0       	ldi	r25, 0x00	; 0
    7dc8:	62 e2       	ldi	r22, 0x22	; 34
    7dca:	48 ec       	ldi	r20, 0xC8	; 200
    7dcc:	50 e0       	ldi	r21, 0x00	; 0
    7dce:	97 01       	movw	r18, r14
    7dd0:	0e 94 e3 34 	call	0x69c6	; 0x69c6 <ControlSynchronous1Dof>
    7dd4:	e0 91 e0 03 	lds	r30, 0x03E0
    7dd8:	f0 91 e1 03 	lds	r31, 0x03E1
    7ddc:	09 95       	icall
    7dde:	88 ee       	ldi	r24, 0xE8	; 232
    7de0:	93 e0       	ldi	r25, 0x03	; 3
    7de2:	f8 01       	movw	r30, r16
    7de4:	31 97       	sbiw	r30, 0x01	; 1
    7de6:	f1 f7       	brne	.-4      	; 0x7de4 <Stretched+0x1c4>
    7de8:	01 97       	sbiw	r24, 0x01	; 1
    7dea:	d9 f7       	brne	.-10     	; 0x7de2 <Stretched+0x1c2>
    7dec:	86 ef       	ldi	r24, 0xF6	; 246
    7dee:	9f ef       	ldi	r25, 0xFF	; 255
    7df0:	6c e2       	ldi	r22, 0x2C	; 44
    7df2:	48 ec       	ldi	r20, 0xC8	; 200
    7df4:	50 e0       	ldi	r21, 0x00	; 0
    7df6:	97 01       	movw	r18, r14
    7df8:	0e 94 e3 34 	call	0x69c6	; 0x69c6 <ControlSynchronous1Dof>
    7dfc:	e0 91 e0 03 	lds	r30, 0x03E0
    7e00:	f0 91 e1 03 	lds	r31, 0x03E1
    7e04:	09 95       	icall
    7e06:	88 ee       	ldi	r24, 0xE8	; 232
    7e08:	93 e0       	ldi	r25, 0x03	; 3
    7e0a:	f8 01       	movw	r30, r16
    7e0c:	31 97       	sbiw	r30, 0x01	; 1
    7e0e:	f1 f7       	brne	.-4      	; 0x7e0c <Stretched+0x1ec>
    7e10:	01 97       	sbiw	r24, 0x01	; 1
    7e12:	d9 f7       	brne	.-10     	; 0x7e0a <Stretched+0x1ea>
    7e14:	84 e6       	ldi	r24, 0x64	; 100
    7e16:	90 e0       	ldi	r25, 0x00	; 0
    7e18:	6c e2       	ldi	r22, 0x2C	; 44
    7e1a:	48 ec       	ldi	r20, 0xC8	; 200
    7e1c:	50 e0       	ldi	r21, 0x00	; 0
    7e1e:	97 01       	movw	r18, r14
    7e20:	0e 94 e3 34 	call	0x69c6	; 0x69c6 <ControlSynchronous1Dof>
    7e24:	e0 91 e0 03 	lds	r30, 0x03E0
    7e28:	f0 91 e1 03 	lds	r31, 0x03E1
    7e2c:	09 95       	icall
    7e2e:	88 ee       	ldi	r24, 0xE8	; 232
    7e30:	93 e0       	ldi	r25, 0x03	; 3
    7e32:	f8 01       	movw	r30, r16
    7e34:	31 97       	sbiw	r30, 0x01	; 1
    7e36:	f1 f7       	brne	.-4      	; 0x7e34 <Stretched+0x214>
    7e38:	01 97       	sbiw	r24, 0x01	; 1
    7e3a:	d9 f7       	brne	.-10     	; 0x7e32 <Stretched+0x212>
    7e3c:	d3 94       	inc	r13
    7e3e:	83 e0       	ldi	r24, 0x03	; 3
    7e40:	d8 16       	cp	r13, r24
    7e42:	09 f0       	breq	.+2      	; 0x7e46 <Stretched+0x226>
    7e44:	ab cf       	rjmp	.-170    	; 0x7d9c <Stretched+0x17c>
    7e46:	0f 90       	pop	r0
    7e48:	0f 90       	pop	r0
    7e4a:	cf 91       	pop	r28
    7e4c:	df 91       	pop	r29
    7e4e:	1f 91       	pop	r17
    7e50:	0f 91       	pop	r16
    7e52:	ff 90       	pop	r15
    7e54:	ef 90       	pop	r14
    7e56:	df 90       	pop	r13
    7e58:	08 95       	ret

00007e5a <Scratched>:
    7e5a:	cf 92       	push	r12
    7e5c:	df 92       	push	r13
    7e5e:	ff 92       	push	r15
    7e60:	0f 93       	push	r16
    7e62:	1f 93       	push	r17
    7e64:	df 93       	push	r29
    7e66:	cf 93       	push	r28
    7e68:	00 d0       	rcall	.+0      	; 0x7e6a <Scratched+0x10>
    7e6a:	cd b7       	in	r28, 0x3d	; 61
    7e6c:	de b7       	in	r29, 0x3e	; 62
    7e6e:	1a 82       	std	Y+2, r1	; 0x02
    7e70:	19 82       	std	Y+1, r1	; 0x01
    7e72:	8a e1       	ldi	r24, 0x1A	; 26
    7e74:	99 e0       	ldi	r25, 0x09	; 9
    7e76:	6b e0       	ldi	r22, 0x0B	; 11
    7e78:	40 e9       	ldi	r20, 0x90	; 144
    7e7a:	51 e0       	ldi	r21, 0x01	; 1
    7e7c:	8e 01       	movw	r16, r28
    7e7e:	0f 5f       	subi	r16, 0xFF	; 255
    7e80:	1f 4f       	sbci	r17, 0xFF	; 255
    7e82:	98 01       	movw	r18, r16
    7e84:	0e 94 16 34 	call	0x682c	; 0x682c <ControlSynchronous4Dof>
    7e88:	82 e1       	ldi	r24, 0x12	; 18
    7e8a:	99 e0       	ldi	r25, 0x09	; 9
    7e8c:	65 e1       	ldi	r22, 0x15	; 21
    7e8e:	44 ef       	ldi	r20, 0xF4	; 244
    7e90:	51 e0       	ldi	r21, 0x01	; 1
    7e92:	98 01       	movw	r18, r16
    7e94:	0e 94 16 34 	call	0x682c	; 0x682c <ControlSynchronous4Dof>
    7e98:	8a e0       	ldi	r24, 0x0A	; 10
    7e9a:	99 e0       	ldi	r25, 0x09	; 9
    7e9c:	6f e1       	ldi	r22, 0x1F	; 31
    7e9e:	44 ef       	ldi	r20, 0xF4	; 244
    7ea0:	51 e0       	ldi	r21, 0x01	; 1
    7ea2:	98 01       	movw	r18, r16
    7ea4:	0e 94 16 34 	call	0x682c	; 0x682c <ControlSynchronous4Dof>
    7ea8:	82 e0       	ldi	r24, 0x02	; 2
    7eaa:	99 e0       	ldi	r25, 0x09	; 9
    7eac:	69 e2       	ldi	r22, 0x29	; 41
    7eae:	40 e2       	ldi	r20, 0x20	; 32
    7eb0:	53 e0       	ldi	r21, 0x03	; 3
    7eb2:	98 01       	movw	r18, r16
    7eb4:	0e 94 16 34 	call	0x682c	; 0x682c <ControlSynchronous4Dof>
    7eb8:	e0 91 e0 03 	lds	r30, 0x03E0
    7ebc:	f0 91 e1 03 	lds	r31, 0x03E1
    7ec0:	09 95       	icall
    7ec2:	80 ed       	ldi	r24, 0xD0	; 208
    7ec4:	97 e0       	ldi	r25, 0x07	; 7
    7ec6:	20 e9       	ldi	r18, 0x90	; 144
    7ec8:	31 e0       	ldi	r19, 0x01	; 1
    7eca:	f9 01       	movw	r30, r18
    7ecc:	31 97       	sbiw	r30, 0x01	; 1
    7ece:	f1 f7       	brne	.-4      	; 0x7ecc <Scratched+0x72>
    7ed0:	01 97       	sbiw	r24, 0x01	; 1
    7ed2:	d9 f7       	brne	.-10     	; 0x7eca <Scratched+0x70>
    7ed4:	86 e0       	ldi	r24, 0x06	; 6
    7ed6:	9f ef       	ldi	r25, 0xFF	; 255
    7ed8:	61 e0       	ldi	r22, 0x01	; 1
    7eda:	44 ef       	ldi	r20, 0xF4	; 244
    7edc:	51 e0       	ldi	r21, 0x01	; 1
    7ede:	8e 01       	movw	r16, r28
    7ee0:	0f 5f       	subi	r16, 0xFF	; 255
    7ee2:	1f 4f       	sbci	r17, 0xFF	; 255
    7ee4:	98 01       	movw	r18, r16
    7ee6:	0e 94 e3 34 	call	0x69c6	; 0x69c6 <ControlSynchronous1Dof>
    7eea:	8c e9       	ldi	r24, 0x9C	; 156
    7eec:	9f ef       	ldi	r25, 0xFF	; 255
    7eee:	62 e0       	ldi	r22, 0x02	; 2
    7ef0:	4c eb       	ldi	r20, 0xBC	; 188
    7ef2:	52 e0       	ldi	r21, 0x02	; 2
    7ef4:	98 01       	movw	r18, r16
    7ef6:	0e 94 e3 34 	call	0x69c6	; 0x69c6 <ControlSynchronous1Dof>
    7efa:	e0 91 e0 03 	lds	r30, 0x03E0
    7efe:	f0 91 e1 03 	lds	r31, 0x03E1
    7f02:	09 95       	icall
    7f04:	88 ec       	ldi	r24, 0xC8	; 200
    7f06:	92 e3       	ldi	r25, 0x32	; 50
    7f08:	20 e9       	ldi	r18, 0x90	; 144
    7f0a:	31 e0       	ldi	r19, 0x01	; 1
    7f0c:	f9 01       	movw	r30, r18
    7f0e:	31 97       	sbiw	r30, 0x01	; 1
    7f10:	f1 f7       	brne	.-4      	; 0x7f0e <Scratched+0xb4>
    7f12:	01 97       	sbiw	r24, 0x01	; 1
    7f14:	d9 f7       	brne	.-10     	; 0x7f0c <Scratched+0xb2>
    7f16:	ff 24       	eor	r15, r15
    7f18:	8e 01       	movw	r16, r28
    7f1a:	0f 5f       	subi	r16, 0xFF	; 255
    7f1c:	1f 4f       	sbci	r17, 0xFF	; 255
    7f1e:	60 e9       	ldi	r22, 0x90	; 144
    7f20:	c6 2e       	mov	r12, r22
    7f22:	61 e0       	ldi	r22, 0x01	; 1
    7f24:	d6 2e       	mov	r13, r22
    7f26:	86 ee       	ldi	r24, 0xE6	; 230
    7f28:	90 e0       	ldi	r25, 0x00	; 0
    7f2a:	6b e2       	ldi	r22, 0x2B	; 43
    7f2c:	48 ec       	ldi	r20, 0xC8	; 200
    7f2e:	50 e0       	ldi	r21, 0x00	; 0
    7f30:	98 01       	movw	r18, r16
    7f32:	0e 94 e3 34 	call	0x69c6	; 0x69c6 <ControlSynchronous1Dof>
    7f36:	8e eb       	ldi	r24, 0xBE	; 190
    7f38:	90 e0       	ldi	r25, 0x00	; 0
    7f3a:	6c e2       	ldi	r22, 0x2C	; 44
    7f3c:	48 ec       	ldi	r20, 0xC8	; 200
    7f3e:	50 e0       	ldi	r21, 0x00	; 0
    7f40:	98 01       	movw	r18, r16
    7f42:	0e 94 e3 34 	call	0x69c6	; 0x69c6 <ControlSynchronous1Dof>
    7f46:	e0 91 e0 03 	lds	r30, 0x03E0
    7f4a:	f0 91 e1 03 	lds	r31, 0x03E1
    7f4e:	09 95       	icall
    7f50:	80 ed       	ldi	r24, 0xD0	; 208
    7f52:	97 e0       	ldi	r25, 0x07	; 7
    7f54:	f6 01       	movw	r30, r12
    7f56:	31 97       	sbiw	r30, 0x01	; 1
    7f58:	f1 f7       	brne	.-4      	; 0x7f56 <Scratched+0xfc>
    7f5a:	01 97       	sbiw	r24, 0x01	; 1
    7f5c:	d9 f7       	brne	.-10     	; 0x7f54 <Scratched+0xfa>
    7f5e:	84 eb       	ldi	r24, 0xB4	; 180
    7f60:	90 e0       	ldi	r25, 0x00	; 0
    7f62:	6b e2       	ldi	r22, 0x2B	; 43
    7f64:	42 e3       	ldi	r20, 0x32	; 50
    7f66:	50 e0       	ldi	r21, 0x00	; 0
    7f68:	98 01       	movw	r18, r16
    7f6a:	0e 94 e3 34 	call	0x69c6	; 0x69c6 <ControlSynchronous1Dof>
    7f6e:	80 ef       	ldi	r24, 0xF0	; 240
    7f70:	90 e0       	ldi	r25, 0x00	; 0
    7f72:	6c e2       	ldi	r22, 0x2C	; 44
    7f74:	42 e3       	ldi	r20, 0x32	; 50
    7f76:	50 e0       	ldi	r21, 0x00	; 0
    7f78:	98 01       	movw	r18, r16
    7f7a:	0e 94 e3 34 	call	0x69c6	; 0x69c6 <ControlSynchronous1Dof>
    7f7e:	e0 91 e0 03 	lds	r30, 0x03E0
    7f82:	f0 91 e1 03 	lds	r31, 0x03E1
    7f86:	09 95       	icall
    7f88:	88 ee       	ldi	r24, 0xE8	; 232
    7f8a:	93 e0       	ldi	r25, 0x03	; 3
    7f8c:	f6 01       	movw	r30, r12
    7f8e:	31 97       	sbiw	r30, 0x01	; 1
    7f90:	f1 f7       	brne	.-4      	; 0x7f8e <Scratched+0x134>
    7f92:	01 97       	sbiw	r24, 0x01	; 1
    7f94:	d9 f7       	brne	.-10     	; 0x7f8c <Scratched+0x132>
    7f96:	f3 94       	inc	r15
    7f98:	82 e0       	ldi	r24, 0x02	; 2
    7f9a:	f8 16       	cp	r15, r24
    7f9c:	09 f0       	breq	.+2      	; 0x7fa0 <Scratched+0x146>
    7f9e:	c3 cf       	rjmp	.-122    	; 0x7f26 <Scratched+0xcc>
    7fa0:	88 e8       	ldi	r24, 0x88	; 136
    7fa2:	93 e1       	ldi	r25, 0x13	; 19
    7fa4:	20 e9       	ldi	r18, 0x90	; 144
    7fa6:	31 e0       	ldi	r19, 0x01	; 1
    7fa8:	f9 01       	movw	r30, r18
    7faa:	31 97       	sbiw	r30, 0x01	; 1
    7fac:	f1 f7       	brne	.-4      	; 0x7faa <Scratched+0x150>
    7fae:	01 97       	sbiw	r24, 0x01	; 1
    7fb0:	d9 f7       	brne	.-10     	; 0x7fa8 <Scratched+0x14e>
    7fb2:	ff 24       	eor	r15, r15
    7fb4:	8e 01       	movw	r16, r28
    7fb6:	0f 5f       	subi	r16, 0xFF	; 255
    7fb8:	1f 4f       	sbci	r17, 0xFF	; 255
    7fba:	50 e9       	ldi	r21, 0x90	; 144
    7fbc:	c5 2e       	mov	r12, r21
    7fbe:	51 e0       	ldi	r21, 0x01	; 1
    7fc0:	d5 2e       	mov	r13, r21
    7fc2:	86 ee       	ldi	r24, 0xE6	; 230
    7fc4:	90 e0       	ldi	r25, 0x00	; 0
    7fc6:	6b e2       	ldi	r22, 0x2B	; 43
    7fc8:	44 e6       	ldi	r20, 0x64	; 100
    7fca:	50 e0       	ldi	r21, 0x00	; 0
    7fcc:	98 01       	movw	r18, r16
    7fce:	0e 94 e3 34 	call	0x69c6	; 0x69c6 <ControlSynchronous1Dof>
    7fd2:	8e eb       	ldi	r24, 0xBE	; 190
    7fd4:	90 e0       	ldi	r25, 0x00	; 0
    7fd6:	6c e2       	ldi	r22, 0x2C	; 44
    7fd8:	44 e6       	ldi	r20, 0x64	; 100
    7fda:	50 e0       	ldi	r21, 0x00	; 0
    7fdc:	98 01       	movw	r18, r16
    7fde:	0e 94 e3 34 	call	0x69c6	; 0x69c6 <ControlSynchronous1Dof>
    7fe2:	e0 91 e0 03 	lds	r30, 0x03E0
    7fe6:	f0 91 e1 03 	lds	r31, 0x03E1
    7fea:	09 95       	icall
    7fec:	88 ee       	ldi	r24, 0xE8	; 232
    7fee:	93 e0       	ldi	r25, 0x03	; 3
    7ff0:	f6 01       	movw	r30, r12
    7ff2:	31 97       	sbiw	r30, 0x01	; 1
    7ff4:	f1 f7       	brne	.-4      	; 0x7ff2 <Scratched+0x198>
    7ff6:	01 97       	sbiw	r24, 0x01	; 1
    7ff8:	d9 f7       	brne	.-10     	; 0x7ff0 <Scratched+0x196>
    7ffa:	84 eb       	ldi	r24, 0xB4	; 180
    7ffc:	90 e0       	ldi	r25, 0x00	; 0
    7ffe:	6b e2       	ldi	r22, 0x2B	; 43
    8000:	42 e3       	ldi	r20, 0x32	; 50
    8002:	50 e0       	ldi	r21, 0x00	; 0
    8004:	98 01       	movw	r18, r16
    8006:	0e 94 e3 34 	call	0x69c6	; 0x69c6 <ControlSynchronous1Dof>
    800a:	80 ef       	ldi	r24, 0xF0	; 240
    800c:	90 e0       	ldi	r25, 0x00	; 0
    800e:	6c e2       	ldi	r22, 0x2C	; 44
    8010:	42 e3       	ldi	r20, 0x32	; 50
    8012:	50 e0       	ldi	r21, 0x00	; 0
    8014:	98 01       	movw	r18, r16
    8016:	0e 94 e3 34 	call	0x69c6	; 0x69c6 <ControlSynchronous1Dof>
    801a:	e0 91 e0 03 	lds	r30, 0x03E0
    801e:	f0 91 e1 03 	lds	r31, 0x03E1
    8022:	09 95       	icall
    8024:	84 ef       	ldi	r24, 0xF4	; 244
    8026:	91 e0       	ldi	r25, 0x01	; 1
    8028:	f6 01       	movw	r30, r12
    802a:	31 97       	sbiw	r30, 0x01	; 1
    802c:	f1 f7       	brne	.-4      	; 0x802a <Scratched+0x1d0>
    802e:	01 97       	sbiw	r24, 0x01	; 1
    8030:	d9 f7       	brne	.-10     	; 0x8028 <Scratched+0x1ce>
    8032:	f3 94       	inc	r15
    8034:	86 e0       	ldi	r24, 0x06	; 6
    8036:	f8 16       	cp	r15, r24
    8038:	09 f0       	breq	.+2      	; 0x803c <Scratched+0x1e2>
    803a:	c3 cf       	rjmp	.-122    	; 0x7fc2 <Scratched+0x168>
    803c:	88 e5       	ldi	r24, 0x58	; 88
    803e:	9b e1       	ldi	r25, 0x1B	; 27
    8040:	20 e9       	ldi	r18, 0x90	; 144
    8042:	31 e0       	ldi	r19, 0x01	; 1
    8044:	f9 01       	movw	r30, r18
    8046:	31 97       	sbiw	r30, 0x01	; 1
    8048:	f1 f7       	brne	.-4      	; 0x8046 <Scratched+0x1ec>
    804a:	01 97       	sbiw	r24, 0x01	; 1
    804c:	d9 f7       	brne	.-10     	; 0x8044 <Scratched+0x1ea>
    804e:	ff 24       	eor	r15, r15
    8050:	8e 01       	movw	r16, r28
    8052:	0f 5f       	subi	r16, 0xFF	; 255
    8054:	1f 4f       	sbci	r17, 0xFF	; 255
    8056:	40 e9       	ldi	r20, 0x90	; 144
    8058:	c4 2e       	mov	r12, r20
    805a:	41 e0       	ldi	r20, 0x01	; 1
    805c:	d4 2e       	mov	r13, r20
    805e:	86 ee       	ldi	r24, 0xE6	; 230
    8060:	90 e0       	ldi	r25, 0x00	; 0
    8062:	6b e2       	ldi	r22, 0x2B	; 43
    8064:	48 ec       	ldi	r20, 0xC8	; 200
    8066:	50 e0       	ldi	r21, 0x00	; 0
    8068:	98 01       	movw	r18, r16
    806a:	0e 94 e3 34 	call	0x69c6	; 0x69c6 <ControlSynchronous1Dof>
    806e:	8e eb       	ldi	r24, 0xBE	; 190
    8070:	90 e0       	ldi	r25, 0x00	; 0
    8072:	6c e2       	ldi	r22, 0x2C	; 44
    8074:	48 ec       	ldi	r20, 0xC8	; 200
    8076:	50 e0       	ldi	r21, 0x00	; 0
    8078:	98 01       	movw	r18, r16
    807a:	0e 94 e3 34 	call	0x69c6	; 0x69c6 <ControlSynchronous1Dof>
    807e:	e0 91 e0 03 	lds	r30, 0x03E0
    8082:	f0 91 e1 03 	lds	r31, 0x03E1
    8086:	09 95       	icall
    8088:	80 ed       	ldi	r24, 0xD0	; 208
    808a:	97 e0       	ldi	r25, 0x07	; 7
    808c:	f6 01       	movw	r30, r12
    808e:	31 97       	sbiw	r30, 0x01	; 1
    8090:	f1 f7       	brne	.-4      	; 0x808e <Scratched+0x234>
    8092:	01 97       	sbiw	r24, 0x01	; 1
    8094:	d9 f7       	brne	.-10     	; 0x808c <Scratched+0x232>
    8096:	84 eb       	ldi	r24, 0xB4	; 180
    8098:	90 e0       	ldi	r25, 0x00	; 0
    809a:	6b e2       	ldi	r22, 0x2B	; 43
    809c:	42 e3       	ldi	r20, 0x32	; 50
    809e:	50 e0       	ldi	r21, 0x00	; 0
    80a0:	98 01       	movw	r18, r16
    80a2:	0e 94 e3 34 	call	0x69c6	; 0x69c6 <ControlSynchronous1Dof>
    80a6:	80 ef       	ldi	r24, 0xF0	; 240
    80a8:	90 e0       	ldi	r25, 0x00	; 0
    80aa:	6c e2       	ldi	r22, 0x2C	; 44
    80ac:	42 e3       	ldi	r20, 0x32	; 50
    80ae:	50 e0       	ldi	r21, 0x00	; 0
    80b0:	98 01       	movw	r18, r16
    80b2:	0e 94 e3 34 	call	0x69c6	; 0x69c6 <ControlSynchronous1Dof>
    80b6:	e0 91 e0 03 	lds	r30, 0x03E0
    80ba:	f0 91 e1 03 	lds	r31, 0x03E1
    80be:	09 95       	icall
    80c0:	88 ee       	ldi	r24, 0xE8	; 232
    80c2:	93 e0       	ldi	r25, 0x03	; 3
    80c4:	f6 01       	movw	r30, r12
    80c6:	31 97       	sbiw	r30, 0x01	; 1
    80c8:	f1 f7       	brne	.-4      	; 0x80c6 <Scratched+0x26c>
    80ca:	01 97       	sbiw	r24, 0x01	; 1
    80cc:	d9 f7       	brne	.-10     	; 0x80c4 <Scratched+0x26a>
    80ce:	f3 94       	inc	r15
    80d0:	82 e0       	ldi	r24, 0x02	; 2
    80d2:	f8 16       	cp	r15, r24
    80d4:	09 f0       	breq	.+2      	; 0x80d8 <Scratched+0x27e>
    80d6:	c3 cf       	rjmp	.-122    	; 0x805e <Scratched+0x204>
    80d8:	0f 90       	pop	r0
    80da:	0f 90       	pop	r0
    80dc:	cf 91       	pop	r28
    80de:	df 91       	pop	r29
    80e0:	1f 91       	pop	r17
    80e2:	0f 91       	pop	r16
    80e4:	ff 90       	pop	r15
    80e6:	df 90       	pop	r13
    80e8:	cf 90       	pop	r12
    80ea:	08 95       	ret

000080ec <RobotDog_Behavior>:
    80ec:	df 93       	push	r29
    80ee:	cf 93       	push	r28
    80f0:	0f 92       	push	r0
    80f2:	cd b7       	in	r28, 0x3d	; 61
    80f4:	de b7       	in	r29, 0x3e	; 62
    80f6:	19 82       	std	Y+1, r1	; 0x01
    80f8:	e0 91 2a 04 	lds	r30, 0x042A
    80fc:	f0 91 2b 04 	lds	r31, 0x042B
    8100:	80 e0       	ldi	r24, 0x00	; 0
    8102:	be 01       	movw	r22, r28
    8104:	6f 5f       	subi	r22, 0xFF	; 255
    8106:	7f 4f       	sbci	r23, 0xFF	; 255
    8108:	09 95       	icall
    810a:	89 81       	ldd	r24, Y+1	; 0x01
    810c:	85 30       	cpi	r24, 0x05	; 5
    810e:	09 f4       	brne	.+2      	; 0x8112 <RobotDog_Behavior+0x26>
    8110:	55 c0       	rjmp	.+170    	; 0x81bc <RobotDog_Behavior+0xd0>
    8112:	86 30       	cpi	r24, 0x06	; 6
    8114:	88 f4       	brcc	.+34     	; 0x8138 <RobotDog_Behavior+0x4c>
    8116:	82 30       	cpi	r24, 0x02	; 2
    8118:	c1 f1       	breq	.+112    	; 0x818a <RobotDog_Behavior+0x9e>
    811a:	83 30       	cpi	r24, 0x03	; 3
    811c:	30 f4       	brcc	.+12     	; 0x812a <RobotDog_Behavior+0x3e>
    811e:	88 23       	and	r24, r24
    8120:	f1 f0       	breq	.+60     	; 0x815e <RobotDog_Behavior+0x72>
    8122:	81 30       	cpi	r24, 0x01	; 1
    8124:	09 f0       	breq	.+2      	; 0x8128 <RobotDog_Behavior+0x3c>
    8126:	9a c0       	rjmp	.+308    	; 0x825c <RobotDog_Behavior+0x170>
    8128:	24 c0       	rjmp	.+72     	; 0x8172 <RobotDog_Behavior+0x86>
    812a:	83 30       	cpi	r24, 0x03	; 3
    812c:	09 f4       	brne	.+2      	; 0x8130 <RobotDog_Behavior+0x44>
    812e:	37 c0       	rjmp	.+110    	; 0x819e <RobotDog_Behavior+0xb2>
    8130:	84 30       	cpi	r24, 0x04	; 4
    8132:	09 f0       	breq	.+2      	; 0x8136 <RobotDog_Behavior+0x4a>
    8134:	93 c0       	rjmp	.+294    	; 0x825c <RobotDog_Behavior+0x170>
    8136:	3f c0       	rjmp	.+126    	; 0x81b6 <RobotDog_Behavior+0xca>
    8138:	88 30       	cpi	r24, 0x08	; 8
    813a:	09 f4       	brne	.+2      	; 0x813e <RobotDog_Behavior+0x52>
    813c:	65 c0       	rjmp	.+202    	; 0x8208 <RobotDog_Behavior+0x11c>
    813e:	89 30       	cpi	r24, 0x09	; 9
    8140:	38 f4       	brcc	.+14     	; 0x8150 <RobotDog_Behavior+0x64>
    8142:	86 30       	cpi	r24, 0x06	; 6
    8144:	09 f4       	brne	.+2      	; 0x8148 <RobotDog_Behavior+0x5c>
    8146:	46 c0       	rjmp	.+140    	; 0x81d4 <RobotDog_Behavior+0xe8>
    8148:	87 30       	cpi	r24, 0x07	; 7
    814a:	09 f0       	breq	.+2      	; 0x814e <RobotDog_Behavior+0x62>
    814c:	87 c0       	rjmp	.+270    	; 0x825c <RobotDog_Behavior+0x170>
    814e:	4e c0       	rjmp	.+156    	; 0x81ec <RobotDog_Behavior+0x100>
    8150:	89 30       	cpi	r24, 0x09	; 9
    8152:	09 f4       	brne	.+2      	; 0x8156 <RobotDog_Behavior+0x6a>
    8154:	65 c0       	rjmp	.+202    	; 0x8220 <RobotDog_Behavior+0x134>
    8156:	8a 30       	cpi	r24, 0x0A	; 10
    8158:	09 f0       	breq	.+2      	; 0x815c <RobotDog_Behavior+0x70>
    815a:	80 c0       	rjmp	.+256    	; 0x825c <RobotDog_Behavior+0x170>
    815c:	6d c0       	rjmp	.+218    	; 0x8238 <RobotDog_Behavior+0x14c>
    815e:	88 ee       	ldi	r24, 0xE8	; 232
    8160:	93 e0       	ldi	r25, 0x03	; 3
    8162:	20 e9       	ldi	r18, 0x90	; 144
    8164:	31 e0       	ldi	r19, 0x01	; 1
    8166:	f9 01       	movw	r30, r18
    8168:	31 97       	sbiw	r30, 0x01	; 1
    816a:	f1 f7       	brne	.-4      	; 0x8168 <RobotDog_Behavior+0x7c>
    816c:	01 97       	sbiw	r24, 0x01	; 1
    816e:	d9 f7       	brne	.-10     	; 0x8166 <RobotDog_Behavior+0x7a>
    8170:	75 c0       	rjmp	.+234    	; 0x825c <RobotDog_Behavior+0x170>
    8172:	88 ee       	ldi	r24, 0xE8	; 232
    8174:	93 e0       	ldi	r25, 0x03	; 3
    8176:	20 e9       	ldi	r18, 0x90	; 144
    8178:	31 e0       	ldi	r19, 0x01	; 1
    817a:	f9 01       	movw	r30, r18
    817c:	31 97       	sbiw	r30, 0x01	; 1
    817e:	f1 f7       	brne	.-4      	; 0x817c <RobotDog_Behavior+0x90>
    8180:	01 97       	sbiw	r24, 0x01	; 1
    8182:	d9 f7       	brne	.-10     	; 0x817a <RobotDog_Behavior+0x8e>
    8184:	0e 94 cf 3d 	call	0x7b9e	; 0x7b9e <GetDown>
    8188:	62 c0       	rjmp	.+196    	; 0x824e <RobotDog_Behavior+0x162>
    818a:	88 ee       	ldi	r24, 0xE8	; 232
    818c:	93 e0       	ldi	r25, 0x03	; 3
    818e:	20 e9       	ldi	r18, 0x90	; 144
    8190:	31 e0       	ldi	r19, 0x01	; 1
    8192:	f9 01       	movw	r30, r18
    8194:	31 97       	sbiw	r30, 0x01	; 1
    8196:	f1 f7       	brne	.-4      	; 0x8194 <RobotDog_Behavior+0xa8>
    8198:	01 97       	sbiw	r24, 0x01	; 1
    819a:	d9 f7       	brne	.-10     	; 0x8192 <RobotDog_Behavior+0xa6>
    819c:	32 c0       	rjmp	.+100    	; 0x8202 <RobotDog_Behavior+0x116>
    819e:	88 ee       	ldi	r24, 0xE8	; 232
    81a0:	93 e0       	ldi	r25, 0x03	; 3
    81a2:	20 e9       	ldi	r18, 0x90	; 144
    81a4:	31 e0       	ldi	r19, 0x01	; 1
    81a6:	f9 01       	movw	r30, r18
    81a8:	31 97       	sbiw	r30, 0x01	; 1
    81aa:	f1 f7       	brne	.-4      	; 0x81a8 <RobotDog_Behavior+0xbc>
    81ac:	01 97       	sbiw	r24, 0x01	; 1
    81ae:	d9 f7       	brne	.-10     	; 0x81a6 <RobotDog_Behavior+0xba>
    81b0:	0e 94 10 3e 	call	0x7c20	; 0x7c20 <Stretched>
    81b4:	26 c0       	rjmp	.+76     	; 0x8202 <RobotDog_Behavior+0x116>
    81b6:	0e 94 2f 35 	call	0x6a5e	; 0x6a5e <SlowlyWalk>
    81ba:	50 c0       	rjmp	.+160    	; 0x825c <RobotDog_Behavior+0x170>
    81bc:	80 e9       	ldi	r24, 0x90	; 144
    81be:	91 e0       	ldi	r25, 0x01	; 1
    81c0:	20 e9       	ldi	r18, 0x90	; 144
    81c2:	31 e0       	ldi	r19, 0x01	; 1
    81c4:	f9 01       	movw	r30, r18
    81c6:	31 97       	sbiw	r30, 0x01	; 1
    81c8:	f1 f7       	brne	.-4      	; 0x81c6 <RobotDog_Behavior+0xda>
    81ca:	01 97       	sbiw	r24, 0x01	; 1
    81cc:	d9 f7       	brne	.-10     	; 0x81c4 <RobotDog_Behavior+0xd8>
    81ce:	0e 94 14 37 	call	0x6e28	; 0x6e28 <TurnLeft>
    81d2:	44 c0       	rjmp	.+136    	; 0x825c <RobotDog_Behavior+0x170>
    81d4:	80 e9       	ldi	r24, 0x90	; 144
    81d6:	91 e0       	ldi	r25, 0x01	; 1
    81d8:	20 e9       	ldi	r18, 0x90	; 144
    81da:	31 e0       	ldi	r19, 0x01	; 1
    81dc:	f9 01       	movw	r30, r18
    81de:	31 97       	sbiw	r30, 0x01	; 1
    81e0:	f1 f7       	brne	.-4      	; 0x81de <RobotDog_Behavior+0xf2>
    81e2:	01 97       	sbiw	r24, 0x01	; 1
    81e4:	d9 f7       	brne	.-10     	; 0x81dc <RobotDog_Behavior+0xf0>
    81e6:	0e 94 f9 38 	call	0x71f2	; 0x71f2 <TurnRight>
    81ea:	38 c0       	rjmp	.+112    	; 0x825c <RobotDog_Behavior+0x170>
    81ec:	88 ee       	ldi	r24, 0xE8	; 232
    81ee:	93 e0       	ldi	r25, 0x03	; 3
    81f0:	20 e9       	ldi	r18, 0x90	; 144
    81f2:	31 e0       	ldi	r19, 0x01	; 1
    81f4:	f9 01       	movw	r30, r18
    81f6:	31 97       	sbiw	r30, 0x01	; 1
    81f8:	f1 f7       	brne	.-4      	; 0x81f6 <RobotDog_Behavior+0x10a>
    81fa:	01 97       	sbiw	r24, 0x01	; 1
    81fc:	d9 f7       	brne	.-10     	; 0x81f4 <RobotDog_Behavior+0x108>
    81fe:	0e 94 b9 3c 	call	0x7972	; 0x7972 <Urination>
    8202:	0e 94 80 3b 	call	0x7700	; 0x7700 <Stand>
    8206:	23 c0       	rjmp	.+70     	; 0x824e <RobotDog_Behavior+0x162>
    8208:	88 ee       	ldi	r24, 0xE8	; 232
    820a:	93 e0       	ldi	r25, 0x03	; 3
    820c:	20 e9       	ldi	r18, 0x90	; 144
    820e:	31 e0       	ldi	r19, 0x01	; 1
    8210:	f9 01       	movw	r30, r18
    8212:	31 97       	sbiw	r30, 0x01	; 1
    8214:	f1 f7       	brne	.-4      	; 0x8212 <RobotDog_Behavior+0x126>
    8216:	01 97       	sbiw	r24, 0x01	; 1
    8218:	d9 f7       	brne	.-10     	; 0x8210 <RobotDog_Behavior+0x124>
    821a:	0e 94 2d 3f 	call	0x7e5a	; 0x7e5a <Scratched>
    821e:	17 c0       	rjmp	.+46     	; 0x824e <RobotDog_Behavior+0x162>
    8220:	88 ee       	ldi	r24, 0xE8	; 232
    8222:	93 e0       	ldi	r25, 0x03	; 3
    8224:	20 e9       	ldi	r18, 0x90	; 144
    8226:	31 e0       	ldi	r19, 0x01	; 1
    8228:	f9 01       	movw	r30, r18
    822a:	31 97       	sbiw	r30, 0x01	; 1
    822c:	f1 f7       	brne	.-4      	; 0x822a <RobotDog_Behavior+0x13e>
    822e:	01 97       	sbiw	r24, 0x01	; 1
    8230:	d9 f7       	brne	.-10     	; 0x8228 <RobotDog_Behavior+0x13c>
    8232:	0e 94 de 3a 	call	0x75bc	; 0x75bc <SitDown>
    8236:	0b c0       	rjmp	.+22     	; 0x824e <RobotDog_Behavior+0x162>
    8238:	88 ee       	ldi	r24, 0xE8	; 232
    823a:	93 e0       	ldi	r25, 0x03	; 3
    823c:	20 e9       	ldi	r18, 0x90	; 144
    823e:	31 e0       	ldi	r19, 0x01	; 1
    8240:	f9 01       	movw	r30, r18
    8242:	31 97       	sbiw	r30, 0x01	; 1
    8244:	f1 f7       	brne	.-4      	; 0x8242 <RobotDog_Behavior+0x156>
    8246:	01 97       	sbiw	r24, 0x01	; 1
    8248:	d9 f7       	brne	.-10     	; 0x8240 <RobotDog_Behavior+0x154>
    824a:	0e 94 ea 3b 	call	0x77d4	; 0x77d4 <ShookHands>
    824e:	e0 91 28 04 	lds	r30, 0x0428
    8252:	f0 91 29 04 	lds	r31, 0x0429
    8256:	80 e0       	ldi	r24, 0x00	; 0
    8258:	60 e0       	ldi	r22, 0x00	; 0
    825a:	09 95       	icall
    825c:	0f 90       	pop	r0
    825e:	cf 91       	pop	r28
    8260:	df 91       	pop	r29
    8262:	08 95       	ret

00008264 <Test>:
    8264:	ef 92       	push	r14
    8266:	ff 92       	push	r15
    8268:	0f 93       	push	r16
    826a:	1f 93       	push	r17
    826c:	df 93       	push	r29
    826e:	cf 93       	push	r28
    8270:	cd b7       	in	r28, 0x3d	; 61
    8272:	de b7       	in	r29, 0x3e	; 62
    8274:	2a 97       	sbiw	r28, 0x0a	; 10
    8276:	0f b6       	in	r0, 0x3f	; 63
    8278:	f8 94       	cli
    827a:	de bf       	out	0x3e, r29	; 62
    827c:	0f be       	out	0x3f, r0	; 63
    827e:	cd bf       	out	0x3d, r28	; 61
    8280:	73 e0       	ldi	r23, 0x03	; 3
    8282:	e7 2e       	mov	r14, r23
    8284:	f1 2c       	mov	r15, r1
    8286:	ec 0e       	add	r14, r28
    8288:	fd 1e       	adc	r15, r29
    828a:	88 e0       	ldi	r24, 0x08	; 8
    828c:	f7 01       	movw	r30, r14
    828e:	11 92       	st	Z+, r1
    8290:	8a 95       	dec	r24
    8292:	e9 f7       	brne	.-6      	; 0x828e <Test+0x2a>
    8294:	1a 82       	std	Y+2, r1	; 0x02
    8296:	19 82       	std	Y+1, r1	; 0x01
    8298:	c7 01       	movw	r24, r14
    829a:	6b e0       	ldi	r22, 0x0B	; 11
    829c:	48 ee       	ldi	r20, 0xE8	; 232
    829e:	53 e0       	ldi	r21, 0x03	; 3
    82a0:	8e 01       	movw	r16, r28
    82a2:	0f 5f       	subi	r16, 0xFF	; 255
    82a4:	1f 4f       	sbci	r17, 0xFF	; 255
    82a6:	98 01       	movw	r18, r16
    82a8:	0e 94 16 34 	call	0x682c	; 0x682c <ControlSynchronous4Dof>
    82ac:	c7 01       	movw	r24, r14
    82ae:	65 e1       	ldi	r22, 0x15	; 21
    82b0:	48 ee       	ldi	r20, 0xE8	; 232
    82b2:	53 e0       	ldi	r21, 0x03	; 3
    82b4:	98 01       	movw	r18, r16
    82b6:	0e 94 16 34 	call	0x682c	; 0x682c <ControlSynchronous4Dof>
    82ba:	c7 01       	movw	r24, r14
    82bc:	6f e1       	ldi	r22, 0x1F	; 31
    82be:	48 ee       	ldi	r20, 0xE8	; 232
    82c0:	53 e0       	ldi	r21, 0x03	; 3
    82c2:	98 01       	movw	r18, r16
    82c4:	0e 94 16 34 	call	0x682c	; 0x682c <ControlSynchronous4Dof>
    82c8:	c7 01       	movw	r24, r14
    82ca:	69 e2       	ldi	r22, 0x29	; 41
    82cc:	48 ee       	ldi	r20, 0xE8	; 232
    82ce:	53 e0       	ldi	r21, 0x03	; 3
    82d0:	98 01       	movw	r18, r16
    82d2:	0e 94 16 34 	call	0x682c	; 0x682c <ControlSynchronous4Dof>
    82d6:	e0 91 e0 03 	lds	r30, 0x03E0
    82da:	f0 91 e1 03 	lds	r31, 0x03E1
    82de:	09 95       	icall
    82e0:	2a 96       	adiw	r28, 0x0a	; 10
    82e2:	0f b6       	in	r0, 0x3f	; 63
    82e4:	f8 94       	cli
    82e6:	de bf       	out	0x3e, r29	; 62
    82e8:	0f be       	out	0x3f, r0	; 63
    82ea:	cd bf       	out	0x3d, r28	; 61
    82ec:	cf 91       	pop	r28
    82ee:	df 91       	pop	r29
    82f0:	1f 91       	pop	r17
    82f2:	0f 91       	pop	r16
    82f4:	ff 90       	pop	r15
    82f6:	ef 90       	pop	r14
    82f8:	08 95       	ret

000082fa <InitDevices>:
    82fa:	f8 94       	cli
    82fc:	e0 91 78 07 	lds	r30, 0x0778
    8300:	f0 91 79 07 	lds	r31, 0x0779
    8304:	09 95       	icall
    8306:	e0 91 02 08 	lds	r30, 0x0802
    830a:	f0 91 03 08 	lds	r31, 0x0803
    830e:	09 95       	icall
    8310:	e0 91 23 08 	lds	r30, 0x0823
    8314:	f0 91 24 08 	lds	r31, 0x0824
    8318:	09 95       	icall
    831a:	e0 91 c6 07 	lds	r30, 0x07C6
    831e:	f0 91 c7 07 	lds	r31, 0x07C7
    8322:	09 95       	icall
    8324:	e0 91 ab 07 	lds	r30, 0x07AB
    8328:	f0 91 ac 07 	lds	r31, 0x07AC
    832c:	09 95       	icall
    832e:	e0 91 a3 06 	lds	r30, 0x06A3
    8332:	f0 91 a4 06 	lds	r31, 0x06A4
    8336:	09 95       	icall
    8338:	e0 91 4e 07 	lds	r30, 0x074E
    833c:	f0 91 4f 07 	lds	r31, 0x074F
    8340:	09 95       	icall
    8342:	e0 91 75 07 	lds	r30, 0x0775
    8346:	f0 91 76 07 	lds	r31, 0x0776
    834a:	09 95       	icall
    834c:	e0 91 51 07 	lds	r30, 0x0751
    8350:	f0 91 52 07 	lds	r31, 0x0752
    8354:	09 95       	icall
    8356:	e0 91 98 07 	lds	r30, 0x0798
    835a:	f0 91 99 07 	lds	r31, 0x0799
    835e:	09 95       	icall
    8360:	e0 91 ac 06 	lds	r30, 0x06AC
    8364:	f0 91 ad 06 	lds	r31, 0x06AD
    8368:	09 95       	icall
    836a:	e0 91 86 08 	lds	r30, 0x0886
    836e:	f0 91 87 08 	lds	r31, 0x0887
    8372:	09 95       	icall
    8374:	e0 91 26 04 	lds	r30, 0x0426
    8378:	f0 91 27 04 	lds	r31, 0x0427
    837c:	09 95       	icall
    837e:	80 91 64 00 	lds	r24, 0x0064
    8382:	88 60       	ori	r24, 0x08	; 8
    8384:	80 93 64 00 	sts	0x0064, r24
    8388:	80 91 65 00 	lds	r24, 0x0065
    838c:	88 60       	ori	r24, 0x08	; 8
    838e:	80 93 65 00 	sts	0x0065, r24
    8392:	80 ea       	ldi	r24, 0xA0	; 160
    8394:	9f e0       	ldi	r25, 0x0F	; 15
    8396:	01 97       	sbiw	r24, 0x01	; 1
    8398:	f1 f7       	brne	.-4      	; 0x8396 <InitDevices+0x9c>
    839a:	80 91 65 00 	lds	r24, 0x0065
    839e:	87 7f       	andi	r24, 0xF7	; 247
    83a0:	80 93 65 00 	sts	0x0065, r24
    83a4:	88 ee       	ldi	r24, 0xE8	; 232
    83a6:	93 e0       	ldi	r25, 0x03	; 3
    83a8:	20 e9       	ldi	r18, 0x90	; 144
    83aa:	31 e0       	ldi	r19, 0x01	; 1
    83ac:	f9 01       	movw	r30, r18
    83ae:	31 97       	sbiw	r30, 0x01	; 1
    83b0:	f1 f7       	brne	.-4      	; 0x83ae <InitDevices+0xb4>
    83b2:	01 97       	sbiw	r24, 0x01	; 1
    83b4:	d9 f7       	brne	.-10     	; 0x83ac <InitDevices+0xb2>
    83b6:	78 94       	sei
    83b8:	08 95       	ret

000083ba <ProcessingCommand>:
    83ba:	60 91 2c 04 	lds	r22, 0x042C
    83be:	70 91 2d 04 	lds	r23, 0x042D
    83c2:	e0 91 85 06 	lds	r30, 0x0685
    83c6:	f0 91 86 06 	lds	r31, 0x0686
    83ca:	8e e2       	ldi	r24, 0x2E	; 46
    83cc:	94 e0       	ldi	r25, 0x04	; 4
    83ce:	09 95       	icall
    83d0:	98 2f       	mov	r25, r24
    83d2:	80 91 80 05 	lds	r24, 0x0580
    83d6:	80 7c       	andi	r24, 0xC0	; 192
    83d8:	89 2b       	or	r24, r25
    83da:	80 93 80 05 	sts	0x0580, r24
    83de:	99 23       	and	r25, r25
    83e0:	11 f0       	breq	.+4      	; 0x83e6 <ProcessingCommand+0x2c>
    83e2:	94 31       	cpi	r25, 0x14	; 20
    83e4:	d1 f4       	brne	.+52     	; 0x841a <ProcessingCommand+0x60>
    83e6:	e0 91 59 07 	lds	r30, 0x0759
    83ea:	f0 91 5a 07 	lds	r31, 0x075A
    83ee:	83 e0       	ldi	r24, 0x03	; 3
    83f0:	09 95       	icall
    83f2:	e0 91 14 01 	lds	r30, 0x0114
    83f6:	f0 91 15 01 	lds	r31, 0x0115
    83fa:	8c e2       	ldi	r24, 0x2C	; 44
    83fc:	94 e0       	ldi	r25, 0x04	; 4
    83fe:	09 95       	icall
    8400:	81 30       	cpi	r24, 0x01	; 1
    8402:	59 f4       	brne	.+22     	; 0x841a <ProcessingCommand+0x60>
    8404:	60 91 2c 04 	lds	r22, 0x042C
    8408:	70 91 2d 04 	lds	r23, 0x042D
    840c:	e0 91 87 06 	lds	r30, 0x0687
    8410:	f0 91 88 06 	lds	r31, 0x0688
    8414:	88 ec       	ldi	r24, 0xC8	; 200
    8416:	94 e0       	ldi	r25, 0x04	; 4
    8418:	09 95       	icall
    841a:	08 95       	ret

0000841c <SystemClockTick>:
    841c:	0e 94 a9 01 	call	0x352	; 0x352 <ServeSystemClock>
    8420:	02 c0       	rjmp	.+4      	; 0x8426 <SystemClockTick+0xa>
    8422:	0e 94 dd 41 	call	0x83ba	; 0x83ba <ProcessingCommand>
    8426:	e0 91 2c 04 	lds	r30, 0x042C
    842a:	f0 91 2d 04 	lds	r31, 0x042D
    842e:	05 8c       	ldd	r0, Z+29	; 0x1d
    8430:	f6 8d       	ldd	r31, Z+30	; 0x1e
    8432:	e0 2d       	mov	r30, r0
    8434:	09 95       	icall
    8436:	88 23       	and	r24, r24
    8438:	a1 f7       	brne	.-24     	; 0x8422 <SystemClockTick+0x6>
    843a:	80 91 17 01 	lds	r24, 0x0117
    843e:	8f 5f       	subi	r24, 0xFF	; 255
    8440:	80 93 17 01 	sts	0x0117, r24
    8444:	90 91 16 01 	lds	r25, 0x0116
    8448:	99 23       	and	r25, r25
    844a:	51 f0       	breq	.+20     	; 0x8460 <SystemClockTick+0x44>
    844c:	89 17       	cp	r24, r25
    844e:	41 f4       	brne	.+16     	; 0x8460 <SystemClockTick+0x44>
    8450:	10 92 17 01 	sts	0x0117, r1
    8454:	8c e2       	ldi	r24, 0x2C	; 44
    8456:	94 e0       	ldi	r25, 0x04	; 4
    8458:	60 91 1b 01 	lds	r22, 0x011B
    845c:	0e 94 fb 01 	call	0x3f6	; 0x3f6 <GetAdcSamplingAtTimes>
    8460:	80 91 1e 01 	lds	r24, 0x011E
    8464:	8f 5f       	subi	r24, 0xFF	; 255
    8466:	80 93 1e 01 	sts	0x011E, r24
    846a:	90 91 1d 01 	lds	r25, 0x011D
    846e:	99 23       	and	r25, r25
    8470:	59 f0       	breq	.+22     	; 0x8488 <SystemClockTick+0x6c>
    8472:	89 17       	cp	r24, r25
    8474:	49 f4       	brne	.+18     	; 0x8488 <SystemClockTick+0x6c>
    8476:	81 e0       	ldi	r24, 0x01	; 1
    8478:	80 93 1e 01 	sts	0x011E, r24
    847c:	8c e2       	ldi	r24, 0x2C	; 44
    847e:	94 e0       	ldi	r25, 0x04	; 4
    8480:	60 91 22 01 	lds	r22, 0x0122
    8484:	0e 94 45 02 	call	0x48a	; 0x48a <GetAdcMultiAtTimes>
    8488:	80 91 25 01 	lds	r24, 0x0125
    848c:	8f 5f       	subi	r24, 0xFF	; 255
    848e:	80 93 25 01 	sts	0x0125, r24
    8492:	90 91 24 01 	lds	r25, 0x0124
    8496:	99 23       	and	r25, r25
    8498:	49 f0       	breq	.+18     	; 0x84ac <SystemClockTick+0x90>
    849a:	89 17       	cp	r24, r25
    849c:	39 f4       	brne	.+14     	; 0x84ac <SystemClockTick+0x90>
    849e:	81 e0       	ldi	r24, 0x01	; 1
    84a0:	80 93 25 01 	sts	0x0125, r24
    84a4:	8c e2       	ldi	r24, 0x2C	; 44
    84a6:	94 e0       	ldi	r25, 0x04	; 4
    84a8:	0e 94 d1 02 	call	0x5a2	; 0x5a2 <GetAdcAllAtTimes>
    84ac:	80 91 2c 01 	lds	r24, 0x012C
    84b0:	8f 5f       	subi	r24, 0xFF	; 255
    84b2:	80 93 2c 01 	sts	0x012C, r24
    84b6:	90 91 2b 01 	lds	r25, 0x012B
    84ba:	99 23       	and	r25, r25
    84bc:	49 f0       	breq	.+18     	; 0x84d0 <SystemClockTick+0xb4>
    84be:	89 17       	cp	r24, r25
    84c0:	39 f4       	brne	.+14     	; 0x84d0 <SystemClockTick+0xb4>
    84c2:	81 e0       	ldi	r24, 0x01	; 1
    84c4:	80 93 2c 01 	sts	0x012C, r24
    84c8:	8c e2       	ldi	r24, 0x2C	; 44
    84ca:	94 e0       	ldi	r25, 0x04	; 4
    84cc:	0e 94 2e 03 	call	0x65c	; 0x65c <GetIoInputAtTimes>
    84d0:	08 95       	ret

000084d2 <__mulsi3>:
    84d2:	62 9f       	mul	r22, r18
    84d4:	d0 01       	movw	r26, r0
    84d6:	73 9f       	mul	r23, r19
    84d8:	f0 01       	movw	r30, r0
    84da:	82 9f       	mul	r24, r18
    84dc:	e0 0d       	add	r30, r0
    84de:	f1 1d       	adc	r31, r1
    84e0:	64 9f       	mul	r22, r20
    84e2:	e0 0d       	add	r30, r0
    84e4:	f1 1d       	adc	r31, r1
    84e6:	92 9f       	mul	r25, r18
    84e8:	f0 0d       	add	r31, r0
    84ea:	83 9f       	mul	r24, r19
    84ec:	f0 0d       	add	r31, r0
    84ee:	74 9f       	mul	r23, r20
    84f0:	f0 0d       	add	r31, r0
    84f2:	65 9f       	mul	r22, r21
    84f4:	f0 0d       	add	r31, r0
    84f6:	99 27       	eor	r25, r25
    84f8:	72 9f       	mul	r23, r18
    84fa:	b0 0d       	add	r27, r0
    84fc:	e1 1d       	adc	r30, r1
    84fe:	f9 1f       	adc	r31, r25
    8500:	63 9f       	mul	r22, r19
    8502:	b0 0d       	add	r27, r0
    8504:	e1 1d       	adc	r30, r1
    8506:	f9 1f       	adc	r31, r25
    8508:	bd 01       	movw	r22, r26
    850a:	cf 01       	movw	r24, r30
    850c:	11 24       	eor	r1, r1
    850e:	08 95       	ret

00008510 <__udivmodqi4>:
    8510:	99 1b       	sub	r25, r25
    8512:	79 e0       	ldi	r23, 0x09	; 9
    8514:	04 c0       	rjmp	.+8      	; 0x851e <__udivmodqi4_ep>

00008516 <__udivmodqi4_loop>:
    8516:	99 1f       	adc	r25, r25
    8518:	96 17       	cp	r25, r22
    851a:	08 f0       	brcs	.+2      	; 0x851e <__udivmodqi4_ep>
    851c:	96 1b       	sub	r25, r22

0000851e <__udivmodqi4_ep>:
    851e:	88 1f       	adc	r24, r24
    8520:	7a 95       	dec	r23
    8522:	c9 f7       	brne	.-14     	; 0x8516 <__udivmodqi4_loop>
    8524:	80 95       	com	r24
    8526:	08 95       	ret

00008528 <__divmodhi4>:
    8528:	97 fb       	bst	r25, 7
    852a:	09 2e       	mov	r0, r25
    852c:	07 26       	eor	r0, r23
    852e:	0a d0       	rcall	.+20     	; 0x8544 <__divmodhi4_neg1>
    8530:	77 fd       	sbrc	r23, 7
    8532:	04 d0       	rcall	.+8      	; 0x853c <__divmodhi4_neg2>
    8534:	2e d0       	rcall	.+92     	; 0x8592 <__udivmodhi4>
    8536:	06 d0       	rcall	.+12     	; 0x8544 <__divmodhi4_neg1>
    8538:	00 20       	and	r0, r0
    853a:	1a f4       	brpl	.+6      	; 0x8542 <__divmodhi4_exit>

0000853c <__divmodhi4_neg2>:
    853c:	70 95       	com	r23
    853e:	61 95       	neg	r22
    8540:	7f 4f       	sbci	r23, 0xFF	; 255

00008542 <__divmodhi4_exit>:
    8542:	08 95       	ret

00008544 <__divmodhi4_neg1>:
    8544:	f6 f7       	brtc	.-4      	; 0x8542 <__divmodhi4_exit>
    8546:	90 95       	com	r25
    8548:	81 95       	neg	r24
    854a:	9f 4f       	sbci	r25, 0xFF	; 255
    854c:	08 95       	ret

0000854e <__udivmodsi4>:
    854e:	a1 e2       	ldi	r26, 0x21	; 33
    8550:	1a 2e       	mov	r1, r26
    8552:	aa 1b       	sub	r26, r26
    8554:	bb 1b       	sub	r27, r27
    8556:	fd 01       	movw	r30, r26
    8558:	0d c0       	rjmp	.+26     	; 0x8574 <__udivmodsi4_ep>

0000855a <__udivmodsi4_loop>:
    855a:	aa 1f       	adc	r26, r26
    855c:	bb 1f       	adc	r27, r27
    855e:	ee 1f       	adc	r30, r30
    8560:	ff 1f       	adc	r31, r31
    8562:	a2 17       	cp	r26, r18
    8564:	b3 07       	cpc	r27, r19
    8566:	e4 07       	cpc	r30, r20
    8568:	f5 07       	cpc	r31, r21
    856a:	20 f0       	brcs	.+8      	; 0x8574 <__udivmodsi4_ep>
    856c:	a2 1b       	sub	r26, r18
    856e:	b3 0b       	sbc	r27, r19
    8570:	e4 0b       	sbc	r30, r20
    8572:	f5 0b       	sbc	r31, r21

00008574 <__udivmodsi4_ep>:
    8574:	66 1f       	adc	r22, r22
    8576:	77 1f       	adc	r23, r23
    8578:	88 1f       	adc	r24, r24
    857a:	99 1f       	adc	r25, r25
    857c:	1a 94       	dec	r1
    857e:	69 f7       	brne	.-38     	; 0x855a <__udivmodsi4_loop>
    8580:	60 95       	com	r22
    8582:	70 95       	com	r23
    8584:	80 95       	com	r24
    8586:	90 95       	com	r25
    8588:	9b 01       	movw	r18, r22
    858a:	ac 01       	movw	r20, r24
    858c:	bd 01       	movw	r22, r26
    858e:	cf 01       	movw	r24, r30
    8590:	08 95       	ret

00008592 <__udivmodhi4>:
    8592:	aa 1b       	sub	r26, r26
    8594:	bb 1b       	sub	r27, r27
    8596:	51 e1       	ldi	r21, 0x11	; 17
    8598:	07 c0       	rjmp	.+14     	; 0x85a8 <__udivmodhi4_ep>

0000859a <__udivmodhi4_loop>:
    859a:	aa 1f       	adc	r26, r26
    859c:	bb 1f       	adc	r27, r27
    859e:	a6 17       	cp	r26, r22
    85a0:	b7 07       	cpc	r27, r23
    85a2:	10 f0       	brcs	.+4      	; 0x85a8 <__udivmodhi4_ep>
    85a4:	a6 1b       	sub	r26, r22
    85a6:	b7 0b       	sbc	r27, r23

000085a8 <__udivmodhi4_ep>:
    85a8:	88 1f       	adc	r24, r24
    85aa:	99 1f       	adc	r25, r25
    85ac:	5a 95       	dec	r21
    85ae:	a9 f7       	brne	.-22     	; 0x859a <__udivmodhi4_loop>
    85b0:	80 95       	com	r24
    85b2:	90 95       	com	r25
    85b4:	bc 01       	movw	r22, r24
    85b6:	cd 01       	movw	r24, r26
    85b8:	08 95       	ret

000085ba <malloc>:
    85ba:	cf 93       	push	r28
    85bc:	df 93       	push	r29
    85be:	bc 01       	movw	r22, r24
    85c0:	82 30       	cpi	r24, 0x02	; 2
    85c2:	91 05       	cpc	r25, r1
    85c4:	10 f4       	brcc	.+4      	; 0x85ca <malloc+0x10>
    85c6:	62 e0       	ldi	r22, 0x02	; 2
    85c8:	70 e0       	ldi	r23, 0x00	; 0
    85ca:	a0 91 2a 0d 	lds	r26, 0x0D2A
    85ce:	b0 91 2b 0d 	lds	r27, 0x0D2B
    85d2:	ed 01       	movw	r28, r26
    85d4:	e0 e0       	ldi	r30, 0x00	; 0
    85d6:	f0 e0       	ldi	r31, 0x00	; 0
    85d8:	40 e0       	ldi	r20, 0x00	; 0
    85da:	50 e0       	ldi	r21, 0x00	; 0
    85dc:	21 c0       	rjmp	.+66     	; 0x8620 <malloc+0x66>
    85de:	88 81       	ld	r24, Y
    85e0:	99 81       	ldd	r25, Y+1	; 0x01
    85e2:	86 17       	cp	r24, r22
    85e4:	97 07       	cpc	r25, r23
    85e6:	69 f4       	brne	.+26     	; 0x8602 <malloc+0x48>
    85e8:	8a 81       	ldd	r24, Y+2	; 0x02
    85ea:	9b 81       	ldd	r25, Y+3	; 0x03
    85ec:	30 97       	sbiw	r30, 0x00	; 0
    85ee:	19 f0       	breq	.+6      	; 0x85f6 <malloc+0x3c>
    85f0:	93 83       	std	Z+3, r25	; 0x03
    85f2:	82 83       	std	Z+2, r24	; 0x02
    85f4:	04 c0       	rjmp	.+8      	; 0x85fe <malloc+0x44>
    85f6:	90 93 2b 0d 	sts	0x0D2B, r25
    85fa:	80 93 2a 0d 	sts	0x0D2A, r24
    85fe:	fe 01       	movw	r30, r28
    8600:	34 c0       	rjmp	.+104    	; 0x866a <malloc+0xb0>
    8602:	68 17       	cp	r22, r24
    8604:	79 07       	cpc	r23, r25
    8606:	38 f4       	brcc	.+14     	; 0x8616 <malloc+0x5c>
    8608:	41 15       	cp	r20, r1
    860a:	51 05       	cpc	r21, r1
    860c:	19 f0       	breq	.+6      	; 0x8614 <malloc+0x5a>
    860e:	84 17       	cp	r24, r20
    8610:	95 07       	cpc	r25, r21
    8612:	08 f4       	brcc	.+2      	; 0x8616 <malloc+0x5c>
    8614:	ac 01       	movw	r20, r24
    8616:	fe 01       	movw	r30, r28
    8618:	8a 81       	ldd	r24, Y+2	; 0x02
    861a:	9b 81       	ldd	r25, Y+3	; 0x03
    861c:	9c 01       	movw	r18, r24
    861e:	e9 01       	movw	r28, r18
    8620:	20 97       	sbiw	r28, 0x00	; 0
    8622:	e9 f6       	brne	.-70     	; 0x85de <malloc+0x24>
    8624:	41 15       	cp	r20, r1
    8626:	51 05       	cpc	r21, r1
    8628:	a9 f1       	breq	.+106    	; 0x8694 <malloc+0xda>
    862a:	ca 01       	movw	r24, r20
    862c:	86 1b       	sub	r24, r22
    862e:	97 0b       	sbc	r25, r23
    8630:	04 97       	sbiw	r24, 0x04	; 4
    8632:	08 f4       	brcc	.+2      	; 0x8636 <malloc+0x7c>
    8634:	ba 01       	movw	r22, r20
    8636:	e0 e0       	ldi	r30, 0x00	; 0
    8638:	f0 e0       	ldi	r31, 0x00	; 0
    863a:	2a c0       	rjmp	.+84     	; 0x8690 <malloc+0xd6>
    863c:	8d 91       	ld	r24, X+
    863e:	9c 91       	ld	r25, X
    8640:	11 97       	sbiw	r26, 0x01	; 1
    8642:	84 17       	cp	r24, r20
    8644:	95 07       	cpc	r25, r21
    8646:	f9 f4       	brne	.+62     	; 0x8686 <malloc+0xcc>
    8648:	64 17       	cp	r22, r20
    864a:	75 07       	cpc	r23, r21
    864c:	81 f4       	brne	.+32     	; 0x866e <malloc+0xb4>
    864e:	12 96       	adiw	r26, 0x02	; 2
    8650:	8d 91       	ld	r24, X+
    8652:	9c 91       	ld	r25, X
    8654:	13 97       	sbiw	r26, 0x03	; 3
    8656:	30 97       	sbiw	r30, 0x00	; 0
    8658:	19 f0       	breq	.+6      	; 0x8660 <malloc+0xa6>
    865a:	93 83       	std	Z+3, r25	; 0x03
    865c:	82 83       	std	Z+2, r24	; 0x02
    865e:	04 c0       	rjmp	.+8      	; 0x8668 <malloc+0xae>
    8660:	90 93 2b 0d 	sts	0x0D2B, r25
    8664:	80 93 2a 0d 	sts	0x0D2A, r24
    8668:	fd 01       	movw	r30, r26
    866a:	32 96       	adiw	r30, 0x02	; 2
    866c:	4f c0       	rjmp	.+158    	; 0x870c <malloc+0x152>
    866e:	ca 01       	movw	r24, r20
    8670:	86 1b       	sub	r24, r22
    8672:	97 0b       	sbc	r25, r23
    8674:	fd 01       	movw	r30, r26
    8676:	e8 0f       	add	r30, r24
    8678:	f9 1f       	adc	r31, r25
    867a:	61 93       	st	Z+, r22
    867c:	71 93       	st	Z+, r23
    867e:	02 97       	sbiw	r24, 0x02	; 2
    8680:	8d 93       	st	X+, r24
    8682:	9c 93       	st	X, r25
    8684:	43 c0       	rjmp	.+134    	; 0x870c <malloc+0x152>
    8686:	fd 01       	movw	r30, r26
    8688:	82 81       	ldd	r24, Z+2	; 0x02
    868a:	93 81       	ldd	r25, Z+3	; 0x03
    868c:	9c 01       	movw	r18, r24
    868e:	d9 01       	movw	r26, r18
    8690:	10 97       	sbiw	r26, 0x00	; 0
    8692:	a1 f6       	brne	.-88     	; 0x863c <malloc+0x82>
    8694:	80 91 28 0d 	lds	r24, 0x0D28
    8698:	90 91 29 0d 	lds	r25, 0x0D29
    869c:	89 2b       	or	r24, r25
    869e:	41 f4       	brne	.+16     	; 0x86b0 <malloc+0xf6>
    86a0:	80 91 02 01 	lds	r24, 0x0102
    86a4:	90 91 03 01 	lds	r25, 0x0103
    86a8:	90 93 29 0d 	sts	0x0D29, r25
    86ac:	80 93 28 0d 	sts	0x0D28, r24
    86b0:	40 91 04 01 	lds	r20, 0x0104
    86b4:	50 91 05 01 	lds	r21, 0x0105
    86b8:	41 15       	cp	r20, r1
    86ba:	51 05       	cpc	r21, r1
    86bc:	41 f4       	brne	.+16     	; 0x86ce <malloc+0x114>
    86be:	4d b7       	in	r20, 0x3d	; 61
    86c0:	5e b7       	in	r21, 0x3e	; 62
    86c2:	80 91 00 01 	lds	r24, 0x0100
    86c6:	90 91 01 01 	lds	r25, 0x0101
    86ca:	48 1b       	sub	r20, r24
    86cc:	59 0b       	sbc	r21, r25
    86ce:	20 91 28 0d 	lds	r18, 0x0D28
    86d2:	30 91 29 0d 	lds	r19, 0x0D29
    86d6:	24 17       	cp	r18, r20
    86d8:	35 07       	cpc	r19, r21
    86da:	b0 f4       	brcc	.+44     	; 0x8708 <malloc+0x14e>
    86dc:	ca 01       	movw	r24, r20
    86de:	82 1b       	sub	r24, r18
    86e0:	93 0b       	sbc	r25, r19
    86e2:	86 17       	cp	r24, r22
    86e4:	97 07       	cpc	r25, r23
    86e6:	80 f0       	brcs	.+32     	; 0x8708 <malloc+0x14e>
    86e8:	ab 01       	movw	r20, r22
    86ea:	4e 5f       	subi	r20, 0xFE	; 254
    86ec:	5f 4f       	sbci	r21, 0xFF	; 255
    86ee:	84 17       	cp	r24, r20
    86f0:	95 07       	cpc	r25, r21
    86f2:	50 f0       	brcs	.+20     	; 0x8708 <malloc+0x14e>
    86f4:	42 0f       	add	r20, r18
    86f6:	53 1f       	adc	r21, r19
    86f8:	50 93 29 0d 	sts	0x0D29, r21
    86fc:	40 93 28 0d 	sts	0x0D28, r20
    8700:	f9 01       	movw	r30, r18
    8702:	61 93       	st	Z+, r22
    8704:	71 93       	st	Z+, r23
    8706:	02 c0       	rjmp	.+4      	; 0x870c <malloc+0x152>
    8708:	e0 e0       	ldi	r30, 0x00	; 0
    870a:	f0 e0       	ldi	r31, 0x00	; 0
    870c:	cf 01       	movw	r24, r30
    870e:	df 91       	pop	r29
    8710:	cf 91       	pop	r28
    8712:	08 95       	ret

00008714 <free>:
    8714:	cf 93       	push	r28
    8716:	df 93       	push	r29
    8718:	00 97       	sbiw	r24, 0x00	; 0
    871a:	09 f4       	brne	.+2      	; 0x871e <free+0xa>
    871c:	50 c0       	rjmp	.+160    	; 0x87be <free+0xaa>
    871e:	ec 01       	movw	r28, r24
    8720:	22 97       	sbiw	r28, 0x02	; 2
    8722:	1b 82       	std	Y+3, r1	; 0x03
    8724:	1a 82       	std	Y+2, r1	; 0x02
    8726:	a0 91 2a 0d 	lds	r26, 0x0D2A
    872a:	b0 91 2b 0d 	lds	r27, 0x0D2B
    872e:	10 97       	sbiw	r26, 0x00	; 0
    8730:	09 f1       	breq	.+66     	; 0x8774 <free+0x60>
    8732:	40 e0       	ldi	r20, 0x00	; 0
    8734:	50 e0       	ldi	r21, 0x00	; 0
    8736:	ac 17       	cp	r26, r28
    8738:	bd 07       	cpc	r27, r29
    873a:	08 f1       	brcs	.+66     	; 0x877e <free+0x6a>
    873c:	bb 83       	std	Y+3, r27	; 0x03
    873e:	aa 83       	std	Y+2, r26	; 0x02
    8740:	fe 01       	movw	r30, r28
    8742:	21 91       	ld	r18, Z+
    8744:	31 91       	ld	r19, Z+
    8746:	e2 0f       	add	r30, r18
    8748:	f3 1f       	adc	r31, r19
    874a:	ae 17       	cp	r26, r30
    874c:	bf 07       	cpc	r27, r31
    874e:	79 f4       	brne	.+30     	; 0x876e <free+0x5a>
    8750:	8d 91       	ld	r24, X+
    8752:	9c 91       	ld	r25, X
    8754:	11 97       	sbiw	r26, 0x01	; 1
    8756:	28 0f       	add	r18, r24
    8758:	39 1f       	adc	r19, r25
    875a:	2e 5f       	subi	r18, 0xFE	; 254
    875c:	3f 4f       	sbci	r19, 0xFF	; 255
    875e:	39 83       	std	Y+1, r19	; 0x01
    8760:	28 83       	st	Y, r18
    8762:	12 96       	adiw	r26, 0x02	; 2
    8764:	8d 91       	ld	r24, X+
    8766:	9c 91       	ld	r25, X
    8768:	13 97       	sbiw	r26, 0x03	; 3
    876a:	9b 83       	std	Y+3, r25	; 0x03
    876c:	8a 83       	std	Y+2, r24	; 0x02
    876e:	41 15       	cp	r20, r1
    8770:	51 05       	cpc	r21, r1
    8772:	71 f4       	brne	.+28     	; 0x8790 <free+0x7c>
    8774:	d0 93 2b 0d 	sts	0x0D2B, r29
    8778:	c0 93 2a 0d 	sts	0x0D2A, r28
    877c:	20 c0       	rjmp	.+64     	; 0x87be <free+0xaa>
    877e:	12 96       	adiw	r26, 0x02	; 2
    8780:	8d 91       	ld	r24, X+
    8782:	9c 91       	ld	r25, X
    8784:	13 97       	sbiw	r26, 0x03	; 3
    8786:	ad 01       	movw	r20, r26
    8788:	00 97       	sbiw	r24, 0x00	; 0
    878a:	11 f0       	breq	.+4      	; 0x8790 <free+0x7c>
    878c:	dc 01       	movw	r26, r24
    878e:	d3 cf       	rjmp	.-90     	; 0x8736 <free+0x22>
    8790:	fa 01       	movw	r30, r20
    8792:	d3 83       	std	Z+3, r29	; 0x03
    8794:	c2 83       	std	Z+2, r28	; 0x02
    8796:	21 91       	ld	r18, Z+
    8798:	31 91       	ld	r19, Z+
    879a:	e2 0f       	add	r30, r18
    879c:	f3 1f       	adc	r31, r19
    879e:	ce 17       	cp	r28, r30
    87a0:	df 07       	cpc	r29, r31
    87a2:	69 f4       	brne	.+26     	; 0x87be <free+0xaa>
    87a4:	88 81       	ld	r24, Y
    87a6:	99 81       	ldd	r25, Y+1	; 0x01
    87a8:	28 0f       	add	r18, r24
    87aa:	39 1f       	adc	r19, r25
    87ac:	2e 5f       	subi	r18, 0xFE	; 254
    87ae:	3f 4f       	sbci	r19, 0xFF	; 255
    87b0:	fa 01       	movw	r30, r20
    87b2:	31 83       	std	Z+1, r19	; 0x01
    87b4:	20 83       	st	Z, r18
    87b6:	8a 81       	ldd	r24, Y+2	; 0x02
    87b8:	9b 81       	ldd	r25, Y+3	; 0x03
    87ba:	93 83       	std	Z+3, r25	; 0x03
    87bc:	82 83       	std	Z+2, r24	; 0x02
    87be:	df 91       	pop	r29
    87c0:	cf 91       	pop	r28
    87c2:	08 95       	ret

000087c4 <_exit>:
    87c4:	f8 94       	cli

000087c6 <__stop_program>:
    87c6:	ff cf       	rjmp	.-2      	; 0x87c6 <__stop_program>
